

Microchip MPLAB XC8 Assembler V2.32 build 20210201212658 
                                                                                               Thu Jan 27 07:29:57 2022

Microchip MPLAB XC8 C Compiler v2.32 (Free license) build 20210201212658 Og1 
     1                           	processor	16F877A
     2                           	pagewidth 120
     3                           	opt	flic
     4                           	psect	strings,global,class=STRING,delta=2,noexec
     5                           	psect	cinit,global,class=CODE,merge=1,delta=2
     6                           	psect	bssBANK0,global,class=BANK0,space=1,delta=1,noexec
     7                           	psect	bssBANK1,global,class=BANK1,space=1,delta=1,noexec
     8                           	psect	cstackCOMMON,global,class=COMMON,space=1,delta=1,noexec
     9                           	psect	cstackBANK0,global,class=BANK0,space=1,delta=1,noexec
    10                           	psect	maintext,global,class=CODE,split=1,delta=2
    11                           	psect	text1,local,class=CODE,merge=1,delta=2,group=1
    12                           	psect	text2,local,class=CODE,merge=1,delta=2,group=1
    13                           	psect	text3,local,class=CODE,merge=1,delta=2
    14                           	psect	text4,local,class=CODE,merge=1,delta=2
    15                           	psect	text5,local,class=CODE,merge=1,delta=2
    16                           	psect	text6,local,class=CODE,merge=1,delta=2
    17                           	psect	text7,local,class=CODE,merge=1,delta=2
    18                           	psect	text8,local,class=CODE,merge=1,delta=2
    19                           	psect	text9,local,class=CODE,merge=1,delta=2,group=1
    20                           	psect	text10,local,class=CODE,merge=1,delta=2,group=1
    21                           	psect	text11,local,class=CODE,merge=1,delta=2,group=1
    22                           	psect	text12,local,class=CODE,merge=1,delta=2,group=1
    23                           	psect	text13,local,class=CODE,merge=1,delta=2,group=1
    24                           	psect	text14,local,class=CODE,merge=1,delta=2
    25                           	psect	text15,local,class=CODE,merge=1,delta=2
    26                           	psect	text16,local,class=CODE,merge=1,delta=2
    27                           	psect	text17,local,class=CODE,merge=1,delta=2
    28                           	psect	text18,local,class=CODE,merge=1,delta=2
    29                           	psect	text19,local,class=CODE,merge=1,delta=2
    30                           	psect	config,global,abs,ovrld,class=CONFIG,space=4,delta=2,noexec
    31                           	dabs	1,0x7E,2
    32  0000                     
    33                           ; Version 2.20
    34                           ; Generated 12/02/2020 GMT
    35                           ; 
    36                           ; Copyright © 2020, Microchip Technology Inc. and its subsidiaries ("Microchip")
    37                           ; All rights reserved.
    38                           ; 
    39                           ; This software is developed by Microchip Technology Inc. and its subsidiaries ("Microch
      +                          ip").
    40                           ; 
    41                           ; Redistribution and use in source and binary forms, with or without modification, are
    42                           ; permitted provided that the following conditions are met:
    43                           ; 
    44                           ;     1. Redistributions of source code must retain the above copyright notice, this lis
      +                          t of
    45                           ;        conditions and the following disclaimer.
    46                           ; 
    47                           ;     2. Redistributions in binary form must reproduce the above copyright notice, this 
      +                          list
    48                           ;        of conditions and the following disclaimer in the documentation and/or other
    49                           ;        materials provided with the distribution.
    50                           ; 
    51                           ;     3. Microchip's name may not be used to endorse or promote products derived from th
      +                          is
    52                           ;        software without specific prior written permission.
    53                           ; 
    54                           ; THIS SOFTWARE IS PROVIDED BY MICROCHIP "AS IS" AND ANY EXPRESS OR IMPLIED WARRANTIES,
    55                           ; INCLUDING, BUT NOT LIMITED TO, THE IMPLIED WARRANTIES OF MERCHANTABILITY AND FITNESS F
      +                          OR
    56                           ; PURPOSE ARE DISCLAIMED.  IN NO EVENT SHALL MICROCHIP BE LIABLE FOR ANY DIRECT, INDIREC
      +                          T,
    57                           ; INCIDENTAL, SPECIAL, EXEMPLARY, OR CONSEQUENTIAL DAMAGES (INCLUDING BUT NOT LIMITED TO
    58                           ; PROCUREMENT OF SUBSTITUTE GOODS OR SERVICES; LOSS OF USE, DATA OR PROFITS; OR BUSINESS
    59                           ; INTERRUPTION) HOWSOEVER CAUSED AND ON ANY THEORY OF LIABILITY, WHETHER IN CONTRACT, ST
      +                          RICT
    60                           ; LIABILITY, OR TORT (INCLUDING NEGLIGENCE OR OTHERWISE) ARISING IN ANY WAY OUT OF THE U
      +                          SE OF
    61                           ; THIS SOFTWARE, EVEN IF ADVISED OF THE POSSIBILITY OF SUCH DAMAGE.
    62                           ; 
    63                           ; 
    64                           ; Code-generator required, PIC16F877A Definitions
    65                           ; 
    66                           ; SFR Addresses
    67  0000                     	;# 
    68  0001                     	;# 
    69  0002                     	;# 
    70  0003                     	;# 
    71  0004                     	;# 
    72  0005                     	;# 
    73  0006                     	;# 
    74  0007                     	;# 
    75  0008                     	;# 
    76  0009                     	;# 
    77  000A                     	;# 
    78  000B                     	;# 
    79  000C                     	;# 
    80  000D                     	;# 
    81  000E                     	;# 
    82  000E                     	;# 
    83  000F                     	;# 
    84  0010                     	;# 
    85  0011                     	;# 
    86  0012                     	;# 
    87  0013                     	;# 
    88  0014                     	;# 
    89  0015                     	;# 
    90  0015                     	;# 
    91  0016                     	;# 
    92  0017                     	;# 
    93  0018                     	;# 
    94  0019                     	;# 
    95  001A                     	;# 
    96  001B                     	;# 
    97  001B                     	;# 
    98  001C                     	;# 
    99  001D                     	;# 
   100  001E                     	;# 
   101  001F                     	;# 
   102  0081                     	;# 
   103  0085                     	;# 
   104  0086                     	;# 
   105  0087                     	;# 
   106  0088                     	;# 
   107  0089                     	;# 
   108  008C                     	;# 
   109  008D                     	;# 
   110  008E                     	;# 
   111  0091                     	;# 
   112  0092                     	;# 
   113  0093                     	;# 
   114  0094                     	;# 
   115  0098                     	;# 
   116  0099                     	;# 
   117  009C                     	;# 
   118  009D                     	;# 
   119  009E                     	;# 
   120  009F                     	;# 
   121  010C                     	;# 
   122  010D                     	;# 
   123  010E                     	;# 
   124  010F                     	;# 
   125  018C                     	;# 
   126  018D                     	;# 
   127  0000                     	;# 
   128  0001                     	;# 
   129  0002                     	;# 
   130  0003                     	;# 
   131  0004                     	;# 
   132  0005                     	;# 
   133  0006                     	;# 
   134  0007                     	;# 
   135  0008                     	;# 
   136  0009                     	;# 
   137  000A                     	;# 
   138  000B                     	;# 
   139  000C                     	;# 
   140  000D                     	;# 
   141  000E                     	;# 
   142  000E                     	;# 
   143  000F                     	;# 
   144  0010                     	;# 
   145  0011                     	;# 
   146  0012                     	;# 
   147  0013                     	;# 
   148  0014                     	;# 
   149  0015                     	;# 
   150  0015                     	;# 
   151  0016                     	;# 
   152  0017                     	;# 
   153  0018                     	;# 
   154  0019                     	;# 
   155  001A                     	;# 
   156  001B                     	;# 
   157  001B                     	;# 
   158  001C                     	;# 
   159  001D                     	;# 
   160  001E                     	;# 
   161  001F                     	;# 
   162  0081                     	;# 
   163  0085                     	;# 
   164  0086                     	;# 
   165  0087                     	;# 
   166  0088                     	;# 
   167  0089                     	;# 
   168  008C                     	;# 
   169  008D                     	;# 
   170  008E                     	;# 
   171  0091                     	;# 
   172  0092                     	;# 
   173  0093                     	;# 
   174  0094                     	;# 
   175  0098                     	;# 
   176  0099                     	;# 
   177  009C                     	;# 
   178  009D                     	;# 
   179  009E                     	;# 
   180  009F                     	;# 
   181  010C                     	;# 
   182  010D                     	;# 
   183  010E                     	;# 
   184  010F                     	;# 
   185  018C                     	;# 
   186  018D                     	;# 
   187  0000                     	;# 
   188  0001                     	;# 
   189  0002                     	;# 
   190  0003                     	;# 
   191  0004                     	;# 
   192  0005                     	;# 
   193  0006                     	;# 
   194  0007                     	;# 
   195  0008                     	;# 
   196  0009                     	;# 
   197  000A                     	;# 
   198  000B                     	;# 
   199  000C                     	;# 
   200  000D                     	;# 
   201  000E                     	;# 
   202  000E                     	;# 
   203  000F                     	;# 
   204  0010                     	;# 
   205  0011                     	;# 
   206  0012                     	;# 
   207  0013                     	;# 
   208  0014                     	;# 
   209  0015                     	;# 
   210  0015                     	;# 
   211  0016                     	;# 
   212  0017                     	;# 
   213  0018                     	;# 
   214  0019                     	;# 
   215  001A                     	;# 
   216  001B                     	;# 
   217  001B                     	;# 
   218  001C                     	;# 
   219  001D                     	;# 
   220  001E                     	;# 
   221  001F                     	;# 
   222  0081                     	;# 
   223  0085                     	;# 
   224  0086                     	;# 
   225  0087                     	;# 
   226  0088                     	;# 
   227  0089                     	;# 
   228  008C                     	;# 
   229  008D                     	;# 
   230  008E                     	;# 
   231  0091                     	;# 
   232  0092                     	;# 
   233  0093                     	;# 
   234  0094                     	;# 
   235  0098                     	;# 
   236  0099                     	;# 
   237  009C                     	;# 
   238  009D                     	;# 
   239  009E                     	;# 
   240  009F                     	;# 
   241  010C                     	;# 
   242  010D                     	;# 
   243  010E                     	;# 
   244  010F                     	;# 
   245  018C                     	;# 
   246  018D                     	;# 
   247  0000                     	;# 
   248  0001                     	;# 
   249  0002                     	;# 
   250  0003                     	;# 
   251  0004                     	;# 
   252  0005                     	;# 
   253  0006                     	;# 
   254  0007                     	;# 
   255  0008                     	;# 
   256  0009                     	;# 
   257  000A                     	;# 
   258  000B                     	;# 
   259  000C                     	;# 
   260  000D                     	;# 
   261  000E                     	;# 
   262  000E                     	;# 
   263  000F                     	;# 
   264  0010                     	;# 
   265  0011                     	;# 
   266  0012                     	;# 
   267  0013                     	;# 
   268  0014                     	;# 
   269  0015                     	;# 
   270  0015                     	;# 
   271  0016                     	;# 
   272  0017                     	;# 
   273  0018                     	;# 
   274  0019                     	;# 
   275  001A                     	;# 
   276  001B                     	;# 
   277  001B                     	;# 
   278  001C                     	;# 
   279  001D                     	;# 
   280  001E                     	;# 
   281  001F                     	;# 
   282  0081                     	;# 
   283  0085                     	;# 
   284  0086                     	;# 
   285  0087                     	;# 
   286  0088                     	;# 
   287  0089                     	;# 
   288  008C                     	;# 
   289  008D                     	;# 
   290  008E                     	;# 
   291  0091                     	;# 
   292  0092                     	;# 
   293  0093                     	;# 
   294  0094                     	;# 
   295  0098                     	;# 
   296  0099                     	;# 
   297  009C                     	;# 
   298  009D                     	;# 
   299  009E                     	;# 
   300  009F                     	;# 
   301  010C                     	;# 
   302  010D                     	;# 
   303  010E                     	;# 
   304  010F                     	;# 
   305  018C                     	;# 
   306  018D                     	;# 
   307  0008                     _PORTDbits	set	8
   308  0010                     _T1CONbits	set	16
   309  000E                     _TMR1L	set	14
   310  000F                     _TMR1H	set	15
   311  0080                     _TMR1ON	set	128
   312  005F                     _GIE	set	95
   313  005E                     _PEIE	set	94
   314  0047                     _RD7	set	71
   315  0046                     _RD6	set	70
   316  0045                     _RD5	set	69
   317  0044                     _RD4	set	68
   318  0043                     _RD3	set	67
   319  0042                     _RD2	set	66
   320  0088                     _TRISDbits	set	136
   321  0088                     _TRISD	set	136
   322  009F                     _ADCON1	set	159
   323  0460                     _TMR1IE	set	1120
   324  0443                     _TRISD3	set	1091
   325  0442                     _TRISD2	set	1090
   326                           
   327                           	psect	strings
   328  0800                     __pstrings:
   329  0800                     stringtab:
   330  0800                     __stringtab:
   331  0800                     stringcode:	
   332                           ;	String table - string pointers are 1 byte each
   333                           
   334  0800                     stringdir:
   335  0800  3008               	movlw	high stringdir
   336  0801  008A               	movwf	10
   337  0802  0804               	movf	4,w
   338  0803  0A84               	incf	4,f
   339  0804  0782               	addwf	2,f
   340  0805                     __stringbase:
   341  0805  3400               	retlw	0
   342  0806                     __end_of__stringtab:
   343  0806                     STR_1:
   344  0806  3455               	retlw	85	;'U'
   345  0807  346C               	retlw	108	;'l'
   346  0808  3474               	retlw	116	;'t'
   347  0809  3472               	retlw	114	;'r'
   348  080A  3461               	retlw	97	;'a'
   349  080B  3473               	retlw	115	;'s'
   350  080C  346F               	retlw	111	;'o'
   351  080D  346E               	retlw	110	;'n'
   352  080E  3469               	retlw	105	;'i'
   353  080F  3463               	retlw	99	;'c'
   354  0810  3420               	retlw	32	;' '
   355  0811  3473               	retlw	115	;'s'
   356  0812  3465               	retlw	101	;'e'
   357  0813  346E               	retlw	110	;'n'
   358  0814  3473               	retlw	115	;'s'
   359  0815  346F               	retlw	111	;'o'
   360  0816  3472               	retlw	114	;'r'
   361  0817  3400               	retlw	0
   362  0818                     STR_2:
   363  0818  3477               	retlw	119	;'w'
   364  0819  3469               	retlw	105	;'i'
   365  081A  3474               	retlw	116	;'t'
   366  081B  3468               	retlw	104	;'h'
   367  081C  3420               	retlw	32	;' '
   368  081D  3450               	retlw	80	;'P'
   369  081E  3449               	retlw	73	;'I'
   370  081F  3443               	retlw	67	;'C'
   371  0820  3431               	retlw	49	;'1'
   372  0821  3436               	retlw	54	;'6'
   373  0822  3446               	retlw	70	;'F'
   374  0823  3438               	retlw	56	;'8'
   375  0824  3437               	retlw	55	;'7'
   376  0825  3437               	retlw	55	;'7'
   377  0826  3441               	retlw	65	;'A'
   378  0827  3400               	retlw	0
   379  0828                     STR_3:
   380  0828  3454               	retlw	84	;'T'
   381  0829  3469               	retlw	105	;'i'
   382  082A  346D               	retlw	109	;'m'
   383  082B  3465               	retlw	101	;'e'
   384  082C  345F               	retlw	95	;'_'
   385  082D  3474               	retlw	116	;'t'
   386  082E  3461               	retlw	97	;'a'
   387  082F  346B               	retlw	107	;'k'
   388  0830  3465               	retlw	101	;'e'
   389  0831  346E               	retlw	110	;'n'
   390  0832  343A               	retlw	58	;':'
   391  0833  3400               	retlw	0
   392  0834                     STR_4:
   393  0834  3464               	retlw	100	;'d'
   394  0835  3469               	retlw	105	;'i'
   395  0836  3473               	retlw	115	;'s'
   396  0837  3474               	retlw	116	;'t'
   397  0838  3461               	retlw	97	;'a'
   398  0839  346E               	retlw	110	;'n'
   399  083A  3463               	retlw	99	;'c'
   400  083B  3465               	retlw	101	;'e'
   401  083C  343A               	retlw	58	;':'
   402  083D  3400               	retlw	0
   403                           
   404                           	psect	cinit
   405  07EC                     start_initialization:	
   406                           ; #config settings
   407                           
   408  07EC                     __initialization:
   409                           
   410                           ; Clear objects allocated to BANK0
   411  07EC  1283               	bcf	3,5	;RP0=0, select bank0
   412  07ED  1303               	bcf	3,6	;RP1=0, select bank0
   413  07EE  01E6               	clrf	__pbssBANK0& (0+127)
   414  07EF  01E7               	clrf	(__pbssBANK0+1)& (0+127)
   415  07F0  01E8               	clrf	(__pbssBANK0+2)& (0+127)
   416  07F1  01E9               	clrf	(__pbssBANK0+3)& (0+127)
   417  07F2  01EA               	clrf	(__pbssBANK0+4)& (0+127)
   418  07F3  01EB               	clrf	(__pbssBANK0+5)& (0+127)
   419  07F4  01EC               	clrf	(__pbssBANK0+6)& (0+127)
   420  07F5  01ED               	clrf	(__pbssBANK0+7)& (0+127)
   421  07F6  01EE               	clrf	(__pbssBANK0+8)& (0+127)
   422  07F7  01EF               	clrf	(__pbssBANK0+9)& (0+127)
   423                           
   424                           ; Clear objects allocated to BANK1
   425  07F8  1683               	bsf	3,5	;RP0=1, select bank1
   426  07F9  1303               	bcf	3,6	;RP1=0, select bank1
   427  07FA  01A0               	clrf	__pbssBANK1& (0+127)
   428  07FB  01A1               	clrf	(__pbssBANK1+1)& (0+127)
   429  07FC                     end_of_initialization:	
   430                           ;End of C runtime variable initialization code
   431                           
   432  07FC                     __end_of__initialization:
   433  07FC  0183               	clrf	3
   434  07FD  120A  118A  2AA6   	ljmp	_main	;jump to C main() function
   435                           
   436                           	psect	bssBANK0
   437  0066                     __pbssBANK0:
   438  0066                     _time_taken:
   439  0066                     	ds	2
   440  0068                     _d3:
   441  0068                     	ds	1
   442  0069                     _d2:
   443  0069                     	ds	1
   444  006A                     _d1:
   445  006A                     	ds	1
   446  006B                     _t5:
   447  006B                     	ds	1
   448  006C                     _t4:
   449  006C                     	ds	1
   450  006D                     _t3:
   451  006D                     	ds	1
   452  006E                     _t2:
   453  006E                     	ds	1
   454  006F                     _t1:
   455  006F                     	ds	1
   456                           
   457                           	psect	bssBANK1
   458  00A0                     __pbssBANK1:
   459  00A0                     _distance:
   460  00A0                     	ds	2
   461                           
   462                           	psect	cstackCOMMON
   463  0070                     __pcstackCOMMON:
   464  0070                     ?_Config_Init:
   465  0070                     ?_LCD_Write_String:	
   466                           ; 1 bytes @ 0x0
   467                           
   468  0070                     ?_LCD_Clear:	
   469                           ; 1 bytes @ 0x0
   470                           
   471  0070                     ?_LCD_Write_Char:	
   472                           ; 1 bytes @ 0x0
   473                           
   474  0070                     ?_LCD_Init:	
   475                           ; 1 bytes @ 0x0
   476                           
   477  0070                     ?_HC_SR_04_Init:	
   478                           ; 1 bytes @ 0x0
   479                           
   480  0070                     ??_HC_SR_04_Init:	
   481                           ; 1 bytes @ 0x0
   482                           
   483  0070                     ?_LCD_Set_Bit:	
   484                           ; 1 bytes @ 0x0
   485                           
   486  0070                     ??_LCD_Set_Bit:	
   487                           ; 1 bytes @ 0x0
   488                           
   489  0070                     ?_LCD_Cmd:	
   490                           ; 1 bytes @ 0x0
   491                           
   492  0070                     ?_main:	
   493                           ; 1 bytes @ 0x0
   494                           
   495  0070                     ?_timer1:	
   496                           ; 1 bytes @ 0x0
   497                           
   498  0070                     ??_timer1:	
   499                           ; 1 bytes @ 0x0
   500                           
   501  0070                     ?_HC_SR_04_Time_Taken:	
   502                           ; 1 bytes @ 0x0
   503                           
   504  0070                     ?__Umul8_16:	
   505                           ; 2 bytes @ 0x0
   506                           
   507  0070                     ?___awdiv:	
   508                           ; 2 bytes @ 0x0
   509                           
   510  0070                     ?___xxtofl:	
   511                           ; 2 bytes @ 0x0
   512                           
   513  0070                     LCD_Set_Bit@Data_Bit:	
   514                           ; 4 bytes @ 0x0
   515                           
   516  0070                     __Umul8_16@multiplicand:	
   517                           ; 1 bytes @ 0x0
   518                           
   519  0070                     ___awdiv@divisor:	
   520                           ; 1 bytes @ 0x0
   521                           
   522  0070                     ___xxtofl@val:	
   523                           ; 2 bytes @ 0x0
   524                           
   525                           
   526                           ; 4 bytes @ 0x0
   527  0070                     	ds	1
   528  0071                     ??_LCD_Write_Char:
   529  0071                     ??_LCD_Cmd:	
   530                           ; 1 bytes @ 0x1
   531                           
   532                           
   533                           ; 1 bytes @ 0x1
   534  0071                     	ds	1
   535  0072                     ??_HC_SR_04_Time_Taken:
   536  0072                     ??__Umul8_16:	
   537                           ; 1 bytes @ 0x2
   538                           
   539  0072                     ___awdiv@dividend:	
   540                           ; 1 bytes @ 0x2
   541                           
   542                           
   543                           ; 2 bytes @ 0x2
   544  0072                     	ds	1
   545  0073                     LCD_Write_Char@Low4:
   546  0073                     LCD_Cmd@Cmd:	
   547                           ; 1 bytes @ 0x3
   548                           
   549  0073                     HC_SR_04_Time_Taken@time_taken_value:	
   550                           ; 1 bytes @ 0x3
   551                           
   552                           
   553                           ; 2 bytes @ 0x3
   554  0073                     	ds	1
   555  0074                     ?_LCD_Set_Cursor:
   556  0074                     ??_LCD_Clear:	
   557                           ; 1 bytes @ 0x4
   558                           
   559  0074                     ??_LCD_Init:	
   560                           ; 1 bytes @ 0x4
   561                           
   562  0074                     ??___awdiv:	
   563                           ; 1 bytes @ 0x4
   564                           
   565  0074                     ??___xxtofl:	
   566                           ; 1 bytes @ 0x4
   567                           
   568  0074                     LCD_Set_Cursor@c:	
   569                           ; 1 bytes @ 0x4
   570                           
   571  0074                     LCD_Write_Char@High4:	
   572                           ; 1 bytes @ 0x4
   573                           
   574  0074                     __Umul8_16@product:	
   575                           ; 1 bytes @ 0x4
   576                           
   577                           
   578                           ; 2 bytes @ 0x4
   579  0074                     	ds	1
   580  0075                     ??_LCD_Set_Cursor:
   581  0075                     LCD_Write_Char@Data:	
   582                           ; 1 bytes @ 0x5
   583                           
   584  0075                     ___awdiv@counter:	
   585                           ; 1 bytes @ 0x5
   586                           
   587                           
   588                           ; 1 bytes @ 0x5
   589  0075                     	ds	1
   590  0076                     ??_Config_Init:
   591  0076                     ??_LCD_Write_String:	
   592                           ; 1 bytes @ 0x6
   593                           
   594  0076                     ___awdiv@sign:	
   595                           ; 1 bytes @ 0x6
   596                           
   597  0076                     LCD_Write_String@i:	
   598                           ; 1 bytes @ 0x6
   599                           
   600  0076                     __Umul8_16@word_mpld:	
   601                           ; 2 bytes @ 0x6
   602                           
   603                           
   604                           ; 2 bytes @ 0x6
   605  0076                     	ds	1
   606  0077                     LCD_Set_Cursor@r:
   607  0077                     ___awdiv@quotient:	
   608                           ; 1 bytes @ 0x7
   609                           
   610                           
   611                           ; 2 bytes @ 0x7
   612  0077                     	ds	1
   613  0078                     LCD_Set_Cursor@Low4:
   614  0078                     LCD_Write_String@str:	
   615                           ; 1 bytes @ 0x8
   616                           
   617  0078                     __Umul8_16@multiplier:	
   618                           ; 1 bytes @ 0x8
   619                           
   620  0078                     ___xxtofl@sign:	
   621                           ; 1 bytes @ 0x8
   622                           
   623                           
   624                           ; 1 bytes @ 0x8
   625  0078                     	ds	1
   626  0079                     ?___awmod:
   627  0079                     LCD_Set_Cursor@High4:	
   628                           ; 2 bytes @ 0x9
   629                           
   630  0079                     ___xxtofl@exp:	
   631                           ; 1 bytes @ 0x9
   632                           
   633  0079                     ___awmod@divisor:	
   634                           ; 1 bytes @ 0x9
   635                           
   636                           
   637                           ; 2 bytes @ 0x9
   638  0079                     	ds	1
   639  007A                     LCD_Set_Cursor@Temp:
   640  007A                     ___xxtofl@arg:	
   641                           ; 1 bytes @ 0xA
   642                           
   643                           
   644                           ; 4 bytes @ 0xA
   645  007A                     	ds	1
   646  007B                     ___awmod@dividend:
   647                           
   648                           ; 2 bytes @ 0xB
   649  007B                     	ds	2
   650  007D                     ??___awmod:
   651                           
   652                           ; 1 bytes @ 0xD
   653  007D                     	ds	1
   654  007E                     ??_HC_SR_04_Distance:
   655                           
   656                           	psect	cstackBANK0
   657  0020                     __pcstackBANK0:	
   658                           ; 1 bytes @ 0xE
   659                           
   660  0020                     ?___flmul:
   661  0020                     ___awmod@counter:	
   662                           ; 4 bytes @ 0x0
   663                           
   664  0020                     ___flmul@b:	
   665                           ; 1 bytes @ 0x0
   666                           
   667                           
   668                           ; 4 bytes @ 0x0
   669  0020                     	ds	1
   670  0021                     ___awmod@sign:
   671                           
   672                           ; 1 bytes @ 0x1
   673  0021                     	ds	3
   674  0024                     ___flmul@a:
   675                           
   676                           ; 4 bytes @ 0x4
   677  0024                     	ds	4
   678  0028                     ??___flmul:
   679                           
   680                           ; 1 bytes @ 0x8
   681  0028                     	ds	5
   682  002D                     ___flmul@sign:
   683                           
   684                           ; 1 bytes @ 0xD
   685  002D                     	ds	1
   686  002E                     ___flmul@grs:
   687                           
   688                           ; 4 bytes @ 0xE
   689  002E                     	ds	4
   690  0032                     ___flmul@aexp:
   691                           
   692                           ; 1 bytes @ 0x12
   693  0032                     	ds	1
   694  0033                     ___flmul@bexp:
   695                           
   696                           ; 1 bytes @ 0x13
   697  0033                     	ds	1
   698  0034                     ___flmul@prod:
   699                           
   700                           ; 4 bytes @ 0x14
   701  0034                     	ds	4
   702  0038                     ___flmul@temp:
   703                           
   704                           ; 2 bytes @ 0x18
   705  0038                     	ds	2
   706  003A                     ?___fldiv:
   707  003A                     ___fldiv@a:	
   708                           ; 4 bytes @ 0x1A
   709                           
   710                           
   711                           ; 4 bytes @ 0x1A
   712  003A                     	ds	4
   713  003E                     ___fldiv@b:
   714                           
   715                           ; 4 bytes @ 0x1E
   716  003E                     	ds	4
   717  0042                     ??___fldiv:
   718                           
   719                           ; 1 bytes @ 0x22
   720  0042                     	ds	5
   721  0047                     ___fldiv@rem:
   722                           
   723                           ; 4 bytes @ 0x27
   724  0047                     	ds	4
   725  004B                     ___fldiv@sign:
   726                           
   727                           ; 1 bytes @ 0x2B
   728  004B                     	ds	1
   729  004C                     ___fldiv@new_exp:
   730                           
   731                           ; 2 bytes @ 0x2C
   732  004C                     	ds	2
   733  004E                     ___fldiv@grs:
   734                           
   735                           ; 4 bytes @ 0x2E
   736  004E                     	ds	4
   737  0052                     ___fldiv@bexp:
   738                           
   739                           ; 1 bytes @ 0x32
   740  0052                     	ds	1
   741  0053                     ___fldiv@aexp:
   742                           
   743                           ; 1 bytes @ 0x33
   744  0053                     	ds	1
   745  0054                     ?___fltol:
   746  0054                     ___fltol@f1:	
   747                           ; 4 bytes @ 0x34
   748                           
   749                           
   750                           ; 4 bytes @ 0x34
   751  0054                     	ds	4
   752  0058                     ??___fltol:
   753                           
   754                           ; 1 bytes @ 0x38
   755  0058                     	ds	5
   756  005D                     ___fltol@sign1:
   757                           
   758                           ; 1 bytes @ 0x3D
   759  005D                     	ds	1
   760  005E                     ___fltol@exp1:
   761                           
   762                           ; 1 bytes @ 0x3E
   763  005E                     	ds	1
   764  005F                     ?_HC_SR_04_Distance:
   765  005F                     HC_SR_04_Distance@time_taken_value:	
   766                           ; 2 bytes @ 0x3F
   767                           
   768                           
   769                           ; 2 bytes @ 0x3F
   770  005F                     	ds	2
   771  0061                     HC_SR_04_Distance@distance_value:
   772                           
   773                           ; 2 bytes @ 0x41
   774  0061                     	ds	2
   775  0063                     ??_main:
   776                           
   777                           ; 1 bytes @ 0x43
   778  0063                     	ds	3
   779                           
   780                           	psect	maintext
   781  02A6                     __pmaintext:	
   782 ;;
   783 ;;Main: autosize = 0, tempsize = 3, incstack = 0, save=0
   784 ;;
   785 ;; *************** function _main *****************
   786 ;; Defined at:
   787 ;;		line 42 in file "main_hs_cr_04.c"
   788 ;; Parameters:    Size  Location     Type
   789 ;;		None
   790 ;; Auto vars:     Size  Location     Type
   791 ;;		None
   792 ;; Return value:  Size  Location     Type
   793 ;;                  1    wreg      void 
   794 ;; Registers used:
   795 ;;		wreg, fsr0l, fsr0h, status,2, status,0, btemp+1, pclath, cstack
   796 ;; Tracked objects:
   797 ;;		On entry : B00/0
   798 ;;		On exit  : 0/0
   799 ;;		Unchanged: 0/0
   800 ;; Data sizes:     COMMON   BANK0   BANK1   BANK3   BANK2
   801 ;;      Params:         0       0       0       0       0
   802 ;;      Locals:         0       0       0       0       0
   803 ;;      Temps:          0       3       0       0       0
   804 ;;      Totals:         0       3       0       0       0
   805 ;;Total ram usage:        3 bytes
   806 ;; Hardware stack levels required when called: 4
   807 ;; This function calls:
   808 ;;		_Config_Init
   809 ;;		_HC_SR_04_Distance
   810 ;;		_HC_SR_04_Time_Taken
   811 ;;		_LCD_Clear
   812 ;;		_LCD_Set_Cursor
   813 ;;		_LCD_Write_Char
   814 ;;		_LCD_Write_String
   815 ;;		___awdiv
   816 ;;		___awmod
   817 ;;		___flmul
   818 ;;		___fltol
   819 ;;		___xxtofl
   820 ;; This function is called by:
   821 ;;		Startup code after reset
   822 ;; This function uses a non-reentrant model
   823 ;;
   824                           
   825                           
   826                           ;psect for function _main
   827  02A6                     _main:
   828  02A6                     l2075:	
   829                           ;incstack = 0
   830                           ; Regs used in _main: [wreg-fsr0h+status,2+status,0+btemp+1+pclath+cstack]
   831                           
   832                           
   833                           ;main_hs_cr_04.c: 43:     Config_Init();
   834  02A6  120A  158A  2499  120A  118A  	fcall	_Config_Init
   835                           
   836                           ;main_hs_cr_04.c: 45:     LCD_Set_Cursor(1,1);
   837  02AB  01F4               	clrf	LCD_Set_Cursor@c
   838  02AC  0AF4               	incf	LCD_Set_Cursor@c,f
   839  02AD  3001               	movlw	1
   840  02AE  120A  158A  2550  120A  118A  	fcall	_LCD_Set_Cursor
   841  02B3                     l2077:
   842                           
   843                           ;main_hs_cr_04.c: 46:     LCD_Write_String("Ultrasonic sensor");
   844  02B3  3001               	movlw	(low ((STR_1-__stringbase)| (0+32768)))& (0+255)
   845  02B4  120A  158A  2504  120A  118A  	fcall	_LCD_Write_String
   846  02B9                     l2079:
   847                           
   848                           ;main_hs_cr_04.c: 47:     LCD_Set_Cursor(2,1);
   849  02B9  01F4               	clrf	LCD_Set_Cursor@c
   850  02BA  0AF4               	incf	LCD_Set_Cursor@c,f
   851  02BB  3002               	movlw	2
   852  02BC  120A  158A  2550  120A  118A  	fcall	_LCD_Set_Cursor
   853                           
   854                           ;main_hs_cr_04.c: 48:     LCD_Write_String("with PIC16F877A");
   855  02C1  3013               	movlw	(low ((STR_2-__stringbase)| (0+32768)))& (0+255)
   856  02C2  120A  158A  2504  120A  118A  	fcall	_LCD_Write_String
   857  02C7                     l2081:
   858                           
   859                           ;main_hs_cr_04.c: 50:     _delay((unsigned long)((2000)*(20000000/4000.0)));
   860  02C7  3033               	movlw	51
   861  02C8  1283               	bcf	3,5	;RP0=0, select bank0
   862  02C9  1303               	bcf	3,6	;RP1=0, select bank0
   863  02CA  00E5               	movwf	??_main+2
   864  02CB  30BB               	movlw	187
   865  02CC  00E4               	movwf	??_main+1
   866  02CD  30DF               	movlw	223
   867  02CE  00E3               	movwf	??_main
   868  02CF                     u2577:
   869  02CF  0BE3               	decfsz	??_main,f
   870  02D0  2ACF               	goto	u2577
   871  02D1  0BE4               	decfsz	??_main+1,f
   872  02D2  2ACF               	goto	u2577
   873  02D3  0BE5               	decfsz	??_main+2,f
   874  02D4  2ACF               	goto	u2577
   875  02D5                     l2083:
   876                           
   877                           ;main_hs_cr_04.c: 51:     LCD_Clear();
   878  02D5  120A  158A  247E  120A  118A  	fcall	_LCD_Clear
   879  02DA                     l2085:
   880                           
   881                           ;main_hs_cr_04.c: 54:         time_taken = HC_SR_04_Time_Taken();
   882  02DA  120A  158A  24C2  120A  118A  	fcall	_HC_SR_04_Time_Taken
   883  02DF  0871               	movf	?_HC_SR_04_Time_Taken+1,w
   884  02E0  1283               	bcf	3,5	;RP0=0, select bank0
   885  02E1  1303               	bcf	3,6	;RP1=0, select bank0
   886  02E2  00E7               	movwf	_time_taken+1
   887  02E3  0870               	movf	?_HC_SR_04_Time_Taken,w
   888  02E4  00E6               	movwf	_time_taken
   889  02E5                     l2087:
   890                           
   891                           ;main_hs_cr_04.c: 55:         distance = HC_SR_04_Distance( time_taken );
   892  02E5  0867               	movf	_time_taken+1,w
   893  02E6  00E0               	movwf	HC_SR_04_Distance@time_taken_value+1
   894  02E7  0866               	movf	_time_taken,w
   895  02E8  00DF               	movwf	HC_SR_04_Distance@time_taken_value
   896  02E9  120A  158A  25F5  120A  118A  	fcall	_HC_SR_04_Distance
   897  02EE  1283               	bcf	3,5	;RP0=0, select bank0
   898  02EF  1303               	bcf	3,6	;RP1=0, select bank0
   899  02F0  0860               	movf	?_HC_SR_04_Distance+1,w
   900  02F1  1683               	bsf	3,5	;RP0=1, select bank1
   901  02F2  1303               	bcf	3,6	;RP1=0, select bank1
   902  02F3  00A1               	movwf	(_distance+1)^(0+128)
   903  02F4  1283               	bcf	3,5	;RP0=0, select bank0
   904  02F5  1303               	bcf	3,6	;RP1=0, select bank0
   905  02F6  085F               	movf	?_HC_SR_04_Distance,w
   906  02F7  1683               	bsf	3,5	;RP0=1, select bank1
   907  02F8  1303               	bcf	3,6	;RP1=0, select bank1
   908  02F9  00A0               	movwf	_distance^(0+128)
   909  02FA                     l2089:
   910                           
   911                           ;main_hs_cr_04.c: 56:         time_taken = time_taken * 0.8;
   912  02FA  1283               	bcf	3,5	;RP0=0, select bank0
   913  02FB  1303               	bcf	3,6	;RP1=0, select bank0
   914  02FC  0866               	movf	_time_taken,w
   915  02FD  00F0               	movwf	___xxtofl@val
   916  02FE  0867               	movf	_time_taken+1,w
   917  02FF  00F1               	movwf	___xxtofl@val+1
   918  0300  3000               	movlw	0
   919  0301  1BF1               	btfsc	___xxtofl@val+1,7
   920  0302  30FF               	movlw	255
   921  0303  00F2               	movwf	___xxtofl@val+2
   922  0304  00F3               	movwf	___xxtofl@val+3
   923  0305  3001               	movlw	1
   924  0306  120A  118A  200F  120A  118A  	fcall	___xxtofl
   925  030B  0873               	movf	?___xxtofl+3,w
   926  030C  1283               	bcf	3,5	;RP0=0, select bank0
   927  030D  1303               	bcf	3,6	;RP1=0, select bank0
   928  030E  00A7               	movwf	___flmul@a+3
   929  030F  0872               	movf	?___xxtofl+2,w
   930  0310  00A6               	movwf	___flmul@a+2
   931  0311  0871               	movf	?___xxtofl+1,w
   932  0312  00A5               	movwf	___flmul@a+1
   933  0313  0870               	movf	?___xxtofl,w
   934  0314  00A4               	movwf	___flmul@a
   935  0315  303F               	movlw	63
   936  0316  00A3               	movwf	___flmul@b+3
   937  0317  304C               	movlw	76
   938  0318  00A2               	movwf	___flmul@b+2
   939  0319  30CC               	movlw	204
   940  031A  00A1               	movwf	___flmul@b+1
   941  031B  30CD               	movlw	205
   942  031C  00A0               	movwf	___flmul@b
   943  031D  120A  118A  248B  120A  118A  	fcall	___flmul
   944  0322  1283               	bcf	3,5	;RP0=0, select bank0
   945  0323  1303               	bcf	3,6	;RP1=0, select bank0
   946  0324  0823               	movf	?___flmul+3,w
   947  0325  00D7               	movwf	___fltol@f1+3
   948  0326  0822               	movf	?___flmul+2,w
   949  0327  00D6               	movwf	___fltol@f1+2
   950  0328  0821               	movf	?___flmul+1,w
   951  0329  00D5               	movwf	___fltol@f1+1
   952  032A  0820               	movf	?___flmul,w
   953  032B  00D4               	movwf	___fltol@f1
   954  032C  120A  158A  2784  120A  118A  	fcall	___fltol
   955  0331  1283               	bcf	3,5	;RP0=0, select bank0
   956  0332  1303               	bcf	3,6	;RP1=0, select bank0
   957  0333  0855               	movf	?___fltol+1,w
   958  0334  00E7               	movwf	_time_taken+1
   959  0335  0854               	movf	?___fltol,w
   960  0336  00E6               	movwf	_time_taken
   961  0337                     l2091:
   962                           
   963                           ;main_hs_cr_04.c: 58:         t1 = (time_taken/1000)%10;
   964  0337  300A               	movlw	10
   965  0338  00F9               	movwf	___awmod@divisor
   966  0339  3000               	movlw	0
   967  033A  00FA               	movwf	___awmod@divisor+1
   968  033B  30E8               	movlw	232
   969  033C  00F0               	movwf	___awdiv@divisor
   970  033D  3003               	movlw	3
   971  033E  00F1               	movwf	___awdiv@divisor+1
   972  033F  0867               	movf	_time_taken+1,w
   973  0340  00F3               	movwf	___awdiv@dividend+1
   974  0341  0866               	movf	_time_taken,w
   975  0342  00F2               	movwf	___awdiv@dividend
   976  0343  120A  158A  26A9  120A  118A  	fcall	___awdiv
   977  0348  0871               	movf	?___awdiv+1,w
   978  0349  00FC               	movwf	___awmod@dividend+1
   979  034A  0870               	movf	?___awdiv,w
   980  034B  00FB               	movwf	___awmod@dividend
   981  034C  120A  158A  264E  120A  118A  	fcall	___awmod
   982  0351  0879               	movf	?___awmod,w
   983  0352  1283               	bcf	3,5	;RP0=0, select bank0
   984  0353  1303               	bcf	3,6	;RP1=0, select bank0
   985  0354  00E3               	movwf	??_main
   986  0355  0863               	movf	??_main,w
   987  0356  00EF               	movwf	_t1
   988  0357                     l2093:
   989                           
   990                           ;main_hs_cr_04.c: 59:         t2 = (time_taken/1000)%10;
   991  0357  300A               	movlw	10
   992  0358  00F9               	movwf	___awmod@divisor
   993  0359  3000               	movlw	0
   994  035A  00FA               	movwf	___awmod@divisor+1
   995  035B  30E8               	movlw	232
   996  035C  00F0               	movwf	___awdiv@divisor
   997  035D  3003               	movlw	3
   998  035E  00F1               	movwf	___awdiv@divisor+1
   999  035F  0867               	movf	_time_taken+1,w
  1000  0360  00F3               	movwf	___awdiv@dividend+1
  1001  0361  0866               	movf	_time_taken,w
  1002  0362  00F2               	movwf	___awdiv@dividend
  1003  0363  120A  158A  26A9  120A  118A  	fcall	___awdiv
  1004  0368  0871               	movf	?___awdiv+1,w
  1005  0369  00FC               	movwf	___awmod@dividend+1
  1006  036A  0870               	movf	?___awdiv,w
  1007  036B  00FB               	movwf	___awmod@dividend
  1008  036C  120A  158A  264E  120A  118A  	fcall	___awmod
  1009  0371  0879               	movf	?___awmod,w
  1010  0372  1283               	bcf	3,5	;RP0=0, select bank0
  1011  0373  1303               	bcf	3,6	;RP1=0, select bank0
  1012  0374  00E3               	movwf	??_main
  1013  0375  0863               	movf	??_main,w
  1014  0376  00EE               	movwf	_t2
  1015  0377                     l2095:
  1016                           
  1017                           ;main_hs_cr_04.c: 60:         t3 = (time_taken/100)%10;
  1018  0377  300A               	movlw	10
  1019  0378  00F9               	movwf	___awmod@divisor
  1020  0379  3000               	movlw	0
  1021  037A  00FA               	movwf	___awmod@divisor+1
  1022  037B  3064               	movlw	100
  1023  037C  00F0               	movwf	___awdiv@divisor
  1024  037D  3000               	movlw	0
  1025  037E  00F1               	movwf	___awdiv@divisor+1
  1026  037F  0867               	movf	_time_taken+1,w
  1027  0380  00F3               	movwf	___awdiv@dividend+1
  1028  0381  0866               	movf	_time_taken,w
  1029  0382  00F2               	movwf	___awdiv@dividend
  1030  0383  120A  158A  26A9  120A  118A  	fcall	___awdiv
  1031  0388  0871               	movf	?___awdiv+1,w
  1032  0389  00FC               	movwf	___awmod@dividend+1
  1033  038A  0870               	movf	?___awdiv,w
  1034  038B  00FB               	movwf	___awmod@dividend
  1035  038C  120A  158A  264E  120A  118A  	fcall	___awmod
  1036  0391  0879               	movf	?___awmod,w
  1037  0392  1283               	bcf	3,5	;RP0=0, select bank0
  1038  0393  1303               	bcf	3,6	;RP1=0, select bank0
  1039  0394  00E3               	movwf	??_main
  1040  0395  0863               	movf	??_main,w
  1041  0396  00ED               	movwf	_t3
  1042  0397                     l2097:
  1043                           
  1044                           ;main_hs_cr_04.c: 61:         t4 = (time_taken/10)%10;
  1045  0397  300A               	movlw	10
  1046  0398  00F9               	movwf	___awmod@divisor
  1047  0399  3000               	movlw	0
  1048  039A  00FA               	movwf	___awmod@divisor+1
  1049  039B  300A               	movlw	10
  1050  039C  00F0               	movwf	___awdiv@divisor
  1051  039D  3000               	movlw	0
  1052  039E  00F1               	movwf	___awdiv@divisor+1
  1053  039F  0867               	movf	_time_taken+1,w
  1054  03A0  00F3               	movwf	___awdiv@dividend+1
  1055  03A1  0866               	movf	_time_taken,w
  1056  03A2  00F2               	movwf	___awdiv@dividend
  1057  03A3  120A  158A  26A9  120A  118A  	fcall	___awdiv
  1058  03A8  0871               	movf	?___awdiv+1,w
  1059  03A9  00FC               	movwf	___awmod@dividend+1
  1060  03AA  0870               	movf	?___awdiv,w
  1061  03AB  00FB               	movwf	___awmod@dividend
  1062  03AC  120A  158A  264E  120A  118A  	fcall	___awmod
  1063  03B1  0879               	movf	?___awmod,w
  1064  03B2  1283               	bcf	3,5	;RP0=0, select bank0
  1065  03B3  1303               	bcf	3,6	;RP1=0, select bank0
  1066  03B4  00E3               	movwf	??_main
  1067  03B5  0863               	movf	??_main,w
  1068  03B6  00EC               	movwf	_t4
  1069  03B7                     l2099:
  1070                           
  1071                           ;main_hs_cr_04.c: 62:         t5 = (time_taken/1)%10;
  1072  03B7  300A               	movlw	10
  1073  03B8  00F9               	movwf	___awmod@divisor
  1074  03B9  3000               	movlw	0
  1075  03BA  00FA               	movwf	___awmod@divisor+1
  1076  03BB  0867               	movf	_time_taken+1,w
  1077  03BC  00FC               	movwf	___awmod@dividend+1
  1078  03BD  0866               	movf	_time_taken,w
  1079  03BE  00FB               	movwf	___awmod@dividend
  1080  03BF  120A  158A  264E  120A  118A  	fcall	___awmod
  1081  03C4  0879               	movf	?___awmod,w
  1082  03C5  1283               	bcf	3,5	;RP0=0, select bank0
  1083  03C6  1303               	bcf	3,6	;RP1=0, select bank0
  1084  03C7  00E3               	movwf	??_main
  1085  03C8  0863               	movf	??_main,w
  1086  03C9  00EB               	movwf	_t5
  1087  03CA                     l2101:
  1088                           
  1089                           ;main_hs_cr_04.c: 63:         d1 = (distance/100)%10;
  1090  03CA  300A               	movlw	10
  1091  03CB  00F9               	movwf	___awmod@divisor
  1092  03CC  3000               	movlw	0
  1093  03CD  00FA               	movwf	___awmod@divisor+1
  1094  03CE  3064               	movlw	100
  1095  03CF  00F0               	movwf	___awdiv@divisor
  1096  03D0  3000               	movlw	0
  1097  03D1  00F1               	movwf	___awdiv@divisor+1
  1098  03D2  1683               	bsf	3,5	;RP0=1, select bank1
  1099  03D3  1303               	bcf	3,6	;RP1=0, select bank1
  1100  03D4  0821               	movf	(_distance+1)^(0+128),w
  1101  03D5  00F3               	movwf	___awdiv@dividend+1
  1102  03D6  0820               	movf	_distance^(0+128),w
  1103  03D7  00F2               	movwf	___awdiv@dividend
  1104  03D8  120A  158A  26A9  120A  118A  	fcall	___awdiv
  1105  03DD  0871               	movf	?___awdiv+1,w
  1106  03DE  00FC               	movwf	___awmod@dividend+1
  1107  03DF  0870               	movf	?___awdiv,w
  1108  03E0  00FB               	movwf	___awmod@dividend
  1109  03E1  120A  158A  264E  120A  118A  	fcall	___awmod
  1110  03E6  0879               	movf	?___awmod,w
  1111  03E7  1283               	bcf	3,5	;RP0=0, select bank0
  1112  03E8  1303               	bcf	3,6	;RP1=0, select bank0
  1113  03E9  00E3               	movwf	??_main
  1114  03EA  0863               	movf	??_main,w
  1115  03EB  00EA               	movwf	_d1
  1116  03EC                     l2103:
  1117                           
  1118                           ;main_hs_cr_04.c: 64:         d2 = (distance/10)%10;
  1119  03EC  300A               	movlw	10
  1120  03ED  00F9               	movwf	___awmod@divisor
  1121  03EE  3000               	movlw	0
  1122  03EF  00FA               	movwf	___awmod@divisor+1
  1123  03F0  300A               	movlw	10
  1124  03F1  00F0               	movwf	___awdiv@divisor
  1125  03F2  3000               	movlw	0
  1126  03F3  00F1               	movwf	___awdiv@divisor+1
  1127  03F4  1683               	bsf	3,5	;RP0=1, select bank1
  1128  03F5  1303               	bcf	3,6	;RP1=0, select bank1
  1129  03F6  0821               	movf	(_distance+1)^(0+128),w
  1130  03F7  00F3               	movwf	___awdiv@dividend+1
  1131  03F8  0820               	movf	_distance^(0+128),w
  1132  03F9  00F2               	movwf	___awdiv@dividend
  1133  03FA  120A  158A  26A9  120A  118A  	fcall	___awdiv
  1134  03FF  0871               	movf	?___awdiv+1,w
  1135  0400  00FC               	movwf	___awmod@dividend+1
  1136  0401  0870               	movf	?___awdiv,w
  1137  0402  00FB               	movwf	___awmod@dividend
  1138  0403  120A  158A  264E  120A  118A  	fcall	___awmod
  1139  0408  0879               	movf	?___awmod,w
  1140  0409  1283               	bcf	3,5	;RP0=0, select bank0
  1141  040A  1303               	bcf	3,6	;RP1=0, select bank0
  1142  040B  00E3               	movwf	??_main
  1143  040C  0863               	movf	??_main,w
  1144  040D  00E9               	movwf	_d2
  1145  040E                     l2105:
  1146                           
  1147                           ;main_hs_cr_04.c: 65:         d3 = (distance/1)%10;
  1148  040E  300A               	movlw	10
  1149  040F  00F9               	movwf	___awmod@divisor
  1150  0410  3000               	movlw	0
  1151  0411  00FA               	movwf	___awmod@divisor+1
  1152  0412  1683               	bsf	3,5	;RP0=1, select bank1
  1153  0413  1303               	bcf	3,6	;RP1=0, select bank1
  1154  0414  0821               	movf	(_distance+1)^(0+128),w
  1155  0415  00FC               	movwf	___awmod@dividend+1
  1156  0416  0820               	movf	_distance^(0+128),w
  1157  0417  00FB               	movwf	___awmod@dividend
  1158  0418  120A  158A  264E  120A  118A  	fcall	___awmod
  1159  041D  0879               	movf	?___awmod,w
  1160  041E  1283               	bcf	3,5	;RP0=0, select bank0
  1161  041F  1303               	bcf	3,6	;RP1=0, select bank0
  1162  0420  00E3               	movwf	??_main
  1163  0421  0863               	movf	??_main,w
  1164  0422  00E8               	movwf	_d3
  1165  0423                     l2107:
  1166                           
  1167                           ;main_hs_cr_04.c: 67:         LCD_Set_Cursor(1,1);
  1168  0423  01F4               	clrf	LCD_Set_Cursor@c
  1169  0424  0AF4               	incf	LCD_Set_Cursor@c,f
  1170  0425  3001               	movlw	1
  1171  0426  120A  158A  2550  120A  118A  	fcall	_LCD_Set_Cursor
  1172  042B                     l2109:
  1173                           
  1174                           ;main_hs_cr_04.c: 68:         LCD_Write_String("Time_taken:");
  1175  042B  3023               	movlw	(low ((STR_3-__stringbase)| (0+32768)))& (0+255)
  1176  042C  120A  158A  2504  120A  118A  	fcall	_LCD_Write_String
  1177  0431                     l2111:
  1178                           
  1179                           ;main_hs_cr_04.c: 69:         LCD_Write_Char(t1+'0');
  1180  0431  1283               	bcf	3,5	;RP0=0, select bank0
  1181  0432  1303               	bcf	3,6	;RP1=0, select bank0
  1182  0433  086F               	movf	_t1,w
  1183  0434  3E30               	addlw	48
  1184  0435  120A  158A  25A2  120A  118A  	fcall	_LCD_Write_Char
  1185  043A                     l2113:
  1186                           
  1187                           ;main_hs_cr_04.c: 70:         LCD_Write_Char(t2+'0');
  1188  043A  1283               	bcf	3,5	;RP0=0, select bank0
  1189  043B  1303               	bcf	3,6	;RP1=0, select bank0
  1190  043C  086E               	movf	_t2,w
  1191  043D  3E30               	addlw	48
  1192  043E  120A  158A  25A2  120A  118A  	fcall	_LCD_Write_Char
  1193  0443                     l2115:
  1194                           
  1195                           ;main_hs_cr_04.c: 71:         LCD_Write_Char(t3+'0');
  1196  0443  1283               	bcf	3,5	;RP0=0, select bank0
  1197  0444  1303               	bcf	3,6	;RP1=0, select bank0
  1198  0445  086D               	movf	_t3,w
  1199  0446  3E30               	addlw	48
  1200  0447  120A  158A  25A2  120A  118A  	fcall	_LCD_Write_Char
  1201  044C                     l2117:
  1202                           
  1203                           ;main_hs_cr_04.c: 72:         LCD_Write_Char(t4+'0');
  1204  044C  1283               	bcf	3,5	;RP0=0, select bank0
  1205  044D  1303               	bcf	3,6	;RP1=0, select bank0
  1206  044E  086C               	movf	_t4,w
  1207  044F  3E30               	addlw	48
  1208  0450  120A  158A  25A2  120A  118A  	fcall	_LCD_Write_Char
  1209  0455                     l2119:
  1210                           
  1211                           ;main_hs_cr_04.c: 73:         LCD_Write_Char(t5+'0');
  1212  0455  1283               	bcf	3,5	;RP0=0, select bank0
  1213  0456  1303               	bcf	3,6	;RP1=0, select bank0
  1214  0457  086B               	movf	_t5,w
  1215  0458  3E30               	addlw	48
  1216  0459  120A  158A  25A2  120A  118A  	fcall	_LCD_Write_Char
  1217  045E                     l2121:
  1218                           
  1219                           ;main_hs_cr_04.c: 75:         LCD_Set_Cursor(2,1);
  1220  045E  01F4               	clrf	LCD_Set_Cursor@c
  1221  045F  0AF4               	incf	LCD_Set_Cursor@c,f
  1222  0460  3002               	movlw	2
  1223  0461  120A  158A  2550  120A  118A  	fcall	_LCD_Set_Cursor
  1224  0466                     l2123:
  1225                           
  1226                           ;main_hs_cr_04.c: 76:         LCD_Write_String("distance:");
  1227  0466  302F               	movlw	(low ((STR_4-__stringbase)| (0+32768)))& (0+255)
  1228  0467  120A  158A  2504  120A  118A  	fcall	_LCD_Write_String
  1229  046C                     l2125:
  1230                           
  1231                           ;main_hs_cr_04.c: 77:         LCD_Write_Char(d1+'0');
  1232  046C  1283               	bcf	3,5	;RP0=0, select bank0
  1233  046D  1303               	bcf	3,6	;RP1=0, select bank0
  1234  046E  086A               	movf	_d1,w
  1235  046F  3E30               	addlw	48
  1236  0470  120A  158A  25A2  120A  118A  	fcall	_LCD_Write_Char
  1237  0475                     l2127:
  1238                           
  1239                           ;main_hs_cr_04.c: 78:         LCD_Write_Char(d2+'0');
  1240  0475  1283               	bcf	3,5	;RP0=0, select bank0
  1241  0476  1303               	bcf	3,6	;RP1=0, select bank0
  1242  0477  0869               	movf	_d2,w
  1243  0478  3E30               	addlw	48
  1244  0479  120A  158A  25A2  120A  118A  	fcall	_LCD_Write_Char
  1245  047E                     l2129:
  1246                           
  1247                           ;main_hs_cr_04.c: 79:         LCD_Write_Char(d3+'0');
  1248  047E  1283               	bcf	3,5	;RP0=0, select bank0
  1249  047F  1303               	bcf	3,6	;RP1=0, select bank0
  1250  0480  0868               	movf	_d3,w
  1251  0481  3E30               	addlw	48
  1252  0482  120A  158A  25A2  120A  118A  	fcall	_LCD_Write_Char
  1253  0487  2ADA               	goto	l2085
  1254  0488  120A  118A  2800   	ljmp	start
  1255  048B                     __end_of_main:
  1256                           
  1257                           	psect	text1
  1258  0E4E                     __ptext1:	
  1259 ;; *************** function ___awmod *****************
  1260 ;; Defined at:
  1261 ;;		line 5 in file "C:\Program Files\Microchip\xc8\v2.32\pic\sources\c90\common\awmod.c"
  1262 ;; Parameters:    Size  Location     Type
  1263 ;;  divisor         2    9[COMMON] int 
  1264 ;;  dividend        2   11[COMMON] int 
  1265 ;; Auto vars:     Size  Location     Type
  1266 ;;  sign            1    1[BANK0 ] unsigned char 
  1267 ;;  counter         1    0[BANK0 ] unsigned char 
  1268 ;; Return value:  Size  Location     Type
  1269 ;;                  2    9[COMMON] int 
  1270 ;; Registers used:
  1271 ;;		wreg, status,2, status,0
  1272 ;; Tracked objects:
  1273 ;;		On entry : 0/0
  1274 ;;		On exit  : 0/0
  1275 ;;		Unchanged: 0/0
  1276 ;; Data sizes:     COMMON   BANK0   BANK1   BANK3   BANK2
  1277 ;;      Params:         4       0       0       0       0
  1278 ;;      Locals:         0       2       0       0       0
  1279 ;;      Temps:          1       0       0       0       0
  1280 ;;      Totals:         5       2       0       0       0
  1281 ;;Total ram usage:        7 bytes
  1282 ;; Hardware stack levels used: 1
  1283 ;; This function calls:
  1284 ;;		Nothing
  1285 ;; This function is called by:
  1286 ;;		_main
  1287 ;; This function uses a non-reentrant model
  1288 ;;
  1289                           
  1290                           
  1291                           ;psect for function ___awmod
  1292  0E4E                     ___awmod:
  1293  0E4E                     l2037:	
  1294                           ;incstack = 0
  1295                           ; Regs used in ___awmod: [wreg+status,2+status,0]
  1296                           
  1297  0E4E  1283               	bcf	3,5	;RP0=0, select bank0
  1298  0E4F  1303               	bcf	3,6	;RP1=0, select bank0
  1299  0E50  01A1               	clrf	___awmod@sign
  1300  0E51                     l2039:
  1301  0E51  1FFC               	btfss	___awmod@dividend+1,7
  1302  0E52  2E54               	goto	u2441
  1303  0E53  2E55               	goto	u2440
  1304  0E54                     u2441:
  1305  0E54  2E5C               	goto	l2045
  1306  0E55                     u2440:
  1307  0E55                     l2041:
  1308  0E55  09FB               	comf	___awmod@dividend,f
  1309  0E56  09FC               	comf	___awmod@dividend+1,f
  1310  0E57  0AFB               	incf	___awmod@dividend,f
  1311  0E58  1903               	skipnz
  1312  0E59  0AFC               	incf	___awmod@dividend+1,f
  1313  0E5A                     l2043:
  1314  0E5A  01A1               	clrf	___awmod@sign
  1315  0E5B  0AA1               	incf	___awmod@sign,f
  1316  0E5C                     l2045:
  1317  0E5C  1FFA               	btfss	___awmod@divisor+1,7
  1318  0E5D  2E5F               	goto	u2451
  1319  0E5E  2E60               	goto	u2450
  1320  0E5F                     u2451:
  1321  0E5F  2E65               	goto	l2049
  1322  0E60                     u2450:
  1323  0E60                     l2047:
  1324  0E60  09F9               	comf	___awmod@divisor,f
  1325  0E61  09FA               	comf	___awmod@divisor+1,f
  1326  0E62  0AF9               	incf	___awmod@divisor,f
  1327  0E63  1903               	skipnz
  1328  0E64  0AFA               	incf	___awmod@divisor+1,f
  1329  0E65                     l2049:
  1330  0E65  0879               	movf	___awmod@divisor,w
  1331  0E66  047A               	iorwf	___awmod@divisor+1,w
  1332  0E67  1903               	btfsc	3,2
  1333  0E68  2E6A               	goto	u2461
  1334  0E69  2E6B               	goto	u2460
  1335  0E6A                     u2461:
  1336  0E6A  2E9A               	goto	l2067
  1337  0E6B                     u2460:
  1338  0E6B                     l2051:
  1339  0E6B  01A0               	clrf	___awmod@counter
  1340  0E6C  0AA0               	incf	___awmod@counter,f
  1341  0E6D  2E79               	goto	l2057
  1342  0E6E                     l2053:
  1343  0E6E  3001               	movlw	1
  1344  0E6F                     u2475:
  1345  0E6F  1003               	clrc
  1346  0E70  0DF9               	rlf	___awmod@divisor,f
  1347  0E71  0DFA               	rlf	___awmod@divisor+1,f
  1348  0E72  3EFF               	addlw	-1
  1349  0E73  1D03               	skipz
  1350  0E74  2E6F               	goto	u2475
  1351  0E75                     l2055:
  1352  0E75  3001               	movlw	1
  1353  0E76  00FD               	movwf	??___awmod
  1354  0E77  087D               	movf	??___awmod,w
  1355  0E78  07A0               	addwf	___awmod@counter,f
  1356  0E79                     l2057:
  1357  0E79  1FFA               	btfss	___awmod@divisor+1,7
  1358  0E7A  2E7C               	goto	u2481
  1359  0E7B  2E7D               	goto	u2480
  1360  0E7C                     u2481:
  1361  0E7C  2E6E               	goto	l2053
  1362  0E7D                     u2480:
  1363  0E7D                     l2059:
  1364  0E7D  087A               	movf	___awmod@divisor+1,w
  1365  0E7E  027C               	subwf	___awmod@dividend+1,w
  1366  0E7F  1D03               	skipz
  1367  0E80  2E83               	goto	u2495
  1368  0E81  0879               	movf	___awmod@divisor,w
  1369  0E82  027B               	subwf	___awmod@dividend,w
  1370  0E83                     u2495:
  1371  0E83  1C03               	skipc
  1372  0E84  2E86               	goto	u2491
  1373  0E85  2E87               	goto	u2490
  1374  0E86                     u2491:
  1375  0E86  2E8D               	goto	l2063
  1376  0E87                     u2490:
  1377  0E87                     l2061:
  1378  0E87  0879               	movf	___awmod@divisor,w
  1379  0E88  02FB               	subwf	___awmod@dividend,f
  1380  0E89  087A               	movf	___awmod@divisor+1,w
  1381  0E8A  1C03               	skipc
  1382  0E8B  03FC               	decf	___awmod@dividend+1,f
  1383  0E8C  02FC               	subwf	___awmod@dividend+1,f
  1384  0E8D                     l2063:
  1385  0E8D  3001               	movlw	1
  1386  0E8E                     u2505:
  1387  0E8E  1003               	clrc
  1388  0E8F  0CFA               	rrf	___awmod@divisor+1,f
  1389  0E90  0CF9               	rrf	___awmod@divisor,f
  1390  0E91  3EFF               	addlw	-1
  1391  0E92  1D03               	skipz
  1392  0E93  2E8E               	goto	u2505
  1393  0E94                     l2065:
  1394  0E94  3001               	movlw	1
  1395  0E95  02A0               	subwf	___awmod@counter,f
  1396  0E96  1D03               	btfss	3,2
  1397  0E97  2E99               	goto	u2511
  1398  0E98  2E9A               	goto	u2510
  1399  0E99                     u2511:
  1400  0E99  2E7D               	goto	l2059
  1401  0E9A                     u2510:
  1402  0E9A                     l2067:
  1403  0E9A  0821               	movf	___awmod@sign,w
  1404  0E9B  1903               	btfsc	3,2
  1405  0E9C  2E9E               	goto	u2521
  1406  0E9D  2E9F               	goto	u2520
  1407  0E9E                     u2521:
  1408  0E9E  2EA4               	goto	l2071
  1409  0E9F                     u2520:
  1410  0E9F                     l2069:
  1411  0E9F  09FB               	comf	___awmod@dividend,f
  1412  0EA0  09FC               	comf	___awmod@dividend+1,f
  1413  0EA1  0AFB               	incf	___awmod@dividend,f
  1414  0EA2  1903               	skipnz
  1415  0EA3  0AFC               	incf	___awmod@dividend+1,f
  1416  0EA4                     l2071:
  1417  0EA4  087C               	movf	___awmod@dividend+1,w
  1418  0EA5  00FA               	movwf	?___awmod+1
  1419  0EA6  087B               	movf	___awmod@dividend,w
  1420  0EA7  00F9               	movwf	?___awmod
  1421  0EA8                     l419:
  1422  0EA8  0008               	return
  1423  0EA9                     __end_of___awmod:
  1424                           
  1425                           	psect	text2
  1426  0EA9                     __ptext2:	
  1427 ;; *************** function ___awdiv *****************
  1428 ;; Defined at:
  1429 ;;		line 5 in file "C:\Program Files\Microchip\xc8\v2.32\pic\sources\c90\common\awdiv.c"
  1430 ;; Parameters:    Size  Location     Type
  1431 ;;  divisor         2    0[COMMON] int 
  1432 ;;  dividend        2    2[COMMON] int 
  1433 ;; Auto vars:     Size  Location     Type
  1434 ;;  quotient        2    7[COMMON] int 
  1435 ;;  sign            1    6[COMMON] unsigned char 
  1436 ;;  counter         1    5[COMMON] unsigned char 
  1437 ;; Return value:  Size  Location     Type
  1438 ;;                  2    0[COMMON] int 
  1439 ;; Registers used:
  1440 ;;		wreg, status,2, status,0
  1441 ;; Tracked objects:
  1442 ;;		On entry : 0/0
  1443 ;;		On exit  : 0/0
  1444 ;;		Unchanged: 0/0
  1445 ;; Data sizes:     COMMON   BANK0   BANK1   BANK3   BANK2
  1446 ;;      Params:         4       0       0       0       0
  1447 ;;      Locals:         4       0       0       0       0
  1448 ;;      Temps:          1       0       0       0       0
  1449 ;;      Totals:         9       0       0       0       0
  1450 ;;Total ram usage:        9 bytes
  1451 ;; Hardware stack levels used: 1
  1452 ;; This function calls:
  1453 ;;		Nothing
  1454 ;; This function is called by:
  1455 ;;		_main
  1456 ;; This function uses a non-reentrant model
  1457 ;;
  1458                           
  1459                           
  1460                           ;psect for function ___awdiv
  1461  0EA9                     ___awdiv:
  1462  0EA9                     l1993:	
  1463                           ;incstack = 0
  1464                           ; Regs used in ___awdiv: [wreg+status,2+status,0]
  1465                           
  1466  0EA9  01F6               	clrf	___awdiv@sign
  1467  0EAA                     l1995:
  1468  0EAA  1FF1               	btfss	___awdiv@divisor+1,7
  1469  0EAB  2EAD               	goto	u2341
  1470  0EAC  2EAE               	goto	u2340
  1471  0EAD                     u2341:
  1472  0EAD  2EB5               	goto	l2001
  1473  0EAE                     u2340:
  1474  0EAE                     l1997:
  1475  0EAE  09F0               	comf	___awdiv@divisor,f
  1476  0EAF  09F1               	comf	___awdiv@divisor+1,f
  1477  0EB0  0AF0               	incf	___awdiv@divisor,f
  1478  0EB1  1903               	skipnz
  1479  0EB2  0AF1               	incf	___awdiv@divisor+1,f
  1480  0EB3                     l1999:
  1481  0EB3  01F6               	clrf	___awdiv@sign
  1482  0EB4  0AF6               	incf	___awdiv@sign,f
  1483  0EB5                     l2001:
  1484  0EB5  1FF3               	btfss	___awdiv@dividend+1,7
  1485  0EB6  2EB8               	goto	u2351
  1486  0EB7  2EB9               	goto	u2350
  1487  0EB8                     u2351:
  1488  0EB8  2EC2               	goto	l2007
  1489  0EB9                     u2350:
  1490  0EB9                     l2003:
  1491  0EB9  09F2               	comf	___awdiv@dividend,f
  1492  0EBA  09F3               	comf	___awdiv@dividend+1,f
  1493  0EBB  0AF2               	incf	___awdiv@dividend,f
  1494  0EBC  1903               	skipnz
  1495  0EBD  0AF3               	incf	___awdiv@dividend+1,f
  1496  0EBE                     l2005:
  1497  0EBE  3001               	movlw	1
  1498  0EBF  00F4               	movwf	??___awdiv
  1499  0EC0  0874               	movf	??___awdiv,w
  1500  0EC1  06F6               	xorwf	___awdiv@sign,f
  1501  0EC2                     l2007:
  1502  0EC2  01F7               	clrf	___awdiv@quotient
  1503  0EC3  01F8               	clrf	___awdiv@quotient+1
  1504  0EC4                     l2009:
  1505  0EC4  0870               	movf	___awdiv@divisor,w
  1506  0EC5  0471               	iorwf	___awdiv@divisor+1,w
  1507  0EC6  1903               	btfsc	3,2
  1508  0EC7  2EC9               	goto	u2361
  1509  0EC8  2ECA               	goto	u2360
  1510  0EC9                     u2361:
  1511  0EC9  2F01               	goto	l2029
  1512  0ECA                     u2360:
  1513  0ECA                     l2011:
  1514  0ECA  01F5               	clrf	___awdiv@counter
  1515  0ECB  0AF5               	incf	___awdiv@counter,f
  1516  0ECC  2ED8               	goto	l2017
  1517  0ECD                     l2013:
  1518  0ECD  3001               	movlw	1
  1519  0ECE                     u2375:
  1520  0ECE  1003               	clrc
  1521  0ECF  0DF0               	rlf	___awdiv@divisor,f
  1522  0ED0  0DF1               	rlf	___awdiv@divisor+1,f
  1523  0ED1  3EFF               	addlw	-1
  1524  0ED2  1D03               	skipz
  1525  0ED3  2ECE               	goto	u2375
  1526  0ED4                     l2015:
  1527  0ED4  3001               	movlw	1
  1528  0ED5  00F4               	movwf	??___awdiv
  1529  0ED6  0874               	movf	??___awdiv,w
  1530  0ED7  07F5               	addwf	___awdiv@counter,f
  1531  0ED8                     l2017:
  1532  0ED8  1FF1               	btfss	___awdiv@divisor+1,7
  1533  0ED9  2EDB               	goto	u2381
  1534  0EDA  2EDC               	goto	u2380
  1535  0EDB                     u2381:
  1536  0EDB  2ECD               	goto	l2013
  1537  0EDC                     u2380:
  1538  0EDC                     l2019:
  1539  0EDC  3001               	movlw	1
  1540  0EDD                     u2395:
  1541  0EDD  1003               	clrc
  1542  0EDE  0DF7               	rlf	___awdiv@quotient,f
  1543  0EDF  0DF8               	rlf	___awdiv@quotient+1,f
  1544  0EE0  3EFF               	addlw	-1
  1545  0EE1  1D03               	skipz
  1546  0EE2  2EDD               	goto	u2395
  1547  0EE3  0871               	movf	___awdiv@divisor+1,w
  1548  0EE4  0273               	subwf	___awdiv@dividend+1,w
  1549  0EE5  1D03               	skipz
  1550  0EE6  2EE9               	goto	u2405
  1551  0EE7  0870               	movf	___awdiv@divisor,w
  1552  0EE8  0272               	subwf	___awdiv@dividend,w
  1553  0EE9                     u2405:
  1554  0EE9  1C03               	skipc
  1555  0EEA  2EEC               	goto	u2401
  1556  0EEB  2EED               	goto	u2400
  1557  0EEC                     u2401:
  1558  0EEC  2EF4               	goto	l2025
  1559  0EED                     u2400:
  1560  0EED                     l2021:
  1561  0EED  0870               	movf	___awdiv@divisor,w
  1562  0EEE  02F2               	subwf	___awdiv@dividend,f
  1563  0EEF  0871               	movf	___awdiv@divisor+1,w
  1564  0EF0  1C03               	skipc
  1565  0EF1  03F3               	decf	___awdiv@dividend+1,f
  1566  0EF2  02F3               	subwf	___awdiv@dividend+1,f
  1567  0EF3                     l2023:
  1568  0EF3  1477               	bsf	___awdiv@quotient,0
  1569  0EF4                     l2025:
  1570  0EF4  3001               	movlw	1
  1571  0EF5                     u2415:
  1572  0EF5  1003               	clrc
  1573  0EF6  0CF1               	rrf	___awdiv@divisor+1,f
  1574  0EF7  0CF0               	rrf	___awdiv@divisor,f
  1575  0EF8  3EFF               	addlw	-1
  1576  0EF9  1D03               	skipz
  1577  0EFA  2EF5               	goto	u2415
  1578  0EFB                     l2027:
  1579  0EFB  3001               	movlw	1
  1580  0EFC  02F5               	subwf	___awdiv@counter,f
  1581  0EFD  1D03               	btfss	3,2
  1582  0EFE  2F00               	goto	u2421
  1583  0EFF  2F01               	goto	u2420
  1584  0F00                     u2421:
  1585  0F00  2EDC               	goto	l2019
  1586  0F01                     u2420:
  1587  0F01                     l2029:
  1588  0F01  0876               	movf	___awdiv@sign,w
  1589  0F02  1903               	btfsc	3,2
  1590  0F03  2F05               	goto	u2431
  1591  0F04  2F06               	goto	u2430
  1592  0F05                     u2431:
  1593  0F05  2F0B               	goto	l2033
  1594  0F06                     u2430:
  1595  0F06                     l2031:
  1596  0F06  09F7               	comf	___awdiv@quotient,f
  1597  0F07  09F8               	comf	___awdiv@quotient+1,f
  1598  0F08  0AF7               	incf	___awdiv@quotient,f
  1599  0F09  1903               	skipnz
  1600  0F0A  0AF8               	incf	___awdiv@quotient+1,f
  1601  0F0B                     l2033:
  1602  0F0B  0878               	movf	___awdiv@quotient+1,w
  1603  0F0C  00F1               	movwf	?___awdiv+1
  1604  0F0D  0877               	movf	___awdiv@quotient,w
  1605  0F0E  00F0               	movwf	?___awdiv
  1606  0F0F                     l406:
  1607  0F0F  0008               	return
  1608  0F10                     __end_of___awdiv:
  1609                           
  1610                           	psect	text3
  1611  0D04                     __ptext3:	
  1612 ;; *************** function _LCD_Write_String *****************
  1613 ;; Defined at:
  1614 ;;		line 83 in file "LCD.c"
  1615 ;; Parameters:    Size  Location     Type
  1616 ;;  str             1    wreg     PTR unsigned char 
  1617 ;;		 -> STR_4(10), STR_3(12), STR_2(16), STR_1(18), 
  1618 ;; Auto vars:     Size  Location     Type
  1619 ;;  str             1    8[COMMON] PTR unsigned char 
  1620 ;;		 -> STR_4(10), STR_3(12), STR_2(16), STR_1(18), 
  1621 ;;  i               2    6[COMMON] int 
  1622 ;; Return value:  Size  Location     Type
  1623 ;;                  1    wreg      void 
  1624 ;; Registers used:
  1625 ;;		wreg, fsr0l, fsr0h, status,2, status,0, pclath, cstack
  1626 ;; Tracked objects:
  1627 ;;		On entry : 0/0
  1628 ;;		On exit  : 0/0
  1629 ;;		Unchanged: 0/0
  1630 ;; Data sizes:     COMMON   BANK0   BANK1   BANK3   BANK2
  1631 ;;      Params:         0       0       0       0       0
  1632 ;;      Locals:         3       0       0       0       0
  1633 ;;      Temps:          0       0       0       0       0
  1634 ;;      Totals:         3       0       0       0       0
  1635 ;;Total ram usage:        3 bytes
  1636 ;; Hardware stack levels used: 1
  1637 ;; Hardware stack levels required when called: 2
  1638 ;; This function calls:
  1639 ;;		_LCD_Write_Char
  1640 ;; This function is called by:
  1641 ;;		_main
  1642 ;; This function uses a non-reentrant model
  1643 ;;
  1644                           
  1645                           
  1646                           ;psect for function _LCD_Write_String
  1647  0D04                     _LCD_Write_String:
  1648                           
  1649                           ;incstack = 0
  1650                           ; Regs used in _LCD_Write_String: [wreg-fsr0h+status,2+status,0+pclath+cstack]
  1651                           ;LCD_Write_String@str stored from wreg
  1652  0D04  00F8               	movwf	LCD_Write_String@str
  1653  0D05                     l1963:
  1654                           
  1655                           ;LCD.c: 83: void LCD_Write_String(char *str);LCD.c: 84: {;LCD.c: 85:   int i;;LCD.c: 86:
      +                             for(i=0; str[i]!='\0'; i++)
  1656  0D05  01F6               	clrf	LCD_Write_String@i
  1657  0D06  01F7               	clrf	LCD_Write_String@i+1
  1658  0D07  2D1B               	goto	l1969
  1659  0D08                     l1965:
  1660                           
  1661                           ;LCD.c: 87:     LCD_Write_Char(str[i]);
  1662  0D08  0876               	movf	LCD_Write_String@i,w
  1663  0D09  0778               	addwf	LCD_Write_String@str,w
  1664  0D0A  0084               	movwf	4
  1665  0D0B  120A  158A  2000  120A  158A  	fcall	stringdir
  1666  0D10  120A  158A  25A2  120A  158A  	fcall	_LCD_Write_Char
  1667  0D15                     l1967:
  1668  0D15  3001               	movlw	1
  1669  0D16  07F6               	addwf	LCD_Write_String@i,f
  1670  0D17  1803               	skipnc
  1671  0D18  0AF7               	incf	LCD_Write_String@i+1,f
  1672  0D19  3000               	movlw	0
  1673  0D1A  07F7               	addwf	LCD_Write_String@i+1,f
  1674  0D1B                     l1969:
  1675  0D1B  0876               	movf	LCD_Write_String@i,w
  1676  0D1C  0778               	addwf	LCD_Write_String@str,w
  1677  0D1D  0084               	movwf	4
  1678  0D1E  120A  158A  2000  120A  158A  	fcall	stringdir
  1679  0D23  3A00               	xorlw	0
  1680  0D24  1D03               	skipz
  1681  0D25  2D27               	goto	u2311
  1682  0D26  2D28               	goto	u2310
  1683  0D27                     u2311:
  1684  0D27  2D08               	goto	l1965
  1685  0D28                     u2310:
  1686  0D28                     l98:
  1687  0D28  0008               	return
  1688  0D29                     __end_of_LCD_Write_String:
  1689                           
  1690                           	psect	text4
  1691  0DA2                     __ptext4:	
  1692 ;; *************** function _LCD_Write_Char *****************
  1693 ;; Defined at:
  1694 ;;		line 65 in file "LCD.c"
  1695 ;; Parameters:    Size  Location     Type
  1696 ;;  Data            1    wreg     unsigned char 
  1697 ;; Auto vars:     Size  Location     Type
  1698 ;;  Data            1    5[COMMON] unsigned char 
  1699 ;;  High4           1    4[COMMON] unsigned char 
  1700 ;;  Low4            1    3[COMMON] unsigned char 
  1701 ;; Return value:  Size  Location     Type
  1702 ;;                  1    wreg      void 
  1703 ;; Registers used:
  1704 ;;		wreg, status,2, status,0, pclath, cstack
  1705 ;; Tracked objects:
  1706 ;;		On entry : 0/0
  1707 ;;		On exit  : 0/0
  1708 ;;		Unchanged: 0/0
  1709 ;; Data sizes:     COMMON   BANK0   BANK1   BANK3   BANK2
  1710 ;;      Params:         0       0       0       0       0
  1711 ;;      Locals:         3       0       0       0       0
  1712 ;;      Temps:          2       0       0       0       0
  1713 ;;      Totals:         5       0       0       0       0
  1714 ;;Total ram usage:        5 bytes
  1715 ;; Hardware stack levels used: 1
  1716 ;; Hardware stack levels required when called: 1
  1717 ;; This function calls:
  1718 ;;		_LCD_Set_Bit
  1719 ;; This function is called by:
  1720 ;;		_main
  1721 ;;		_LCD_Write_String
  1722 ;;		_LCD_Write_Number
  1723 ;; This function uses a non-reentrant model
  1724 ;;
  1725                           
  1726                           
  1727                           ;psect for function _LCD_Write_Char
  1728  0DA2                     _LCD_Write_Char:
  1729                           
  1730                           ;incstack = 0
  1731                           ; Regs used in _LCD_Write_Char: [wreg+status,2+status,0+pclath+cstack]
  1732                           ;LCD_Write_Char@Data stored from wreg
  1733  0DA2  00F5               	movwf	LCD_Write_Char@Data
  1734  0DA3                     l1511:
  1735                           
  1736                           ;LCD.c: 65: void LCD_Write_Char(char Data);LCD.c: 66: {;LCD.c: 67:   char Low4,High4;;LC
      +                          D.c: 68:   Low4 = Data & 0x0F;
  1737  0DA3  0875               	movf	LCD_Write_Char@Data,w
  1738  0DA4  390F               	andlw	15
  1739  0DA5  00F1               	movwf	??_LCD_Write_Char
  1740  0DA6  0871               	movf	??_LCD_Write_Char,w
  1741  0DA7  00F3               	movwf	LCD_Write_Char@Low4
  1742                           
  1743                           ;LCD.c: 69:   High4 = Data & 0xF0;
  1744  0DA8  0875               	movf	LCD_Write_Char@Data,w
  1745  0DA9  39F0               	andlw	240
  1746  0DAA  00F1               	movwf	??_LCD_Write_Char
  1747  0DAB  0871               	movf	??_LCD_Write_Char,w
  1748  0DAC  00F4               	movwf	LCD_Write_Char@High4
  1749  0DAD                     l1513:
  1750                           
  1751                           ;LCD.c: 70:   RD2 = 1;
  1752  0DAD  1283               	bcf	3,5	;RP0=0, select bank0
  1753  0DAE  1303               	bcf	3,6	;RP1=0, select bank0
  1754  0DAF  1508               	bsf	8,2	;volatile
  1755  0DB0                     l1515:
  1756                           
  1757                           ;LCD.c: 71:   LCD_Set_Bit(High4>>4);
  1758  0DB0  0874               	movf	LCD_Write_Char@High4,w
  1759  0DB1  00F1               	movwf	??_LCD_Write_Char
  1760  0DB2  3004               	movlw	4
  1761  0DB3                     u1365:
  1762  0DB3  1003               	clrc
  1763  0DB4  0CF1               	rrf	??_LCD_Write_Char,f
  1764  0DB5  3EFF               	addlw	-1
  1765  0DB6  1D03               	skipz
  1766  0DB7  2DB3               	goto	u1365
  1767  0DB8  0871               	movf	??_LCD_Write_Char,w
  1768  0DB9  120A  158A  24E2  120A  158A  	fcall	_LCD_Set_Bit
  1769  0DBE                     l1517:
  1770                           
  1771                           ;LCD.c: 72:   RD3 = 1;
  1772  0DBE  1283               	bcf	3,5	;RP0=0, select bank0
  1773  0DBF  1303               	bcf	3,6	;RP1=0, select bank0
  1774  0DC0  1588               	bsf	8,3	;volatile
  1775  0DC1                     l1519:
  1776                           
  1777                           ;LCD.c: 73:   _delay((unsigned long)((500)*(20000000/4000000.0)));
  1778  0DC1  3004               	movlw	4
  1779  0DC2  00F2               	movwf	??_LCD_Write_Char+1
  1780  0DC3  303D               	movlw	61
  1781  0DC4  00F1               	movwf	??_LCD_Write_Char
  1782  0DC5                     u2587:
  1783  0DC5  0BF1               	decfsz	??_LCD_Write_Char,f
  1784  0DC6  2DC5               	goto	u2587
  1785  0DC7  0BF2               	decfsz	??_LCD_Write_Char+1,f
  1786  0DC8  2DC5               	goto	u2587
  1787  0DC9  2DCA               	nop2
  1788  0DCA                     l1521:
  1789                           
  1790                           ;LCD.c: 74:   RD3 = 0;
  1791  0DCA  1283               	bcf	3,5	;RP0=0, select bank0
  1792  0DCB  1303               	bcf	3,6	;RP1=0, select bank0
  1793  0DCC  1188               	bcf	8,3	;volatile
  1794  0DCD                     l1523:
  1795                           
  1796                           ;LCD.c: 75:   _delay((unsigned long)((500)*(20000000/4000000.0)));
  1797  0DCD  3004               	movlw	4
  1798  0DCE  00F2               	movwf	??_LCD_Write_Char+1
  1799  0DCF  303D               	movlw	61
  1800  0DD0  00F1               	movwf	??_LCD_Write_Char
  1801  0DD1                     u2597:
  1802  0DD1  0BF1               	decfsz	??_LCD_Write_Char,f
  1803  0DD2  2DD1               	goto	u2597
  1804  0DD3  0BF2               	decfsz	??_LCD_Write_Char+1,f
  1805  0DD4  2DD1               	goto	u2597
  1806  0DD5  2DD6               	nop2
  1807  0DD6                     l1525:
  1808                           
  1809                           ;LCD.c: 76:   LCD_Set_Bit(Low4);
  1810  0DD6  0873               	movf	LCD_Write_Char@Low4,w
  1811  0DD7  120A  158A  24E2  120A  158A  	fcall	_LCD_Set_Bit
  1812  0DDC                     l1527:
  1813                           
  1814                           ;LCD.c: 77:   RD3 = 1;
  1815  0DDC  1283               	bcf	3,5	;RP0=0, select bank0
  1816  0DDD  1303               	bcf	3,6	;RP1=0, select bank0
  1817  0DDE  1588               	bsf	8,3	;volatile
  1818  0DDF                     l1529:
  1819                           
  1820                           ;LCD.c: 78:   _delay((unsigned long)((500)*(20000000/4000000.0)));
  1821  0DDF  3004               	movlw	4
  1822  0DE0  00F2               	movwf	??_LCD_Write_Char+1
  1823  0DE1  303D               	movlw	61
  1824  0DE2  00F1               	movwf	??_LCD_Write_Char
  1825  0DE3                     u2607:
  1826  0DE3  0BF1               	decfsz	??_LCD_Write_Char,f
  1827  0DE4  2DE3               	goto	u2607
  1828  0DE5  0BF2               	decfsz	??_LCD_Write_Char+1,f
  1829  0DE6  2DE3               	goto	u2607
  1830  0DE7  2DE8               	nop2
  1831  0DE8                     l1531:
  1832                           
  1833                           ;LCD.c: 79:   RD3 = 0;
  1834  0DE8  1283               	bcf	3,5	;RP0=0, select bank0
  1835  0DE9  1303               	bcf	3,6	;RP1=0, select bank0
  1836  0DEA  1188               	bcf	8,3	;volatile
  1837  0DEB                     l1533:
  1838                           
  1839                           ;LCD.c: 80:   _delay((unsigned long)((500)*(20000000/4000000.0)));
  1840  0DEB  3004               	movlw	4
  1841  0DEC  00F2               	movwf	??_LCD_Write_Char+1
  1842  0DED  303D               	movlw	61
  1843  0DEE  00F1               	movwf	??_LCD_Write_Char
  1844  0DEF                     u2617:
  1845  0DEF  0BF1               	decfsz	??_LCD_Write_Char,f
  1846  0DF0  2DEF               	goto	u2617
  1847  0DF1  0BF2               	decfsz	??_LCD_Write_Char+1,f
  1848  0DF2  2DEF               	goto	u2617
  1849  0DF3  2DF4               	nop2
  1850  0DF4                     l92:
  1851  0DF4  0008               	return
  1852  0DF5                     __end_of_LCD_Write_Char:
  1853                           
  1854                           	psect	text5
  1855  0D50                     __ptext5:	
  1856 ;; *************** function _LCD_Set_Cursor *****************
  1857 ;; Defined at:
  1858 ;;		line 44 in file "LCD.c"
  1859 ;; Parameters:    Size  Location     Type
  1860 ;;  r               1    wreg     unsigned char 
  1861 ;;  c               1    4[COMMON] unsigned char 
  1862 ;; Auto vars:     Size  Location     Type
  1863 ;;  r               1    7[COMMON] unsigned char 
  1864 ;;  Temp            1   10[COMMON] unsigned char 
  1865 ;;  High4           1    9[COMMON] unsigned char 
  1866 ;;  Low4            1    8[COMMON] unsigned char 
  1867 ;; Return value:  Size  Location     Type
  1868 ;;                  1    wreg      void 
  1869 ;; Registers used:
  1870 ;;		wreg, status,2, status,0, pclath, cstack
  1871 ;; Tracked objects:
  1872 ;;		On entry : 0/0
  1873 ;;		On exit  : 0/0
  1874 ;;		Unchanged: 0/0
  1875 ;; Data sizes:     COMMON   BANK0   BANK1   BANK3   BANK2
  1876 ;;      Params:         1       0       0       0       0
  1877 ;;      Locals:         4       0       0       0       0
  1878 ;;      Temps:          2       0       0       0       0
  1879 ;;      Totals:         7       0       0       0       0
  1880 ;;Total ram usage:        7 bytes
  1881 ;; Hardware stack levels used: 1
  1882 ;; Hardware stack levels required when called: 2
  1883 ;; This function calls:
  1884 ;;		_LCD_Cmd
  1885 ;; This function is called by:
  1886 ;;		_main
  1887 ;; This function uses a non-reentrant model
  1888 ;;
  1889                           
  1890                           
  1891                           ;psect for function _LCD_Set_Cursor
  1892  0D50                     _LCD_Set_Cursor:
  1893                           
  1894                           ;incstack = 0
  1895                           ; Regs used in _LCD_Set_Cursor: [wreg+status,2+status,0+pclath+cstack]
  1896                           ;LCD_Set_Cursor@r stored from wreg
  1897  0D50  00F7               	movwf	LCD_Set_Cursor@r
  1898  0D51                     l1943:
  1899                           
  1900                           ;LCD.c: 44: void LCD_Set_Cursor(unsigned char r, unsigned char c);LCD.c: 45: {;LCD.c: 46
      +                          :   unsigned char Temp,Low4,High4;;LCD.c: 47:   if(r == 1)
  1901  0D51  0377               	decf	LCD_Set_Cursor@r,w
  1902  0D52  1D03               	btfss	3,2
  1903  0D53  2D55               	goto	u2271
  1904  0D54  2D56               	goto	u2270
  1905  0D55                     u2271:
  1906  0D55  2D79               	goto	l1953
  1907  0D56                     u2270:
  1908  0D56                     l1945:
  1909                           
  1910                           ;LCD.c: 48:   {;LCD.c: 49:     Temp = 0x80 + c - 1;
  1911  0D56  0874               	movf	LCD_Set_Cursor@c,w
  1912  0D57  3E7F               	addlw	127
  1913  0D58  00F5               	movwf	??_LCD_Set_Cursor
  1914  0D59  0875               	movf	??_LCD_Set_Cursor,w
  1915  0D5A  00FA               	movwf	LCD_Set_Cursor@Temp
  1916                           
  1917                           ;LCD.c: 50:     High4 = Temp >> 4;
  1918  0D5B  087A               	movf	LCD_Set_Cursor@Temp,w
  1919  0D5C  00F5               	movwf	??_LCD_Set_Cursor
  1920  0D5D  3004               	movlw	4
  1921  0D5E                     u2285:
  1922  0D5E  1003               	clrc
  1923  0D5F  0CF5               	rrf	??_LCD_Set_Cursor,f
  1924  0D60  3EFF               	addlw	-1
  1925  0D61  1D03               	skipz
  1926  0D62  2D5E               	goto	u2285
  1927  0D63  0875               	movf	??_LCD_Set_Cursor,w
  1928  0D64  00F6               	movwf	??_LCD_Set_Cursor+1
  1929  0D65  0876               	movf	??_LCD_Set_Cursor+1,w
  1930  0D66  00F9               	movwf	LCD_Set_Cursor@High4
  1931  0D67                     l1947:
  1932                           
  1933                           ;LCD.c: 51:     Low4 = Temp & 0x0F;
  1934  0D67  087A               	movf	LCD_Set_Cursor@Temp,w
  1935  0D68  390F               	andlw	15
  1936  0D69  00F5               	movwf	??_LCD_Set_Cursor
  1937  0D6A  0875               	movf	??_LCD_Set_Cursor,w
  1938  0D6B  00F8               	movwf	LCD_Set_Cursor@Low4
  1939  0D6C                     l1949:
  1940                           
  1941                           ;LCD.c: 52:     LCD_Cmd(High4);
  1942  0D6C  0879               	movf	LCD_Set_Cursor@High4,w
  1943  0D6D  120A  158A  24A8  120A  158A  	fcall	_LCD_Cmd
  1944  0D72                     l1951:
  1945                           
  1946                           ;LCD.c: 53:     LCD_Cmd(Low4);
  1947  0D72  0878               	movf	LCD_Set_Cursor@Low4,w
  1948  0D73  120A  158A  24A8  120A  158A  	fcall	_LCD_Cmd
  1949                           
  1950                           ;LCD.c: 54:   }
  1951  0D78  2DA1               	goto	l89
  1952  0D79                     l1953:
  1953  0D79  3002               	movlw	2
  1954  0D7A  0677               	xorwf	LCD_Set_Cursor@r,w
  1955  0D7B  1D03               	btfss	3,2
  1956  0D7C  2D7E               	goto	u2291
  1957  0D7D  2D7F               	goto	u2290
  1958  0D7E                     u2291:
  1959  0D7E  2DA1               	goto	l89
  1960  0D7F                     u2290:
  1961  0D7F                     l1955:
  1962                           
  1963                           ;LCD.c: 56:   {;LCD.c: 57:     Temp = 0xC0 + c - 1;
  1964  0D7F  0874               	movf	LCD_Set_Cursor@c,w
  1965  0D80  3EBF               	addlw	191
  1966  0D81  00F5               	movwf	??_LCD_Set_Cursor
  1967  0D82  0875               	movf	??_LCD_Set_Cursor,w
  1968  0D83  00FA               	movwf	LCD_Set_Cursor@Temp
  1969                           
  1970                           ;LCD.c: 58:     High4 = Temp >> 4;
  1971  0D84  087A               	movf	LCD_Set_Cursor@Temp,w
  1972  0D85  00F5               	movwf	??_LCD_Set_Cursor
  1973  0D86  3004               	movlw	4
  1974  0D87                     u2305:
  1975  0D87  1003               	clrc
  1976  0D88  0CF5               	rrf	??_LCD_Set_Cursor,f
  1977  0D89  3EFF               	addlw	-1
  1978  0D8A  1D03               	skipz
  1979  0D8B  2D87               	goto	u2305
  1980  0D8C  0875               	movf	??_LCD_Set_Cursor,w
  1981  0D8D  00F6               	movwf	??_LCD_Set_Cursor+1
  1982  0D8E  0876               	movf	??_LCD_Set_Cursor+1,w
  1983  0D8F  00F9               	movwf	LCD_Set_Cursor@High4
  1984  0D90                     l1957:
  1985                           
  1986                           ;LCD.c: 59:     Low4 = Temp & 0x0F;
  1987  0D90  087A               	movf	LCD_Set_Cursor@Temp,w
  1988  0D91  390F               	andlw	15
  1989  0D92  00F5               	movwf	??_LCD_Set_Cursor
  1990  0D93  0875               	movf	??_LCD_Set_Cursor,w
  1991  0D94  00F8               	movwf	LCD_Set_Cursor@Low4
  1992  0D95                     l1959:
  1993                           
  1994                           ;LCD.c: 60:     LCD_Cmd(High4);
  1995  0D95  0879               	movf	LCD_Set_Cursor@High4,w
  1996  0D96  120A  158A  24A8  120A  158A  	fcall	_LCD_Cmd
  1997  0D9B                     l1961:
  1998                           
  1999                           ;LCD.c: 61:     LCD_Cmd(Low4);
  2000  0D9B  0878               	movf	LCD_Set_Cursor@Low4,w
  2001  0D9C  120A  158A  24A8  120A  158A  	fcall	_LCD_Cmd
  2002  0DA1                     l89:
  2003  0DA1  0008               	return
  2004  0DA2                     __end_of_LCD_Set_Cursor:
  2005                           
  2006                           	psect	text6
  2007  0C7E                     __ptext6:	
  2008 ;; *************** function _LCD_Clear *****************
  2009 ;; Defined at:
  2010 ;;		line 38 in file "LCD.c"
  2011 ;; Parameters:    Size  Location     Type
  2012 ;;		None
  2013 ;; Auto vars:     Size  Location     Type
  2014 ;;		None
  2015 ;; Return value:  Size  Location     Type
  2016 ;;                  1    wreg      void 
  2017 ;; Registers used:
  2018 ;;		wreg, status,2, status,0, pclath, cstack
  2019 ;; Tracked objects:
  2020 ;;		On entry : 0/0
  2021 ;;		On exit  : 0/0
  2022 ;;		Unchanged: 0/0
  2023 ;; Data sizes:     COMMON   BANK0   BANK1   BANK3   BANK2
  2024 ;;      Params:         0       0       0       0       0
  2025 ;;      Locals:         0       0       0       0       0
  2026 ;;      Temps:          0       0       0       0       0
  2027 ;;      Totals:         0       0       0       0       0
  2028 ;;Total ram usage:        0 bytes
  2029 ;; Hardware stack levels used: 1
  2030 ;; Hardware stack levels required when called: 2
  2031 ;; This function calls:
  2032 ;;		_LCD_Cmd
  2033 ;; This function is called by:
  2034 ;;		_main
  2035 ;; This function uses a non-reentrant model
  2036 ;;
  2037                           
  2038                           
  2039                           ;psect for function _LCD_Clear
  2040  0C7E                     _LCD_Clear:
  2041  0C7E                     l1971:	
  2042                           ;incstack = 0
  2043                           ; Regs used in _LCD_Clear: [wreg+status,2+status,0+pclath+cstack]
  2044                           
  2045                           
  2046                           ;LCD.c: 40:   LCD_Cmd(0);
  2047  0C7E  3000               	movlw	0
  2048  0C7F  120A  158A  24A8  120A  158A  	fcall	_LCD_Cmd
  2049                           
  2050                           ;LCD.c: 41:   LCD_Cmd(1);
  2051  0C84  3001               	movlw	1
  2052  0C85  120A  158A  24A8  120A  158A  	fcall	_LCD_Cmd
  2053  0C8A                     l83:
  2054  0C8A  0008               	return
  2055  0C8B                     __end_of_LCD_Clear:
  2056                           
  2057                           	psect	text7
  2058  0CC2                     __ptext7:	
  2059 ;; *************** function _HC_SR_04_Time_Taken *****************
  2060 ;; Defined at:
  2061 ;;		line 29 in file "HC_SR_04.c"
  2062 ;; Parameters:    Size  Location     Type
  2063 ;;		None
  2064 ;; Auto vars:     Size  Location     Type
  2065 ;;  time_taken_v    2    3[COMMON] int 
  2066 ;; Return value:  Size  Location     Type
  2067 ;;                  2    0[COMMON] int 
  2068 ;; Registers used:
  2069 ;;		wreg, status,2
  2070 ;; Tracked objects:
  2071 ;;		On entry : 0/0
  2072 ;;		On exit  : 0/0
  2073 ;;		Unchanged: 0/0
  2074 ;; Data sizes:     COMMON   BANK0   BANK1   BANK3   BANK2
  2075 ;;      Params:         2       0       0       0       0
  2076 ;;      Locals:         2       0       0       0       0
  2077 ;;      Temps:          1       0       0       0       0
  2078 ;;      Totals:         5       0       0       0       0
  2079 ;;Total ram usage:        5 bytes
  2080 ;; Hardware stack levels used: 1
  2081 ;; This function calls:
  2082 ;;		Nothing
  2083 ;; This function is called by:
  2084 ;;		_main
  2085 ;; This function uses a non-reentrant model
  2086 ;;
  2087                           
  2088                           
  2089                           ;psect for function _HC_SR_04_Time_Taken
  2090  0CC2                     _HC_SR_04_Time_Taken:
  2091  0CC2                     l1973:	
  2092                           ;incstack = 0
  2093                           ; Regs used in _HC_SR_04_Time_Taken: [wreg+status,2]
  2094                           
  2095                           
  2096                           ;HC_SR_04.c: 32:     TMR1H =0; TMR1L =0;
  2097  0CC2  1283               	bcf	3,5	;RP0=0, select bank0
  2098  0CC3  1303               	bcf	3,6	;RP1=0, select bank0
  2099  0CC4  018F               	clrf	15	;volatile
  2100  0CC5  018E               	clrf	14	;volatile
  2101  0CC6                     l1975:
  2102                           
  2103                           ;HC_SR_04.c: 34:     PORTDbits.RD1 = 1;
  2104  0CC6  1488               	bsf	8,1	;volatile
  2105  0CC7                     l1977:
  2106                           
  2107                           ;HC_SR_04.c: 35:     _delay((unsigned long)((10)*(20000000/4000000.0)));
  2108  0CC7  3010               	movlw	16
  2109  0CC8  00F2               	movwf	??_HC_SR_04_Time_Taken
  2110  0CC9                     u2627:
  2111  0CC9  0BF2               	decfsz	??_HC_SR_04_Time_Taken,f
  2112  0CCA  2CC9               	goto	u2627
  2113  0CCB  0000               	nop
  2114  0CCC                     l1979:
  2115                           
  2116                           ;HC_SR_04.c: 36:     PORTDbits.RD1 = 0;
  2117  0CCC  1283               	bcf	3,5	;RP0=0, select bank0
  2118  0CCD  1303               	bcf	3,6	;RP1=0, select bank0
  2119  0CCE  1088               	bcf	8,1	;volatile
  2120  0CCF                     l158:	
  2121                           ;HC_SR_04.c: 38:     while (PORTDbits.RD0==0);
  2122                           
  2123  0CCF  1C08               	btfss	8,0	;volatile
  2124  0CD0  2CD2               	goto	u2321
  2125  0CD1  2CD3               	goto	u2320
  2126  0CD2                     u2321:
  2127  0CD2  2CCF               	goto	l158
  2128  0CD3                     u2320:
  2129  0CD3                     l160:
  2130                           
  2131                           ;HC_SR_04.c: 39:         TMR1ON = 1;
  2132  0CD3  1410               	bsf	16,0	;volatile
  2133  0CD4                     l161:	
  2134                           ;HC_SR_04.c: 40:     while (PORTDbits.RD0==1);
  2135                           
  2136  0CD4  1808               	btfsc	8,0	;volatile
  2137  0CD5  2CD7               	goto	u2331
  2138  0CD6  2CD8               	goto	u2330
  2139  0CD7                     u2331:
  2140  0CD7  2CD4               	goto	l161
  2141  0CD8                     u2330:
  2142  0CD8                     l163:
  2143                           
  2144                           ;HC_SR_04.c: 41:         TMR1ON = 0;
  2145  0CD8  1010               	bcf	16,0	;volatile
  2146  0CD9                     l1981:
  2147                           
  2148                           ;HC_SR_04.c: 43:     time_taken_value = (TMR1L | (TMR1H<<8));
  2149  0CD9  080F               	movf	15,w	;volatile
  2150  0CDA  00F4               	movwf	HC_SR_04_Time_Taken@time_taken_value+1
  2151  0CDB  080E               	movf	14,w	;volatile
  2152  0CDC  00F3               	movwf	HC_SR_04_Time_Taken@time_taken_value
  2153                           
  2154                           ;HC_SR_04.c: 45:     return time_taken_value;
  2155  0CDD  0874               	movf	HC_SR_04_Time_Taken@time_taken_value+1,w
  2156  0CDE  00F1               	movwf	?_HC_SR_04_Time_Taken+1
  2157  0CDF  0873               	movf	HC_SR_04_Time_Taken@time_taken_value,w
  2158  0CE0  00F0               	movwf	?_HC_SR_04_Time_Taken
  2159  0CE1                     l164:
  2160  0CE1  0008               	return
  2161  0CE2                     __end_of_HC_SR_04_Time_Taken:
  2162                           
  2163                           	psect	text8
  2164  0DF5                     __ptext8:	
  2165 ;; *************** function _HC_SR_04_Distance *****************
  2166 ;; Defined at:
  2167 ;;		line 51 in file "HC_SR_04.c"
  2168 ;; Parameters:    Size  Location     Type
  2169 ;;  time_taken_v    2   63[BANK0 ] int 
  2170 ;; Auto vars:     Size  Location     Type
  2171 ;;  distance_val    2   65[BANK0 ] int 
  2172 ;; Return value:  Size  Location     Type
  2173 ;;                  2   63[BANK0 ] int 
  2174 ;; Registers used:
  2175 ;;		wreg, status,2, status,0, btemp+1, pclath, cstack
  2176 ;; Tracked objects:
  2177 ;;		On entry : 0/0
  2178 ;;		On exit  : 0/0
  2179 ;;		Unchanged: 0/0
  2180 ;; Data sizes:     COMMON   BANK0   BANK1   BANK3   BANK2
  2181 ;;      Params:         0       2       0       0       0
  2182 ;;      Locals:         0       2       0       0       0
  2183 ;;      Temps:          0       0       0       0       0
  2184 ;;      Totals:         0       4       0       0       0
  2185 ;;Total ram usage:        4 bytes
  2186 ;; Hardware stack levels used: 1
  2187 ;; Hardware stack levels required when called: 2
  2188 ;; This function calls:
  2189 ;;		___fldiv
  2190 ;;		___flmul
  2191 ;;		___fltol
  2192 ;;		___xxtofl
  2193 ;; This function is called by:
  2194 ;;		_main
  2195 ;; This function uses a non-reentrant model
  2196 ;;
  2197                           
  2198                           
  2199                           ;psect for function _HC_SR_04_Distance
  2200  0DF5                     _HC_SR_04_Distance:
  2201  0DF5                     l1985:	
  2202                           ;incstack = 0
  2203                           ; Regs used in _HC_SR_04_Distance: [wreg+status,2+status,0+btemp+1+pclath+cstack]
  2204                           
  2205  0DF5                     l1987:
  2206                           
  2207                           ;HC_SR_04.c: 54:     distance_value= ( 0.0272*time_taken_value )/2;
  2208  0DF5  1283               	bcf	3,5	;RP0=0, select bank0
  2209  0DF6  1303               	bcf	3,6	;RP1=0, select bank0
  2210  0DF7  085F               	movf	HC_SR_04_Distance@time_taken_value,w
  2211  0DF8  00F0               	movwf	___xxtofl@val
  2212  0DF9  0860               	movf	HC_SR_04_Distance@time_taken_value+1,w
  2213  0DFA  00F1               	movwf	___xxtofl@val+1
  2214  0DFB  3000               	movlw	0
  2215  0DFC  1BF1               	btfsc	___xxtofl@val+1,7
  2216  0DFD  30FF               	movlw	255
  2217  0DFE  00F2               	movwf	___xxtofl@val+2
  2218  0DFF  00F3               	movwf	___xxtofl@val+3
  2219  0E00  3001               	movlw	1
  2220  0E01  120A  118A  200F  120A  158A  	fcall	___xxtofl
  2221  0E06  0873               	movf	?___xxtofl+3,w
  2222  0E07  1283               	bcf	3,5	;RP0=0, select bank0
  2223  0E08  1303               	bcf	3,6	;RP1=0, select bank0
  2224  0E09  00A7               	movwf	___flmul@a+3
  2225  0E0A  0872               	movf	?___xxtofl+2,w
  2226  0E0B  00A6               	movwf	___flmul@a+2
  2227  0E0C  0871               	movf	?___xxtofl+1,w
  2228  0E0D  00A5               	movwf	___flmul@a+1
  2229  0E0E  0870               	movf	?___xxtofl,w
  2230  0E0F  00A4               	movwf	___flmul@a
  2231  0E10  303C               	movlw	60
  2232  0E11  00A3               	movwf	___flmul@b+3
  2233  0E12  30DE               	movlw	222
  2234  0E13  00A2               	movwf	___flmul@b+2
  2235  0E14  30D2               	movlw	210
  2236  0E15  00A1               	movwf	___flmul@b+1
  2237  0E16  3089               	movlw	137
  2238  0E17  00A0               	movwf	___flmul@b
  2239  0E18  120A  118A  248B  120A  158A  	fcall	___flmul
  2240  0E1D  1283               	bcf	3,5	;RP0=0, select bank0
  2241  0E1E  1303               	bcf	3,6	;RP1=0, select bank0
  2242  0E1F  0823               	movf	?___flmul+3,w
  2243  0E20  00C1               	movwf	___fldiv@b+3
  2244  0E21  0822               	movf	?___flmul+2,w
  2245  0E22  00C0               	movwf	___fldiv@b+2
  2246  0E23  0821               	movf	?___flmul+1,w
  2247  0E24  00BF               	movwf	___fldiv@b+1
  2248  0E25  0820               	movf	?___flmul,w
  2249  0E26  00BE               	movwf	___fldiv@b
  2250  0E27  3040               	movlw	64
  2251  0E28  00BD               	movwf	___fldiv@a+3
  2252  0E29  3000               	movlw	0
  2253  0E2A  00BC               	movwf	___fldiv@a+2
  2254  0E2B  3000               	movlw	0
  2255  0E2C  00BB               	movwf	___fldiv@a+1
  2256  0E2D  3000               	movlw	0
  2257  0E2E  00BA               	movwf	___fldiv@a
  2258  0E2F  120A  118A  20C9  120A  158A  	fcall	___fldiv
  2259  0E34  1283               	bcf	3,5	;RP0=0, select bank0
  2260  0E35  1303               	bcf	3,6	;RP1=0, select bank0
  2261  0E36  083D               	movf	?___fldiv+3,w
  2262  0E37  00D7               	movwf	___fltol@f1+3
  2263  0E38  083C               	movf	?___fldiv+2,w
  2264  0E39  00D6               	movwf	___fltol@f1+2
  2265  0E3A  083B               	movf	?___fldiv+1,w
  2266  0E3B  00D5               	movwf	___fltol@f1+1
  2267  0E3C  083A               	movf	?___fldiv,w
  2268  0E3D  00D4               	movwf	___fltol@f1
  2269  0E3E  120A  158A  2784  120A  158A  	fcall	___fltol
  2270  0E43  1283               	bcf	3,5	;RP0=0, select bank0
  2271  0E44  1303               	bcf	3,6	;RP1=0, select bank0
  2272  0E45  0855               	movf	?___fltol+1,w
  2273  0E46  00E2               	movwf	HC_SR_04_Distance@distance_value+1
  2274  0E47  0854               	movf	?___fltol,w
  2275  0E48  00E1               	movwf	HC_SR_04_Distance@distance_value
  2276  0E49                     l1989:
  2277                           
  2278                           ;HC_SR_04.c: 56:     return distance_value;
  2279  0E49  0862               	movf	HC_SR_04_Distance@distance_value+1,w
  2280  0E4A  00E0               	movwf	?_HC_SR_04_Distance+1
  2281  0E4B  0861               	movf	HC_SR_04_Distance@distance_value,w
  2282  0E4C  00DF               	movwf	?_HC_SR_04_Distance
  2283  0E4D                     l167:
  2284  0E4D  0008               	return
  2285  0E4E                     __end_of_HC_SR_04_Distance:
  2286                           
  2287                           	psect	text9
  2288  000F                     __ptext9:	
  2289 ;; *************** function ___xxtofl *****************
  2290 ;; Defined at:
  2291 ;;		line 10 in file "C:\Program Files\Microchip\xc8\v2.32\pic\sources\c90\common\xxtofl.c"
  2292 ;; Parameters:    Size  Location     Type
  2293 ;;  sign            1    wreg     unsigned char 
  2294 ;;  val             4    0[COMMON] long 
  2295 ;; Auto vars:     Size  Location     Type
  2296 ;;  sign            1    8[COMMON] unsigned char 
  2297 ;;  arg             4   10[COMMON] unsigned long 
  2298 ;;  exp             1    9[COMMON] unsigned char 
  2299 ;; Return value:  Size  Location     Type
  2300 ;;                  4    0[COMMON] unsigned char 
  2301 ;; Registers used:
  2302 ;;		wreg, status,2, status,0
  2303 ;; Tracked objects:
  2304 ;;		On entry : 0/0
  2305 ;;		On exit  : 0/0
  2306 ;;		Unchanged: 0/0
  2307 ;; Data sizes:     COMMON   BANK0   BANK1   BANK3   BANK2
  2308 ;;      Params:         4       0       0       0       0
  2309 ;;      Locals:         6       0       0       0       0
  2310 ;;      Temps:          4       0       0       0       0
  2311 ;;      Totals:        14       0       0       0       0
  2312 ;;Total ram usage:       14 bytes
  2313 ;; Hardware stack levels used: 1
  2314 ;; This function calls:
  2315 ;;		Nothing
  2316 ;; This function is called by:
  2317 ;;		_main
  2318 ;;		_HC_SR_04_Distance
  2319 ;; This function uses a non-reentrant model
  2320 ;;
  2321                           
  2322                           
  2323                           ;psect for function ___xxtofl
  2324  000F                     ___xxtofl:
  2325                           
  2326                           ;incstack = 0
  2327                           ; Regs used in ___xxtofl: [wreg+status,2+status,0]
  2328                           ;___xxtofl@sign stored from wreg
  2329  000F  00F8               	movwf	___xxtofl@sign
  2330  0010                     l1895:
  2331  0010  0878               	movf	___xxtofl@sign,w
  2332  0011  1903               	btfsc	3,2
  2333  0012  2814               	goto	u2131
  2334  0013  2815               	goto	u2130
  2335  0014                     u2131:
  2336  0014  2829               	goto	l1901
  2337  0015                     u2130:
  2338  0015                     l1897:
  2339  0015  1FF3               	btfss	___xxtofl@val+3,7
  2340  0016  2818               	goto	u2141
  2341  0017  2819               	goto	u2140
  2342  0018                     u2141:
  2343  0018  2829               	goto	l1901
  2344  0019                     u2140:
  2345  0019                     l1899:
  2346  0019  0970               	comf	___xxtofl@val,w
  2347  001A  00FA               	movwf	___xxtofl@arg
  2348  001B  0971               	comf	___xxtofl@val+1,w
  2349  001C  00FB               	movwf	___xxtofl@arg+1
  2350  001D  0972               	comf	___xxtofl@val+2,w
  2351  001E  00FC               	movwf	___xxtofl@arg+2
  2352  001F  0973               	comf	___xxtofl@val+3,w
  2353  0020  00FD               	movwf	___xxtofl@arg+3
  2354  0021  0AFA               	incf	___xxtofl@arg,f
  2355  0022  1903               	skipnz
  2356  0023  0AFB               	incf	___xxtofl@arg+1,f
  2357  0024  1903               	skipnz
  2358  0025  0AFC               	incf	___xxtofl@arg+2,f
  2359  0026  1903               	skipnz
  2360  0027  0AFD               	incf	___xxtofl@arg+3,f
  2361  0028  2831               	goto	l686
  2362  0029                     l1901:
  2363  0029  0873               	movf	___xxtofl@val+3,w
  2364  002A  00FD               	movwf	___xxtofl@arg+3
  2365  002B  0872               	movf	___xxtofl@val+2,w
  2366  002C  00FC               	movwf	___xxtofl@arg+2
  2367  002D  0871               	movf	___xxtofl@val+1,w
  2368  002E  00FB               	movwf	___xxtofl@arg+1
  2369  002F  0870               	movf	___xxtofl@val,w
  2370  0030  00FA               	movwf	___xxtofl@arg
  2371  0031                     l686:
  2372  0031  0873               	movf	___xxtofl@val+3,w
  2373  0032  0472               	iorwf	___xxtofl@val+2,w
  2374  0033  0471               	iorwf	___xxtofl@val+1,w
  2375  0034  0470               	iorwf	___xxtofl@val,w
  2376  0035  1D03               	skipz
  2377  0036  2838               	goto	u2151
  2378  0037  2839               	goto	u2150
  2379  0038                     u2151:
  2380  0038  2842               	goto	l1907
  2381  0039                     u2150:
  2382  0039                     l1903:
  2383  0039  3000               	movlw	0
  2384  003A  00F3               	movwf	?___xxtofl+3
  2385  003B  3000               	movlw	0
  2386  003C  00F2               	movwf	?___xxtofl+2
  2387  003D  3000               	movlw	0
  2388  003E  00F1               	movwf	?___xxtofl+1
  2389  003F  3000               	movlw	0
  2390  0040  00F0               	movwf	?___xxtofl
  2391  0041  28C8               	goto	l688
  2392  0042                     l1907:
  2393  0042  3096               	movlw	150
  2394  0043  00F4               	movwf	??___xxtofl
  2395  0044  0874               	movf	??___xxtofl,w
  2396  0045  00F9               	movwf	___xxtofl@exp
  2397  0046  2854               	goto	l1911
  2398  0047                     l1909:
  2399  0047  3001               	movlw	1
  2400  0048  00F4               	movwf	??___xxtofl
  2401  0049  0874               	movf	??___xxtofl,w
  2402  004A  07F9               	addwf	___xxtofl@exp,f
  2403  004B  3001               	movlw	1
  2404  004C                     u2165:
  2405  004C  1003               	clrc
  2406  004D  0CFD               	rrf	___xxtofl@arg+3,f
  2407  004E  0CFC               	rrf	___xxtofl@arg+2,f
  2408  004F  0CFB               	rrf	___xxtofl@arg+1,f
  2409  0050  0CFA               	rrf	___xxtofl@arg,f
  2410  0051  3EFF               	addlw	-1
  2411  0052  1D03               	skipz
  2412  0053  284C               	goto	u2165
  2413  0054                     l1911:
  2414  0054  30FE               	movlw	254
  2415  0055  057D               	andwf	___xxtofl@arg+3,w
  2416  0056  1D03               	btfss	3,2
  2417  0057  2859               	goto	u2171
  2418  0058  285A               	goto	u2170
  2419  0059                     u2171:
  2420  0059  2847               	goto	l1909
  2421  005A                     u2170:
  2422  005A  2876               	goto	l692
  2423  005B                     l1913:
  2424  005B  3001               	movlw	1
  2425  005C  00F4               	movwf	??___xxtofl
  2426  005D  0874               	movf	??___xxtofl,w
  2427  005E  07F9               	addwf	___xxtofl@exp,f
  2428  005F                     l1915:
  2429  005F  3001               	movlw	1
  2430  0060  07FA               	addwf	___xxtofl@arg,f
  2431  0061  3000               	movlw	0
  2432  0062  1803               	skipnc
  2433  0063  3001               	movlw	1
  2434  0064  07FB               	addwf	___xxtofl@arg+1,f
  2435  0065  3000               	movlw	0
  2436  0066  1803               	skipnc
  2437  0067  3001               	movlw	1
  2438  0068  07FC               	addwf	___xxtofl@arg+2,f
  2439  0069  3000               	movlw	0
  2440  006A  1803               	skipnc
  2441  006B  3001               	movlw	1
  2442  006C  07FD               	addwf	___xxtofl@arg+3,f
  2443  006D                     l1917:
  2444  006D  3001               	movlw	1
  2445  006E                     u2185:
  2446  006E  1003               	clrc
  2447  006F  0CFD               	rrf	___xxtofl@arg+3,f
  2448  0070  0CFC               	rrf	___xxtofl@arg+2,f
  2449  0071  0CFB               	rrf	___xxtofl@arg+1,f
  2450  0072  0CFA               	rrf	___xxtofl@arg,f
  2451  0073  3EFF               	addlw	-1
  2452  0074  1D03               	skipz
  2453  0075  286E               	goto	u2185
  2454  0076                     l692:
  2455  0076  30FF               	movlw	255
  2456  0077  057D               	andwf	___xxtofl@arg+3,w
  2457  0078  1D03               	btfss	3,2
  2458  0079  287B               	goto	u2191
  2459  007A  287C               	goto	u2190
  2460  007B                     u2191:
  2461  007B  285B               	goto	l1913
  2462  007C                     u2190:
  2463  007C  2888               	goto	l1921
  2464  007D                     l1919:
  2465  007D  3001               	movlw	1
  2466  007E  02F9               	subwf	___xxtofl@exp,f
  2467  007F  3001               	movlw	1
  2468  0080  00F4               	movwf	??___xxtofl
  2469  0081                     u2205:
  2470  0081  1003               	clrc
  2471  0082  0DFA               	rlf	___xxtofl@arg,f
  2472  0083  0DFB               	rlf	___xxtofl@arg+1,f
  2473  0084  0DFC               	rlf	___xxtofl@arg+2,f
  2474  0085  0DFD               	rlf	___xxtofl@arg+3,f
  2475  0086  0BF4               	decfsz	??___xxtofl,f
  2476  0087  2881               	goto	u2205
  2477  0088                     l1921:
  2478  0088  1BFC               	btfsc	___xxtofl@arg+2,7
  2479  0089  288B               	goto	u2211
  2480  008A  288C               	goto	u2210
  2481  008B                     u2211:
  2482  008B  2892               	goto	l699
  2483  008C                     u2210:
  2484  008C                     l1923:
  2485  008C  3002               	movlw	2
  2486  008D  0279               	subwf	___xxtofl@exp,w
  2487  008E  1803               	skipnc
  2488  008F  2891               	goto	u2221
  2489  0090  2892               	goto	u2220
  2490  0091                     u2221:
  2491  0091  287D               	goto	l1919
  2492  0092                     u2220:
  2493  0092                     l699:
  2494  0092  1879               	btfsc	___xxtofl@exp,0
  2495  0093  2895               	goto	u2231
  2496  0094  2896               	goto	u2230
  2497  0095                     u2231:
  2498  0095  289E               	goto	l700
  2499  0096                     u2230:
  2500  0096                     l1925:
  2501  0096  30FF               	movlw	255
  2502  0097  05FA               	andwf	___xxtofl@arg,f
  2503  0098  30FF               	movlw	255
  2504  0099  05FB               	andwf	___xxtofl@arg+1,f
  2505  009A  307F               	movlw	127
  2506  009B  05FC               	andwf	___xxtofl@arg+2,f
  2507  009C  30FF               	movlw	255
  2508  009D  05FD               	andwf	___xxtofl@arg+3,f
  2509  009E                     l700:
  2510  009E  1003               	clrc
  2511  009F  0CF9               	rrf	___xxtofl@exp,f
  2512  00A0                     l1927:
  2513  00A0  0879               	movf	___xxtofl@exp,w
  2514  00A1  00F4               	movwf	??___xxtofl
  2515  00A2  01F5               	clrf	??___xxtofl+1
  2516  00A3  01F6               	clrf	??___xxtofl+2
  2517  00A4  01F7               	clrf	??___xxtofl+3
  2518  00A5  3018               	movlw	24
  2519  00A6                     u2245:
  2520  00A6  1003               	clrc
  2521  00A7  0DF4               	rlf	??___xxtofl,f
  2522  00A8  0DF5               	rlf	??___xxtofl+1,f
  2523  00A9  0DF6               	rlf	??___xxtofl+2,f
  2524  00AA  0DF7               	rlf	??___xxtofl+3,f
  2525  00AB                     u2240:
  2526  00AB  3EFF               	addlw	-1
  2527  00AC  1D03               	skipz
  2528  00AD  28A6               	goto	u2245
  2529  00AE  0874               	movf	??___xxtofl,w
  2530  00AF  04FA               	iorwf	___xxtofl@arg,f
  2531  00B0  0875               	movf	??___xxtofl+1,w
  2532  00B1  04FB               	iorwf	___xxtofl@arg+1,f
  2533  00B2  0876               	movf	??___xxtofl+2,w
  2534  00B3  04FC               	iorwf	___xxtofl@arg+2,f
  2535  00B4  0877               	movf	??___xxtofl+3,w
  2536  00B5  04FD               	iorwf	___xxtofl@arg+3,f
  2537  00B6                     l1929:
  2538  00B6  0878               	movf	___xxtofl@sign,w
  2539  00B7  1903               	btfsc	3,2
  2540  00B8  28BA               	goto	u2251
  2541  00B9  28BB               	goto	u2250
  2542  00BA                     u2251:
  2543  00BA  28C0               	goto	l1935
  2544  00BB                     u2250:
  2545  00BB                     l1931:
  2546  00BB  1FF3               	btfss	___xxtofl@val+3,7
  2547  00BC  28BE               	goto	u2261
  2548  00BD  28BF               	goto	u2260
  2549  00BE                     u2261:
  2550  00BE  28C0               	goto	l1935
  2551  00BF                     u2260:
  2552  00BF                     l1933:
  2553  00BF  17FD               	bsf	___xxtofl@arg+3,7
  2554  00C0                     l1935:
  2555  00C0  087D               	movf	___xxtofl@arg+3,w
  2556  00C1  00F3               	movwf	?___xxtofl+3
  2557  00C2  087C               	movf	___xxtofl@arg+2,w
  2558  00C3  00F2               	movwf	?___xxtofl+2
  2559  00C4  087B               	movf	___xxtofl@arg+1,w
  2560  00C5  00F1               	movwf	?___xxtofl+1
  2561  00C6  087A               	movf	___xxtofl@arg,w
  2562  00C7  00F0               	movwf	?___xxtofl
  2563  00C8                     l688:
  2564  00C8  0008               	return
  2565  00C9                     __end_of___xxtofl:
  2566                           
  2567                           	psect	text10
  2568  0F84                     __ptext10:	
  2569 ;; *************** function ___fltol *****************
  2570 ;; Defined at:
  2571 ;;		line 43 in file "C:\Program Files\Microchip\xc8\v2.32\pic\sources\c90\common\fltol.c"
  2572 ;; Parameters:    Size  Location     Type
  2573 ;;  f1              4   52[BANK0 ] unsigned char 
  2574 ;; Auto vars:     Size  Location     Type
  2575 ;;  exp1            1   62[BANK0 ] unsigned char 
  2576 ;;  sign1           1   61[BANK0 ] unsigned char 
  2577 ;; Return value:  Size  Location     Type
  2578 ;;                  4   52[BANK0 ] long 
  2579 ;; Registers used:
  2580 ;;		wreg, status,2, status,0
  2581 ;; Tracked objects:
  2582 ;;		On entry : 0/0
  2583 ;;		On exit  : 0/0
  2584 ;;		Unchanged: 0/0
  2585 ;; Data sizes:     COMMON   BANK0   BANK1   BANK3   BANK2
  2586 ;;      Params:         0       4       0       0       0
  2587 ;;      Locals:         0       2       0       0       0
  2588 ;;      Temps:          0       5       0       0       0
  2589 ;;      Totals:         0      11       0       0       0
  2590 ;;Total ram usage:       11 bytes
  2591 ;; Hardware stack levels used: 1
  2592 ;; This function calls:
  2593 ;;		Nothing
  2594 ;; This function is called by:
  2595 ;;		_main
  2596 ;;		_HC_SR_04_Distance
  2597 ;; This function uses a non-reentrant model
  2598 ;;
  2599                           
  2600                           
  2601                           ;psect for function ___fltol
  2602  0F84                     ___fltol:
  2603  0F84                     l1577:	
  2604                           ;incstack = 0
  2605                           ; Regs used in ___fltol: [wreg+status,2+status,0]
  2606                           
  2607  0F84  1003               	clrc
  2608  0F85  1283               	bcf	3,5	;RP0=0, select bank0
  2609  0F86  1303               	bcf	3,6	;RP1=0, select bank0
  2610  0F87  0D56               	rlf	___fltol@f1+2,w
  2611  0F88  0D57               	rlf	___fltol@f1+3,w
  2612  0F89  00D8               	movwf	??___fltol
  2613  0F8A  0858               	movf	??___fltol,w
  2614  0F8B  00DE               	movwf	___fltol@exp1
  2615  0F8C  085E               	movf	___fltol@exp1,w
  2616  0F8D  1D03               	btfss	3,2
  2617  0F8E  2F90               	goto	u1371
  2618  0F8F  2F91               	goto	u1370
  2619  0F90                     u1371:
  2620  0F90  2F9A               	goto	l1583
  2621  0F91                     u1370:
  2622  0F91                     l1579:
  2623  0F91  3000               	movlw	0
  2624  0F92  00D7               	movwf	?___fltol+3
  2625  0F93  3000               	movlw	0
  2626  0F94  00D6               	movwf	?___fltol+2
  2627  0F95  3000               	movlw	0
  2628  0F96  00D5               	movwf	?___fltol+1
  2629  0F97  3000               	movlw	0
  2630  0F98  00D4               	movwf	?___fltol
  2631  0F99  2FFF               	goto	l439
  2632  0F9A                     l1583:
  2633  0F9A  0854               	movf	___fltol@f1,w
  2634  0F9B  00D8               	movwf	??___fltol
  2635  0F9C  0855               	movf	___fltol@f1+1,w
  2636  0F9D  00D9               	movwf	??___fltol+1
  2637  0F9E  0856               	movf	___fltol@f1+2,w
  2638  0F9F  00DA               	movwf	??___fltol+2
  2639  0FA0  0857               	movf	___fltol@f1+3,w
  2640  0FA1  00DB               	movwf	??___fltol+3
  2641  0FA2  301F               	movlw	31
  2642  0FA3                     u1385:
  2643  0FA3  1003               	clrc
  2644  0FA4  0CDB               	rrf	??___fltol+3,f
  2645  0FA5  0CDA               	rrf	??___fltol+2,f
  2646  0FA6  0CD9               	rrf	??___fltol+1,f
  2647  0FA7  0CD8               	rrf	??___fltol,f
  2648  0FA8                     u1380:
  2649  0FA8  3EFF               	addlw	-1
  2650  0FA9  1D03               	skipz
  2651  0FAA  2FA3               	goto	u1385
  2652  0FAB  0858               	movf	??___fltol,w
  2653  0FAC  00DC               	movwf	??___fltol+4
  2654  0FAD  085C               	movf	??___fltol+4,w
  2655  0FAE  00DD               	movwf	___fltol@sign1
  2656  0FAF                     l1585:
  2657  0FAF  17D6               	bsf	___fltol@f1+2,7
  2658  0FB0                     l1587:
  2659  0FB0  30FF               	movlw	255
  2660  0FB1  05D4               	andwf	___fltol@f1,f
  2661  0FB2  30FF               	movlw	255
  2662  0FB3  05D5               	andwf	___fltol@f1+1,f
  2663  0FB4  30FF               	movlw	255
  2664  0FB5  05D6               	andwf	___fltol@f1+2,f
  2665  0FB6  3000               	movlw	0
  2666  0FB7  05D7               	andwf	___fltol@f1+3,f
  2667  0FB8                     l1589:
  2668  0FB8  3096               	movlw	150
  2669  0FB9  02DE               	subwf	___fltol@exp1,f
  2670  0FBA                     l1591:
  2671  0FBA  1FDE               	btfss	___fltol@exp1,7
  2672  0FBB  2FBD               	goto	u1391
  2673  0FBC  2FBE               	goto	u1390
  2674  0FBD                     u1391:
  2675  0FBD  2FD8               	goto	l1601
  2676  0FBE                     u1390:
  2677  0FBE                     l1593:
  2678  0FBE  085E               	movf	___fltol@exp1,w
  2679  0FBF  3A80               	xorlw	128
  2680  0FC0  3E97               	addlw	151
  2681  0FC1  1803               	skipnc
  2682  0FC2  2FC4               	goto	u1401
  2683  0FC3  2FC5               	goto	u1400
  2684  0FC4                     u1401:
  2685  0FC4  2FC6               	goto	l1599
  2686  0FC5                     u1400:
  2687  0FC5  2F91               	goto	l1579
  2688  0FC6                     l1599:
  2689  0FC6  3001               	movlw	1
  2690  0FC7                     u1415:
  2691  0FC7  1003               	clrc
  2692  0FC8  0CD7               	rrf	___fltol@f1+3,f
  2693  0FC9  0CD6               	rrf	___fltol@f1+2,f
  2694  0FCA  0CD5               	rrf	___fltol@f1+1,f
  2695  0FCB  0CD4               	rrf	___fltol@f1,f
  2696  0FCC  3EFF               	addlw	-1
  2697  0FCD  1D03               	skipz
  2698  0FCE  2FC7               	goto	u1415
  2699  0FCF  3001               	movlw	1
  2700  0FD0  00D8               	movwf	??___fltol
  2701  0FD1  0858               	movf	??___fltol,w
  2702  0FD2  07DE               	addwf	___fltol@exp1,f
  2703  0FD3  1D03               	btfss	3,2
  2704  0FD4  2FD6               	goto	u1421
  2705  0FD5  2FD7               	goto	u1420
  2706  0FD6                     u1421:
  2707  0FD6  2FC6               	goto	l1599
  2708  0FD7                     u1420:
  2709  0FD7  2FEF               	goto	l1609
  2710  0FD8                     l1601:
  2711  0FD8  3020               	movlw	32
  2712  0FD9  025E               	subwf	___fltol@exp1,w
  2713  0FDA  1C03               	skipc
  2714  0FDB  2FDD               	goto	u1431
  2715  0FDC  2FDE               	goto	u1430
  2716  0FDD                     u1431:
  2717  0FDD  2FEA               	goto	l446
  2718  0FDE                     u1430:
  2719  0FDE  2F91               	goto	l1579
  2720  0FDF                     l1607:
  2721  0FDF  3001               	movlw	1
  2722  0FE0  00D8               	movwf	??___fltol
  2723  0FE1                     u1445:
  2724  0FE1  1003               	clrc
  2725  0FE2  0DD4               	rlf	___fltol@f1,f
  2726  0FE3  0DD5               	rlf	___fltol@f1+1,f
  2727  0FE4  0DD6               	rlf	___fltol@f1+2,f
  2728  0FE5  0DD7               	rlf	___fltol@f1+3,f
  2729  0FE6  0BD8               	decfsz	??___fltol,f
  2730  0FE7  2FE1               	goto	u1445
  2731  0FE8  3001               	movlw	1
  2732  0FE9  02DE               	subwf	___fltol@exp1,f
  2733  0FEA                     l446:
  2734  0FEA  085E               	movf	___fltol@exp1,w
  2735  0FEB  1D03               	btfss	3,2
  2736  0FEC  2FEE               	goto	u1451
  2737  0FED  2FEF               	goto	u1450
  2738  0FEE                     u1451:
  2739  0FEE  2FDF               	goto	l1607
  2740  0FEF                     u1450:
  2741  0FEF                     l1609:
  2742  0FEF  085D               	movf	___fltol@sign1,w
  2743  0FF0  1903               	btfsc	3,2
  2744  0FF1  2FF3               	goto	u1461
  2745  0FF2  2FF4               	goto	u1460
  2746  0FF3                     u1461:
  2747  0FF3  2FFF               	goto	l449
  2748  0FF4                     u1460:
  2749  0FF4                     l1611:
  2750  0FF4  09D4               	comf	___fltol@f1,f
  2751  0FF5  09D5               	comf	___fltol@f1+1,f
  2752  0FF6  09D6               	comf	___fltol@f1+2,f
  2753  0FF7  09D7               	comf	___fltol@f1+3,f
  2754  0FF8  0AD4               	incf	___fltol@f1,f
  2755  0FF9  1903               	skipnz
  2756  0FFA  0AD5               	incf	___fltol@f1+1,f
  2757  0FFB  1903               	skipnz
  2758  0FFC  0AD6               	incf	___fltol@f1+2,f
  2759  0FFD  1903               	skipnz
  2760  0FFE  0AD7               	incf	___fltol@f1+3,f
  2761  0FFF                     l449:
  2762  0FFF                     l439:
  2763  0FFF  0008               	return
  2764  1000                     __end_of___fltol:
  2765                           
  2766                           	psect	text11
  2767  048B                     __ptext11:	
  2768 ;; *************** function ___flmul *****************
  2769 ;; Defined at:
  2770 ;;		line 8 in file "C:\Program Files\Microchip\xc8\v2.32\pic\sources\c90\common\sprcmul.c"
  2771 ;; Parameters:    Size  Location     Type
  2772 ;;  b               4    0[BANK0 ] long 
  2773 ;;  a               4    4[BANK0 ] long 
  2774 ;; Auto vars:     Size  Location     Type
  2775 ;;  prod            4   20[BANK0 ] struct .
  2776 ;;  grs             4   14[BANK0 ] unsigned long 
  2777 ;;  temp            2   24[BANK0 ] struct .
  2778 ;;  bexp            1   19[BANK0 ] unsigned char 
  2779 ;;  aexp            1   18[BANK0 ] unsigned char 
  2780 ;;  sign            1   13[BANK0 ] unsigned char 
  2781 ;; Return value:  Size  Location     Type
  2782 ;;                  4    0[BANK0 ] unsigned char 
  2783 ;; Registers used:
  2784 ;;		wreg, status,2, status,0, btemp+1, pclath, cstack
  2785 ;; Tracked objects:
  2786 ;;		On entry : 0/0
  2787 ;;		On exit  : 0/0
  2788 ;;		Unchanged: 0/0
  2789 ;; Data sizes:     COMMON   BANK0   BANK1   BANK3   BANK2
  2790 ;;      Params:         0       8       0       0       0
  2791 ;;      Locals:         0      13       0       0       0
  2792 ;;      Temps:          0       5       0       0       0
  2793 ;;      Totals:         0      26       0       0       0
  2794 ;;Total ram usage:       26 bytes
  2795 ;; Hardware stack levels used: 1
  2796 ;; Hardware stack levels required when called: 1
  2797 ;; This function calls:
  2798 ;;		__Umul8_16
  2799 ;; This function is called by:
  2800 ;;		_main
  2801 ;;		_HC_SR_04_Distance
  2802 ;; This function uses a non-reentrant model
  2803 ;;
  2804                           
  2805                           
  2806                           ;psect for function ___flmul
  2807  048B                     ___flmul:
  2808  048B                     l1755:	
  2809                           ;incstack = 0
  2810                           ; Regs used in ___flmul: [wreg+status,2+status,0+btemp+1+pclath+cstack]
  2811                           
  2812  048B  1283               	bcf	3,5	;RP0=0, select bank0
  2813  048C  1303               	bcf	3,6	;RP1=0, select bank0
  2814  048D  0823               	movf	___flmul@b+3,w
  2815  048E  3980               	andlw	128
  2816  048F  00A8               	movwf	??___flmul
  2817  0490  0828               	movf	??___flmul,w
  2818  0491  00AD               	movwf	___flmul@sign
  2819  0492                     l1757:
  2820  0492  0823               	movf	___flmul@b+3,w
  2821  0493  00A8               	movwf	??___flmul
  2822  0494  0728               	addwf	??___flmul,w
  2823  0495  00A9               	movwf	??___flmul+1
  2824  0496  0829               	movf	??___flmul+1,w
  2825  0497  00B3               	movwf	___flmul@bexp
  2826  0498                     l1759:
  2827  0498  1FA2               	btfss	___flmul@b+2,7
  2828  0499  2C9B               	goto	u1761
  2829  049A  2C9C               	goto	u1760
  2830  049B                     u1761:
  2831  049B  2C9D               	goto	l1763
  2832  049C                     u1760:
  2833  049C                     l1761:
  2834  049C  1433               	bsf	___flmul@bexp,0
  2835  049D                     l1763:
  2836  049D  0833               	movf	___flmul@bexp,w
  2837  049E  1903               	btfsc	3,2
  2838  049F  2CA1               	goto	u1771
  2839  04A0  2CA2               	goto	u1770
  2840  04A1                     u1771:
  2841  04A1  2CB1               	goto	l1771
  2842  04A2                     u1770:
  2843  04A2                     l1765:
  2844  04A2  0A33               	incf	___flmul@bexp,w
  2845  04A3  1D03               	btfss	3,2
  2846  04A4  2CA6               	goto	u1781
  2847  04A5  2CA7               	goto	u1780
  2848  04A6                     u1781:
  2849  04A6  2CAF               	goto	l1769
  2850  04A7                     u1780:
  2851  04A7                     l1767:
  2852  04A7  3000               	movlw	0
  2853  04A8  00A3               	movwf	___flmul@b+3
  2854  04A9  3000               	movlw	0
  2855  04AA  00A2               	movwf	___flmul@b+2
  2856  04AB  3000               	movlw	0
  2857  04AC  00A1               	movwf	___flmul@b+1
  2858  04AD  3000               	movlw	0
  2859  04AE  00A0               	movwf	___flmul@b
  2860  04AF                     l1769:
  2861  04AF  17A2               	bsf	___flmul@b+2,7
  2862  04B0  2CB9               	goto	l1773
  2863  04B1                     l1771:
  2864  04B1  3000               	movlw	0
  2865  04B2  00A3               	movwf	___flmul@b+3
  2866  04B3  3000               	movlw	0
  2867  04B4  00A2               	movwf	___flmul@b+2
  2868  04B5  3000               	movlw	0
  2869  04B6  00A1               	movwf	___flmul@b+1
  2870  04B7  3000               	movlw	0
  2871  04B8  00A0               	movwf	___flmul@b
  2872  04B9                     l1773:
  2873  04B9  0827               	movf	___flmul@a+3,w
  2874  04BA  3980               	andlw	128
  2875  04BB  00A8               	movwf	??___flmul
  2876  04BC  0828               	movf	??___flmul,w
  2877  04BD  06AD               	xorwf	___flmul@sign,f
  2878  04BE                     l1775:
  2879  04BE  0827               	movf	___flmul@a+3,w
  2880  04BF  00A8               	movwf	??___flmul
  2881  04C0  0728               	addwf	??___flmul,w
  2882  04C1  00A9               	movwf	??___flmul+1
  2883  04C2  0829               	movf	??___flmul+1,w
  2884  04C3  00B2               	movwf	___flmul@aexp
  2885  04C4                     l1777:
  2886  04C4  1FA6               	btfss	___flmul@a+2,7
  2887  04C5  2CC7               	goto	u1791
  2888  04C6  2CC8               	goto	u1790
  2889  04C7                     u1791:
  2890  04C7  2CC9               	goto	l1781
  2891  04C8                     u1790:
  2892  04C8                     l1779:
  2893  04C8  1432               	bsf	___flmul@aexp,0
  2894  04C9                     l1781:
  2895  04C9  0832               	movf	___flmul@aexp,w
  2896  04CA  1903               	btfsc	3,2
  2897  04CB  2CCD               	goto	u1801
  2898  04CC  2CCE               	goto	u1800
  2899  04CD                     u1801:
  2900  04CD  2CDD               	goto	l1789
  2901  04CE                     u1800:
  2902  04CE                     l1783:
  2903  04CE  0A32               	incf	___flmul@aexp,w
  2904  04CF  1D03               	btfss	3,2
  2905  04D0  2CD2               	goto	u1811
  2906  04D1  2CD3               	goto	u1810
  2907  04D2                     u1811:
  2908  04D2  2CDB               	goto	l1787
  2909  04D3                     u1810:
  2910  04D3                     l1785:
  2911  04D3  3000               	movlw	0
  2912  04D4  00A7               	movwf	___flmul@a+3
  2913  04D5  3000               	movlw	0
  2914  04D6  00A6               	movwf	___flmul@a+2
  2915  04D7  3000               	movlw	0
  2916  04D8  00A5               	movwf	___flmul@a+1
  2917  04D9  3000               	movlw	0
  2918  04DA  00A4               	movwf	___flmul@a
  2919  04DB                     l1787:
  2920  04DB  17A6               	bsf	___flmul@a+2,7
  2921  04DC  2CE5               	goto	l1791
  2922  04DD                     l1789:
  2923  04DD  3000               	movlw	0
  2924  04DE  00A7               	movwf	___flmul@a+3
  2925  04DF  3000               	movlw	0
  2926  04E0  00A6               	movwf	___flmul@a+2
  2927  04E1  3000               	movlw	0
  2928  04E2  00A5               	movwf	___flmul@a+1
  2929  04E3  3000               	movlw	0
  2930  04E4  00A4               	movwf	___flmul@a
  2931  04E5                     l1791:
  2932  04E5  0832               	movf	___flmul@aexp,w
  2933  04E6  1903               	btfsc	3,2
  2934  04E7  2CE9               	goto	u1821
  2935  04E8  2CEA               	goto	u1820
  2936  04E9                     u1821:
  2937  04E9  2CEF               	goto	l1795
  2938  04EA                     u1820:
  2939  04EA                     l1793:
  2940  04EA  0833               	movf	___flmul@bexp,w
  2941  04EB  1D03               	btfss	3,2
  2942  04EC  2CEE               	goto	u1831
  2943  04ED  2CEF               	goto	u1830
  2944  04EE                     u1831:
  2945  04EE  2CF8               	goto	l1799
  2946  04EF                     u1830:
  2947  04EF                     l1795:
  2948  04EF  3000               	movlw	0
  2949  04F0  00A3               	movwf	?___flmul+3
  2950  04F1  3000               	movlw	0
  2951  04F2  00A2               	movwf	?___flmul+2
  2952  04F3  3000               	movlw	0
  2953  04F4  00A1               	movwf	?___flmul+1
  2954  04F5  3000               	movlw	0
  2955  04F6  00A0               	movwf	?___flmul
  2956  04F7  2FEB               	goto	l642
  2957  04F8                     l1799:
  2958  04F8  0820               	movf	___flmul@b,w
  2959  04F9  00A8               	movwf	??___flmul
  2960  04FA  0828               	movf	??___flmul,w
  2961  04FB  00F0               	movwf	__Umul8_16@multiplicand
  2962  04FC  0826               	movf	___flmul@a+2,w
  2963  04FD  120A  158A  2529  120A  118A  	fcall	__Umul8_16
  2964  0502  0871               	movf	?__Umul8_16+1,w
  2965  0503  1283               	bcf	3,5	;RP0=0, select bank0
  2966  0504  1303               	bcf	3,6	;RP1=0, select bank0
  2967  0505  00B9               	movwf	___flmul@temp+1
  2968  0506  0870               	movf	?__Umul8_16,w
  2969  0507  00B8               	movwf	___flmul@temp
  2970  0508                     l1801:
  2971  0508  0838               	movf	___flmul@temp,w
  2972  0509  00A8               	movwf	??___flmul
  2973  050A  01A9               	clrf	??___flmul+1
  2974  050B  01AA               	clrf	??___flmul+2
  2975  050C  01AB               	clrf	??___flmul+3
  2976  050D  082B               	movf	??___flmul+3,w
  2977  050E  00B1               	movwf	___flmul@grs+3
  2978  050F  082A               	movf	??___flmul+2,w
  2979  0510  00B0               	movwf	___flmul@grs+2
  2980  0511  0829               	movf	??___flmul+1,w
  2981  0512  00AF               	movwf	___flmul@grs+1
  2982  0513  0828               	movf	??___flmul,w
  2983  0514  00AE               	movwf	___flmul@grs
  2984  0515                     l1803:
  2985  0515  0839               	movf	___flmul@temp+1,w
  2986  0516  00A8               	movwf	??___flmul
  2987  0517  01A9               	clrf	??___flmul+1
  2988  0518  01AA               	clrf	??___flmul+2
  2989  0519  01AB               	clrf	??___flmul+3
  2990  051A  082B               	movf	??___flmul+3,w
  2991  051B  00B7               	movwf	___flmul@prod+3
  2992  051C  082A               	movf	??___flmul+2,w
  2993  051D  00B6               	movwf	___flmul@prod+2
  2994  051E  0829               	movf	??___flmul+1,w
  2995  051F  00B5               	movwf	___flmul@prod+1
  2996  0520  0828               	movf	??___flmul,w
  2997  0521  00B4               	movwf	___flmul@prod
  2998  0522  0821               	movf	___flmul@b+1,w
  2999  0523  00A8               	movwf	??___flmul
  3000  0524  0828               	movf	??___flmul,w
  3001  0525  00F0               	movwf	__Umul8_16@multiplicand
  3002  0526  0825               	movf	___flmul@a+1,w
  3003  0527  120A  158A  2529  120A  118A  	fcall	__Umul8_16
  3004  052C  0871               	movf	?__Umul8_16+1,w
  3005  052D  1283               	bcf	3,5	;RP0=0, select bank0
  3006  052E  1303               	bcf	3,6	;RP1=0, select bank0
  3007  052F  00B9               	movwf	___flmul@temp+1
  3008  0530  0870               	movf	?__Umul8_16,w
  3009  0531  00B8               	movwf	___flmul@temp
  3010  0532                     l1805:
  3011  0532  0838               	movf	___flmul@temp,w
  3012  0533  00A8               	movwf	??___flmul
  3013  0534  01A9               	clrf	??___flmul+1
  3014  0535  01AA               	clrf	??___flmul+2
  3015  0536  01AB               	clrf	??___flmul+3
  3016  0537  0828               	movf	??___flmul,w
  3017  0538  07AE               	addwf	___flmul@grs,f
  3018  0539  0829               	movf	??___flmul+1,w
  3019  053A  1103               	clrz
  3020  053B  1803               	skipnc
  3021  053C  3E01               	addlw	1
  3022  053D  1903               	skipnz
  3023  053E  2D40               	goto	u1841
  3024  053F  07AF               	addwf	___flmul@grs+1,f
  3025  0540                     u1841:
  3026  0540  082A               	movf	??___flmul+2,w
  3027  0541  1103               	clrz
  3028  0542  1803               	skipnc
  3029  0543  3E01               	addlw	1
  3030  0544  1903               	skipnz
  3031  0545  2D47               	goto	u1842
  3032  0546  07B0               	addwf	___flmul@grs+2,f
  3033  0547                     u1842:
  3034  0547  082B               	movf	??___flmul+3,w
  3035  0548  1103               	clrz
  3036  0549  1803               	skipnc
  3037  054A  3E01               	addlw	1
  3038  054B  1903               	skipnz
  3039  054C  2D4E               	goto	u1843
  3040  054D  07B1               	addwf	___flmul@grs+3,f
  3041  054E                     u1843:
  3042  054E                     l1807:
  3043  054E  0839               	movf	___flmul@temp+1,w
  3044  054F  00A8               	movwf	??___flmul
  3045  0550  01A9               	clrf	??___flmul+1
  3046  0551  01AA               	clrf	??___flmul+2
  3047  0552  01AB               	clrf	??___flmul+3
  3048  0553  0828               	movf	??___flmul,w
  3049  0554  07B4               	addwf	___flmul@prod,f
  3050  0555  0829               	movf	??___flmul+1,w
  3051  0556  1103               	clrz
  3052  0557  1803               	skipnc
  3053  0558  3E01               	addlw	1
  3054  0559  1903               	skipnz
  3055  055A  2D5C               	goto	u1851
  3056  055B  07B5               	addwf	___flmul@prod+1,f
  3057  055C                     u1851:
  3058  055C  082A               	movf	??___flmul+2,w
  3059  055D  1103               	clrz
  3060  055E  1803               	skipnc
  3061  055F  3E01               	addlw	1
  3062  0560  1903               	skipnz
  3063  0561  2D63               	goto	u1852
  3064  0562  07B6               	addwf	___flmul@prod+2,f
  3065  0563                     u1852:
  3066  0563  082B               	movf	??___flmul+3,w
  3067  0564  1103               	clrz
  3068  0565  1803               	skipnc
  3069  0566  3E01               	addlw	1
  3070  0567  1903               	skipnz
  3071  0568  2D6A               	goto	u1853
  3072  0569  07B7               	addwf	___flmul@prod+3,f
  3073  056A                     u1853:
  3074  056A  0822               	movf	___flmul@b+2,w
  3075  056B  00A8               	movwf	??___flmul
  3076  056C  0828               	movf	??___flmul,w
  3077  056D  00F0               	movwf	__Umul8_16@multiplicand
  3078  056E  0824               	movf	___flmul@a,w
  3079  056F  120A  158A  2529  120A  118A  	fcall	__Umul8_16
  3080  0574  0871               	movf	?__Umul8_16+1,w
  3081  0575  1283               	bcf	3,5	;RP0=0, select bank0
  3082  0576  1303               	bcf	3,6	;RP1=0, select bank0
  3083  0577  00B9               	movwf	___flmul@temp+1
  3084  0578  0870               	movf	?__Umul8_16,w
  3085  0579  00B8               	movwf	___flmul@temp
  3086  057A                     l1809:
  3087  057A  0838               	movf	___flmul@temp,w
  3088  057B  00A8               	movwf	??___flmul
  3089  057C  01A9               	clrf	??___flmul+1
  3090  057D  01AA               	clrf	??___flmul+2
  3091  057E  01AB               	clrf	??___flmul+3
  3092  057F  0828               	movf	??___flmul,w
  3093  0580  07AE               	addwf	___flmul@grs,f
  3094  0581  0829               	movf	??___flmul+1,w
  3095  0582  1103               	clrz
  3096  0583  1803               	skipnc
  3097  0584  3E01               	addlw	1
  3098  0585  1903               	skipnz
  3099  0586  2D88               	goto	u1861
  3100  0587  07AF               	addwf	___flmul@grs+1,f
  3101  0588                     u1861:
  3102  0588  082A               	movf	??___flmul+2,w
  3103  0589  1103               	clrz
  3104  058A  1803               	skipnc
  3105  058B  3E01               	addlw	1
  3106  058C  1903               	skipnz
  3107  058D  2D8F               	goto	u1862
  3108  058E  07B0               	addwf	___flmul@grs+2,f
  3109  058F                     u1862:
  3110  058F  082B               	movf	??___flmul+3,w
  3111  0590  1103               	clrz
  3112  0591  1803               	skipnc
  3113  0592  3E01               	addlw	1
  3114  0593  1903               	skipnz
  3115  0594  2D96               	goto	u1863
  3116  0595  07B1               	addwf	___flmul@grs+3,f
  3117  0596                     u1863:
  3118  0596                     l1811:
  3119  0596  0839               	movf	___flmul@temp+1,w
  3120  0597  00A8               	movwf	??___flmul
  3121  0598  01A9               	clrf	??___flmul+1
  3122  0599  01AA               	clrf	??___flmul+2
  3123  059A  01AB               	clrf	??___flmul+3
  3124  059B  0828               	movf	??___flmul,w
  3125  059C  07B4               	addwf	___flmul@prod,f
  3126  059D  0829               	movf	??___flmul+1,w
  3127  059E  1103               	clrz
  3128  059F  1803               	skipnc
  3129  05A0  3E01               	addlw	1
  3130  05A1  1903               	skipnz
  3131  05A2  2DA4               	goto	u1871
  3132  05A3  07B5               	addwf	___flmul@prod+1,f
  3133  05A4                     u1871:
  3134  05A4  082A               	movf	??___flmul+2,w
  3135  05A5  1103               	clrz
  3136  05A6  1803               	skipnc
  3137  05A7  3E01               	addlw	1
  3138  05A8  1903               	skipnz
  3139  05A9  2DAB               	goto	u1872
  3140  05AA  07B6               	addwf	___flmul@prod+2,f
  3141  05AB                     u1872:
  3142  05AB  082B               	movf	??___flmul+3,w
  3143  05AC  1103               	clrz
  3144  05AD  1803               	skipnc
  3145  05AE  3E01               	addlw	1
  3146  05AF  1903               	skipnz
  3147  05B0  2DB2               	goto	u1873
  3148  05B1  07B7               	addwf	___flmul@prod+3,f
  3149  05B2                     u1873:
  3150  05B2                     l1813:
  3151  05B2  3008               	movlw	8
  3152  05B3  00A8               	movwf	??___flmul
  3153  05B4                     u1885:
  3154  05B4  1003               	clrc
  3155  05B5  0DAE               	rlf	___flmul@grs,f
  3156  05B6  0DAF               	rlf	___flmul@grs+1,f
  3157  05B7  0DB0               	rlf	___flmul@grs+2,f
  3158  05B8  0DB1               	rlf	___flmul@grs+3,f
  3159  05B9  0BA8               	decfsz	??___flmul,f
  3160  05BA  2DB4               	goto	u1885
  3161  05BB                     l1815:
  3162  05BB  0821               	movf	___flmul@b+1,w
  3163  05BC  00A8               	movwf	??___flmul
  3164  05BD  0828               	movf	??___flmul,w
  3165  05BE  00F0               	movwf	__Umul8_16@multiplicand
  3166  05BF  0824               	movf	___flmul@a,w
  3167  05C0  120A  158A  2529  120A  118A  	fcall	__Umul8_16
  3168  05C5  0871               	movf	?__Umul8_16+1,w
  3169  05C6  1283               	bcf	3,5	;RP0=0, select bank0
  3170  05C7  1303               	bcf	3,6	;RP1=0, select bank0
  3171  05C8  00B9               	movwf	___flmul@temp+1
  3172  05C9  0870               	movf	?__Umul8_16,w
  3173  05CA  00B8               	movwf	___flmul@temp
  3174  05CB                     l1817:
  3175  05CB  0838               	movf	___flmul@temp,w
  3176  05CC  00A8               	movwf	??___flmul
  3177  05CD  0839               	movf	___flmul@temp+1,w
  3178  05CE  00A9               	movwf	??___flmul+1
  3179  05CF  01AA               	clrf	??___flmul+2
  3180  05D0  01AB               	clrf	??___flmul+3
  3181  05D1  0828               	movf	??___flmul,w
  3182  05D2  07AE               	addwf	___flmul@grs,f
  3183  05D3  0829               	movf	??___flmul+1,w
  3184  05D4  1103               	clrz
  3185  05D5  1803               	skipnc
  3186  05D6  3E01               	addlw	1
  3187  05D7  1903               	skipnz
  3188  05D8  2DDA               	goto	u1891
  3189  05D9  07AF               	addwf	___flmul@grs+1,f
  3190  05DA                     u1891:
  3191  05DA  082A               	movf	??___flmul+2,w
  3192  05DB  1103               	clrz
  3193  05DC  1803               	skipnc
  3194  05DD  3E01               	addlw	1
  3195  05DE  1903               	skipnz
  3196  05DF  2DE1               	goto	u1892
  3197  05E0  07B0               	addwf	___flmul@grs+2,f
  3198  05E1                     u1892:
  3199  05E1  082B               	movf	??___flmul+3,w
  3200  05E2  1103               	clrz
  3201  05E3  1803               	skipnc
  3202  05E4  3E01               	addlw	1
  3203  05E5  1903               	skipnz
  3204  05E6  2DE8               	goto	u1893
  3205  05E7  07B1               	addwf	___flmul@grs+3,f
  3206  05E8                     u1893:
  3207  05E8                     l1819:
  3208  05E8  0820               	movf	___flmul@b,w
  3209  05E9  00A8               	movwf	??___flmul
  3210  05EA  0828               	movf	??___flmul,w
  3211  05EB  00F0               	movwf	__Umul8_16@multiplicand
  3212  05EC  0825               	movf	___flmul@a+1,w
  3213  05ED  120A  158A  2529  120A  118A  	fcall	__Umul8_16
  3214  05F2  0871               	movf	?__Umul8_16+1,w
  3215  05F3  1283               	bcf	3,5	;RP0=0, select bank0
  3216  05F4  1303               	bcf	3,6	;RP1=0, select bank0
  3217  05F5  00B9               	movwf	___flmul@temp+1
  3218  05F6  0870               	movf	?__Umul8_16,w
  3219  05F7  00B8               	movwf	___flmul@temp
  3220  05F8                     l1821:
  3221  05F8  0838               	movf	___flmul@temp,w
  3222  05F9  00A8               	movwf	??___flmul
  3223  05FA  0839               	movf	___flmul@temp+1,w
  3224  05FB  00A9               	movwf	??___flmul+1
  3225  05FC  01AA               	clrf	??___flmul+2
  3226  05FD  01AB               	clrf	??___flmul+3
  3227  05FE  0828               	movf	??___flmul,w
  3228  05FF  07AE               	addwf	___flmul@grs,f
  3229  0600  0829               	movf	??___flmul+1,w
  3230  0601  1103               	clrz
  3231  0602  1803               	skipnc
  3232  0603  3E01               	addlw	1
  3233  0604  1903               	skipnz
  3234  0605  2E07               	goto	u1901
  3235  0606  07AF               	addwf	___flmul@grs+1,f
  3236  0607                     u1901:
  3237  0607  082A               	movf	??___flmul+2,w
  3238  0608  1103               	clrz
  3239  0609  1803               	skipnc
  3240  060A  3E01               	addlw	1
  3241  060B  1903               	skipnz
  3242  060C  2E0E               	goto	u1902
  3243  060D  07B0               	addwf	___flmul@grs+2,f
  3244  060E                     u1902:
  3245  060E  082B               	movf	??___flmul+3,w
  3246  060F  1103               	clrz
  3247  0610  1803               	skipnc
  3248  0611  3E01               	addlw	1
  3249  0612  1903               	skipnz
  3250  0613  2E15               	goto	u1903
  3251  0614  07B1               	addwf	___flmul@grs+3,f
  3252  0615                     u1903:
  3253  0615                     l1823:
  3254  0615  3008               	movlw	8
  3255  0616  00A8               	movwf	??___flmul
  3256  0617                     u1915:
  3257  0617  1003               	clrc
  3258  0618  0DAE               	rlf	___flmul@grs,f
  3259  0619  0DAF               	rlf	___flmul@grs+1,f
  3260  061A  0DB0               	rlf	___flmul@grs+2,f
  3261  061B  0DB1               	rlf	___flmul@grs+3,f
  3262  061C  0BA8               	decfsz	??___flmul,f
  3263  061D  2E17               	goto	u1915
  3264  061E  0820               	movf	___flmul@b,w
  3265  061F  00A8               	movwf	??___flmul
  3266  0620  0828               	movf	??___flmul,w
  3267  0621  00F0               	movwf	__Umul8_16@multiplicand
  3268  0622  0824               	movf	___flmul@a,w
  3269  0623  120A  158A  2529  120A  118A  	fcall	__Umul8_16
  3270  0628  0871               	movf	?__Umul8_16+1,w
  3271  0629  1283               	bcf	3,5	;RP0=0, select bank0
  3272  062A  1303               	bcf	3,6	;RP1=0, select bank0
  3273  062B  00B9               	movwf	___flmul@temp+1
  3274  062C  0870               	movf	?__Umul8_16,w
  3275  062D  00B8               	movwf	___flmul@temp
  3276  062E                     l1825:
  3277  062E  0838               	movf	___flmul@temp,w
  3278  062F  00A8               	movwf	??___flmul
  3279  0630  0839               	movf	___flmul@temp+1,w
  3280  0631  00A9               	movwf	??___flmul+1
  3281  0632  01AA               	clrf	??___flmul+2
  3282  0633  01AB               	clrf	??___flmul+3
  3283  0634  0828               	movf	??___flmul,w
  3284  0635  07AE               	addwf	___flmul@grs,f
  3285  0636  0829               	movf	??___flmul+1,w
  3286  0637  1103               	clrz
  3287  0638  1803               	skipnc
  3288  0639  3E01               	addlw	1
  3289  063A  1903               	skipnz
  3290  063B  2E3D               	goto	u1921
  3291  063C  07AF               	addwf	___flmul@grs+1,f
  3292  063D                     u1921:
  3293  063D  082A               	movf	??___flmul+2,w
  3294  063E  1103               	clrz
  3295  063F  1803               	skipnc
  3296  0640  3E01               	addlw	1
  3297  0641  1903               	skipnz
  3298  0642  2E44               	goto	u1922
  3299  0643  07B0               	addwf	___flmul@grs+2,f
  3300  0644                     u1922:
  3301  0644  082B               	movf	??___flmul+3,w
  3302  0645  1103               	clrz
  3303  0646  1803               	skipnc
  3304  0647  3E01               	addlw	1
  3305  0648  1903               	skipnz
  3306  0649  2E4B               	goto	u1923
  3307  064A  07B1               	addwf	___flmul@grs+3,f
  3308  064B                     u1923:
  3309  064B                     l1827:
  3310  064B  0821               	movf	___flmul@b+1,w
  3311  064C  00A8               	movwf	??___flmul
  3312  064D  0828               	movf	??___flmul,w
  3313  064E  00F0               	movwf	__Umul8_16@multiplicand
  3314  064F  0826               	movf	___flmul@a+2,w
  3315  0650  120A  158A  2529  120A  118A  	fcall	__Umul8_16
  3316  0655  0871               	movf	?__Umul8_16+1,w
  3317  0656  1283               	bcf	3,5	;RP0=0, select bank0
  3318  0657  1303               	bcf	3,6	;RP1=0, select bank0
  3319  0658  00B9               	movwf	___flmul@temp+1
  3320  0659  0870               	movf	?__Umul8_16,w
  3321  065A  00B8               	movwf	___flmul@temp
  3322  065B  0838               	movf	___flmul@temp,w
  3323  065C  00A8               	movwf	??___flmul
  3324  065D  0839               	movf	___flmul@temp+1,w
  3325  065E  00A9               	movwf	??___flmul+1
  3326  065F  01AA               	clrf	??___flmul+2
  3327  0660  01AB               	clrf	??___flmul+3
  3328  0661  0828               	movf	??___flmul,w
  3329  0662  07B4               	addwf	___flmul@prod,f
  3330  0663  0829               	movf	??___flmul+1,w
  3331  0664  1103               	clrz
  3332  0665  1803               	skipnc
  3333  0666  3E01               	addlw	1
  3334  0667  1903               	skipnz
  3335  0668  2E6A               	goto	u1931
  3336  0669  07B5               	addwf	___flmul@prod+1,f
  3337  066A                     u1931:
  3338  066A  082A               	movf	??___flmul+2,w
  3339  066B  1103               	clrz
  3340  066C  1803               	skipnc
  3341  066D  3E01               	addlw	1
  3342  066E  1903               	skipnz
  3343  066F  2E71               	goto	u1932
  3344  0670  07B6               	addwf	___flmul@prod+2,f
  3345  0671                     u1932:
  3346  0671  082B               	movf	??___flmul+3,w
  3347  0672  1103               	clrz
  3348  0673  1803               	skipnc
  3349  0674  3E01               	addlw	1
  3350  0675  1903               	skipnz
  3351  0676  2E78               	goto	u1933
  3352  0677  07B7               	addwf	___flmul@prod+3,f
  3353  0678                     u1933:
  3354  0678                     l1829:
  3355  0678  0822               	movf	___flmul@b+2,w
  3356  0679  00A8               	movwf	??___flmul
  3357  067A  0828               	movf	??___flmul,w
  3358  067B  00F0               	movwf	__Umul8_16@multiplicand
  3359  067C  0825               	movf	___flmul@a+1,w
  3360  067D  120A  158A  2529  120A  118A  	fcall	__Umul8_16
  3361  0682  0871               	movf	?__Umul8_16+1,w
  3362  0683  1283               	bcf	3,5	;RP0=0, select bank0
  3363  0684  1303               	bcf	3,6	;RP1=0, select bank0
  3364  0685  00B9               	movwf	___flmul@temp+1
  3365  0686  0870               	movf	?__Umul8_16,w
  3366  0687  00B8               	movwf	___flmul@temp
  3367  0688                     l1831:
  3368  0688  0838               	movf	___flmul@temp,w
  3369  0689  00A8               	movwf	??___flmul
  3370  068A  0839               	movf	___flmul@temp+1,w
  3371  068B  00A9               	movwf	??___flmul+1
  3372  068C  01AA               	clrf	??___flmul+2
  3373  068D  01AB               	clrf	??___flmul+3
  3374  068E  0828               	movf	??___flmul,w
  3375  068F  07B4               	addwf	___flmul@prod,f
  3376  0690  0829               	movf	??___flmul+1,w
  3377  0691  1103               	clrz
  3378  0692  1803               	skipnc
  3379  0693  3E01               	addlw	1
  3380  0694  1903               	skipnz
  3381  0695  2E97               	goto	u1941
  3382  0696  07B5               	addwf	___flmul@prod+1,f
  3383  0697                     u1941:
  3384  0697  082A               	movf	??___flmul+2,w
  3385  0698  1103               	clrz
  3386  0699  1803               	skipnc
  3387  069A  3E01               	addlw	1
  3388  069B  1903               	skipnz
  3389  069C  2E9E               	goto	u1942
  3390  069D  07B6               	addwf	___flmul@prod+2,f
  3391  069E                     u1942:
  3392  069E  082B               	movf	??___flmul+3,w
  3393  069F  1103               	clrz
  3394  06A0  1803               	skipnc
  3395  06A1  3E01               	addlw	1
  3396  06A2  1903               	skipnz
  3397  06A3  2EA5               	goto	u1943
  3398  06A4  07B7               	addwf	___flmul@prod+3,f
  3399  06A5                     u1943:
  3400  06A5  0822               	movf	___flmul@b+2,w
  3401  06A6  00A8               	movwf	??___flmul
  3402  06A7  0828               	movf	??___flmul,w
  3403  06A8  00F0               	movwf	__Umul8_16@multiplicand
  3404  06A9  0826               	movf	___flmul@a+2,w
  3405  06AA  120A  158A  2529  120A  118A  	fcall	__Umul8_16
  3406  06AF  0871               	movf	?__Umul8_16+1,w
  3407  06B0  1283               	bcf	3,5	;RP0=0, select bank0
  3408  06B1  1303               	bcf	3,6	;RP1=0, select bank0
  3409  06B2  00B9               	movwf	___flmul@temp+1
  3410  06B3  0870               	movf	?__Umul8_16,w
  3411  06B4  00B8               	movwf	___flmul@temp
  3412  06B5                     l1833:
  3413  06B5  0838               	movf	___flmul@temp,w
  3414  06B6  00A8               	movwf	??___flmul
  3415  06B7  0839               	movf	___flmul@temp+1,w
  3416  06B8  00A9               	movwf	??___flmul+1
  3417  06B9  01AA               	clrf	??___flmul+2
  3418  06BA  01AB               	clrf	??___flmul+3
  3419  06BB  3008               	movlw	8
  3420  06BC                     u1955:
  3421  06BC  1003               	clrc
  3422  06BD  0DA8               	rlf	??___flmul,f
  3423  06BE  0DA9               	rlf	??___flmul+1,f
  3424  06BF  0DAA               	rlf	??___flmul+2,f
  3425  06C0  0DAB               	rlf	??___flmul+3,f
  3426  06C1                     u1950:
  3427  06C1  3EFF               	addlw	-1
  3428  06C2  1D03               	skipz
  3429  06C3  2EBC               	goto	u1955
  3430  06C4  0828               	movf	??___flmul,w
  3431  06C5  07B4               	addwf	___flmul@prod,f
  3432  06C6  0829               	movf	??___flmul+1,w
  3433  06C7  1103               	clrz
  3434  06C8  1803               	skipnc
  3435  06C9  3E01               	addlw	1
  3436  06CA  1903               	skipnz
  3437  06CB  2ECD               	goto	u1961
  3438  06CC  07B5               	addwf	___flmul@prod+1,f
  3439  06CD                     u1961:
  3440  06CD  082A               	movf	??___flmul+2,w
  3441  06CE  1103               	clrz
  3442  06CF  1803               	skipnc
  3443  06D0  3E01               	addlw	1
  3444  06D1  1903               	skipnz
  3445  06D2  2ED4               	goto	u1962
  3446  06D3  07B6               	addwf	___flmul@prod+2,f
  3447  06D4                     u1962:
  3448  06D4  082B               	movf	??___flmul+3,w
  3449  06D5  1103               	clrz
  3450  06D6  1803               	skipnc
  3451  06D7  3E01               	addlw	1
  3452  06D8  1903               	skipnz
  3453  06D9  2EDB               	goto	u1963
  3454  06DA  07B7               	addwf	___flmul@prod+3,f
  3455  06DB                     u1963:
  3456  06DB                     l1835:
  3457  06DB  082E               	movf	___flmul@grs,w
  3458  06DC  00A8               	movwf	??___flmul
  3459  06DD  082F               	movf	___flmul@grs+1,w
  3460  06DE  00A9               	movwf	??___flmul+1
  3461  06DF  0830               	movf	___flmul@grs+2,w
  3462  06E0  00AA               	movwf	??___flmul+2
  3463  06E1  0831               	movf	___flmul@grs+3,w
  3464  06E2  00AB               	movwf	??___flmul+3
  3465  06E3  3018               	movlw	24
  3466  06E4                     u1975:
  3467  06E4  1003               	clrc
  3468  06E5  0CAB               	rrf	??___flmul+3,f
  3469  06E6  0CAA               	rrf	??___flmul+2,f
  3470  06E7  0CA9               	rrf	??___flmul+1,f
  3471  06E8  0CA8               	rrf	??___flmul,f
  3472  06E9                     u1970:
  3473  06E9  3EFF               	addlw	-1
  3474  06EA  1D03               	skipz
  3475  06EB  2EE4               	goto	u1975
  3476  06EC  0828               	movf	??___flmul,w
  3477  06ED  07B4               	addwf	___flmul@prod,f
  3478  06EE  0829               	movf	??___flmul+1,w
  3479  06EF  1103               	clrz
  3480  06F0  1803               	skipnc
  3481  06F1  3E01               	addlw	1
  3482  06F2  1903               	skipnz
  3483  06F3  2EF5               	goto	u1981
  3484  06F4  07B5               	addwf	___flmul@prod+1,f
  3485  06F5                     u1981:
  3486  06F5  082A               	movf	??___flmul+2,w
  3487  06F6  1103               	clrz
  3488  06F7  1803               	skipnc
  3489  06F8  3E01               	addlw	1
  3490  06F9  1903               	skipnz
  3491  06FA  2EFC               	goto	u1982
  3492  06FB  07B6               	addwf	___flmul@prod+2,f
  3493  06FC                     u1982:
  3494  06FC  082B               	movf	??___flmul+3,w
  3495  06FD  1103               	clrz
  3496  06FE  1803               	skipnc
  3497  06FF  3E01               	addlw	1
  3498  0700  1903               	skipnz
  3499  0701  2F03               	goto	u1983
  3500  0702  07B7               	addwf	___flmul@prod+3,f
  3501  0703                     u1983:
  3502  0703                     l1837:
  3503  0703  3008               	movlw	8
  3504  0704  00A8               	movwf	??___flmul
  3505  0705                     u1995:
  3506  0705  1003               	clrc
  3507  0706  0DAE               	rlf	___flmul@grs,f
  3508  0707  0DAF               	rlf	___flmul@grs+1,f
  3509  0708  0DB0               	rlf	___flmul@grs+2,f
  3510  0709  0DB1               	rlf	___flmul@grs+3,f
  3511  070A  0BA8               	decfsz	??___flmul,f
  3512  070B  2F05               	goto	u1995
  3513  070C                     l1839:
  3514  070C  0833               	movf	___flmul@bexp,w
  3515  070D  0732               	addwf	___flmul@aexp,w
  3516  070E  00A8               	movwf	??___flmul
  3517  070F  01A9               	clrf	??___flmul+1
  3518  0710  0DA9               	rlf	??___flmul+1,f
  3519  0711  0828               	movf	??___flmul,w
  3520  0712  3E82               	addlw	130
  3521  0713  00B8               	movwf	___flmul@temp
  3522  0714  0829               	movf	??___flmul+1,w
  3523  0715  1803               	skipnc
  3524  0716  3E01               	addlw	1
  3525  0717  3EFF               	addlw	255
  3526  0718  00B9               	movwf	___flmul@temp+1
  3527  0719  2F37               	goto	l1851
  3528  071A                     l1841:
  3529  071A  3001               	movlw	1
  3530  071B  00A8               	movwf	??___flmul
  3531  071C                     u2005:
  3532  071C  1003               	clrc
  3533  071D  0DB4               	rlf	___flmul@prod,f
  3534  071E  0DB5               	rlf	___flmul@prod+1,f
  3535  071F  0DB6               	rlf	___flmul@prod+2,f
  3536  0720  0DB7               	rlf	___flmul@prod+3,f
  3537  0721  0BA8               	decfsz	??___flmul,f
  3538  0722  2F1C               	goto	u2005
  3539  0723                     l1843:
  3540  0723  1FB1               	btfss	___flmul@grs+3,7
  3541  0724  2F26               	goto	u2011
  3542  0725  2F27               	goto	u2010
  3543  0726                     u2011:
  3544  0726  2F28               	goto	l1847
  3545  0727                     u2010:
  3546  0727                     l1845:
  3547  0727  1434               	bsf	___flmul@prod,0
  3548  0728                     l1847:
  3549  0728  3001               	movlw	1
  3550  0729  00A8               	movwf	??___flmul
  3551  072A                     u2025:
  3552  072A  1003               	clrc
  3553  072B  0DAE               	rlf	___flmul@grs,f
  3554  072C  0DAF               	rlf	___flmul@grs+1,f
  3555  072D  0DB0               	rlf	___flmul@grs+2,f
  3556  072E  0DB1               	rlf	___flmul@grs+3,f
  3557  072F  0BA8               	decfsz	??___flmul,f
  3558  0730  2F2A               	goto	u2025
  3559  0731                     l1849:
  3560  0731  30FF               	movlw	255
  3561  0732  07B8               	addwf	___flmul@temp,f
  3562  0733  1803               	skipnc
  3563  0734  0AB9               	incf	___flmul@temp+1,f
  3564  0735  30FF               	movlw	255
  3565  0736  07B9               	addwf	___flmul@temp+1,f
  3566  0737                     l1851:
  3567  0737  1FB6               	btfss	___flmul@prod+2,7
  3568  0738  2F3A               	goto	u2031
  3569  0739  2F3B               	goto	u2030
  3570  073A                     u2031:
  3571  073A  2F1A               	goto	l1841
  3572  073B                     u2030:
  3573  073B                     l1853:
  3574  073B  01B2               	clrf	___flmul@aexp
  3575  073C                     l1855:
  3576  073C  1FB1               	btfss	___flmul@grs+3,7
  3577  073D  2F3F               	goto	u2041
  3578  073E  2F40               	goto	u2040
  3579  073F                     u2041:
  3580  073F  2F5C               	goto	l1863
  3581  0740                     u2040:
  3582  0740                     l1857:
  3583  0740  30FF               	movlw	255
  3584  0741  052E               	andwf	___flmul@grs,w
  3585  0742  00A8               	movwf	??___flmul
  3586  0743  30FF               	movlw	255
  3587  0744  052F               	andwf	___flmul@grs+1,w
  3588  0745  00A9               	movwf	??___flmul+1
  3589  0746  30FF               	movlw	255
  3590  0747  0530               	andwf	___flmul@grs+2,w
  3591  0748  00AA               	movwf	??___flmul+2
  3592  0749  307F               	movlw	127
  3593  074A  0531               	andwf	___flmul@grs+3,w
  3594  074B  00AB               	movwf	??___flmul+3
  3595  074C  082B               	movf	??___flmul+3,w
  3596  074D  042A               	iorwf	??___flmul+2,w
  3597  074E  0429               	iorwf	??___flmul+1,w
  3598  074F  0428               	iorwf	??___flmul,w
  3599  0750  1903               	skipnz
  3600  0751  2F53               	goto	u2051
  3601  0752  2F54               	goto	u2050
  3602  0753                     u2051:
  3603  0753  2F57               	goto	l648
  3604  0754                     u2050:
  3605  0754                     l1859:
  3606  0754  01B2               	clrf	___flmul@aexp
  3607  0755  0AB2               	incf	___flmul@aexp,f
  3608  0756  2F5C               	goto	l1863
  3609  0757                     l648:
  3610  0757  1C34               	btfss	___flmul@prod,0
  3611  0758  2F5A               	goto	u2061
  3612  0759  2F5B               	goto	u2060
  3613  075A                     u2061:
  3614  075A  2F5C               	goto	l1863
  3615  075B                     u2060:
  3616  075B  2F54               	goto	l1859
  3617  075C                     l1863:
  3618  075C  0832               	movf	___flmul@aexp,w
  3619  075D  1903               	btfsc	3,2
  3620  075E  2F60               	goto	u2071
  3621  075F  2F61               	goto	u2070
  3622  0760                     u2071:
  3623  0760  2F92               	goto	l1873
  3624  0761                     u2070:
  3625  0761                     l1865:
  3626  0761  3001               	movlw	1
  3627  0762  07B4               	addwf	___flmul@prod,f
  3628  0763  3000               	movlw	0
  3629  0764  1803               	skipnc
  3630  0765  3001               	movlw	1
  3631  0766  07B5               	addwf	___flmul@prod+1,f
  3632  0767  3000               	movlw	0
  3633  0768  1803               	skipnc
  3634  0769  3001               	movlw	1
  3635  076A  07B6               	addwf	___flmul@prod+2,f
  3636  076B  3000               	movlw	0
  3637  076C  1803               	skipnc
  3638  076D  3001               	movlw	1
  3639  076E  07B7               	addwf	___flmul@prod+3,f
  3640  076F                     l1867:
  3641  076F  1C37               	btfss	___flmul@prod+3,0
  3642  0770  2F72               	goto	u2081
  3643  0771  2F73               	goto	u2080
  3644  0772                     u2081:
  3645  0772  2F92               	goto	l1873
  3646  0773                     u2080:
  3647  0773                     l1869:
  3648  0773  0834               	movf	___flmul@prod,w
  3649  0774  00A8               	movwf	??___flmul
  3650  0775  0835               	movf	___flmul@prod+1,w
  3651  0776  00A9               	movwf	??___flmul+1
  3652  0777  0836               	movf	___flmul@prod+2,w
  3653  0778  00AA               	movwf	??___flmul+2
  3654  0779  0837               	movf	___flmul@prod+3,w
  3655  077A  00AB               	movwf	??___flmul+3
  3656  077B  3001               	movlw	1
  3657  077C  00AC               	movwf	??___flmul+4
  3658  077D                     u2095:
  3659  077D  0D2B               	rlf	??___flmul+3,w
  3660  077E  0CAB               	rrf	??___flmul+3,f
  3661  077F  0CAA               	rrf	??___flmul+2,f
  3662  0780  0CA9               	rrf	??___flmul+1,f
  3663  0781  0CA8               	rrf	??___flmul,f
  3664  0782                     u2090:
  3665  0782  0BAC               	decfsz	??___flmul+4,f
  3666  0783  2F7D               	goto	u2095
  3667  0784  082B               	movf	??___flmul+3,w
  3668  0785  00B7               	movwf	___flmul@prod+3
  3669  0786  082A               	movf	??___flmul+2,w
  3670  0787  00B6               	movwf	___flmul@prod+2
  3671  0788  0829               	movf	??___flmul+1,w
  3672  0789  00B5               	movwf	___flmul@prod+1
  3673  078A  0828               	movf	??___flmul,w
  3674  078B  00B4               	movwf	___flmul@prod
  3675  078C                     l1871:
  3676  078C  3001               	movlw	1
  3677  078D  07B8               	addwf	___flmul@temp,f
  3678  078E  1803               	skipnc
  3679  078F  0AB9               	incf	___flmul@temp+1,f
  3680  0790  3000               	movlw	0
  3681  0791  07B9               	addwf	___flmul@temp+1,f
  3682  0792                     l1873:
  3683  0792  0839               	movf	___flmul@temp+1,w
  3684  0793  3A80               	xorlw	128
  3685  0794  00FF               	movwf	btemp+1
  3686  0795  3080               	movlw	128
  3687  0796  027F               	subwf	btemp+1,w
  3688  0797  1D03               	skipz
  3689  0798  2F9B               	goto	u2105
  3690  0799  30FF               	movlw	255
  3691  079A  0238               	subwf	___flmul@temp,w
  3692  079B                     u2105:
  3693  079B  1C03               	skipc
  3694  079C  2F9E               	goto	u2101
  3695  079D  2F9F               	goto	u2100
  3696  079E                     u2101:
  3697  079E  2FAA               	goto	l1877
  3698  079F                     u2100:
  3699  079F                     l1875:
  3700  079F  307F               	movlw	127
  3701  07A0  1283               	bcf	3,5	;RP0=0, select bank0
  3702  07A1  1303               	bcf	3,6	;RP1=0, select bank0
  3703  07A2  00B7               	movwf	___flmul@prod+3
  3704  07A3  3080               	movlw	128
  3705  07A4  00B6               	movwf	___flmul@prod+2
  3706  07A5  3000               	movlw	0
  3707  07A6  00B5               	movwf	___flmul@prod+1
  3708  07A7  3000               	movlw	0
  3709  07A8  00B4               	movwf	___flmul@prod
  3710  07A9  2FDF               	goto	l654
  3711  07AA                     l1877:
  3712  07AA  1283               	bcf	3,5	;RP0=0, select bank0
  3713  07AB  1303               	bcf	3,6	;RP1=0, select bank0
  3714  07AC  0839               	movf	___flmul@temp+1,w
  3715  07AD  3A80               	xorlw	128
  3716  07AE  00FF               	movwf	btemp+1
  3717  07AF  3080               	movlw	128
  3718  07B0  027F               	subwf	btemp+1,w
  3719  07B1  1D03               	skipz
  3720  07B2  2FB5               	goto	u2115
  3721  07B3  3001               	movlw	1
  3722  07B4  0238               	subwf	___flmul@temp,w
  3723  07B5                     u2115:
  3724  07B5  1803               	skipnc
  3725  07B6  2FB8               	goto	u2111
  3726  07B7  2FB9               	goto	u2110
  3727  07B8                     u2111:
  3728  07B8  2FC5               	goto	l1883
  3729  07B9                     u2110:
  3730  07B9                     l1879:
  3731  07B9  3000               	movlw	0
  3732  07BA  1283               	bcf	3,5	;RP0=0, select bank0
  3733  07BB  1303               	bcf	3,6	;RP1=0, select bank0
  3734  07BC  00B7               	movwf	___flmul@prod+3
  3735  07BD  3000               	movlw	0
  3736  07BE  00B6               	movwf	___flmul@prod+2
  3737  07BF  3000               	movlw	0
  3738  07C0  00B5               	movwf	___flmul@prod+1
  3739  07C1  3000               	movlw	0
  3740  07C2  00B4               	movwf	___flmul@prod
  3741  07C3                     l1881:
  3742  07C3  01AD               	clrf	___flmul@sign
  3743  07C4  2FDF               	goto	l654
  3744  07C5                     l1883:
  3745  07C5  1283               	bcf	3,5	;RP0=0, select bank0
  3746  07C6  1303               	bcf	3,6	;RP1=0, select bank0
  3747  07C7  0838               	movf	___flmul@temp,w
  3748  07C8  00A8               	movwf	??___flmul
  3749  07C9  0828               	movf	??___flmul,w
  3750  07CA  00B3               	movwf	___flmul@bexp
  3751  07CB  30FF               	movlw	255
  3752  07CC  05B4               	andwf	___flmul@prod,f
  3753  07CD  30FF               	movlw	255
  3754  07CE  05B5               	andwf	___flmul@prod+1,f
  3755  07CF  307F               	movlw	127
  3756  07D0  05B6               	andwf	___flmul@prod+2,f
  3757  07D1  3000               	movlw	0
  3758  07D2  05B7               	andwf	___flmul@prod+3,f
  3759  07D3                     l1885:
  3760  07D3  1C33               	btfss	___flmul@bexp,0
  3761  07D4  2FD6               	goto	u2121
  3762  07D5  2FD7               	goto	u2120
  3763  07D6                     u2121:
  3764  07D6  2FD8               	goto	l1889
  3765  07D7                     u2120:
  3766  07D7                     l1887:
  3767  07D7  17B6               	bsf	___flmul@prod+2,7
  3768  07D8                     l1889:
  3769  07D8  0833               	movf	___flmul@bexp,w
  3770  07D9  00A8               	movwf	??___flmul
  3771  07DA  1003               	clrc
  3772  07DB  0C28               	rrf	??___flmul,w
  3773  07DC  00A9               	movwf	??___flmul+1
  3774  07DD  0829               	movf	??___flmul+1,w
  3775  07DE  00B7               	movwf	___flmul@prod+3
  3776  07DF                     l654:
  3777  07DF  082D               	movf	___flmul@sign,w
  3778  07E0  00A8               	movwf	??___flmul
  3779  07E1  0828               	movf	??___flmul,w
  3780  07E2  04B7               	iorwf	___flmul@prod+3,f
  3781  07E3                     l1891:
  3782  07E3  0837               	movf	___flmul@prod+3,w
  3783  07E4  00A3               	movwf	?___flmul+3
  3784  07E5  0836               	movf	___flmul@prod+2,w
  3785  07E6  00A2               	movwf	?___flmul+2
  3786  07E7  0835               	movf	___flmul@prod+1,w
  3787  07E8  00A1               	movwf	?___flmul+1
  3788  07E9  0834               	movf	___flmul@prod,w
  3789  07EA  00A0               	movwf	?___flmul
  3790  07EB                     l642:
  3791  07EB  0008               	return
  3792  07EC                     __end_of___flmul:
  3793                           
  3794                           	psect	text12
  3795  0D29                     __ptext12:	
  3796 ;; *************** function __Umul8_16 *****************
  3797 ;; Defined at:
  3798 ;;		line 4 in file "C:\Program Files\Microchip\xc8\v2.32\pic\sources\c90\common\Umul8_16.c"
  3799 ;; Parameters:    Size  Location     Type
  3800 ;;  multiplier      1    wreg     unsigned char 
  3801 ;;  multiplicand    1    0[COMMON] unsigned char 
  3802 ;; Auto vars:     Size  Location     Type
  3803 ;;  multiplier      1    8[COMMON] unsigned char 
  3804 ;;  word_mpld       2    6[COMMON] unsigned int 
  3805 ;;  product         2    4[COMMON] unsigned int 
  3806 ;; Return value:  Size  Location     Type
  3807 ;;                  2    0[COMMON] unsigned int 
  3808 ;; Registers used:
  3809 ;;		wreg, status,2, status,0
  3810 ;; Tracked objects:
  3811 ;;		On entry : 0/0
  3812 ;;		On exit  : 0/0
  3813 ;;		Unchanged: 0/0
  3814 ;; Data sizes:     COMMON   BANK0   BANK1   BANK3   BANK2
  3815 ;;      Params:         2       0       0       0       0
  3816 ;;      Locals:         5       0       0       0       0
  3817 ;;      Temps:          2       0       0       0       0
  3818 ;;      Totals:         9       0       0       0       0
  3819 ;;Total ram usage:        9 bytes
  3820 ;; Hardware stack levels used: 1
  3821 ;; This function calls:
  3822 ;;		Nothing
  3823 ;; This function is called by:
  3824 ;;		___flmul
  3825 ;; This function uses a non-reentrant model
  3826 ;;
  3827                           
  3828                           
  3829                           ;psect for function __Umul8_16
  3830  0D29                     __Umul8_16:
  3831                           
  3832                           ;incstack = 0
  3833                           ; Regs used in __Umul8_16: [wreg+status,2+status,0]
  3834                           ;__Umul8_16@multiplier stored from wreg
  3835  0D29  00F8               	movwf	__Umul8_16@multiplier
  3836  0D2A                     l1497:
  3837  0D2A  01F4               	clrf	__Umul8_16@product
  3838  0D2B  01F5               	clrf	__Umul8_16@product+1
  3839  0D2C                     l1499:
  3840  0D2C  0870               	movf	__Umul8_16@multiplicand,w
  3841  0D2D  00F2               	movwf	??__Umul8_16
  3842  0D2E  01F3               	clrf	??__Umul8_16+1
  3843  0D2F  0872               	movf	??__Umul8_16,w
  3844  0D30  00F6               	movwf	__Umul8_16@word_mpld
  3845  0D31  0873               	movf	??__Umul8_16+1,w
  3846  0D32  00F7               	movwf	__Umul8_16@word_mpld+1
  3847  0D33                     l1501:
  3848  0D33  1C78               	btfss	__Umul8_16@multiplier,0
  3849  0D34  2D36               	goto	u1331
  3850  0D35  2D37               	goto	u1330
  3851  0D36                     u1331:
  3852  0D36  2D3D               	goto	l661
  3853  0D37                     u1330:
  3854  0D37                     l1503:
  3855  0D37  0876               	movf	__Umul8_16@word_mpld,w
  3856  0D38  07F4               	addwf	__Umul8_16@product,f
  3857  0D39  1803               	skipnc
  3858  0D3A  0AF5               	incf	__Umul8_16@product+1,f
  3859  0D3B  0877               	movf	__Umul8_16@word_mpld+1,w
  3860  0D3C  07F5               	addwf	__Umul8_16@product+1,f
  3861  0D3D                     l661:
  3862  0D3D  3001               	movlw	1
  3863  0D3E                     u1345:
  3864  0D3E  1003               	clrc
  3865  0D3F  0DF6               	rlf	__Umul8_16@word_mpld,f
  3866  0D40  0DF7               	rlf	__Umul8_16@word_mpld+1,f
  3867  0D41  3EFF               	addlw	-1
  3868  0D42  1D03               	skipz
  3869  0D43  2D3E               	goto	u1345
  3870  0D44  1003               	clrc
  3871  0D45  0CF8               	rrf	__Umul8_16@multiplier,f
  3872  0D46                     l1505:
  3873  0D46  0878               	movf	__Umul8_16@multiplier,w
  3874  0D47  1D03               	btfss	3,2
  3875  0D48  2D4A               	goto	u1351
  3876  0D49  2D4B               	goto	u1350
  3877  0D4A                     u1351:
  3878  0D4A  2D33               	goto	l1501
  3879  0D4B                     u1350:
  3880  0D4B                     l1507:
  3881  0D4B  0875               	movf	__Umul8_16@product+1,w
  3882  0D4C  00F1               	movwf	?__Umul8_16+1
  3883  0D4D  0874               	movf	__Umul8_16@product,w
  3884  0D4E  00F0               	movwf	?__Umul8_16
  3885  0D4F                     l663:
  3886  0D4F  0008               	return
  3887  0D50                     __end_of__Umul8_16:
  3888                           
  3889                           	psect	text13
  3890  00C9                     __ptext13:	
  3891 ;; *************** function ___fldiv *****************
  3892 ;; Defined at:
  3893 ;;		line 8 in file "C:\Program Files\Microchip\xc8\v2.32\pic\sources\c90\common\sprcdiv.c"
  3894 ;; Parameters:    Size  Location     Type
  3895 ;;  a               4   26[BANK0 ] unsigned int 
  3896 ;;  b               4   30[BANK0 ] unsigned int 
  3897 ;; Auto vars:     Size  Location     Type
  3898 ;;  grs             4   46[BANK0 ] unsigned long 
  3899 ;;  rem             4   39[BANK0 ] unsigned long 
  3900 ;;  new_exp         2   44[BANK0 ] int 
  3901 ;;  aexp            1   51[BANK0 ] unsigned char 
  3902 ;;  bexp            1   50[BANK0 ] unsigned char 
  3903 ;;  sign            1   43[BANK0 ] unsigned char 
  3904 ;; Return value:  Size  Location     Type
  3905 ;;                  4   26[BANK0 ] unsigned char 
  3906 ;; Registers used:
  3907 ;;		wreg, status,2, status,0, btemp+1
  3908 ;; Tracked objects:
  3909 ;;		On entry : 0/0
  3910 ;;		On exit  : 0/0
  3911 ;;		Unchanged: 0/0
  3912 ;; Data sizes:     COMMON   BANK0   BANK1   BANK3   BANK2
  3913 ;;      Params:         0       8       0       0       0
  3914 ;;      Locals:         0      13       0       0       0
  3915 ;;      Temps:          0       5       0       0       0
  3916 ;;      Totals:         0      26       0       0       0
  3917 ;;Total ram usage:       26 bytes
  3918 ;; Hardware stack levels used: 1
  3919 ;; This function calls:
  3920 ;;		Nothing
  3921 ;; This function is called by:
  3922 ;;		_HC_SR_04_Distance
  3923 ;; This function uses a non-reentrant model
  3924 ;;
  3925                           
  3926                           
  3927                           ;psect for function ___fldiv
  3928  00C9                     ___fldiv:
  3929  00C9                     l1613:	
  3930                           ;incstack = 0
  3931                           ; Regs used in ___fldiv: [wreg+status,2+status,0+btemp+1]
  3932                           
  3933  00C9  1283               	bcf	3,5	;RP0=0, select bank0
  3934  00CA  1303               	bcf	3,6	;RP1=0, select bank0
  3935  00CB  0841               	movf	___fldiv@b+3,w
  3936  00CC  3980               	andlw	128
  3937  00CD  00C2               	movwf	??___fldiv
  3938  00CE  0842               	movf	??___fldiv,w
  3939  00CF  00CB               	movwf	___fldiv@sign
  3940  00D0                     l1615:
  3941  00D0  0841               	movf	___fldiv@b+3,w
  3942  00D1  00C2               	movwf	??___fldiv
  3943  00D2  0742               	addwf	??___fldiv,w
  3944  00D3  00C3               	movwf	??___fldiv+1
  3945  00D4  0843               	movf	??___fldiv+1,w
  3946  00D5  00D2               	movwf	___fldiv@bexp
  3947  00D6                     l1617:
  3948  00D6  1FC0               	btfss	___fldiv@b+2,7
  3949  00D7  28D9               	goto	u1471
  3950  00D8  28DA               	goto	u1470
  3951  00D9                     u1471:
  3952  00D9  28DB               	goto	l1621
  3953  00DA                     u1470:
  3954  00DA                     l1619:
  3955  00DA  1452               	bsf	___fldiv@bexp,0
  3956  00DB                     l1621:
  3957  00DB  0852               	movf	___fldiv@bexp,w
  3958  00DC  1903               	btfsc	3,2
  3959  00DD  28DF               	goto	u1481
  3960  00DE  28E0               	goto	u1480
  3961  00DF                     u1481:
  3962  00DF  28F0               	goto	l1631
  3963  00E0                     u1480:
  3964  00E0                     l1623:
  3965  00E0  0A52               	incf	___fldiv@bexp,w
  3966  00E1  1D03               	btfss	3,2
  3967  00E2  28E4               	goto	u1491
  3968  00E3  28E5               	goto	u1490
  3969  00E4                     u1491:
  3970  00E4  28ED               	goto	l1627
  3971  00E5                     u1490:
  3972  00E5                     l1625:
  3973  00E5  3000               	movlw	0
  3974  00E6  00C1               	movwf	___fldiv@b+3
  3975  00E7  3000               	movlw	0
  3976  00E8  00C0               	movwf	___fldiv@b+2
  3977  00E9  3000               	movlw	0
  3978  00EA  00BF               	movwf	___fldiv@b+1
  3979  00EB  3000               	movlw	0
  3980  00EC  00BE               	movwf	___fldiv@b
  3981  00ED                     l1627:
  3982  00ED  17C0               	bsf	___fldiv@b+2,7
  3983  00EE                     l1629:
  3984  00EE  01C1               	clrf	___fldiv@b+3
  3985  00EF  28F8               	goto	l1633
  3986  00F0                     l1631:
  3987  00F0  3000               	movlw	0
  3988  00F1  00C1               	movwf	___fldiv@b+3
  3989  00F2  3000               	movlw	0
  3990  00F3  00C0               	movwf	___fldiv@b+2
  3991  00F4  3000               	movlw	0
  3992  00F5  00BF               	movwf	___fldiv@b+1
  3993  00F6  3000               	movlw	0
  3994  00F7  00BE               	movwf	___fldiv@b
  3995  00F8                     l1633:
  3996  00F8  083D               	movf	___fldiv@a+3,w
  3997  00F9  3980               	andlw	128
  3998  00FA  00C2               	movwf	??___fldiv
  3999  00FB  0842               	movf	??___fldiv,w
  4000  00FC  06CB               	xorwf	___fldiv@sign,f
  4001  00FD                     l1635:
  4002  00FD  083D               	movf	___fldiv@a+3,w
  4003  00FE  00C2               	movwf	??___fldiv
  4004  00FF  0742               	addwf	??___fldiv,w
  4005  0100  00C3               	movwf	??___fldiv+1
  4006  0101  0843               	movf	??___fldiv+1,w
  4007  0102  00D3               	movwf	___fldiv@aexp
  4008  0103                     l1637:
  4009  0103  1FBC               	btfss	___fldiv@a+2,7
  4010  0104  2906               	goto	u1501
  4011  0105  2907               	goto	u1500
  4012  0106                     u1501:
  4013  0106  2908               	goto	l1641
  4014  0107                     u1500:
  4015  0107                     l1639:
  4016  0107  1453               	bsf	___fldiv@aexp,0
  4017  0108                     l1641:
  4018  0108  0853               	movf	___fldiv@aexp,w
  4019  0109  1903               	btfsc	3,2
  4020  010A  290C               	goto	u1511
  4021  010B  290D               	goto	u1510
  4022  010C                     u1511:
  4023  010C  291D               	goto	l1651
  4024  010D                     u1510:
  4025  010D                     l1643:
  4026  010D  0A53               	incf	___fldiv@aexp,w
  4027  010E  1D03               	btfss	3,2
  4028  010F  2911               	goto	u1521
  4029  0110  2912               	goto	u1520
  4030  0111                     u1521:
  4031  0111  291A               	goto	l1647
  4032  0112                     u1520:
  4033  0112                     l1645:
  4034  0112  3000               	movlw	0
  4035  0113  00BD               	movwf	___fldiv@a+3
  4036  0114  3000               	movlw	0
  4037  0115  00BC               	movwf	___fldiv@a+2
  4038  0116  3000               	movlw	0
  4039  0117  00BB               	movwf	___fldiv@a+1
  4040  0118  3000               	movlw	0
  4041  0119  00BA               	movwf	___fldiv@a
  4042  011A                     l1647:
  4043  011A  17BC               	bsf	___fldiv@a+2,7
  4044  011B                     l1649:
  4045  011B  01BD               	clrf	___fldiv@a+3
  4046  011C  2925               	goto	l602
  4047  011D                     l1651:
  4048  011D  3000               	movlw	0
  4049  011E  00BD               	movwf	___fldiv@a+3
  4050  011F  3000               	movlw	0
  4051  0120  00BC               	movwf	___fldiv@a+2
  4052  0121  3000               	movlw	0
  4053  0122  00BB               	movwf	___fldiv@a+1
  4054  0123  3000               	movlw	0
  4055  0124  00BA               	movwf	___fldiv@a
  4056  0125                     l602:
  4057  0125  083D               	movf	___fldiv@a+3,w
  4058  0126  043C               	iorwf	___fldiv@a+2,w
  4059  0127  043B               	iorwf	___fldiv@a+1,w
  4060  0128  043A               	iorwf	___fldiv@a,w
  4061  0129  1D03               	skipz
  4062  012A  292C               	goto	u1531
  4063  012B  292D               	goto	u1530
  4064  012C                     u1531:
  4065  012C  2946               	goto	l1661
  4066  012D                     u1530:
  4067  012D                     l1653:
  4068  012D  3000               	movlw	0
  4069  012E  00C1               	movwf	___fldiv@b+3
  4070  012F  3000               	movlw	0
  4071  0130  00C0               	movwf	___fldiv@b+2
  4072  0131  3000               	movlw	0
  4073  0132  00BF               	movwf	___fldiv@b+1
  4074  0133  3000               	movlw	0
  4075  0134  00BE               	movwf	___fldiv@b
  4076  0135  3080               	movlw	128
  4077  0136  04C0               	iorwf	___fldiv@b+2,f
  4078  0137  307F               	movlw	127
  4079  0138  04C1               	iorwf	___fldiv@b+3,f
  4080  0139                     l1655:
  4081  0139  084B               	movf	___fldiv@sign,w
  4082  013A  00C2               	movwf	??___fldiv
  4083  013B  0842               	movf	??___fldiv,w
  4084  013C  04C1               	iorwf	___fldiv@b+3,f
  4085  013D                     l1657:
  4086  013D  0841               	movf	___fldiv@b+3,w
  4087  013E  00BD               	movwf	?___fldiv+3
  4088  013F  0840               	movf	___fldiv@b+2,w
  4089  0140  00BC               	movwf	?___fldiv+2
  4090  0141  083F               	movf	___fldiv@b+1,w
  4091  0142  00BB               	movwf	?___fldiv+1
  4092  0143  083E               	movf	___fldiv@b,w
  4093  0144  00BA               	movwf	?___fldiv
  4094  0145  2AA5               	goto	l604
  4095  0146                     l1661:
  4096  0146  0852               	movf	___fldiv@bexp,w
  4097  0147  1D03               	btfss	3,2
  4098  0148  294A               	goto	u1541
  4099  0149  294B               	goto	u1540
  4100  014A                     u1541:
  4101  014A  2954               	goto	l1667
  4102  014B                     u1540:
  4103  014B                     l1663:
  4104  014B  3000               	movlw	0
  4105  014C  00BD               	movwf	?___fldiv+3
  4106  014D  3000               	movlw	0
  4107  014E  00BC               	movwf	?___fldiv+2
  4108  014F  3000               	movlw	0
  4109  0150  00BB               	movwf	?___fldiv+1
  4110  0151  3000               	movlw	0
  4111  0152  00BA               	movwf	?___fldiv
  4112  0153  2AA5               	goto	l604
  4113  0154                     l1667:
  4114  0154  0852               	movf	___fldiv@bexp,w
  4115  0155  00C2               	movwf	??___fldiv
  4116  0156  01C3               	clrf	??___fldiv+1
  4117  0157  0843               	movf	??___fldiv+1,w
  4118  0158  00C5               	movwf	??___fldiv+3
  4119  0159  0853               	movf	___fldiv@aexp,w
  4120  015A  0242               	subwf	??___fldiv,w
  4121  015B  00C4               	movwf	??___fldiv+2
  4122  015C  1C03               	skipc
  4123  015D  03C5               	decf	??___fldiv+3,f
  4124  015E  0844               	movf	??___fldiv+2,w
  4125  015F  3E7F               	addlw	127
  4126  0160  00CC               	movwf	___fldiv@new_exp
  4127  0161  0845               	movf	??___fldiv+3,w
  4128  0162  1803               	skipnc
  4129  0163  3E01               	addlw	1
  4130  0164  3E00               	addlw	0
  4131  0165  00CD               	movwf	___fldiv@new_exp+1
  4132  0166                     l1669:
  4133  0166  0841               	movf	___fldiv@b+3,w
  4134  0167  00CA               	movwf	___fldiv@rem+3
  4135  0168  0840               	movf	___fldiv@b+2,w
  4136  0169  00C9               	movwf	___fldiv@rem+2
  4137  016A  083F               	movf	___fldiv@b+1,w
  4138  016B  00C8               	movwf	___fldiv@rem+1
  4139  016C  083E               	movf	___fldiv@b,w
  4140  016D  00C7               	movwf	___fldiv@rem
  4141  016E                     l1671:
  4142  016E  3000               	movlw	0
  4143  016F  00C1               	movwf	___fldiv@b+3
  4144  0170  3000               	movlw	0
  4145  0171  00C0               	movwf	___fldiv@b+2
  4146  0172  3000               	movlw	0
  4147  0173  00BF               	movwf	___fldiv@b+1
  4148  0174  3000               	movlw	0
  4149  0175  00BE               	movwf	___fldiv@b
  4150  0176                     l1673:
  4151  0176  3000               	movlw	0
  4152  0177  00D1               	movwf	___fldiv@grs+3
  4153  0178  3000               	movlw	0
  4154  0179  00D0               	movwf	___fldiv@grs+2
  4155  017A  3000               	movlw	0
  4156  017B  00CF               	movwf	___fldiv@grs+1
  4157  017C  3000               	movlw	0
  4158  017D  00CE               	movwf	___fldiv@grs
  4159  017E                     l1675:
  4160  017E  01D3               	clrf	___fldiv@aexp
  4161  017F  29CA               	goto	l1695
  4162  0180                     l1677:
  4163  0180  0853               	movf	___fldiv@aexp,w
  4164  0181  1903               	btfsc	3,2
  4165  0182  2984               	goto	u1551
  4166  0183  2985               	goto	u1550
  4167  0184                     u1551:
  4168  0184  29A5               	goto	l1687
  4169  0185                     u1550:
  4170  0185                     l1679:
  4171  0185  3001               	movlw	1
  4172  0186  00C2               	movwf	??___fldiv
  4173  0187                     u1565:
  4174  0187  1003               	clrc
  4175  0188  0DC7               	rlf	___fldiv@rem,f
  4176  0189  0DC8               	rlf	___fldiv@rem+1,f
  4177  018A  0DC9               	rlf	___fldiv@rem+2,f
  4178  018B  0DCA               	rlf	___fldiv@rem+3,f
  4179  018C  0BC2               	decfsz	??___fldiv,f
  4180  018D  2987               	goto	u1565
  4181  018E  3001               	movlw	1
  4182  018F  00C2               	movwf	??___fldiv
  4183  0190                     u1575:
  4184  0190  1003               	clrc
  4185  0191  0DBE               	rlf	___fldiv@b,f
  4186  0192  0DBF               	rlf	___fldiv@b+1,f
  4187  0193  0DC0               	rlf	___fldiv@b+2,f
  4188  0194  0DC1               	rlf	___fldiv@b+3,f
  4189  0195  0BC2               	decfsz	??___fldiv,f
  4190  0196  2990               	goto	u1575
  4191  0197                     l1681:
  4192  0197  1FD1               	btfss	___fldiv@grs+3,7
  4193  0198  299A               	goto	u1581
  4194  0199  299B               	goto	u1580
  4195  019A                     u1581:
  4196  019A  299C               	goto	l1685
  4197  019B                     u1580:
  4198  019B                     l1683:
  4199  019B  143E               	bsf	___fldiv@b,0
  4200  019C                     l1685:
  4201  019C  3001               	movlw	1
  4202  019D  00C2               	movwf	??___fldiv
  4203  019E                     u1595:
  4204  019E  1003               	clrc
  4205  019F  0DCE               	rlf	___fldiv@grs,f
  4206  01A0  0DCF               	rlf	___fldiv@grs+1,f
  4207  01A1  0DD0               	rlf	___fldiv@grs+2,f
  4208  01A2  0DD1               	rlf	___fldiv@grs+3,f
  4209  01A3  0BC2               	decfsz	??___fldiv,f
  4210  01A4  299E               	goto	u1595
  4211  01A5                     l1687:
  4212  01A5  083D               	movf	___fldiv@a+3,w
  4213  01A6  024A               	subwf	___fldiv@rem+3,w
  4214  01A7  1D03               	skipz
  4215  01A8  29B3               	goto	u1605
  4216  01A9  083C               	movf	___fldiv@a+2,w
  4217  01AA  0249               	subwf	___fldiv@rem+2,w
  4218  01AB  1D03               	skipz
  4219  01AC  29B3               	goto	u1605
  4220  01AD  083B               	movf	___fldiv@a+1,w
  4221  01AE  0248               	subwf	___fldiv@rem+1,w
  4222  01AF  1D03               	skipz
  4223  01B0  29B3               	goto	u1605
  4224  01B1  083A               	movf	___fldiv@a,w
  4225  01B2  0247               	subwf	___fldiv@rem,w
  4226  01B3                     u1605:
  4227  01B3  1C03               	skipc
  4228  01B4  29B6               	goto	u1601
  4229  01B5  29B7               	goto	u1600
  4230  01B6                     u1601:
  4231  01B6  29C6               	goto	l1693
  4232  01B7                     u1600:
  4233  01B7                     l1689:
  4234  01B7  1751               	bsf	___fldiv@grs+3,6
  4235  01B8                     l1691:
  4236  01B8  083A               	movf	___fldiv@a,w
  4237  01B9  02C7               	subwf	___fldiv@rem,f
  4238  01BA  083B               	movf	___fldiv@a+1,w
  4239  01BB  1C03               	skipc
  4240  01BC  0F3B               	incfsz	___fldiv@a+1,w
  4241  01BD  02C8               	subwf	___fldiv@rem+1,f
  4242  01BE  083C               	movf	___fldiv@a+2,w
  4243  01BF  1C03               	skipc
  4244  01C0  0F3C               	incfsz	___fldiv@a+2,w
  4245  01C1  02C9               	subwf	___fldiv@rem+2,f
  4246  01C2  083D               	movf	___fldiv@a+3,w
  4247  01C3  1C03               	skipc
  4248  01C4  0F3D               	incfsz	___fldiv@a+3,w
  4249  01C5  02CA               	subwf	___fldiv@rem+3,f
  4250  01C6                     l1693:
  4251  01C6  3001               	movlw	1
  4252  01C7  00C2               	movwf	??___fldiv
  4253  01C8  0842               	movf	??___fldiv,w
  4254  01C9  07D3               	addwf	___fldiv@aexp,f
  4255  01CA                     l1695:
  4256  01CA  301A               	movlw	26
  4257  01CB  0253               	subwf	___fldiv@aexp,w
  4258  01CC  1C03               	skipc
  4259  01CD  29CF               	goto	u1611
  4260  01CE  29D0               	goto	u1610
  4261  01CF                     u1611:
  4262  01CF  2980               	goto	l1677
  4263  01D0                     u1610:
  4264  01D0                     l1697:
  4265  01D0  084A               	movf	___fldiv@rem+3,w
  4266  01D1  0449               	iorwf	___fldiv@rem+2,w
  4267  01D2  0448               	iorwf	___fldiv@rem+1,w
  4268  01D3  0447               	iorwf	___fldiv@rem,w
  4269  01D4  1903               	skipnz
  4270  01D5  29D7               	goto	u1621
  4271  01D6  29D8               	goto	u1620
  4272  01D7                     u1621:
  4273  01D7  29F7               	goto	l1711
  4274  01D8                     u1620:
  4275  01D8                     l1699:
  4276  01D8  144E               	bsf	___fldiv@grs,0
  4277  01D9  29F7               	goto	l1711
  4278  01DA                     l1701:
  4279  01DA  3001               	movlw	1
  4280  01DB  00C2               	movwf	??___fldiv
  4281  01DC                     u1635:
  4282  01DC  1003               	clrc
  4283  01DD  0DBE               	rlf	___fldiv@b,f
  4284  01DE  0DBF               	rlf	___fldiv@b+1,f
  4285  01DF  0DC0               	rlf	___fldiv@b+2,f
  4286  01E0  0DC1               	rlf	___fldiv@b+3,f
  4287  01E1  0BC2               	decfsz	??___fldiv,f
  4288  01E2  29DC               	goto	u1635
  4289  01E3                     l1703:
  4290  01E3  1FD1               	btfss	___fldiv@grs+3,7
  4291  01E4  29E6               	goto	u1641
  4292  01E5  29E7               	goto	u1640
  4293  01E6                     u1641:
  4294  01E6  29E8               	goto	l1707
  4295  01E7                     u1640:
  4296  01E7                     l1705:
  4297  01E7  143E               	bsf	___fldiv@b,0
  4298  01E8                     l1707:
  4299  01E8  3001               	movlw	1
  4300  01E9  00C2               	movwf	??___fldiv
  4301  01EA                     u1655:
  4302  01EA  1003               	clrc
  4303  01EB  0DCE               	rlf	___fldiv@grs,f
  4304  01EC  0DCF               	rlf	___fldiv@grs+1,f
  4305  01ED  0DD0               	rlf	___fldiv@grs+2,f
  4306  01EE  0DD1               	rlf	___fldiv@grs+3,f
  4307  01EF  0BC2               	decfsz	??___fldiv,f
  4308  01F0  29EA               	goto	u1655
  4309  01F1                     l1709:
  4310  01F1  30FF               	movlw	255
  4311  01F2  07CC               	addwf	___fldiv@new_exp,f
  4312  01F3  1803               	skipnc
  4313  01F4  0ACD               	incf	___fldiv@new_exp+1,f
  4314  01F5  30FF               	movlw	255
  4315  01F6  07CD               	addwf	___fldiv@new_exp+1,f
  4316  01F7                     l1711:
  4317  01F7  1FC0               	btfss	___fldiv@b+2,7
  4318  01F8  29FA               	goto	u1661
  4319  01F9  29FB               	goto	u1660
  4320  01FA                     u1661:
  4321  01FA  29DA               	goto	l1701
  4322  01FB                     u1660:
  4323  01FB                     l1713:
  4324  01FB  01D3               	clrf	___fldiv@aexp
  4325  01FC                     l1715:
  4326  01FC  1FD1               	btfss	___fldiv@grs+3,7
  4327  01FD  29FF               	goto	u1671
  4328  01FE  2A00               	goto	u1670
  4329  01FF                     u1671:
  4330  01FF  2A1C               	goto	l1723
  4331  0200                     u1670:
  4332  0200                     l1717:
  4333  0200  30FF               	movlw	255
  4334  0201  054E               	andwf	___fldiv@grs,w
  4335  0202  00C2               	movwf	??___fldiv
  4336  0203  30FF               	movlw	255
  4337  0204  054F               	andwf	___fldiv@grs+1,w
  4338  0205  00C3               	movwf	??___fldiv+1
  4339  0206  30FF               	movlw	255
  4340  0207  0550               	andwf	___fldiv@grs+2,w
  4341  0208  00C4               	movwf	??___fldiv+2
  4342  0209  307F               	movlw	127
  4343  020A  0551               	andwf	___fldiv@grs+3,w
  4344  020B  00C5               	movwf	??___fldiv+3
  4345  020C  0845               	movf	??___fldiv+3,w
  4346  020D  0444               	iorwf	??___fldiv+2,w
  4347  020E  0443               	iorwf	??___fldiv+1,w
  4348  020F  0442               	iorwf	??___fldiv,w
  4349  0210  1903               	skipnz
  4350  0211  2A13               	goto	u1681
  4351  0212  2A14               	goto	u1680
  4352  0213                     u1681:
  4353  0213  2A17               	goto	l618
  4354  0214                     u1680:
  4355  0214                     l1719:
  4356  0214  01D3               	clrf	___fldiv@aexp
  4357  0215  0AD3               	incf	___fldiv@aexp,f
  4358  0216  2A1C               	goto	l1723
  4359  0217                     l618:
  4360  0217  1C3E               	btfss	___fldiv@b,0
  4361  0218  2A1A               	goto	u1691
  4362  0219  2A1B               	goto	u1690
  4363  021A                     u1691:
  4364  021A  2A1C               	goto	l1723
  4365  021B                     u1690:
  4366  021B  2A14               	goto	l1719
  4367  021C                     l1723:
  4368  021C  0853               	movf	___fldiv@aexp,w
  4369  021D  1903               	btfsc	3,2
  4370  021E  2A20               	goto	u1701
  4371  021F  2A21               	goto	u1700
  4372  0220                     u1701:
  4373  0220  2A52               	goto	l1733
  4374  0221                     u1700:
  4375  0221                     l1725:
  4376  0221  3001               	movlw	1
  4377  0222  07BE               	addwf	___fldiv@b,f
  4378  0223  3000               	movlw	0
  4379  0224  1803               	skipnc
  4380  0225  3001               	movlw	1
  4381  0226  07BF               	addwf	___fldiv@b+1,f
  4382  0227  3000               	movlw	0
  4383  0228  1803               	skipnc
  4384  0229  3001               	movlw	1
  4385  022A  07C0               	addwf	___fldiv@b+2,f
  4386  022B  3000               	movlw	0
  4387  022C  1803               	skipnc
  4388  022D  3001               	movlw	1
  4389  022E  07C1               	addwf	___fldiv@b+3,f
  4390  022F                     l1727:
  4391  022F  1C41               	btfss	___fldiv@b+3,0
  4392  0230  2A32               	goto	u1711
  4393  0231  2A33               	goto	u1710
  4394  0232                     u1711:
  4395  0232  2A52               	goto	l1733
  4396  0233                     u1710:
  4397  0233                     l1729:
  4398  0233  083E               	movf	___fldiv@b,w
  4399  0234  00C2               	movwf	??___fldiv
  4400  0235  083F               	movf	___fldiv@b+1,w
  4401  0236  00C3               	movwf	??___fldiv+1
  4402  0237  0840               	movf	___fldiv@b+2,w
  4403  0238  00C4               	movwf	??___fldiv+2
  4404  0239  0841               	movf	___fldiv@b+3,w
  4405  023A  00C5               	movwf	??___fldiv+3
  4406  023B  3001               	movlw	1
  4407  023C  00C6               	movwf	??___fldiv+4
  4408  023D                     u1725:
  4409  023D  0D45               	rlf	??___fldiv+3,w
  4410  023E  0CC5               	rrf	??___fldiv+3,f
  4411  023F  0CC4               	rrf	??___fldiv+2,f
  4412  0240  0CC3               	rrf	??___fldiv+1,f
  4413  0241  0CC2               	rrf	??___fldiv,f
  4414  0242                     u1720:
  4415  0242  0BC6               	decfsz	??___fldiv+4,f
  4416  0243  2A3D               	goto	u1725
  4417  0244  0845               	movf	??___fldiv+3,w
  4418  0245  00C1               	movwf	___fldiv@b+3
  4419  0246  0844               	movf	??___fldiv+2,w
  4420  0247  00C0               	movwf	___fldiv@b+2
  4421  0248  0843               	movf	??___fldiv+1,w
  4422  0249  00BF               	movwf	___fldiv@b+1
  4423  024A  0842               	movf	??___fldiv,w
  4424  024B  00BE               	movwf	___fldiv@b
  4425  024C                     l1731:
  4426  024C  3001               	movlw	1
  4427  024D  07CC               	addwf	___fldiv@new_exp,f
  4428  024E  1803               	skipnc
  4429  024F  0ACD               	incf	___fldiv@new_exp+1,f
  4430  0250  3000               	movlw	0
  4431  0251  07CD               	addwf	___fldiv@new_exp+1,f
  4432  0252                     l1733:
  4433  0252  084D               	movf	___fldiv@new_exp+1,w
  4434  0253  3A80               	xorlw	128
  4435  0254  00FF               	movwf	btemp+1
  4436  0255  3080               	movlw	128
  4437  0256  027F               	subwf	btemp+1,w
  4438  0257  1D03               	skipz
  4439  0258  2A5B               	goto	u1735
  4440  0259  30FF               	movlw	255
  4441  025A  024C               	subwf	___fldiv@new_exp,w
  4442  025B                     u1735:
  4443  025B  1C03               	skipc
  4444  025C  2A5E               	goto	u1731
  4445  025D  2A5F               	goto	u1730
  4446  025E                     u1731:
  4447  025E  2A6D               	goto	l1737
  4448  025F                     u1730:
  4449  025F                     l1735:
  4450  025F  30FF               	movlw	255
  4451  0260  1283               	bcf	3,5	;RP0=0, select bank0
  4452  0261  1303               	bcf	3,6	;RP1=0, select bank0
  4453  0262  00CC               	movwf	___fldiv@new_exp
  4454  0263  3000               	movlw	0
  4455  0264  00CD               	movwf	___fldiv@new_exp+1
  4456  0265  3000               	movlw	0
  4457  0266  00C1               	movwf	___fldiv@b+3
  4458  0267  3000               	movlw	0
  4459  0268  00C0               	movwf	___fldiv@b+2
  4460  0269  3000               	movlw	0
  4461  026A  00BF               	movwf	___fldiv@b+1
  4462  026B  3000               	movlw	0
  4463  026C  00BE               	movwf	___fldiv@b
  4464  026D                     l1737:
  4465  026D  1283               	bcf	3,5	;RP0=0, select bank0
  4466  026E  1303               	bcf	3,6	;RP1=0, select bank0
  4467  026F  084D               	movf	___fldiv@new_exp+1,w
  4468  0270  3A80               	xorlw	128
  4469  0271  00FF               	movwf	btemp+1
  4470  0272  3080               	movlw	128
  4471  0273  027F               	subwf	btemp+1,w
  4472  0274  1D03               	skipz
  4473  0275  2A78               	goto	u1745
  4474  0276  3001               	movlw	1
  4475  0277  024C               	subwf	___fldiv@new_exp,w
  4476  0278                     u1745:
  4477  0278  1803               	skipnc
  4478  0279  2A7B               	goto	u1741
  4479  027A  2A7C               	goto	u1740
  4480  027B                     u1741:
  4481  027B  2A89               	goto	l624
  4482  027C                     u1740:
  4483  027C                     l1739:
  4484  027C  1283               	bcf	3,5	;RP0=0, select bank0
  4485  027D  1303               	bcf	3,6	;RP1=0, select bank0
  4486  027E  01CC               	clrf	___fldiv@new_exp
  4487  027F  01CD               	clrf	___fldiv@new_exp+1
  4488  0280                     l1741:
  4489  0280  3000               	movlw	0
  4490  0281  00C1               	movwf	___fldiv@b+3
  4491  0282  3000               	movlw	0
  4492  0283  00C0               	movwf	___fldiv@b+2
  4493  0284  3000               	movlw	0
  4494  0285  00BF               	movwf	___fldiv@b+1
  4495  0286  3000               	movlw	0
  4496  0287  00BE               	movwf	___fldiv@b
  4497  0288                     l1743:
  4498  0288  01CB               	clrf	___fldiv@sign
  4499  0289                     l624:
  4500  0289  1283               	bcf	3,5	;RP0=0, select bank0
  4501  028A  1303               	bcf	3,6	;RP1=0, select bank0
  4502  028B  084C               	movf	___fldiv@new_exp,w
  4503  028C  00C2               	movwf	??___fldiv
  4504  028D  0842               	movf	??___fldiv,w
  4505  028E  00D2               	movwf	___fldiv@bexp
  4506  028F                     l1745:
  4507  028F  1C52               	btfss	___fldiv@bexp,0
  4508  0290  2A92               	goto	u1751
  4509  0291  2A93               	goto	u1750
  4510  0292                     u1751:
  4511  0292  2A95               	goto	l1749
  4512  0293                     u1750:
  4513  0293                     l1747:
  4514  0293  17C0               	bsf	___fldiv@b+2,7
  4515  0294  2A99               	goto	l626
  4516  0295                     l1749:
  4517  0295  307F               	movlw	127
  4518  0296  00C2               	movwf	??___fldiv
  4519  0297  0842               	movf	??___fldiv,w
  4520  0298  05C0               	andwf	___fldiv@b+2,f
  4521  0299                     l626:
  4522  0299  0852               	movf	___fldiv@bexp,w
  4523  029A  00C2               	movwf	??___fldiv
  4524  029B  1003               	clrc
  4525  029C  0C42               	rrf	??___fldiv,w
  4526  029D  00C3               	movwf	??___fldiv+1
  4527  029E  0843               	movf	??___fldiv+1,w
  4528  029F  00C1               	movwf	___fldiv@b+3
  4529  02A0  084B               	movf	___fldiv@sign,w
  4530  02A1  00C2               	movwf	??___fldiv
  4531  02A2  0842               	movf	??___fldiv,w
  4532  02A3  04C1               	iorwf	___fldiv@b+3,f
  4533  02A4  293D               	goto	l1657
  4534  02A5                     l604:
  4535  02A5  0008               	return
  4536  02A6                     __end_of___fldiv:
  4537                           
  4538                           	psect	text14
  4539  0C99                     __ptext14:	
  4540 ;; *************** function _Config_Init *****************
  4541 ;; Defined at:
  4542 ;;		line 85 in file "main_hs_cr_04.c"
  4543 ;; Parameters:    Size  Location     Type
  4544 ;;		None
  4545 ;; Auto vars:     Size  Location     Type
  4546 ;;		None
  4547 ;; Return value:  Size  Location     Type
  4548 ;;                  1    wreg      void 
  4549 ;; Registers used:
  4550 ;;		wreg, status,2, status,0, pclath, cstack
  4551 ;; Tracked objects:
  4552 ;;		On entry : 0/0
  4553 ;;		On exit  : 0/0
  4554 ;;		Unchanged: 0/0
  4555 ;; Data sizes:     COMMON   BANK0   BANK1   BANK3   BANK2
  4556 ;;      Params:         0       0       0       0       0
  4557 ;;      Locals:         0       0       0       0       0
  4558 ;;      Temps:          0       0       0       0       0
  4559 ;;      Totals:         0       0       0       0       0
  4560 ;;Total ram usage:        0 bytes
  4561 ;; Hardware stack levels used: 1
  4562 ;; Hardware stack levels required when called: 3
  4563 ;; This function calls:
  4564 ;;		_HC_SR_04_Init
  4565 ;;		_LCD_Init
  4566 ;; This function is called by:
  4567 ;;		_main
  4568 ;; This function uses a non-reentrant model
  4569 ;;
  4570                           
  4571                           
  4572                           ;psect for function _Config_Init
  4573  0C99                     _Config_Init:
  4574  0C99                     l1939:	
  4575                           ;incstack = 0
  4576                           ; Regs used in _Config_Init: [wreg+status,2+status,0+pclath+cstack]
  4577                           
  4578                           
  4579                           ;main_hs_cr_04.c: 86:     ADCON1 = 0x06;
  4580  0C99  3006               	movlw	6
  4581  0C9A  1683               	bsf	3,5	;RP0=1, select bank1
  4582  0C9B  1303               	bcf	3,6	;RP1=0, select bank1
  4583  0C9C  009F               	movwf	31	;volatile
  4584  0C9D                     l1941:
  4585                           
  4586                           ;main_hs_cr_04.c: 88:     LCD_Init();
  4587  0C9D  120A  158A  2710  120A  158A  	fcall	_LCD_Init
  4588                           
  4589                           ;main_hs_cr_04.c: 90:     HC_SR_04_Init();
  4590  0CA2  120A  158A  2471  120A  158A  	fcall	_HC_SR_04_Init
  4591  0CA7                     l53:
  4592  0CA7  0008               	return
  4593  0CA8                     __end_of_Config_Init:
  4594                           
  4595                           	psect	text15
  4596  0F10                     __ptext15:	
  4597 ;; *************** function _LCD_Init *****************
  4598 ;; Defined at:
  4599 ;;		line 10 in file "LCD.c"
  4600 ;; Parameters:    Size  Location     Type
  4601 ;;		None
  4602 ;; Auto vars:     Size  Location     Type
  4603 ;;		None
  4604 ;; Return value:  Size  Location     Type
  4605 ;;                  1    wreg      void 
  4606 ;; Registers used:
  4607 ;;		wreg, status,2, status,0, pclath, cstack
  4608 ;; Tracked objects:
  4609 ;;		On entry : 0/0
  4610 ;;		On exit  : 0/0
  4611 ;;		Unchanged: 0/0
  4612 ;; Data sizes:     COMMON   BANK0   BANK1   BANK3   BANK2
  4613 ;;      Params:         0       0       0       0       0
  4614 ;;      Locals:         0       0       0       0       0
  4615 ;;      Temps:          2       0       0       0       0
  4616 ;;      Totals:         2       0       0       0       0
  4617 ;;Total ram usage:        2 bytes
  4618 ;; Hardware stack levels used: 1
  4619 ;; Hardware stack levels required when called: 2
  4620 ;; This function calls:
  4621 ;;		_LCD_Cmd
  4622 ;;		_LCD_Set_Bit
  4623 ;; This function is called by:
  4624 ;;		_Config_Init
  4625 ;; This function uses a non-reentrant model
  4626 ;;
  4627                           
  4628                           
  4629                           ;psect for function _LCD_Init
  4630  0F10                     _LCD_Init:
  4631  0F10                     l1535:	
  4632                           ;incstack = 0
  4633                           ; Regs used in _LCD_Init: [wreg+status,2+status,0+pclath+cstack]
  4634                           
  4635                           
  4636                           ;LCD.c: 13:   TRISD = 0x00;
  4637  0F10  1683               	bsf	3,5	;RP0=1, select bank1
  4638  0F11  1303               	bcf	3,6	;RP1=0, select bank1
  4639  0F12  0188               	clrf	8	;volatile
  4640  0F13                     l1537:
  4641                           
  4642                           ;LCD.c: 14:   TRISD2 = 0;
  4643  0F13  1108               	bcf	8,2	;volatile
  4644  0F14                     l1539:
  4645                           
  4646                           ;LCD.c: 15:   TRISD3 = 0;
  4647  0F14  1188               	bcf	8,3	;volatile
  4648  0F15                     l1541:
  4649                           
  4650                           ;LCD.c: 18:   LCD_Set_Bit(0x00);
  4651  0F15  3000               	movlw	0
  4652  0F16  120A  158A  24E2  120A  158A  	fcall	_LCD_Set_Bit
  4653  0F1B                     l1543:
  4654                           
  4655                           ;LCD.c: 19:   _delay((unsigned long)((500)*(20000000/4000000.0)));
  4656  0F1B  3004               	movlw	4
  4657  0F1C  00F5               	movwf	??_LCD_Init+1
  4658  0F1D  303D               	movlw	61
  4659  0F1E  00F4               	movwf	??_LCD_Init
  4660  0F1F                     u2637:
  4661  0F1F  0BF4               	decfsz	??_LCD_Init,f
  4662  0F20  2F1F               	goto	u2637
  4663  0F21  0BF5               	decfsz	??_LCD_Init+1,f
  4664  0F22  2F1F               	goto	u2637
  4665  0F23  2F24               	nop2
  4666  0F24                     l1545:
  4667                           
  4668                           ;LCD.c: 20:   _delay((unsigned long)((30)*(20000000/4000.0)));
  4669  0F24  30C3               	movlw	195
  4670  0F25  00F5               	movwf	??_LCD_Init+1
  4671  0F26  30CD               	movlw	205
  4672  0F27  00F4               	movwf	??_LCD_Init
  4673  0F28                     u2647:
  4674  0F28  0BF4               	decfsz	??_LCD_Init,f
  4675  0F29  2F28               	goto	u2647
  4676  0F2A  0BF5               	decfsz	??_LCD_Init+1,f
  4677  0F2B  2F28               	goto	u2647
  4678  0F2C                     l1547:
  4679                           
  4680                           ;LCD.c: 22:   LCD_Cmd(0x03);
  4681  0F2C  3003               	movlw	3
  4682  0F2D  120A  158A  24A8  120A  158A  	fcall	_LCD_Cmd
  4683  0F32                     l1549:
  4684                           
  4685                           ;LCD.c: 23:   _delay((unsigned long)((5)*(20000000/4000.0)));
  4686  0F32  3021               	movlw	33
  4687  0F33  00F5               	movwf	??_LCD_Init+1
  4688  0F34  3076               	movlw	118
  4689  0F35  00F4               	movwf	??_LCD_Init
  4690  0F36                     u2657:
  4691  0F36  0BF4               	decfsz	??_LCD_Init,f
  4692  0F37  2F36               	goto	u2657
  4693  0F38  0BF5               	decfsz	??_LCD_Init+1,f
  4694  0F39  2F36               	goto	u2657
  4695  0F3A  0000               	nop
  4696  0F3B                     l1551:
  4697                           
  4698                           ;LCD.c: 24:   LCD_Cmd(0x03);
  4699  0F3B  3003               	movlw	3
  4700  0F3C  120A  158A  24A8  120A  158A  	fcall	_LCD_Cmd
  4701  0F41                     l1553:
  4702                           
  4703                           ;LCD.c: 25:   _delay((unsigned long)((5)*(20000000/4000.0)));
  4704  0F41  3021               	movlw	33
  4705  0F42  00F5               	movwf	??_LCD_Init+1
  4706  0F43  3076               	movlw	118
  4707  0F44  00F4               	movwf	??_LCD_Init
  4708  0F45                     u2667:
  4709  0F45  0BF4               	decfsz	??_LCD_Init,f
  4710  0F46  2F45               	goto	u2667
  4711  0F47  0BF5               	decfsz	??_LCD_Init+1,f
  4712  0F48  2F45               	goto	u2667
  4713  0F49  0000               	nop
  4714  0F4A                     l1555:
  4715                           
  4716                           ;LCD.c: 26:   LCD_Cmd(0x03);
  4717  0F4A  3003               	movlw	3
  4718  0F4B  120A  158A  24A8  120A  158A  	fcall	_LCD_Cmd
  4719  0F50                     l1557:
  4720                           
  4721                           ;LCD.c: 27:   _delay((unsigned long)((5)*(20000000/4000.0)));
  4722  0F50  3021               	movlw	33
  4723  0F51  00F5               	movwf	??_LCD_Init+1
  4724  0F52  3076               	movlw	118
  4725  0F53  00F4               	movwf	??_LCD_Init
  4726  0F54                     u2677:
  4727  0F54  0BF4               	decfsz	??_LCD_Init,f
  4728  0F55  2F54               	goto	u2677
  4729  0F56  0BF5               	decfsz	??_LCD_Init+1,f
  4730  0F57  2F54               	goto	u2677
  4731  0F58  0000               	nop
  4732  0F59                     l1559:
  4733                           
  4734                           ;LCD.c: 29:   LCD_Cmd(0x02);
  4735  0F59  3002               	movlw	2
  4736  0F5A  120A  158A  24A8  120A  158A  	fcall	_LCD_Cmd
  4737  0F5F                     l1561:
  4738                           
  4739                           ;LCD.c: 30:   LCD_Cmd(0x02);
  4740  0F5F  3002               	movlw	2
  4741  0F60  120A  158A  24A8  120A  158A  	fcall	_LCD_Cmd
  4742  0F65                     l1563:
  4743                           
  4744                           ;LCD.c: 31:   LCD_Cmd(0x08);
  4745  0F65  3008               	movlw	8
  4746  0F66  120A  158A  24A8  120A  158A  	fcall	_LCD_Cmd
  4747  0F6B                     l1565:
  4748                           
  4749                           ;LCD.c: 32:   LCD_Cmd(0x00);
  4750  0F6B  3000               	movlw	0
  4751  0F6C  120A  158A  24A8  120A  158A  	fcall	_LCD_Cmd
  4752  0F71                     l1567:
  4753                           
  4754                           ;LCD.c: 33:   LCD_Cmd(0x0C);
  4755  0F71  300C               	movlw	12
  4756  0F72  120A  158A  24A8  120A  158A  	fcall	_LCD_Cmd
  4757  0F77                     l1569:
  4758                           
  4759                           ;LCD.c: 34:   LCD_Cmd(0x00);
  4760  0F77  3000               	movlw	0
  4761  0F78  120A  158A  24A8  120A  158A  	fcall	_LCD_Cmd
  4762  0F7D                     l1571:
  4763                           
  4764                           ;LCD.c: 35:   LCD_Cmd(0x06);
  4765  0F7D  3006               	movlw	6
  4766  0F7E  120A  158A  24A8  120A  158A  	fcall	_LCD_Cmd
  4767  0F83                     l80:
  4768  0F83  0008               	return
  4769  0F84                     __end_of_LCD_Init:
  4770                           
  4771                           	psect	text16
  4772  0CA8                     __ptext16:	
  4773 ;; *************** function _LCD_Cmd *****************
  4774 ;; Defined at:
  4775 ;;		line 156 in file "LCD.c"
  4776 ;; Parameters:    Size  Location     Type
  4777 ;;  Cmd             1    wreg     unsigned char 
  4778 ;; Auto vars:     Size  Location     Type
  4779 ;;  Cmd             1    3[COMMON] unsigned char 
  4780 ;; Return value:  Size  Location     Type
  4781 ;;                  1    wreg      void 
  4782 ;; Registers used:
  4783 ;;		wreg, status,2, status,0, pclath, cstack
  4784 ;; Tracked objects:
  4785 ;;		On entry : 0/0
  4786 ;;		On exit  : 0/0
  4787 ;;		Unchanged: 0/0
  4788 ;; Data sizes:     COMMON   BANK0   BANK1   BANK3   BANK2
  4789 ;;      Params:         0       0       0       0       0
  4790 ;;      Locals:         1       0       0       0       0
  4791 ;;      Temps:          2       0       0       0       0
  4792 ;;      Totals:         3       0       0       0       0
  4793 ;;Total ram usage:        3 bytes
  4794 ;; Hardware stack levels used: 1
  4795 ;; Hardware stack levels required when called: 1
  4796 ;; This function calls:
  4797 ;;		_LCD_Set_Bit
  4798 ;; This function is called by:
  4799 ;;		_LCD_Init
  4800 ;;		_LCD_Clear
  4801 ;;		_LCD_Set_Cursor
  4802 ;;		_LCD_SL
  4803 ;;		_LCD_SR
  4804 ;; This function uses a non-reentrant model
  4805 ;;
  4806                           
  4807                           
  4808                           ;psect for function _LCD_Cmd
  4809  0CA8                     _LCD_Cmd:
  4810                           
  4811                           ;incstack = 0
  4812                           ; Regs used in _LCD_Cmd: [wreg+status,2+status,0+pclath+cstack]
  4813                           ;LCD_Cmd@Cmd stored from wreg
  4814  0CA8  00F3               	movwf	LCD_Cmd@Cmd
  4815  0CA9                     l1473:
  4816                           
  4817                           ;LCD.c: 156: void LCD_Cmd(char Cmd);LCD.c: 157: {;LCD.c: 158:   RD2 = 0;
  4818  0CA9  1283               	bcf	3,5	;RP0=0, select bank0
  4819  0CAA  1303               	bcf	3,6	;RP1=0, select bank0
  4820  0CAB  1108               	bcf	8,2	;volatile
  4821  0CAC                     l1475:
  4822                           
  4823                           ;LCD.c: 159:   LCD_Set_Bit(Cmd);
  4824  0CAC  0873               	movf	LCD_Cmd@Cmd,w
  4825  0CAD  120A  158A  24E2  120A  158A  	fcall	_LCD_Set_Bit
  4826  0CB2                     l1477:
  4827                           
  4828                           ;LCD.c: 160:   RD3 = 1;
  4829  0CB2  1283               	bcf	3,5	;RP0=0, select bank0
  4830  0CB3  1303               	bcf	3,6	;RP1=0, select bank0
  4831  0CB4  1588               	bsf	8,3	;volatile
  4832  0CB5                     l1479:
  4833                           
  4834                           ;LCD.c: 161:   _delay((unsigned long)((4)*(20000000/4000.0)));
  4835  0CB5  301A               	movlw	26
  4836  0CB6  00F2               	movwf	??_LCD_Cmd+1
  4837  0CB7  30F8               	movlw	248
  4838  0CB8  00F1               	movwf	??_LCD_Cmd
  4839  0CB9                     u2687:
  4840  0CB9  0BF1               	decfsz	??_LCD_Cmd,f
  4841  0CBA  2CB9               	goto	u2687
  4842  0CBB  0BF2               	decfsz	??_LCD_Cmd+1,f
  4843  0CBC  2CB9               	goto	u2687
  4844  0CBD  0000               	nop
  4845  0CBE                     l1481:
  4846                           
  4847                           ;LCD.c: 162:   RD3 = 0;
  4848  0CBE  1283               	bcf	3,5	;RP0=0, select bank0
  4849  0CBF  1303               	bcf	3,6	;RP1=0, select bank0
  4850  0CC0  1188               	bcf	8,3	;volatile
  4851  0CC1                     l129:
  4852  0CC1  0008               	return
  4853  0CC2                     __end_of_LCD_Cmd:
  4854                           
  4855                           	psect	text17
  4856  0CE2                     __ptext17:	
  4857 ;; *************** function _LCD_Set_Bit *****************
  4858 ;; Defined at:
  4859 ;;		line 133 in file "LCD.c"
  4860 ;; Parameters:    Size  Location     Type
  4861 ;;  Data_Bit        1    wreg     unsigned char 
  4862 ;; Auto vars:     Size  Location     Type
  4863 ;;  Data_Bit        1    0[COMMON] unsigned char 
  4864 ;; Return value:  Size  Location     Type
  4865 ;;                  1    wreg      void 
  4866 ;; Registers used:
  4867 ;;		wreg
  4868 ;; Tracked objects:
  4869 ;;		On entry : 0/0
  4870 ;;		On exit  : 0/0
  4871 ;;		Unchanged: 0/0
  4872 ;; Data sizes:     COMMON   BANK0   BANK1   BANK3   BANK2
  4873 ;;      Params:         0       0       0       0       0
  4874 ;;      Locals:         1       0       0       0       0
  4875 ;;      Temps:          0       0       0       0       0
  4876 ;;      Totals:         1       0       0       0       0
  4877 ;;Total ram usage:        1 bytes
  4878 ;; Hardware stack levels used: 1
  4879 ;; This function calls:
  4880 ;;		Nothing
  4881 ;; This function is called by:
  4882 ;;		_LCD_Init
  4883 ;;		_LCD_Write_Char
  4884 ;;		_LCD_Cmd
  4885 ;; This function uses a non-reentrant model
  4886 ;;
  4887                           
  4888                           
  4889                           ;psect for function _LCD_Set_Bit
  4890  0CE2                     _LCD_Set_Bit:
  4891                           
  4892                           ;incstack = 0
  4893                           ; Regs used in _LCD_Set_Bit: [wreg]
  4894                           ;LCD_Set_Bit@Data_Bit stored from wreg
  4895  0CE2  00F0               	movwf	LCD_Set_Bit@Data_Bit
  4896  0CE3                     l1463:
  4897                           
  4898                           ;LCD.c: 133: void LCD_Set_Bit(unsigned char Data_Bit);LCD.c: 134: {;LCD.c: 135:   if(Dat
      +                          a_Bit & 1)
  4899  0CE3  1C70               	btfss	LCD_Set_Bit@Data_Bit,0
  4900  0CE4  2CE6               	goto	u1291
  4901  0CE5  2CE7               	goto	u1290
  4902  0CE6                     u1291:
  4903  0CE6  2CEB               	goto	l118
  4904  0CE7                     u1290:
  4905  0CE7                     l1465:
  4906                           
  4907                           ;LCD.c: 136:     RD4 = 1;
  4908  0CE7  1283               	bcf	3,5	;RP0=0, select bank0
  4909  0CE8  1303               	bcf	3,6	;RP1=0, select bank0
  4910  0CE9  1608               	bsf	8,4	;volatile
  4911  0CEA  2CEE               	goto	l119
  4912  0CEB                     l118:	
  4913                           ;LCD.c: 137:   else
  4914                           
  4915                           
  4916                           ;LCD.c: 138:     RD4 = 0;
  4917  0CEB  1283               	bcf	3,5	;RP0=0, select bank0
  4918  0CEC  1303               	bcf	3,6	;RP1=0, select bank0
  4919  0CED  1208               	bcf	8,4	;volatile
  4920  0CEE                     l119:
  4921                           
  4922                           ;LCD.c: 140:   if(Data_Bit & 2)
  4923  0CEE  1CF0               	btfss	LCD_Set_Bit@Data_Bit,1
  4924  0CEF  2CF1               	goto	u1301
  4925  0CF0  2CF2               	goto	u1300
  4926  0CF1                     u1301:
  4927  0CF1  2CF4               	goto	l120
  4928  0CF2                     u1300:
  4929  0CF2                     l1467:
  4930                           
  4931                           ;LCD.c: 141:     RD5 = 1;
  4932  0CF2  1688               	bsf	8,5	;volatile
  4933  0CF3  2CF5               	goto	l121
  4934  0CF4                     l120:	
  4935                           ;LCD.c: 142:   else
  4936                           
  4937                           
  4938                           ;LCD.c: 143:     RD5 = 0;
  4939  0CF4  1288               	bcf	8,5	;volatile
  4940  0CF5                     l121:
  4941                           
  4942                           ;LCD.c: 145:   if(Data_Bit & 4)
  4943  0CF5  1D70               	btfss	LCD_Set_Bit@Data_Bit,2
  4944  0CF6  2CF8               	goto	u1311
  4945  0CF7  2CF9               	goto	u1310
  4946  0CF8                     u1311:
  4947  0CF8  2CFB               	goto	l122
  4948  0CF9                     u1310:
  4949  0CF9                     l1469:
  4950                           
  4951                           ;LCD.c: 146:     RD6 = 1;
  4952  0CF9  1708               	bsf	8,6	;volatile
  4953  0CFA  2CFC               	goto	l123
  4954  0CFB                     l122:	
  4955                           ;LCD.c: 147:   else
  4956                           
  4957                           
  4958                           ;LCD.c: 148:     RD6 = 0;
  4959  0CFB  1308               	bcf	8,6	;volatile
  4960  0CFC                     l123:
  4961                           
  4962                           ;LCD.c: 150:   if(Data_Bit & 8)
  4963  0CFC  1DF0               	btfss	LCD_Set_Bit@Data_Bit,3
  4964  0CFD  2CFF               	goto	u1321
  4965  0CFE  2D00               	goto	u1320
  4966  0CFF                     u1321:
  4967  0CFF  2D02               	goto	l124
  4968  0D00                     u1320:
  4969  0D00                     l1471:
  4970                           
  4971                           ;LCD.c: 151:     RD7 = 1;
  4972  0D00  1788               	bsf	8,7	;volatile
  4973  0D01  2D03               	goto	l126
  4974  0D02                     l124:	
  4975                           ;LCD.c: 152:   else
  4976                           
  4977                           
  4978                           ;LCD.c: 153:     RD7 = 0;
  4979  0D02  1388               	bcf	8,7	;volatile
  4980  0D03                     l126:
  4981  0D03  0008               	return
  4982  0D04                     __end_of_LCD_Set_Bit:
  4983                           
  4984                           	psect	text18
  4985  0C71                     __ptext18:	
  4986 ;; *************** function _HC_SR_04_Init *****************
  4987 ;; Defined at:
  4988 ;;		line 20 in file "HC_SR_04.c"
  4989 ;; Parameters:    Size  Location     Type
  4990 ;;		None
  4991 ;; Auto vars:     Size  Location     Type
  4992 ;;		None
  4993 ;; Return value:  Size  Location     Type
  4994 ;;                  1    wreg      void 
  4995 ;; Registers used:
  4996 ;;		status,2, status,0, pclath, cstack
  4997 ;; Tracked objects:
  4998 ;;		On entry : 0/0
  4999 ;;		On exit  : 0/0
  5000 ;;		Unchanged: 0/0
  5001 ;; Data sizes:     COMMON   BANK0   BANK1   BANK3   BANK2
  5002 ;;      Params:         0       0       0       0       0
  5003 ;;      Locals:         0       0       0       0       0
  5004 ;;      Temps:          0       0       0       0       0
  5005 ;;      Totals:         0       0       0       0       0
  5006 ;;Total ram usage:        0 bytes
  5007 ;; Hardware stack levels used: 1
  5008 ;; Hardware stack levels required when called: 1
  5009 ;; This function calls:
  5010 ;;		_timer1
  5011 ;; This function is called by:
  5012 ;;		_Config_Init
  5013 ;; This function uses a non-reentrant model
  5014 ;;
  5015                           
  5016                           
  5017                           ;psect for function _HC_SR_04_Init
  5018  0C71                     _HC_SR_04_Init:
  5019  0C71                     l1573:	
  5020                           ;incstack = 0
  5021                           ; Regs used in _HC_SR_04_Init: [status,2+status,0+pclath+cstack]
  5022                           
  5023                           
  5024                           ;HC_SR_04.c: 21:     TRISDbits.TRISD0 = 1;
  5025  0C71  1683               	bsf	3,5	;RP0=1, select bank1
  5026  0C72  1303               	bcf	3,6	;RP1=0, select bank1
  5027  0C73  1408               	bsf	8,0	;volatile
  5028                           
  5029                           ;HC_SR_04.c: 23:     TRISDbits.TRISD1 =0;
  5030  0C74  1088               	bcf	8,1	;volatile
  5031                           
  5032                           ;HC_SR_04.c: 24:     PORTDbits.RD1 = 0;
  5033  0C75  1283               	bcf	3,5	;RP0=0, select bank0
  5034  0C76  1303               	bcf	3,6	;RP1=0, select bank0
  5035  0C77  1088               	bcf	8,1	;volatile
  5036  0C78                     l1575:
  5037                           
  5038                           ;HC_SR_04.c: 26:     timer1();
  5039  0C78  120A  158A  248B  120A  158A  	fcall	_timer1
  5040  0C7D                     l155:
  5041  0C7D  0008               	return
  5042  0C7E                     __end_of_HC_SR_04_Init:
  5043                           
  5044                           	psect	text19
  5045  0C8B                     __ptext19:	
  5046 ;; *************** function _timer1 *****************
  5047 ;; Defined at:
  5048 ;;		line 3 in file "HC_SR_04.c"
  5049 ;; Parameters:    Size  Location     Type
  5050 ;;		None
  5051 ;; Auto vars:     Size  Location     Type
  5052 ;;		None
  5053 ;; Return value:  Size  Location     Type
  5054 ;;                  1    wreg      void 
  5055 ;; Registers used:
  5056 ;;		status,2
  5057 ;; Tracked objects:
  5058 ;;		On entry : 0/0
  5059 ;;		On exit  : 0/0
  5060 ;;		Unchanged: 0/0
  5061 ;; Data sizes:     COMMON   BANK0   BANK1   BANK3   BANK2
  5062 ;;      Params:         0       0       0       0       0
  5063 ;;      Locals:         0       0       0       0       0
  5064 ;;      Temps:          0       0       0       0       0
  5065 ;;      Totals:         0       0       0       0       0
  5066 ;;Total ram usage:        0 bytes
  5067 ;; Hardware stack levels used: 1
  5068 ;; This function calls:
  5069 ;;		Nothing
  5070 ;; This function is called by:
  5071 ;;		_HC_SR_04_Init
  5072 ;; This function uses a non-reentrant model
  5073 ;;
  5074                           
  5075                           
  5076                           ;psect for function _timer1
  5077  0C8B                     _timer1:
  5078  0C8B                     l1483:	
  5079                           ;incstack = 0
  5080                           ; Regs used in _timer1: [status,2]
  5081                           
  5082                           
  5083                           ;HC_SR_04.c: 6:     TMR1H =0; TMR1L =0;
  5084  0C8B  1283               	bcf	3,5	;RP0=0, select bank0
  5085  0C8C  1303               	bcf	3,6	;RP1=0, select bank0
  5086  0C8D  018F               	clrf	15	;volatile
  5087  0C8E  018E               	clrf	14	;volatile
  5088  0C8F                     l1485:
  5089                           
  5090                           ;HC_SR_04.c: 8:     T1CONbits.T1CKPS1 =
  5091  0C8F  1210               	bcf	16,4	;volatile
  5092  0C90  1290               	bcf	16,5	;volatile
  5093  0C91                     l1487:
  5094                           
  5095                           ;HC_SR_04.c: 11:     T1CONbits.TMR1CS = 0;
  5096  0C91  1090               	bcf	16,1	;volatile
  5097  0C92                     l1489:
  5098                           
  5099                           ;HC_SR_04.c: 13:     T1CONbits.T1SYNC = 1;
  5100  0C92  1510               	bsf	16,2	;volatile
  5101  0C93                     l1491:
  5102                           
  5103                           ;HC_SR_04.c: 15:     TMR1IE=1;
  5104  0C93  1683               	bsf	3,5	;RP0=1, select bank1
  5105  0C94  1303               	bcf	3,6	;RP1=0, select bank1
  5106  0C95  140C               	bsf	12,0	;volatile
  5107  0C96                     l1493:
  5108                           
  5109                           ;HC_SR_04.c: 16:     PEIE=1;
  5110  0C96  170B               	bsf	11,6	;volatile
  5111  0C97                     l1495:
  5112                           
  5113                           ;HC_SR_04.c: 17:     GIE=1;
  5114  0C97  178B               	bsf	11,7	;volatile
  5115  0C98                     l152:
  5116  0C98  0008               	return
  5117  0C99                     __end_of_timer1:
  5118  007E                     btemp	set	126	;btemp
  5119  007E                     wtemp0	set	126
  5120                           
  5121                           	psect	config
  5122                           
  5123                           ;Config register CONFIG @ 0x2007
  5124                           ;	Oscillator Selection bits
  5125                           ;	FOSC = HS, HS oscillator
  5126                           ;	Watchdog Timer Enable bit
  5127                           ;	WDTE = OFF, WDT disabled
  5128                           ;	Power-up Timer Enable bit
  5129                           ;	PWRTE = ON, PWRT enabled
  5130                           ;	Brown-out Reset Enable bit
  5131                           ;	BOREN = ON, BOR enabled
  5132                           ;	Low-Voltage (Single-Supply) In-Circuit Serial Programming Enable bit
  5133                           ;	LVP = ON, RB3/PGM pin has PGM function; low-voltage programming enabled
  5134                           ;	Data EEPROM Memory Code Protection bit
  5135                           ;	CPD = OFF, Data EEPROM code protection off
  5136                           ;	Flash Program Memory Write Enable bits
  5137                           ;	WRT = OFF, Write protection off; all program memory may be written to by EECON control
  5138                           ;	In-Circuit Debugger Mode bit
  5139                           ;	DEBUG = 0x1, unprogrammed default
  5140                           ;	Flash Program Memory Code Protection bit
  5141                           ;	CP = OFF, Code protection off
  5142  2007                     	org	8199
  5143  2007  3FF2               	dw	16370

Data Sizes:
    Strings     56
    Constant    0
    Data        0
    BSS         12
    Persistent  0
    Stack       0

Auto Spaces:
    Space          Size  Autos    Used
    COMMON           14     14      14
    BANK0            80     70      80
    BANK1            80      0       2
    BANK3            96      0       0
    BANK2            96      0       0

Pointer List with Targets:

    LCD_Write_String@str	PTR unsigned char  size(1) Largest target is 18
		 -> STR_4(CODE[10]), STR_3(CODE[12]), STR_2(CODE[16]), STR_1(CODE[18]), 


Critical Paths under _main in COMMON

    _main->___awmod
    _main->___xxtofl
    ___awmod->___awdiv
    _LCD_Write_String->_LCD_Write_Char
    _LCD_Write_Char->_LCD_Set_Bit
    _LCD_Set_Cursor->_LCD_Cmd
    _LCD_Clear->_LCD_Cmd
    _HC_SR_04_Distance->___xxtofl
    ___fltol->___xxtofl
    ___flmul->___xxtofl
    ___fldiv->___xxtofl
    _Config_Init->_LCD_Init
    _LCD_Init->_LCD_Cmd
    _LCD_Cmd->_LCD_Set_Bit

Critical Paths under _main in BANK0

    _main->_HC_SR_04_Distance
    _HC_SR_04_Distance->___fltol
    ___fltol->___fldiv
    ___fldiv->___flmul

Critical Paths under _main in BANK1

    None.

Critical Paths under _main in BANK3

    None.

Critical Paths under _main in BANK2

    None.

Call Graph Tables:

 ---------------------------------------------------------------------------------
 (Depth) Function   	        Calls       Base Space   Used Autos Params    Refs
 ---------------------------------------------------------------------------------
 (0) _main                                                 3     3      0   12561
                                             67 BANK0      3     3      0
                        _Config_Init
                  _HC_SR_04_Distance
                _HC_SR_04_Time_Taken
                          _LCD_Clear
                     _LCD_Set_Cursor
                     _LCD_Write_Char
                   _LCD_Write_String
                            ___awdiv
                            ___awmod
                            ___flmul
                            ___fltol
                           ___xxtofl
 ---------------------------------------------------------------------------------
 (1) ___awmod                                              7     3      4    1512
                                              9 COMMON     5     1      4
                                              0 BANK0      2     2      0
                            ___awdiv (ARG)
 ---------------------------------------------------------------------------------
 (1) ___awdiv                                              9     5      4    1212
                                              0 COMMON     9     5      4
 ---------------------------------------------------------------------------------
 (1) _LCD_Write_String                                     3     3      0     400
                                              6 COMMON     3     3      0
                     _LCD_Write_Char
 ---------------------------------------------------------------------------------
 (2) _LCD_Write_Char                                       5     5      0     178
                                              1 COMMON     5     5      0
                        _LCD_Set_Bit
 ---------------------------------------------------------------------------------
 (1) _LCD_Set_Cursor                                       7     6      1     684
                                              4 COMMON     7     6      1
                            _LCD_Cmd
 ---------------------------------------------------------------------------------
 (1) _LCD_Clear                                            0     0      0     110
                            _LCD_Cmd
 ---------------------------------------------------------------------------------
 (1) _HC_SR_04_Time_Taken                                  5     3      2      24
                                              0 COMMON     5     3      2
 ---------------------------------------------------------------------------------
 (1) _HC_SR_04_Distance                                    4     2      2    4819
                                             63 BANK0      4     2      2
                            ___fldiv
                            ___flmul
                            ___fltol
                           ___xxtofl
 ---------------------------------------------------------------------------------
 (1) ___xxtofl                                            14    10      4     474
                                              0 COMMON    14    10      4
 ---------------------------------------------------------------------------------
 (1) ___fltol                                             11     7      4     381
                                             52 BANK0     11     7      4
                            ___fldiv (ARG)
                            ___flmul (ARG)
                           ___xxtofl (ARG)
 ---------------------------------------------------------------------------------
 (1) ___flmul                                             26    18      8    2569
                                              0 BANK0     26    18      8
                          __Umul8_16
                           ___xxtofl (ARG)
 ---------------------------------------------------------------------------------
 (2) __Umul8_16                                            9     7      2     799
                                              0 COMMON     9     7      2
 ---------------------------------------------------------------------------------
 (2) ___fldiv                                             26    18      8    1273
                                             26 BANK0     26    18      8
                            ___flmul (ARG)
                           ___xxtofl (ARG)
 ---------------------------------------------------------------------------------
 (1) _Config_Init                                          0     0      0     198
                      _HC_SR_04_Init
                           _LCD_Init
 ---------------------------------------------------------------------------------
 (2) _LCD_Init                                             2     2      0     198
                                              4 COMMON     2     2      0
                            _LCD_Cmd
                        _LCD_Set_Bit
 ---------------------------------------------------------------------------------
 (2) _LCD_Cmd                                              3     3      0     110
                                              1 COMMON     3     3      0
                        _LCD_Set_Bit
 ---------------------------------------------------------------------------------
 (3) _LCD_Set_Bit                                          1     1      0      88
                                              0 COMMON     1     1      0
 ---------------------------------------------------------------------------------
 (2) _HC_SR_04_Init                                        0     0      0       0
                             _timer1
 ---------------------------------------------------------------------------------
 (3) _timer1                                               0     0      0       0
 ---------------------------------------------------------------------------------
 Estimated maximum stack depth 3
 ---------------------------------------------------------------------------------

 Call Graph Graphs:

 _main (ROOT)
   _Config_Init
     _HC_SR_04_Init
       _timer1
     _LCD_Init
       _LCD_Cmd
         _LCD_Set_Bit
       _LCD_Set_Bit
   _HC_SR_04_Distance
     ___fldiv
       ___flmul (ARG)
         __Umul8_16
         ___xxtofl (ARG)
       ___xxtofl (ARG)
     ___flmul
     ___fltol
       ___fldiv (ARG)
       ___flmul (ARG)
       ___xxtofl (ARG)
     ___xxtofl
   _HC_SR_04_Time_Taken
   _LCD_Clear
     _LCD_Cmd
   _LCD_Set_Cursor
     _LCD_Cmd
   _LCD_Write_Char
     _LCD_Set_Bit
   _LCD_Write_String
     _LCD_Write_Char
   ___awdiv
   ___awmod
     ___awdiv (ARG)
   ___flmul
   ___fltol
   ___xxtofl

 Address spaces:
Name               Size   Autos  Total    Cost      Usage
BITCOMMON            E      0       0       0        0.0%
EEDATA             100      0       0       0        0.0%
NULL                 0      0       0       0        0.0%
CODE                 0      0       0       0        0.0%
COMMON               E      E       E       1      100.0%
BITSFR0              0      0       0       1        0.0%
SFR0                 0      0       0       1        0.0%
BITSFR1              0      0       0       2        0.0%
SFR1                 0      0       0       2        0.0%
STACK                0      0       0       2        0.0%
ABS                  0      0      60       3        0.0%
BITBANK0            50      0       0       4        0.0%
BITSFR3              0      0       0       4        0.0%
SFR3                 0      0       0       4        0.0%
BANK0               50     46      50       5      100.0%
BITSFR2              0      0       0       5        0.0%
SFR2                 0      0       0       5        0.0%
BITBANK1            50      0       0       6        0.0%
BANK1               50      0       2       7        2.5%
BITBANK3            60      0       0       8        0.0%
BANK3               60      0       0       9        0.0%
BITBANK2            60      0       0      10        0.0%
BANK2               60      0       0      11        0.0%
DATA                 0      0      60      12        0.0%


Microchip Technology PIC Macro Assembler V2.32 build 20210201212658 
Symbol Table                                                                                   Thu Jan 27 07:29:57 2022

                       ___fldiv@aexp 0053                         ___fldiv@bexp 0052  
                                  pc 0002                         ___fldiv@sign 004B  
                                 l53 0CA7                                   l80 0F83  
                                 l83 0C8A                                   l92 0DF4  
                                 l89 0DA1                                   l98 0D28  
                                 _d1 006A                                   _d2 0069  
                                 _d3 0068                         ___awdiv@sign 0076  
                                 _t1 006F                                   _t2 006E  
                                 _t3 006D                                   _t4 006C  
                                 _t5 006B                                   fsr 0004  
                __Umul8_16@word_mpld 0076                         ?_LCD_Set_Bit 0070  
                                l120 0CF4                                  l121 0CF5  
                                l122 0CFB                                  l123 0CFC  
                                l124 0D02                                  l126 0D03  
                                l118 0CEB                                  l119 0CEE  
                                l152 0C98                                  l160 0CD3  
                                l129 0CC1                                  l161 0CD4  
                                l155 0C7D                                  l163 0CD8  
                                l164 0CE1                                  l158 0CCF  
                                l406 0F0F                                  l167 0E4D  
                                l602 0125                                  l419 0EA8  
                                l604 02A5                                  l700 009E  
                                l446 0FEA                                  l439 0FFF  
                                l624 0289                                  l449 0FFF  
                                l626 0299                                  l618 0217  
                                l642 07EB                                  l661 0D3D  
                                l654 07DF                                  l663 0D4F  
                                l648 0757                                  l692 0076  
                                l686 0031                                  l688 00C8  
                                l699 0092                                  _GIE 005F  
                                _RD2 0042                                  _RD3 0043  
                                _RD4 0044                                  _RD5 0045  
                                _RD6 0046                                  _RD7 0047  
                                fsr0 0004                         ___awmod@sign 0021  
                       ___flmul@aexp 0032                         ___flmul@bexp 0033  
                       ___flmul@sign 002D                         ___flmul@temp 0038  
                       ___flmul@prod 0034                      __end_of_LCD_Cmd 0CC2  
                     _LCD_Set_Cursor 0D50                         ___fltol@exp1 005E  
                               l2001 0EB5                                 l2011 0ECA  
                               l2003 0EB9                                 l2021 0EED  
                               l2013 0ECD                                 l2005 0EBE  
                               l2101 03CA                                 l2031 0F06  
                               l2023 0EF3                                 l2015 0ED4  
                               l2007 0EC2                                 l2111 0431  
                               l2103 03EC                                 l2033 0F0B  
                               l2025 0EF4                                 l2017 0ED8  
                               l2009 0EC4                                 l2041 0E55  
                               l2121 045E                                 l2113 043A  
                               l2105 040E                                 l2027 0EFB  
                               l2019 0EDC                                 l2051 0E6B  
                               l2043 0E5A                                 l2123 0466  
                               l2115 0443                                 l2107 0423  
                               l1501 0D33                                 l2029 0F01  
                               l2061 0E87                                 l2053 0E6E  
                               l2045 0E5C                                 l2037 0E4E  
                               l2125 046C                                 l2117 044C  
                               l2109 042B                                 l1503 0D37  
                               l1511 0DA3                                 l2071 0EA4  
                               l2063 0E8D                                 l2055 0E75  
                               l2047 0E60                                 l2039 0E51  
                               l2127 0475                                 l2119 0455  
                               l1505 0D46                                 l1601 0FD8  
                               l1521 0DCA                                 l1513 0DAD  
                               l2065 0E94                                 l2057 0E79  
                               l2049 0E65                                 l2129 047E  
                               l2081 02C7                                 l1507 0D4B  
                               l1611 0FF4                                 l1531 0DE8  
                               l1523 0DCD                                 l1515 0DB0  
                               l2059 0E7D                                 l2067 0E9A  
                               l2091 0337                                 l2083 02D5  
                               l2075 02A6                                 l1541 0F15  
                               l1701 01DA                                 l1621 00DB  
                               l1613 00C9                                 l1533 0DEB  
                               l1525 0DD6                                 l1517 0DBE  
                               l2069 0E9F                                 l2093 0357  
                               l2085 02DA                                 l2077 02B3  
                               l1471 0D00                                 l1463 0CE3  
                               l1551 0F3B                                 l1543 0F1B  
                               l1535 0F10                                 l1703 01E3  
                               l1711 01F7                                 l1623 00E0  
                               l1631 00F0                                 l1615 00D0  
                               l1607 0FDF                                 l1527 0DDC  
                               l1519 0DC1                                 l2095 0377  
                               l2087 02E5                                 l2079 02B9  
                               l1465 0CE7                                 l1481 0CBE  
                               l1473 0CA9                                 l1561 0F5F  
                               l1553 0F41                                 l1545 0F24  
                               l1537 0F13                                 l1713 01FB  
                               l1705 01E7                                 l1641 0108  
                               l1633 00F8                                 l1625 00E5  
                               l1617 00D6                                 l1801 0508  
                               l1609 0FEF                                 l1529 0DDF  
                               l2097 0397                                 l2089 02FA  
                               l1491 0C93                                 l1483 0C8B  
                               l1467 0CF2                                 l1475 0CAC  
                               l1571 0F7D                                 l1563 0F65  
                               l1555 0F4A                                 l1547 0F2C  
                               l1539 0F14                                 l1731 024C  
                               l1723 021C                                 l1715 01FC  
                               l1707 01E8                                 l1643 010D  
                               l1651 011D                                 l1635 00FD  
                               l1627 00ED                                 l1619 00DA  
                               l1811 0596                                 l1803 0515  
                               l2099 03B7                                 l1493 0C96  
                               l1485 0C8F                                 l1573 0C71  
                               l1469 0CF9                                 l1477 0CB2  
                               l1565 0F6B                                 l1557 0F50  
                               l1549 0F32                                 l1741 0280  
                               l1725 0221                                 l1733 0252  
                               l1717 0200                                 l1709 01F1  
                               l1653 012D                                 l1661 0146  
                               l1645 0112                                 l1637 0103  
                               l1629 00EE                                 l1821 05F8  
                               l1813 05B2                                 l1805 0532  
                               l1901 0029                                 l1495 0C97  
                               l1487 0C91                                 l1575 0C78  
                               l1479 0CB5                                 l1567 0F71  
                               l1559 0F59                                 l1743 0288  
                               l1735 025F                                 l1727 022F  
                               l1719 0214                                 l1671 016E  
                               l1663 014B                                 l1655 0139  
                               l1647 011A                                 l1639 0107  
                               l1831 0688                                 l1823 0615  
                               l1815 05BB                                 l1807 054E  
                               l1591 0FBA                                 l1583 0F9A  
                               l1911 0054                                 l1903 0039  
                               l1489 0C92                                 l1569 0F77  
                               l1745 028F                                 l1737 026D  
                               l1729 0233                                 l1681 0197  
                               l1673 0176                                 l1657 013D  
                               l1649 011B                                 l1497 0D2A  
                               l1841 071A                                 l1833 06B5  
                               l1825 062E                                 l1817 05CB  
                               l1809 057A                                 l1761 049C  
                               l1593 0FBE                                 l1585 0FAF  
                               l1577 0F84                                 l1921 0088  
                               l1913 005B                                 l1747 0293  
                               l1739 027C                                 l1691 01B8  
                               l1683 019B                                 l1675 017E  
                               l1667 0154                                 l1499 0D2C  
                               l1843 0723                                 l1851 0737  
                               l1835 06DB                                 l1827 064B  
                               l1819 05E8                                 l1771 04B1  
                               l1763 049D                                 l1755 048B  
                               l1587 0FB0                                 l1579 0F91  
                               l1931 00BB                                 l1923 008C  
                               l1915 005F                                 l1907 0042  
                LCD_Write_String@str 0078                                 l1941 0C9D  
                               l1749 0295                                 l1693 01C6  
                               l1685 019C                                 l1677 0180  
                               l1669 0166                                 l1853 073B  
                               l1845 0727                                 l1837 0703  
                               l1829 0678                                 l1781 04C9  
                               l1773 04B9                                 l1765 04A2  
                               l1757 0492                                 l1589 0FB8  
                               l1933 00BF                                 l1925 0096  
                               l1917 006D                                 l1909 0047  
                               l1679 0185                                 l1687 01A5  
                               l1695 01CA                                 l1871 078C  
                               l1863 075C                                 l1855 073C  
                               l1847 0728                                 l1839 070C  
                               l1791 04E5                                 l1783 04CE  
                               l1775 04BE                                 l1767 04A7  
                               l1759 0498                                 l1599 0FC6  
                               l1935 00C0                                 l1927 00A0  
                               l1919 007D                                 l1951 0D72  
                               l1943 0D51                                 l1697 01D0  
                               l1689 01B7                                 l1881 07C3  
                               l1865 0761                                 l1873 0792  
                               l1857 0740                                 l1849 0731  
                               l1793 04EA                                 l1785 04D3  
                               l1777 04C4                                 l1769 04AF  
                               l1929 00B6                                 l1961 0D9B  
                               l1945 0D56                                 l1953 0D79  
                               l1939 0C99                                 l1699 01D8  
                               l1891 07E3                                 l1883 07C5  
                               l1875 079F                                 l1867 076F  
                               l1859 0754                                 l1795 04EF  
                               l1787 04DB                                 l1779 04C8  
                               l1971 0C7E                                 l1955 0D7F  
                               l1947 0D67                                 l1963 0D05  
                               l1885 07D3                                 l1877 07AA  
                               l1869 0773                                 l1789 04DD  
                               l1981 0CD9                                 l1973 0CC2  
                               l1957 0D90                                 l1949 0D6C  
                               l1965 0D08                                 l1887 07D7  
                               l1879 07B9                                 l1799 04F8  
                               l1895 0010                                 l1975 0CC6  
                               l1959 0D95                                 l1967 0D15  
                               l1889 07D8                                 l1897 0015  
                               l1985 0DF5                                 l1977 0CC7  
                               l1969 0D1B                                 l1993 0EA9  
                               l1899 0019                                 l1987 0DF5  
                               l1979 0CCC                                 l1995 0EAA  
                               l1989 0E49                                 l1997 0EAE  
                               l1999 0EB3                                 STR_1 0806  
                               STR_2 0818                                 STR_3 0828  
                               STR_4 0834                                 u2010 0727  
                               u2011 0726                                 u1300 0CF2  
                               u2100 079F                                 u1301 0CF1  
                               u2101 079E                                 u2005 071C  
                               u1310 0CF9                                 u2110 07B9  
                               u2030 073B                                 u1311 0CF8  
                               u2111 07B8                                 u2031 073A  
                               u1320 0D00                                 u2120 07D7  
                               u2040 0740                                 u1400 0FC5  
                               u1321 0CFF                                 u2121 07D6  
                               u2105 079B                                 u2041 073F  
                               u2025 072A                                 u1401 0FC4  
                               u1330 0D37                                 u2050 0754  
                               u2210 008C                                 u2130 0015  
                               u1331 0D36                                 u2115 07B5  
                               u2051 0753                                 u2211 008B  
                               u2131 0014                                 u1500 0107  
                               u2060 075B                                 u1420 0FD7  
                               u2220 0092                                 u2140 0019  
                               u1501 0106                                 u2061 075A  
                               u1421 0FD6                                 u2221 0091  
                               u2205 0081                                 u2141 0018  
                               u1510 010D                                 u1350 0D4B  
                               u2070 0761                                 u1430 0FDE  
                               u2230 0096                                 u2150 0039  
                               u2310 0D28                                 u1511 010C  
                               u1351 0D4A                                 u2071 0760  
                               u1431 0FDD                                 u1415 0FC7  
                               u2231 0095                                 u2151 0038  
                               u2311 0D27                                 u1600 01B7  
                               u1520 0112                                 u2080 0773  
                               u2240 00AB                                 u2320 0CD3  
                               u2400 0EED                                 u1601 01B6  
                               u1521 0111                                 u1345 0D3E  
                               u2081 0772                                 u2321 0CD2  
                               u2305 0D87                                 u2401 0EEC  
                               u1290 0CE7                                 u1610 01D0  
                               u1530 012D                                 u2090 0782  
                               u1450 0FEF                                 u1370 0F91  
                               u2250 00BB                                 u2170 005A  
                               u2330 0CD8                                 u1291 0CE6  
                               u1611 01CF                                 u1531 012C  
                               u1451 0FEE                                 u1371 0F90  
                               u2251 00BA                                 u2171 0059  
                               u2331 0CD7                                 u1700 0221  
                               u1620 01D8                                 u1540 014B  
                               u1460 0FF4                                 u1380 0FA8  
                               u2260 00BF                                 u2420 0F01  
                               u2340 0EAE                                 u1701 0220  
                               u1621 01D7                                 u1605 01B3  
                               u1541 014A                                 u1461 0FF3  
                               u1445 0FE1                                 u2261 00BE  
                               u2245 00A6                                 u2165 004C  
                               u1365 0DB3                                 u2421 0F00  
                               u2405 0EE9                                 u2341 0EAD  
                               u1710 0233                                 u1550 0185  
                               u1470 00DA                                 u1390 0FBE  
                               u2190 007C                                 u2270 0D56  
                               u2430 0F06                                 u2350 0EB9  
                               u2510 0E9A                                 u1711 0232  
                               u1551 0184                                 u1471 00D9  
                               u2095 077D                                 u1391 0FBD  
                               u2191 007B                                 u2271 0D55  
                               u2431 0F05                                 u2415 0EF5  
                               u2351 0EB8                                 u2511 0E99  
                               u1720 0242                                 u1640 01E7  
                               u1480 00E0                                 u1800 04CE  
                               u2360 0ECA                                 u2520 0E9F  
                               u2440 0E55                                 u1641 01E6  
                               u1481 00DF                                 u1801 04CD  
                               u1385 0FA3                                 u2185 006E  
                               u2361 0EC9                                 u2521 0E9E  
                               u2505 0E8E                                 u2441 0E54  
                               u1730 025F                                 u1490 00E5  
                               u1810 04D3                                 u2290 0D7F  
                               u2450 0E60                                 u1731 025E  
                               u1635 01DC                                 u1491 00E4  
                               u1811 04D2                                 u2291 0D7E  
                               u2451 0E5F                                 u1740 027C  
                               u1660 01FB                                 u1580 019B  
                               u1820 04EA                                 u2380 0EDC  
                               u2460 0E6B                                 u1741 027B  
                               u1725 023D                                 u1661 01FA  
                               u1581 019A                                 u1565 0187  
                               u1901 0607                                 u1821 04E9  
                               u2285 0D5E                                 u2381 0EDB  
                               u2461 0E6A                                 u1750 0293  
                               u1670 0200                                 u1902 060E  
                               u1830 04EF                                 u1751 0292  
                               u1735 025B                                 u1671 01FF  
                               u1655 01EA                                 u1575 0190  
                               u1903 0615                                 u1831 04EE  
                               u2607 0DE3                                 u2375 0ECE  
                               u1680 0214                                 u1760 049C  
                               u2480 0E7D                                 u1745 0278  
                               u1681 0213                                 u1921 063D  
                               u1841 0540                                 u1761 049B  
                               u2617 0DEF                                 u2481 0E7C  
                               u1690 021B                                 u1922 0644  
                               u1842 0547                                 u1770 04A2  
                               u2490 0E87                                 u1691 021A  
                               u1595 019E                                 u1931 066A  
                               u1923 064B                                 u1915 0617  
                               u1851 055C                                 u1843 054E  
                               u1771 04A1                                 u2627 0CC9  
                               u2395 0EDD                                 u2491 0E86  
                               u2475 0E6F                                 u1932 0671  
                               u1852 0563                                 u1780 04A7  
                               u2637 0F1F                                 u1941 0697  
                               u1933 0678                                 u1861 0588  
                               u1853 056A                                 u1781 04A6  
                               u1950 06C1                                 u1942 069E  
                               u1862 058F                                 u1790 04C8  
                               u2647 0F28                                 u1943 06A5  
                               u1871 05A4                                 u1863 0596  
                               u1791 04C7                                 u2495 0E83  
                               u1872 05AB                                 u2657 0F36  
                               u1961 06CD                                 u1873 05B2  
                               u2577 02CF                                 u1970 06E9  
                               u1962 06D4                                 u2667 0F45  
                               u1963 06DB                                 u1955 06BC  
                               u1891 05DA                                 u2587 0DC5  
                               _PEIE 005E                                 u1892 05E1  
                               u2677 0F54                                 u1981 06F5  
                               u1893 05E8                                 u1885 05B4  
                               u2597 0DD1                                 u1982 06FC  
                               u2687 0CB9                                 u1983 0703  
                               u1975 06E4                                 u1995 0705  
                  ?_LCD_Write_String 0070                                 _main 02A6  
                 __size_of_LCD_Clear 000D                                 btemp 007E  
                     ?_HC_SR_04_Init 0070                                 start 0000  
                 ??_LCD_Write_String 0076                      ___fldiv@new_exp 004C  
                __end_of_Config_Init 0CA8                     __end_of_LCD_Init 0F84  
                      ___fltol@sign1 005D                                ?_main 0070  
                    __end_of___fldiv 02A6                      __end_of___awdiv 0F10  
                    __end_of___awmod 0EA9                      __end_of___flmul 07EC  
                    __end_of___fltol 1000                      ___awdiv@divisor 0070  
                    ___awdiv@counter 0075           __size_of_HC_SR_04_Distance 0059  
                              _TMR1H 000F                                _TMR1L 000E  
                              _TRISD 0088               __end_of_LCD_Set_Cursor 0DA2  
                              pclath 000A          __end_of_HC_SR_04_Time_Taken 0CE2  
                              status 0003                                wtemp0 007E  
                     _LCD_Write_Char 0DA2                      __initialization 07EC  
                       __end_of_main 048B                               ??_main 0063  
                  __end_of_LCD_Clear 0C8B                            ??_LCD_Cmd 0071  
                    ?_LCD_Set_Cursor 0074                               _ADCON1 009F  
                   ___awdiv@dividend 0072                      ??_HC_SR_04_Init 0070  
                             _TMR1IE 0460                               _TMR1ON 0080  
                        _Config_Init 0C99                               _TRISD2 0442  
                             _TRISD3 0443                     __end_of___xxtofl 00C9  
             __end_of_LCD_Write_Char 0DF5                            ??___fldiv 0042  
                          ??___awdiv 0074                            ??___awmod 007D  
                          ??___flmul 0028                            ??___fltol 0058  
                   ___awdiv@quotient 0077                      ___awmod@divisor 0079  
                             _timer1 0C8B                      ___awmod@counter 0020  
                 __size_of__Umul8_16 0027                 __size_of_LCD_Set_Bit 0022  
                    LCD_Set_Cursor@c 0074                      LCD_Set_Cursor@r 0077  
                       ___xxtofl@arg 007A                         ___xxtofl@exp 0079  
                       ___xxtofl@val 0070              __end_of__initialization 07FC  
                          ?_LCD_Init 0070                           ___fltol@f1 0054  
                    ?_LCD_Write_Char 0070                       __pcstackCOMMON 0070  
                         __pbssBANK0 0066                           __pbssBANK1 00A0  
                         ??_LCD_Init 0074                    __end_of__Umul8_16 0D50  
                         __pmaintext 02A6            __size_of_LCD_Write_String 0025  
                            ?_timer1 0070                              _LCD_Cmd 0CA8  
                          ?___xxtofl 0070                  LCD_Set_Bit@Data_Bit 0070  
                         __stringtab 0800                              ___fldiv 00C9  
                            ___awdiv 0EA9                              ___awmod 0E4E  
                            ___flmul 048B                              ___fltol 0F84  
                   ??_LCD_Set_Cursor 0075                              __ptext1 0E4E  
                            __ptext2 0EA9                              __ptext3 0D04  
                            __ptext4 0DA2                              __ptext5 0D50  
                            __ptext6 0C7E                              __ptext7 0CC2  
                            __ptext8 0DF5                              __ptext9 000F  
                    __size_of_timer1 000E                            _T1CONbits 0010  
                         ??___xxtofl 0074                     ___awmod@dividend 007B  
                          _LCD_Clear 0C7E                 end_of_initialization 07FC  
                       ?_Config_Init 0070         __size_of_HC_SR_04_Time_Taken 0020  
                         _time_taken 0066                            _PORTDbits 0008  
                      ___xxtofl@sign 0078                            _TRISDbits 0088  
                         ?_LCD_Clear 0070                          ___fldiv@grs 004E  
                        ___fldiv@rem 0047                    LCD_Write_String@i 0076  
                   ??_LCD_Write_Char 0071                          ___flmul@grs 002E  
                         LCD_Cmd@Cmd 0073                __end_of_HC_SR_04_Init 0C7E  
                  __size_of_LCD_Init 0074                     _LCD_Write_String 0D04  
                      ??_LCD_Set_Bit 0070                       __end_of_timer1 0C99  
                start_initialization 07EC                            __Umul8_16 0D29  
                           ??_timer1 0070                             ?_LCD_Cmd 0070  
                          ___fldiv@a 003A                            ___fldiv@b 003E  
                          ___flmul@a 0024                            ___flmul@b 0020  
                          ___latbits 0002                        __pcstackBANK0 0020  
                        ??_LCD_Clear 0074                  __end_of_LCD_Set_Bit 0D04  
                  __size_of___xxtofl 00BA  HC_SR_04_Time_Taken@time_taken_value 0073  
               __size_of_Config_Init 000F                             ?___fldiv 003A  
                           ?___awdiv 0070                             ?___awmod 0079  
                           ?___flmul 0020                             ?___fltol 0054  
                         ?__Umul8_16 0070                            __pstrings 0800  
                _HC_SR_04_Time_Taken 0CC2                             _LCD_Init 0F10  
               ?_HC_SR_04_Time_Taken 0070                          __stringbase 0805  
                        _LCD_Set_Bit 0CE2                     __size_of_LCD_Cmd 001A  
           __end_of_LCD_Write_String 0D29                ??_HC_SR_04_Time_Taken 0072  
                LCD_Write_Char@High4 0074                          ??__Umul8_16 0072  
                   __size_of___fldiv 01DD                     __size_of___awdiv 0067  
                   __size_of___awmod 005B                     __size_of___flmul 0361  
                   __size_of___fltol 007C                   __end_of__stringtab 0806  
                           ___xxtofl 000F      HC_SR_04_Distance@distance_value 0061  
                           __ptext10 0F84                             __ptext11 048B  
                           __ptext12 0D29                             __ptext13 00C9  
                           __ptext14 0C99                             __ptext15 0F10  
                           __ptext16 0CA8                             __ptext17 0CE2  
                           __ptext18 0C71                             __ptext19 0C8B  
                           _distance 00A0              __size_of_LCD_Set_Cursor 0052  
                      __size_of_main 01E5                  LCD_Set_Cursor@High4 0079  
             __size_of_HC_SR_04_Init 000D                   LCD_Write_Char@Data 0075  
                  _HC_SR_04_Distance 0DF5                   LCD_Write_Char@Low4 0073  
                 ?_HC_SR_04_Distance 005F                  ??_HC_SR_04_Distance 007E  
                          stringcode 0800              __size_of_LCD_Write_Char 0053  
                 LCD_Set_Cursor@Low4 0078                   LCD_Set_Cursor@Temp 007A  
             __Umul8_16@multiplicand 0070            __end_of_HC_SR_04_Distance 0E4E  
                           stringdir 0800                             stringtab 0800  
  HC_SR_04_Distance@time_taken_value 005F                        ??_Config_Init 0076  
               __Umul8_16@multiplier 0078                        _HC_SR_04_Init 0C71  
                  __Umul8_16@product 0074  
