

Microchip MPLAB XC8 Assembler V2.30 build 20200825195618 
                                                                                               Thu Dec 23 03:00:33 2021

Microchip MPLAB XC8 C Compiler v2.30 (Free license) build 20200825195618 Og1 
     1                           	processor	16F877A
     2                           	pagewidth 120
     3                           	opt	flic
     4                           	psect	strings,global,class=STRING,delta=2,noexec
     5                           	psect	cinit,global,class=CODE,merge=1,delta=2
     6                           	psect	bssCOMMON,global,class=COMMON,space=1,delta=1,noexec
     7                           	psect	bssBANK0,global,class=BANK0,space=1,delta=1,noexec
     8                           	psect	cstackCOMMON,global,class=COMMON,space=1,delta=1,noexec
     9                           	psect	cstackBANK0,global,class=BANK0,space=1,delta=1,noexec
    10                           	psect	maintext,global,class=CODE,split=1,delta=2
    11                           	psect	text1,local,class=CODE,merge=1,delta=2
    12                           	psect	text2,local,class=CODE,merge=1,delta=2
    13                           	psect	text3,local,class=CODE,merge=1,delta=2
    14                           	psect	text4,local,class=CODE,merge=1,delta=2
    15                           	psect	text5,local,class=CODE,merge=1,delta=2,group=1
    16                           	psect	text6,local,class=CODE,merge=1,delta=2,group=1
    17                           	psect	text7,local,class=CODE,merge=1,delta=2
    18                           	psect	text8,local,class=CODE,merge=1,delta=2
    19                           	psect	text9,local,class=CODE,merge=1,delta=2
    20                           	psect	text10,local,class=CODE,merge=1,delta=2,group=1
    21                           	psect	text11,local,class=CODE,merge=1,delta=2,group=1
    22                           	psect	text12,local,class=CODE,merge=1,delta=2,group=1
    23                           	psect	text13,local,class=CODE,merge=1,delta=2,group=1
    24                           	psect	text14,local,class=CODE,merge=1,delta=2,group=1
    25                           	psect	text15,local,class=CODE,merge=1,delta=2
    26                           	psect	text16,local,class=CODE,merge=1,delta=2
    27                           	psect	text17,local,class=CODE,merge=1,delta=2
    28                           	psect	text18,local,class=CODE,merge=1,delta=2
    29                           	psect	text19,local,class=CODE,merge=1,delta=2
    30                           	psect	text20,local,class=CODE,merge=1,delta=2
    31                           	psect	text21,local,class=CODE,merge=1,delta=2
    32                           	psect	intentry,global,class=CODE,delta=2
    33                           	psect	text22,local,class=CODE,merge=1,delta=2
    34                           	psect	config,global,abs,ovrld,class=CONFIG,space=4,delta=2,noexec
    35                           	dabs	1,0x7E,2
    36  0000                     
    37                           ; Version 2.20
    38                           ; Generated 12/02/2020 GMT
    39                           ; 
    40                           ; Copyright © 2020, Microchip Technology Inc. and its subsidiaries ("Microchip")
    41                           ; All rights reserved.
    42                           ; 
    43                           ; This software is developed by Microchip Technology Inc. and its subsidiaries ("Microch
      +                          ip").
    44                           ; 
    45                           ; Redistribution and use in source and binary forms, with or without modification, are
    46                           ; permitted provided that the following conditions are met:
    47                           ; 
    48                           ;     1. Redistributions of source code must retain the above copyright notice, this lis
      +                          t of
    49                           ;        conditions and the following disclaimer.
    50                           ; 
    51                           ;     2. Redistributions in binary form must reproduce the above copyright notice, this 
      +                          list
    52                           ;        of conditions and the following disclaimer in the documentation and/or other
    53                           ;        materials provided with the distribution.
    54                           ; 
    55                           ;     3. Microchip's name may not be used to endorse or promote products derived from th
      +                          is
    56                           ;        software without specific prior written permission.
    57                           ; 
    58                           ; THIS SOFTWARE IS PROVIDED BY MICROCHIP "AS IS" AND ANY EXPRESS OR IMPLIED WARRANTIES,
    59                           ; INCLUDING, BUT NOT LIMITED TO, THE IMPLIED WARRANTIES OF MERCHANTABILITY AND FITNESS F
      +                          OR
    60                           ; PURPOSE ARE DISCLAIMED.  IN NO EVENT SHALL MICROCHIP BE LIABLE FOR ANY DIRECT, INDIREC
      +                          T,
    61                           ; INCIDENTAL, SPECIAL, EXEMPLARY, OR CONSEQUENTIAL DAMAGES (INCLUDING BUT NOT LIMITED TO
    62                           ; PROCUREMENT OF SUBSTITUTE GOODS OR SERVICES; LOSS OF USE, DATA OR PROFITS; OR BUSINESS
    63                           ; INTERRUPTION) HOWSOEVER CAUSED AND ON ANY THEORY OF LIABILITY, WHETHER IN CONTRACT, ST
      +                          RICT
    64                           ; LIABILITY, OR TORT (INCLUDING NEGLIGENCE OR OTHERWISE) ARISING IN ANY WAY OUT OF THE U
      +                          SE OF
    65                           ; THIS SOFTWARE, EVEN IF ADVISED OF THE POSSIBILITY OF SUCH DAMAGE.
    66                           ; 
    67                           ; 
    68                           ; Code-generator required, PIC16F877A Definitions
    69                           ; 
    70                           ; SFR Addresses
    71  0000                     	;# 
    72  0001                     	;# 
    73  0002                     	;# 
    74  0003                     	;# 
    75  0004                     	;# 
    76  0005                     	;# 
    77  0006                     	;# 
    78  0007                     	;# 
    79  0008                     	;# 
    80  0009                     	;# 
    81  000A                     	;# 
    82  000B                     	;# 
    83  000C                     	;# 
    84  000D                     	;# 
    85  000E                     	;# 
    86  000E                     	;# 
    87  000F                     	;# 
    88  0010                     	;# 
    89  0011                     	;# 
    90  0012                     	;# 
    91  0013                     	;# 
    92  0014                     	;# 
    93  0015                     	;# 
    94  0015                     	;# 
    95  0016                     	;# 
    96  0017                     	;# 
    97  0018                     	;# 
    98  0019                     	;# 
    99  001A                     	;# 
   100  001B                     	;# 
   101  001B                     	;# 
   102  001C                     	;# 
   103  001D                     	;# 
   104  001E                     	;# 
   105  001F                     	;# 
   106  0081                     	;# 
   107  0085                     	;# 
   108  0086                     	;# 
   109  0087                     	;# 
   110  0088                     	;# 
   111  0089                     	;# 
   112  008C                     	;# 
   113  008D                     	;# 
   114  008E                     	;# 
   115  0091                     	;# 
   116  0092                     	;# 
   117  0093                     	;# 
   118  0094                     	;# 
   119  0098                     	;# 
   120  0099                     	;# 
   121  009C                     	;# 
   122  009D                     	;# 
   123  009E                     	;# 
   124  009F                     	;# 
   125  010C                     	;# 
   126  010D                     	;# 
   127  010E                     	;# 
   128  010F                     	;# 
   129  018C                     	;# 
   130  018D                     	;# 
   131  0000                     	;# 
   132  0001                     	;# 
   133  0002                     	;# 
   134  0003                     	;# 
   135  0004                     	;# 
   136  0005                     	;# 
   137  0006                     	;# 
   138  0007                     	;# 
   139  0008                     	;# 
   140  0009                     	;# 
   141  000A                     	;# 
   142  000B                     	;# 
   143  000C                     	;# 
   144  000D                     	;# 
   145  000E                     	;# 
   146  000E                     	;# 
   147  000F                     	;# 
   148  0010                     	;# 
   149  0011                     	;# 
   150  0012                     	;# 
   151  0013                     	;# 
   152  0014                     	;# 
   153  0015                     	;# 
   154  0015                     	;# 
   155  0016                     	;# 
   156  0017                     	;# 
   157  0018                     	;# 
   158  0019                     	;# 
   159  001A                     	;# 
   160  001B                     	;# 
   161  001B                     	;# 
   162  001C                     	;# 
   163  001D                     	;# 
   164  001E                     	;# 
   165  001F                     	;# 
   166  0081                     	;# 
   167  0085                     	;# 
   168  0086                     	;# 
   169  0087                     	;# 
   170  0088                     	;# 
   171  0089                     	;# 
   172  008C                     	;# 
   173  008D                     	;# 
   174  008E                     	;# 
   175  0091                     	;# 
   176  0092                     	;# 
   177  0093                     	;# 
   178  0094                     	;# 
   179  0098                     	;# 
   180  0099                     	;# 
   181  009C                     	;# 
   182  009D                     	;# 
   183  009E                     	;# 
   184  009F                     	;# 
   185  010C                     	;# 
   186  010D                     	;# 
   187  010E                     	;# 
   188  010F                     	;# 
   189  018C                     	;# 
   190  018D                     	;# 
   191  0000                     	;# 
   192  0001                     	;# 
   193  0002                     	;# 
   194  0003                     	;# 
   195  0004                     	;# 
   196  0005                     	;# 
   197  0006                     	;# 
   198  0007                     	;# 
   199  0008                     	;# 
   200  0009                     	;# 
   201  000A                     	;# 
   202  000B                     	;# 
   203  000C                     	;# 
   204  000D                     	;# 
   205  000E                     	;# 
   206  000E                     	;# 
   207  000F                     	;# 
   208  0010                     	;# 
   209  0011                     	;# 
   210  0012                     	;# 
   211  0013                     	;# 
   212  0014                     	;# 
   213  0015                     	;# 
   214  0015                     	;# 
   215  0016                     	;# 
   216  0017                     	;# 
   217  0018                     	;# 
   218  0019                     	;# 
   219  001A                     	;# 
   220  001B                     	;# 
   221  001B                     	;# 
   222  001C                     	;# 
   223  001D                     	;# 
   224  001E                     	;# 
   225  001F                     	;# 
   226  0081                     	;# 
   227  0085                     	;# 
   228  0086                     	;# 
   229  0087                     	;# 
   230  0088                     	;# 
   231  0089                     	;# 
   232  008C                     	;# 
   233  008D                     	;# 
   234  008E                     	;# 
   235  0091                     	;# 
   236  0092                     	;# 
   237  0093                     	;# 
   238  0094                     	;# 
   239  0098                     	;# 
   240  0099                     	;# 
   241  009C                     	;# 
   242  009D                     	;# 
   243  009E                     	;# 
   244  009F                     	;# 
   245  010C                     	;# 
   246  010D                     	;# 
   247  010E                     	;# 
   248  010F                     	;# 
   249  018C                     	;# 
   250  018D                     	;# 
   251  000E                     _TMR1	set	14
   252  0010                     _T1CONbits	set	16
   253  0006                     _PORTBbits	set	6
   254  001E                     _ADRESH	set	30
   255  001F                     _ADCON0	set	31
   256  0047                     _RD7	set	71
   257  0046                     _RD6	set	70
   258  0045                     _RD5	set	69
   259  0044                     _RD4	set	68
   260  0043                     _RD3	set	67
   261  0042                     _RD2	set	66
   262  005F                     _GIE	set	95
   263  005E                     _PEIE	set	94
   264  0060                     _TMR1IF	set	96
   265  00FA                     _GO_DONE	set	250
   266  00F8                     _ADON	set	248
   267  00FD                     _CHS2	set	253
   268  00FC                     _CHS1	set	252
   269  00FB                     _CHS0	set	251
   270  0088                     _TRISD	set	136
   271  0086                     _TRISBbits	set	134
   272  009E                     _ADRESL	set	158
   273  009F                     _ADCON1	set	159
   274  0443                     _TRISD3	set	1091
   275  0442                     _TRISD2	set	1090
   276  0460                     _TMR1IE	set	1120
   277                           
   278                           	psect	strings
   279  0800                     __pstrings:
   280  0800                     stringtab:
   281  0800                     __stringtab:
   282  0800                     stringcode:	
   283                           ;	String table - string pointers are 1 byte each
   284                           
   285  0800                     stringdir:
   286  0800  3008               	movlw	high stringdir
   287  0801  008A               	movwf	10
   288  0802  0804               	movf	4,w
   289  0803  0A84               	incf	4,f
   290  0804  0782               	addwf	2,f
   291  0805                     __stringbase:
   292  0805  3400               	retlw	0
   293  0806                     __end_of__stringtab:
   294  0806                     STR_3:
   295  0806  3449               	retlw	73	;'I'
   296  0807  3420               	retlw	32	;' '
   297  0808  343D               	retlw	61	;'='
   298  0809  3420               	retlw	32	;' '
   299  080A  3400               	retlw	0
   300  080B                     STR_1:
   301  080B  3455               	retlw	85	;'U'
   302  080C  3420               	retlw	32	;' '
   303  080D  343D               	retlw	61	;'='
   304  080E  3420               	retlw	32	;' '
   305  080F  3400               	retlw	0
   306  0810                     STR_5:
   307  0810  3420               	retlw	32	;' '
   308  0811  3420               	retlw	32	;' '
   309  0812  3441               	retlw	65	;'A'
   310  0813  3400               	retlw	0
   311  0814                     STR_2:
   312  0814  3420               	retlw	32	;' '
   313  0815  3420               	retlw	32	;' '
   314  0816  3456               	retlw	86	;'V'
   315  0817  3400               	retlw	0
   316  0818                     STR_4:
   317  0818  3430               	retlw	48	;'0'
   318  0819  342E               	retlw	46	;'.'
   319  081A  3400               	retlw	0
   320                           
   321                           	psect	cinit
   322  000F                     start_initialization:	
   323                           ; #config settings
   324                           
   325  000F                     __initialization:
   326                           
   327                           ; Clear objects allocated to COMMON
   328  000F  01FA               	clrf	__pbssCOMMON& (0+127)
   329  0010  01FB               	clrf	(__pbssCOMMON+1)& (0+127)
   330                           
   331                           ; Clear objects allocated to BANK0
   332  0011  1283               	bcf	3,5	;RP0=0, select bank0
   333  0012  1303               	bcf	3,6	;RP1=0, select bank0
   334  0013  01E5               	clrf	__pbssBANK0& (0+127)
   335  0014  01E6               	clrf	(__pbssBANK0+1)& (0+127)
   336  0015  01E7               	clrf	(__pbssBANK0+2)& (0+127)
   337  0016  01E8               	clrf	(__pbssBANK0+3)& (0+127)
   338  0017                     end_of_initialization:	
   339                           ;End of C runtime variable initialization code
   340                           
   341  0017                     __end_of__initialization:
   342  0017  0183               	clrf	3
   343  0018  120A  158A  2CA3   	ljmp	_main	;jump to C main() function
   344                           
   345                           	psect	bssCOMMON
   346  007A                     __pbssCOMMON:
   347  007A                     _voltage:
   348  007A                     	ds	2
   349                           
   350                           	psect	bssBANK0
   351  0065                     __pbssBANK0:
   352  0065                     _count:
   353  0065                     	ds	2
   354  0067                     _ampe:
   355  0067                     	ds	2
   356                           
   357                           	psect	cstackCOMMON
   358  0070                     __pcstackCOMMON:
   359  0070                     ?_compe:
   360  0070                     ??_compe:	
   361                           ; 1 bytes @ 0x0
   362                           
   363  0070                     ?_time1:	
   364                           ; 1 bytes @ 0x0
   365                           
   366  0070                     ?_GPIO:	
   367                           ; 1 bytes @ 0x0
   368                           
   369  0070                     ?_LCD_Init:	
   370                           ; 1 bytes @ 0x0
   371                           
   372  0070                     ?_do_luong:	
   373                           ; 1 bytes @ 0x0
   374                           
   375  0070                     ?_hien_thi:	
   376                           ; 1 bytes @ 0x0
   377                           
   378  0070                     ?_LCD_Write_String:	
   379                           ; 1 bytes @ 0x0
   380                           
   381  0070                     ?_LCD_Write_Char:	
   382                           ; 1 bytes @ 0x0
   383                           
   384  0070                     ?_LCD_DATA:	
   385                           ; 1 bytes @ 0x0
   386                           
   387  0070                     ?_LCD_CMD:	
   388                           ; 1 bytes @ 0x0
   389                           
   390  0070                     ?_ADC_Init:	
   391                           ; 1 bytes @ 0x0
   392                           
   393  0070                     ?_ISR:	
   394                           ; 1 bytes @ 0x0
   395                           
   396  0070                     ??_ISR:	
   397                           ; 1 bytes @ 0x0
   398                           
   399  0070                     ?_main:	
   400                           ; 1 bytes @ 0x0
   401                           
   402                           
   403                           ; 1 bytes @ 0x0
   404  0070                     	ds	2
   405  0072                     ??_time1:
   406  0072                     ??_GPIO:	
   407                           ; 1 bytes @ 0x2
   408                           
   409  0072                     ??_LCD_DATA:	
   410                           ; 1 bytes @ 0x2
   411                           
   412  0072                     ??_ADC_Init:	
   413                           ; 1 bytes @ 0x2
   414                           
   415  0072                     ?__Umul8_16:	
   416                           ; 1 bytes @ 0x2
   417                           
   418  0072                     ?_ADC_Read:	
   419                           ; 2 bytes @ 0x2
   420                           
   421  0072                     ?___lwmod:	
   422                           ; 2 bytes @ 0x2
   423                           
   424  0072                     ?___xxtofl:	
   425                           ; 2 bytes @ 0x2
   426                           
   427  0072                     LCD_DATA@Data:	
   428                           ; 4 bytes @ 0x2
   429                           
   430  0072                     __Umul8_16@multiplicand:	
   431                           ; 1 bytes @ 0x2
   432                           
   433  0072                     ___lwmod@divisor:	
   434                           ; 1 bytes @ 0x2
   435                           
   436  0072                     ___xxtofl@val:	
   437                           ; 2 bytes @ 0x2
   438                           
   439                           
   440                           ; 4 bytes @ 0x2
   441  0072                     	ds	1
   442  0073                     ??_LCD_Write_Char:
   443  0073                     ??_LCD_CMD:	
   444                           ; 1 bytes @ 0x3
   445                           
   446                           
   447                           ; 1 bytes @ 0x3
   448  0073                     	ds	1
   449  0074                     ??__Umul8_16:
   450  0074                     ??_ADC_Read:	
   451                           ; 1 bytes @ 0x4
   452                           
   453  0074                     ___lwmod@dividend:	
   454                           ; 1 bytes @ 0x4
   455                           
   456                           
   457                           ; 2 bytes @ 0x4
   458  0074                     	ds	1
   459  0075                     LCD_Write_Char@Low4:
   460  0075                     LCD_CMD@CMD:	
   461                           ; 1 bytes @ 0x5
   462                           
   463                           
   464                           ; 1 bytes @ 0x5
   465  0075                     	ds	1
   466  0076                     ??_LCD_Init:
   467  0076                     ?_LCD_Set_Cursor:	
   468                           ; 1 bytes @ 0x6
   469                           
   470  0076                     ??___lwmod:	
   471                           ; 1 bytes @ 0x6
   472                           
   473  0076                     ??___xxtofl:	
   474                           ; 1 bytes @ 0x6
   475                           
   476  0076                     LCD_Set_Cursor@c:	
   477                           ; 1 bytes @ 0x6
   478                           
   479  0076                     LCD_Write_Char@High4:	
   480                           ; 1 bytes @ 0x6
   481                           
   482  0076                     ADC_Read@value:	
   483                           ; 1 bytes @ 0x6
   484                           
   485                           
   486                           ; 2 bytes @ 0x6
   487  0076                     	ds	1
   488  0077                     ??_LCD_Set_Cursor:
   489  0077                     LCD_Write_Char@Data:	
   490                           ; 1 bytes @ 0x7
   491                           
   492  0077                     ___lwmod@counter:	
   493                           ; 1 bytes @ 0x7
   494                           
   495                           
   496                           ; 1 bytes @ 0x7
   497  0077                     	ds	1
   498  0078                     ??_LCD_Write_String:
   499  0078                     ??___lwdiv:	
   500                           ; 1 bytes @ 0x8
   501                           
   502  0078                     ADC_Read@Channel:	
   503                           ; 1 bytes @ 0x8
   504                           
   505                           
   506                           ; 1 bytes @ 0x8
   507  0078                     	ds	1
   508  0079                     ??_hien_thi:
   509                           
   510                           ; 1 bytes @ 0x9
   511  0079                     	ds	1
   512  007A                     ??_do_luong:
   513  007A                     ??_main:	
   514                           ; 1 bytes @ 0xA
   515                           
   516                           
   517                           	psect	cstackBANK0
   518  0020                     __pcstackBANK0:	
   519                           ; 1 bytes @ 0xA
   520                           
   521  0020                     ?___lwdiv:
   522  0020                     LCD_Set_Cursor@r:	
   523                           ; 2 bytes @ 0x0
   524                           
   525  0020                     ___xxtofl@sign:	
   526                           ; 1 bytes @ 0x0
   527                           
   528  0020                     LCD_Write_String@i:	
   529                           ; 1 bytes @ 0x0
   530                           
   531  0020                     ___lwdiv@divisor:	
   532                           ; 2 bytes @ 0x0
   533                           
   534  0020                     __Umul8_16@product:	
   535                           ; 2 bytes @ 0x0
   536                           
   537                           
   538                           ; 2 bytes @ 0x0
   539  0020                     	ds	1
   540  0021                     LCD_Set_Cursor@Low4:
   541  0021                     ___xxtofl@exp:	
   542                           ; 1 bytes @ 0x1
   543                           
   544                           
   545                           ; 1 bytes @ 0x1
   546  0021                     	ds	1
   547  0022                     LCD_Set_Cursor@High4:
   548  0022                     LCD_Write_String@str:	
   549                           ; 1 bytes @ 0x2
   550                           
   551  0022                     ___lwdiv@dividend:	
   552                           ; 1 bytes @ 0x2
   553                           
   554  0022                     __Umul8_16@word_mpld:	
   555                           ; 2 bytes @ 0x2
   556                           
   557  0022                     ___xxtofl@arg:	
   558                           ; 2 bytes @ 0x2
   559                           
   560                           
   561                           ; 4 bytes @ 0x2
   562  0022                     	ds	1
   563  0023                     LCD_Set_Cursor@Temp:
   564                           
   565                           ; 1 bytes @ 0x3
   566  0023                     	ds	1
   567  0024                     ___lwdiv@counter:
   568  0024                     __Umul8_16@multiplier:	
   569                           ; 1 bytes @ 0x4
   570                           
   571                           
   572                           ; 1 bytes @ 0x4
   573  0024                     	ds	1
   574  0025                     ___lwdiv@quotient:
   575                           
   576                           ; 2 bytes @ 0x5
   577  0025                     	ds	1
   578  0026                     ?___flmul:
   579  0026                     ___flmul@b:	
   580                           ; 4 bytes @ 0x6
   581                           
   582                           
   583                           ; 4 bytes @ 0x6
   584  0026                     	ds	1
   585  0027                     ?_LCD_Write_Number:
   586  0027                     LCD_Write_Number@number:	
   587                           ; 1 bytes @ 0x7
   588                           
   589                           
   590                           ; 2 bytes @ 0x7
   591  0027                     	ds	2
   592  0029                     ??_LCD_Write_Number:
   593                           
   594                           ; 1 bytes @ 0x9
   595  0029                     	ds	1
   596  002A                     ___flmul@a:
   597                           
   598                           ; 4 bytes @ 0xA
   599  002A                     	ds	1
   600  002B                     LCD_Write_Number@num:
   601                           
   602                           ; 20 bytes @ 0xB
   603  002B                     	ds	3
   604  002E                     ??___flmul:
   605                           
   606                           ; 1 bytes @ 0xE
   607  002E                     	ds	5
   608  0033                     ___flmul@sign:
   609                           
   610                           ; 1 bytes @ 0x13
   611  0033                     	ds	1
   612  0034                     ___flmul@aexp:
   613                           
   614                           ; 1 bytes @ 0x14
   615  0034                     	ds	1
   616  0035                     ___flmul@grs:
   617                           
   618                           ; 4 bytes @ 0x15
   619  0035                     	ds	4
   620  0039                     ___flmul@bexp:
   621                           
   622                           ; 1 bytes @ 0x19
   623  0039                     	ds	1
   624  003A                     ___flmul@prod:
   625                           
   626                           ; 4 bytes @ 0x1A
   627  003A                     	ds	4
   628  003E                     ___flmul@temp:
   629                           
   630                           ; 2 bytes @ 0x1E
   631  003E                     	ds	1
   632  003F                     LCD_Write_Number@c:
   633                           
   634                           ; 1 bytes @ 0x1F
   635  003F                     	ds	1
   636  0040                     ?___fldiv:
   637  0040                     LCD_Write_Number@k:	
   638                           ; 4 bytes @ 0x20
   639                           
   640  0040                     ___fldiv@a:	
   641                           ; 2 bytes @ 0x20
   642                           
   643                           
   644                           ; 4 bytes @ 0x20
   645  0040                     	ds	2
   646  0042                     LCD_Write_Number@p:
   647                           
   648                           ; 2 bytes @ 0x22
   649  0042                     	ds	2
   650  0044                     _hien_thi$885:
   651  0044                     ___fldiv@b:	
   652                           ; 2 bytes @ 0x24
   653                           
   654                           
   655                           ; 4 bytes @ 0x24
   656  0044                     	ds	2
   657  0046                     _hien_thi$884:
   658                           
   659                           ; 2 bytes @ 0x26
   660  0046                     	ds	2
   661  0048                     ??___fldiv:
   662                           
   663                           ; 1 bytes @ 0x28
   664  0048                     	ds	5
   665  004D                     ___fldiv@rem:
   666                           
   667                           ; 4 bytes @ 0x2D
   668  004D                     	ds	4
   669  0051                     ___fldiv@sign:
   670                           
   671                           ; 1 bytes @ 0x31
   672  0051                     	ds	1
   673  0052                     ___fldiv@new_exp:
   674                           
   675                           ; 2 bytes @ 0x32
   676  0052                     	ds	2
   677  0054                     ___fldiv@grs:
   678                           
   679                           ; 4 bytes @ 0x34
   680  0054                     	ds	4
   681  0058                     ___fldiv@bexp:
   682                           
   683                           ; 1 bytes @ 0x38
   684  0058                     	ds	1
   685  0059                     ___fldiv@aexp:
   686                           
   687                           ; 1 bytes @ 0x39
   688  0059                     	ds	1
   689  005A                     ?___fltol:
   690  005A                     ___fltol@f1:	
   691                           ; 4 bytes @ 0x3A
   692                           
   693                           
   694                           ; 4 bytes @ 0x3A
   695  005A                     	ds	4
   696  005E                     ??___fltol:
   697                           
   698                           ; 1 bytes @ 0x3E
   699  005E                     	ds	5
   700  0063                     ___fltol@sign1:
   701                           
   702                           ; 1 bytes @ 0x43
   703  0063                     	ds	1
   704  0064                     ___fltol@exp1:
   705                           
   706                           ; 1 bytes @ 0x44
   707  0064                     	ds	1
   708                           
   709                           	psect	maintext
   710  0CA3                     __pmaintext:	
   711 ;;
   712 ;;Main: autosize = 0, tempsize = 0, incstack = 0, save=0
   713 ;;
   714 ;; *************** function _main *****************
   715 ;; Defined at:
   716 ;;		line 38 in file "main_dc_volt.c"
   717 ;; Parameters:    Size  Location     Type
   718 ;;		None
   719 ;; Auto vars:     Size  Location     Type
   720 ;;  i               2    0        int 
   721 ;; Return value:  Size  Location     Type
   722 ;;                  1    wreg      void 
   723 ;; Registers used:
   724 ;;		wreg, fsr0l, fsr0h, status,2, status,0, btemp+1, pclath, cstack
   725 ;; Tracked objects:
   726 ;;		On entry : B00/0
   727 ;;		On exit  : 0/0
   728 ;;		Unchanged: 0/0
   729 ;; Data sizes:     COMMON   BANK0   BANK1   BANK3   BANK2
   730 ;;      Params:         0       0       0       0       0
   731 ;;      Locals:         0       2       0       0       0
   732 ;;      Temps:          0       0       0       0       0
   733 ;;      Totals:         0       2       0       0       0
   734 ;;Total ram usage:        2 bytes
   735 ;; Hardware stack levels required when called:    6
   736 ;; This function calls:
   737 ;;		_ADC_Init
   738 ;;		_GPIO
   739 ;;		_LCD_Init
   740 ;;		_do_luong
   741 ;;		_hien_thi
   742 ;;		_time1
   743 ;; This function is called by:
   744 ;;		Startup code after reset
   745 ;; This function uses a non-reentrant model
   746 ;;
   747                           
   748                           
   749                           ;psect for function _main
   750  0CA3                     _main:
   751  0CA3                     l2539:	
   752                           ;incstack = 0
   753                           ; Regs used in _main: [wreg-fsr0h+status,2+status,0+btemp+1+pclath+cstack]
   754                           
   755  0CA3                     l2541:
   756                           
   757                           ;main_dc_volt.c: 42:     ADC_Init();
   758  0CA3  120A  158A  244B  120A  158A  	fcall	_ADC_Init
   759  0CA8                     l2543:
   760                           
   761                           ;main_dc_volt.c: 44:     time1();
   762  0CA8  120A  158A  2454  120A  158A  	fcall	_time1
   763  0CAD                     l2545:
   764                           
   765                           ;main_dc_volt.c: 46:     GPIO();
   766  0CAD  120A  118A  27EE  120A  158A  	fcall	_GPIO
   767  0CB2                     l2547:
   768                           
   769                           ;main_dc_volt.c: 48:     LCD_Init();
   770  0CB2  120A  118A  2787  120A  158A  	fcall	_LCD_Init
   771  0CB7                     l2549:
   772                           
   773                           ;main_dc_volt.c: 51:     {;main_dc_volt.c: 53:         do_luong();
   774  0CB7  120A  118A  26E9  120A  158A  	fcall	_do_luong
   775  0CBC                     l2551:
   776                           
   777                           ;main_dc_volt.c: 55:         hien_thi();
   778  0CBC  120A  118A  2559  120A  158A  	fcall	_hien_thi
   779  0CC1  2CB7               	goto	l2549
   780  0CC2  120A  118A  280C   	ljmp	start
   781  0CC5                     __end_of_main:
   782                           
   783                           	psect	text1
   784  0C54                     __ptext1:	
   785 ;; *************** function _time1 *****************
   786 ;; Defined at:
   787 ;;		line 66 in file "main_dc_volt.c"
   788 ;; Parameters:    Size  Location     Type
   789 ;;		None
   790 ;; Auto vars:     Size  Location     Type
   791 ;;		None
   792 ;; Return value:  Size  Location     Type
   793 ;;                  1    wreg      void 
   794 ;; Registers used:
   795 ;;		None
   796 ;; Tracked objects:
   797 ;;		On entry : 0/0
   798 ;;		On exit  : 0/0
   799 ;;		Unchanged: 0/0
   800 ;; Data sizes:     COMMON   BANK0   BANK1   BANK3   BANK2
   801 ;;      Params:         0       0       0       0       0
   802 ;;      Locals:         0       0       0       0       0
   803 ;;      Temps:          0       0       0       0       0
   804 ;;      Totals:         0       0       0       0       0
   805 ;;Total ram usage:        0 bytes
   806 ;; Hardware stack levels used:    1
   807 ;; Hardware stack levels required when called:    2
   808 ;; This function calls:
   809 ;;		Nothing
   810 ;; This function is called by:
   811 ;;		_main
   812 ;; This function uses a non-reentrant model
   813 ;;
   814                           
   815                           
   816                           ;psect for function _time1
   817  0C54                     _time1:
   818  0C54                     l2063:	
   819                           ;incstack = 0
   820                           ; Regs used in _time1: []
   821                           
   822                           
   823                           ;main_dc_volt.c: 68:     T1CONbits.T1CKPS1 = 1;
   824  0C54  1283               	bcf	3,5	;RP0=0, select bank0
   825  0C55  1303               	bcf	3,6	;RP1=0, select bank0
   826  0C56  1690               	bsf	16,5	;volatile
   827                           
   828                           ;main_dc_volt.c: 69:     T1CONbits.T1CKPS0 = 0;
   829  0C57  1210               	bcf	16,4	;volatile
   830                           
   831                           ;main_dc_volt.c: 71:     T1CONbits.TMR1CS = 0;
   832  0C58  1090               	bcf	16,1	;volatile
   833                           
   834                           ;main_dc_volt.c: 73:     T1CONbits.T1SYNC = 1;
   835  0C59  1510               	bsf	16,2	;volatile
   836                           
   837                           ;main_dc_volt.c: 74:     T1CONbits.TMR1ON = 1;
   838  0C5A  1410               	bsf	16,0	;volatile
   839                           
   840                           ;main_dc_volt.c: 76:     TMR1IE=1;
   841  0C5B  1683               	bsf	3,5	;RP0=1, select bank1
   842  0C5C  1303               	bcf	3,6	;RP1=0, select bank1
   843  0C5D  140C               	bsf	12,0	;volatile
   844                           
   845                           ;main_dc_volt.c: 77:     PEIE=1;
   846  0C5E  170B               	bsf	11,6	;volatile
   847                           
   848                           ;main_dc_volt.c: 78:     GIE=1;
   849  0C5F  178B               	bsf	11,7	;volatile
   850                           
   851                           ;main_dc_volt.c: 80:     TMR1 = 64536;
   852  0C60  30FC               	movlw	252
   853  0C61  1283               	bcf	3,5	;RP0=0, select bank0
   854  0C62  1303               	bcf	3,6	;RP1=0, select bank0
   855  0C63  008F               	movwf	15	;volatile
   856  0C64  3018               	movlw	24
   857  0C65  008E               	movwf	14	;volatile
   858  0C66                     l96:
   859  0C66  0008               	return
   860  0C67                     __end_of_time1:
   861                           
   862                           	psect	text2
   863  0559                     __ptext2:	
   864 ;; *************** function _hien_thi *****************
   865 ;; Defined at:
   866 ;;		line 117 in file "main_dc_volt.c"
   867 ;; Parameters:    Size  Location     Type
   868 ;;		None
   869 ;; Auto vars:     Size  Location     Type
   870 ;;		None
   871 ;; Return value:  Size  Location     Type
   872 ;;                  1    wreg      void 
   873 ;; Registers used:
   874 ;;		wreg, fsr0l, fsr0h, status,2, status,0, pclath, cstack
   875 ;; Tracked objects:
   876 ;;		On entry : 0/0
   877 ;;		On exit  : 0/0
   878 ;;		Unchanged: 0/0
   879 ;; Data sizes:     COMMON   BANK0   BANK1   BANK3   BANK2
   880 ;;      Params:         0       0       0       0       0
   881 ;;      Locals:         0       4       0       0       0
   882 ;;      Temps:          0       0       0       0       0
   883 ;;      Totals:         0       4       0       0       0
   884 ;;Total ram usage:        4 bytes
   885 ;; Hardware stack levels used:    1
   886 ;; Hardware stack levels required when called:    5
   887 ;; This function calls:
   888 ;;		_LCD_Set_Cursor
   889 ;;		_LCD_Write_Char
   890 ;;		_LCD_Write_Number
   891 ;;		_LCD_Write_String
   892 ;;		___lwdiv
   893 ;;		___lwmod
   894 ;; This function is called by:
   895 ;;		_main
   896 ;; This function uses a non-reentrant model
   897 ;;
   898                           
   899                           
   900                           ;psect for function _hien_thi
   901  0559                     _hien_thi:
   902  0559                     l2515:	
   903                           ;incstack = 0
   904                           ; Regs used in _hien_thi: [wreg-fsr0h+status,2+status,0+pclath+cstack]
   905                           
   906                           
   907                           ;main_dc_volt.c: 119:     LCD_Set_Cursor(1,1);
   908  0559  01F6               	clrf	LCD_Set_Cursor@c
   909  055A  0AF6               	incf	LCD_Set_Cursor@c,f
   910  055B  3001               	movlw	1
   911  055C  120A  158A  26AC  120A  118A  	fcall	_LCD_Set_Cursor
   912  0561                     l2517:
   913                           
   914                           ;main_dc_volt.c: 120:     LCD_Write_String("U = ");
   915  0561  3006               	movlw	(low ((STR_1-__stringbase)| (0+32768)))& (0+255)
   916  0562  120A  158A  24EE  120A  118A  	fcall	_LCD_Write_String
   917  0567                     l2519:
   918                           
   919                           ;main_dc_volt.c: 121:     LCD_Write_Number(voltage/1000);
   920  0567  30E8               	movlw	232
   921  0568  1283               	bcf	3,5	;RP0=0, select bank0
   922  0569  1303               	bcf	3,6	;RP1=0, select bank0
   923  056A  00A0               	movwf	___lwdiv@divisor
   924  056B  3003               	movlw	3
   925  056C  00A1               	movwf	___lwdiv@divisor+1
   926  056D  087B               	movf	_voltage+1,w
   927  056E  00A3               	movwf	___lwdiv@dividend+1
   928  056F  087A               	movf	_voltage,w
   929  0570  00A2               	movwf	___lwdiv@dividend
   930  0571  120A  158A  25BC  120A  118A  	fcall	___lwdiv
   931  0576  1283               	bcf	3,5	;RP0=0, select bank0
   932  0577  1303               	bcf	3,6	;RP1=0, select bank0
   933  0578  0821               	movf	?___lwdiv+1,w
   934  0579  00C7               	movwf	_hien_thi$884+1
   935  057A  0820               	movf	?___lwdiv,w
   936  057B  00C6               	movwf	_hien_thi$884
   937                           
   938                           ;main_dc_volt.c: 121:     LCD_Write_Number(voltage/1000);
   939  057C  0847               	movf	_hien_thi$884+1,w
   940  057D  00A8               	movwf	LCD_Write_Number@number+1
   941  057E  0846               	movf	_hien_thi$884,w
   942  057F  00A7               	movwf	LCD_Write_Number@number
   943  0580  120A  158A  2780  120A  118A  	fcall	_LCD_Write_Number
   944  0585                     l2521:
   945                           
   946                           ;main_dc_volt.c: 122:     LCD_Write_Number((voltage%1000)/100);
   947  0585  3064               	movlw	100
   948  0586  1283               	bcf	3,5	;RP0=0, select bank0
   949  0587  1303               	bcf	3,6	;RP1=0, select bank0
   950  0588  00A0               	movwf	___lwdiv@divisor
   951  0589  3000               	movlw	0
   952  058A  00A1               	movwf	___lwdiv@divisor+1
   953  058B  087B               	movf	_voltage+1,w
   954  058C  00F5               	movwf	___lwmod@dividend+1
   955  058D  087A               	movf	_voltage,w
   956  058E  00F4               	movwf	___lwmod@dividend
   957  058F  30E8               	movlw	232
   958  0590  00F2               	movwf	___lwmod@divisor
   959  0591  3003               	movlw	3
   960  0592  00F3               	movwf	___lwmod@divisor+1
   961  0593  120A  158A  2547  120A  118A  	fcall	___lwmod
   962  0598  0873               	movf	?___lwmod+1,w
   963  0599  1283               	bcf	3,5	;RP0=0, select bank0
   964  059A  1303               	bcf	3,6	;RP1=0, select bank0
   965  059B  00A3               	movwf	___lwdiv@dividend+1
   966  059C  0872               	movf	?___lwmod,w
   967  059D  00A2               	movwf	___lwdiv@dividend
   968  059E  120A  158A  25BC  120A  118A  	fcall	___lwdiv
   969  05A3  1283               	bcf	3,5	;RP0=0, select bank0
   970  05A4  1303               	bcf	3,6	;RP1=0, select bank0
   971  05A5  0821               	movf	?___lwdiv+1,w
   972  05A6  00C7               	movwf	_hien_thi$884+1
   973  05A7  0820               	movf	?___lwdiv,w
   974  05A8  00C6               	movwf	_hien_thi$884
   975  05A9                     l2523:
   976                           
   977                           ;main_dc_volt.c: 122:     LCD_Write_Number((voltage%1000)/100);
   978  05A9  0847               	movf	_hien_thi$884+1,w
   979  05AA  00A8               	movwf	LCD_Write_Number@number+1
   980  05AB  0846               	movf	_hien_thi$884,w
   981  05AC  00A7               	movwf	LCD_Write_Number@number
   982  05AD  120A  158A  2780  120A  118A  	fcall	_LCD_Write_Number
   983                           
   984                           ;main_dc_volt.c: 123:     LCD_Write_Char('.');
   985  05B2  302E               	movlw	46
   986  05B3  120A  158A  2602  120A  118A  	fcall	_LCD_Write_Char
   987                           
   988                           ;main_dc_volt.c: 124:     LCD_Write_Number((voltage%100)/10);
   989  05B8  300A               	movlw	10
   990  05B9  1283               	bcf	3,5	;RP0=0, select bank0
   991  05BA  1303               	bcf	3,6	;RP1=0, select bank0
   992  05BB  00A0               	movwf	___lwdiv@divisor
   993  05BC  3000               	movlw	0
   994  05BD  00A1               	movwf	___lwdiv@divisor+1
   995  05BE  087B               	movf	_voltage+1,w
   996  05BF  00F5               	movwf	___lwmod@dividend+1
   997  05C0  087A               	movf	_voltage,w
   998  05C1  00F4               	movwf	___lwmod@dividend
   999  05C2  3064               	movlw	100
  1000  05C3  00F2               	movwf	___lwmod@divisor
  1001  05C4  3000               	movlw	0
  1002  05C5  00F3               	movwf	___lwmod@divisor+1
  1003  05C6  120A  158A  2547  120A  118A  	fcall	___lwmod
  1004  05CB  0873               	movf	?___lwmod+1,w
  1005  05CC  1283               	bcf	3,5	;RP0=0, select bank0
  1006  05CD  1303               	bcf	3,6	;RP1=0, select bank0
  1007  05CE  00A3               	movwf	___lwdiv@dividend+1
  1008  05CF  0872               	movf	?___lwmod,w
  1009  05D0  00A2               	movwf	___lwdiv@dividend
  1010  05D1  120A  158A  25BC  120A  118A  	fcall	___lwdiv
  1011  05D6  1283               	bcf	3,5	;RP0=0, select bank0
  1012  05D7  1303               	bcf	3,6	;RP1=0, select bank0
  1013  05D8  0821               	movf	?___lwdiv+1,w
  1014  05D9  00C7               	movwf	_hien_thi$884+1
  1015  05DA  0820               	movf	?___lwdiv,w
  1016  05DB  00C6               	movwf	_hien_thi$884
  1017  05DC                     l2525:
  1018                           
  1019                           ;main_dc_volt.c: 124:     LCD_Write_Number((voltage%100)/10);
  1020  05DC  0847               	movf	_hien_thi$884+1,w
  1021  05DD  00A8               	movwf	LCD_Write_Number@number+1
  1022  05DE  0846               	movf	_hien_thi$884,w
  1023  05DF  00A7               	movwf	LCD_Write_Number@number
  1024  05E0  120A  158A  2780  120A  118A  	fcall	_LCD_Write_Number
  1025  05E5                     l2527:
  1026                           
  1027                           ;main_dc_volt.c: 125:     LCD_Write_Number(voltage%10);
  1028  05E5  300A               	movlw	10
  1029  05E6  00F2               	movwf	___lwmod@divisor
  1030  05E7  3000               	movlw	0
  1031  05E8  00F3               	movwf	___lwmod@divisor+1
  1032  05E9  087B               	movf	_voltage+1,w
  1033  05EA  00F5               	movwf	___lwmod@dividend+1
  1034  05EB  087A               	movf	_voltage,w
  1035  05EC  00F4               	movwf	___lwmod@dividend
  1036  05ED  120A  158A  2547  120A  118A  	fcall	___lwmod
  1037  05F2  0873               	movf	?___lwmod+1,w
  1038  05F3  1283               	bcf	3,5	;RP0=0, select bank0
  1039  05F4  1303               	bcf	3,6	;RP1=0, select bank0
  1040  05F5  00C5               	movwf	_hien_thi$885+1
  1041  05F6  0872               	movf	?___lwmod,w
  1042  05F7  00C4               	movwf	_hien_thi$885
  1043                           
  1044                           ;main_dc_volt.c: 125:     LCD_Write_Number(voltage%10);
  1045  05F8  0845               	movf	_hien_thi$885+1,w
  1046  05F9  00A8               	movwf	LCD_Write_Number@number+1
  1047  05FA  0844               	movf	_hien_thi$885,w
  1048  05FB  00A7               	movwf	LCD_Write_Number@number
  1049  05FC  120A  158A  2780  120A  118A  	fcall	_LCD_Write_Number
  1050                           
  1051                           ;main_dc_volt.c: 126:     LCD_Write_String("  V");
  1052  0601  300F               	movlw	(low ((STR_2-__stringbase)| (0+32768)))& (0+255)
  1053  0602  120A  158A  24EE  120A  118A  	fcall	_LCD_Write_String
  1054  0607                     l2529:
  1055                           
  1056                           ;main_dc_volt.c: 128:     LCD_Set_Cursor(2,1);
  1057  0607  01F6               	clrf	LCD_Set_Cursor@c
  1058  0608  0AF6               	incf	LCD_Set_Cursor@c,f
  1059  0609  3002               	movlw	2
  1060  060A  120A  158A  26AC  120A  118A  	fcall	_LCD_Set_Cursor
  1061  060F                     l2531:
  1062                           
  1063                           ;main_dc_volt.c: 129:     LCD_Write_String("I = ");
  1064  060F  3001               	movlw	(low ((STR_3-__stringbase)| (0+32768)))& (0+255)
  1065  0610  120A  158A  24EE  120A  118A  	fcall	_LCD_Write_String
  1066  0615                     l2533:
  1067                           
  1068                           ;main_dc_volt.c: 130:     LCD_Write_String("0.");
  1069  0615  3013               	movlw	(low ((STR_4-__stringbase)| (0+32768)))& (0+255)
  1070  0616  120A  158A  24EE  120A  118A  	fcall	_LCD_Write_String
  1071  061B                     l2535:
  1072                           
  1073                           ;main_dc_volt.c: 131:     LCD_Write_Number(ampe);
  1074  061B  1283               	bcf	3,5	;RP0=0, select bank0
  1075  061C  1303               	bcf	3,6	;RP1=0, select bank0
  1076  061D  0868               	movf	_ampe+1,w
  1077  061E  00A8               	movwf	LCD_Write_Number@number+1
  1078  061F  0867               	movf	_ampe,w
  1079  0620  00A7               	movwf	LCD_Write_Number@number
  1080  0621  120A  158A  2780  120A  118A  	fcall	_LCD_Write_Number
  1081  0626                     l2537:
  1082                           
  1083                           ;main_dc_volt.c: 132:     LCD_Write_String("  A");
  1084  0626  300B               	movlw	(low ((STR_5-__stringbase)| (0+32768)))& (0+255)
  1085  0627  120A  158A  24EE  120A  118A  	fcall	_LCD_Write_String
  1086  062C                     l115:
  1087  062C  0008               	return
  1088  062D                     __end_of_hien_thi:
  1089                           
  1090                           	psect	text3
  1091  0CEE                     __ptext3:	
  1092 ;; *************** function _LCD_Write_String *****************
  1093 ;; Defined at:
  1094 ;;		line 71 in file "lcd.c"
  1095 ;; Parameters:    Size  Location     Type
  1096 ;;  str             1    wreg     PTR unsigned char 
  1097 ;;		 -> STR_5(4), STR_4(3), STR_3(5), STR_2(4), 
  1098 ;;		 -> STR_1(5), 
  1099 ;; Auto vars:     Size  Location     Type
  1100 ;;  str             1    2[BANK0 ] PTR unsigned char 
  1101 ;;		 -> STR_5(4), STR_4(3), STR_3(5), STR_2(4), 
  1102 ;;		 -> STR_1(5), 
  1103 ;;  i               2    0[BANK0 ] int 
  1104 ;; Return value:  Size  Location     Type
  1105 ;;                  1    wreg      void 
  1106 ;; Registers used:
  1107 ;;		wreg, fsr0l, fsr0h, status,2, status,0, pclath, cstack
  1108 ;; Tracked objects:
  1109 ;;		On entry : 0/0
  1110 ;;		On exit  : 0/0
  1111 ;;		Unchanged: 0/0
  1112 ;; Data sizes:     COMMON   BANK0   BANK1   BANK3   BANK2
  1113 ;;      Params:         0       0       0       0       0
  1114 ;;      Locals:         0       3       0       0       0
  1115 ;;      Temps:          0       0       0       0       0
  1116 ;;      Totals:         0       3       0       0       0
  1117 ;;Total ram usage:        3 bytes
  1118 ;; Hardware stack levels used:    1
  1119 ;; Hardware stack levels required when called:    4
  1120 ;; This function calls:
  1121 ;;		_LCD_Write_Char
  1122 ;; This function is called by:
  1123 ;;		_hien_thi
  1124 ;; This function uses a non-reentrant model
  1125 ;;
  1126                           
  1127                           
  1128                           ;psect for function _LCD_Write_String
  1129  0CEE                     _LCD_Write_String:
  1130                           
  1131                           ;incstack = 0
  1132                           ; Regs used in _LCD_Write_String: [wreg-fsr0h+status,2+status,0+pclath+cstack]
  1133                           ;LCD_Write_String@str stored from wreg
  1134  0CEE  1283               	bcf	3,5	;RP0=0, select bank0
  1135  0CEF  1303               	bcf	3,6	;RP1=0, select bank0
  1136  0CF0  00A2               	movwf	LCD_Write_String@str
  1137  0CF1                     l2291:
  1138                           
  1139                           ;lcd.c: 71: void LCD_Write_String(char *str);lcd.c: 72: {;lcd.c: 73:   int i;;lcd.c: 74:
      +                             for(i=0;str[i]!='\0';i++)
  1140  0CF1  01A0               	clrf	LCD_Write_String@i
  1141  0CF2  01A1               	clrf	LCD_Write_String@i+1
  1142  0CF3  2D09               	goto	l2297
  1143  0CF4                     l2293:
  1144                           
  1145                           ;lcd.c: 75:     LCD_Write_Char(str[i]);
  1146  0CF4  0820               	movf	LCD_Write_String@i,w
  1147  0CF5  0722               	addwf	LCD_Write_String@str,w
  1148  0CF6  0084               	movwf	4
  1149  0CF7  120A  158A  2000  120A  158A  	fcall	stringdir
  1150  0CFC  120A  158A  2602  120A  158A  	fcall	_LCD_Write_Char
  1151  0D01                     l2295:
  1152  0D01  3001               	movlw	1
  1153  0D02  1283               	bcf	3,5	;RP0=0, select bank0
  1154  0D03  1303               	bcf	3,6	;RP1=0, select bank0
  1155  0D04  07A0               	addwf	LCD_Write_String@i,f
  1156  0D05  1803               	skipnc
  1157  0D06  0AA1               	incf	LCD_Write_String@i+1,f
  1158  0D07  3000               	movlw	0
  1159  0D08  07A1               	addwf	LCD_Write_String@i+1,f
  1160  0D09                     l2297:
  1161  0D09  0820               	movf	LCD_Write_String@i,w
  1162  0D0A  0722               	addwf	LCD_Write_String@str,w
  1163  0D0B  0084               	movwf	4
  1164  0D0C  120A  158A  2000  120A  158A  	fcall	stringdir
  1165  0D11  3A00               	xorlw	0
  1166  0D12  1D03               	skipz
  1167  0D13  2D15               	goto	u2881
  1168  0D14  2D16               	goto	u2880
  1169  0D15                     u2881:
  1170  0D15  2CF4               	goto	l2293
  1171  0D16                     u2880:
  1172  0D16                     l160:
  1173  0D16  0008               	return
  1174  0D17                     __end_of_LCD_Write_String:
  1175                           
  1176                           	psect	text4
  1177  0F80                     __ptext4:	
  1178 ;; *************** function _LCD_Write_Number *****************
  1179 ;; Defined at:
  1180 ;;		line 90 in file "lcd.c"
  1181 ;; Parameters:    Size  Location     Type
  1182 ;;  number          2    7[BANK0 ] unsigned int 
  1183 ;; Auto vars:     Size  Location     Type
  1184 ;;  num            20   11[BANK0 ] unsigned int [10]
  1185 ;;  p               2   34[BANK0 ] int 
  1186 ;;  k               2   32[BANK0 ] int 
  1187 ;;  c               1   31[BANK0 ] unsigned char 
  1188 ;; Return value:  Size  Location     Type
  1189 ;;                  1    wreg      void 
  1190 ;; Registers used:
  1191 ;;		wreg, fsr0l, fsr0h, status,2, status,0, pclath, cstack
  1192 ;; Tracked objects:
  1193 ;;		On entry : 0/0
  1194 ;;		On exit  : 0/0
  1195 ;;		Unchanged: 0/0
  1196 ;; Data sizes:     COMMON   BANK0   BANK1   BANK3   BANK2
  1197 ;;      Params:         0       2       0       0       0
  1198 ;;      Locals:         0      25       0       0       0
  1199 ;;      Temps:          0       2       0       0       0
  1200 ;;      Totals:         0      29       0       0       0
  1201 ;;Total ram usage:       29 bytes
  1202 ;; Hardware stack levels used:    1
  1203 ;; Hardware stack levels required when called:    4
  1204 ;; This function calls:
  1205 ;;		_LCD_Write_Char
  1206 ;;		___lwdiv
  1207 ;;		___lwmod
  1208 ;; This function is called by:
  1209 ;;		_hien_thi
  1210 ;; This function uses a non-reentrant model
  1211 ;;
  1212                           
  1213                           
  1214                           ;psect for function _LCD_Write_Number
  1215  0F80                     _LCD_Write_Number:
  1216  0F80                     l2299:	
  1217                           ;incstack = 0
  1218                           ; Regs used in _LCD_Write_Number: [wreg-fsr0h+status,2+status,0+pclath+cstack]
  1219                           
  1220                           
  1221                           ;lcd.c: 95:     int k=0;
  1222  0F80  1283               	bcf	3,5	;RP0=0, select bank0
  1223  0F81  1303               	bcf	3,6	;RP1=0, select bank0
  1224  0F82  01C0               	clrf	LCD_Write_Number@k
  1225  0F83  01C1               	clrf	LCD_Write_Number@k+1
  1226  0F84                     l2301:
  1227                           
  1228                           ;lcd.c: 97:     if(number == 0)
  1229  0F84  0827               	movf	LCD_Write_Number@number,w
  1230  0F85  0428               	iorwf	LCD_Write_Number@number+1,w
  1231  0F86  1D03               	btfss	3,2
  1232  0F87  2F89               	goto	u2891
  1233  0F88  2F8A               	goto	u2890
  1234  0F89                     u2891:
  1235  0F89  2F96               	goto	l2307
  1236  0F8A                     u2890:
  1237  0F8A                     l2303:
  1238                           
  1239                           ;lcd.c: 98:     {;lcd.c: 99:         c = (char)(number + '0');
  1240  0F8A  0827               	movf	LCD_Write_Number@number,w
  1241  0F8B  3E30               	addlw	48
  1242  0F8C  00A9               	movwf	??_LCD_Write_Number
  1243  0F8D  0829               	movf	??_LCD_Write_Number,w
  1244  0F8E  00BF               	movwf	LCD_Write_Number@c
  1245  0F8F                     l2305:
  1246                           
  1247                           ;lcd.c: 100:         LCD_Write_Char(c);
  1248  0F8F  083F               	movf	LCD_Write_Number@c,w
  1249  0F90  120A  158A  2602  120A  158A  	fcall	_LCD_Write_Char
  1250                           
  1251                           ;lcd.c: 101:     }
  1252  0F95  2FFF               	goto	l177
  1253  0F96                     l2307:
  1254  0F96  0827               	movf	LCD_Write_Number@number,w
  1255  0F97  0428               	iorwf	LCD_Write_Number@number+1,w
  1256  0F98  1903               	btfsc	3,2
  1257  0F99  2F9B               	goto	u2901
  1258  0F9A  2F9C               	goto	u2900
  1259  0F9B                     u2901:
  1260  0F9B  2FFF               	goto	l177
  1261  0F9C                     u2900:
  1262  0F9C  2FD0               	goto	l2317
  1263  0F9D                     l2311:
  1264                           
  1265                           ;lcd.c: 105:         {;lcd.c: 106:         num[k]=number%10;
  1266  0F9D  300A               	movlw	10
  1267  0F9E  00F2               	movwf	___lwmod@divisor
  1268  0F9F  3000               	movlw	0
  1269  0FA0  00F3               	movwf	___lwmod@divisor+1
  1270  0FA1  0828               	movf	LCD_Write_Number@number+1,w
  1271  0FA2  00F5               	movwf	___lwmod@dividend+1
  1272  0FA3  0827               	movf	LCD_Write_Number@number,w
  1273  0FA4  00F4               	movwf	___lwmod@dividend
  1274  0FA5  120A  158A  2547  120A  158A  	fcall	___lwmod
  1275  0FAA  1283               	bcf	3,5	;RP0=0, select bank0
  1276  0FAB  1303               	bcf	3,6	;RP1=0, select bank0
  1277  0FAC  0840               	movf	LCD_Write_Number@k,w
  1278  0FAD  00A9               	movwf	??_LCD_Write_Number
  1279  0FAE  0729               	addwf	??_LCD_Write_Number,w
  1280  0FAF  3E2B               	addlw	(low (LCD_Write_Number@num| 0))& (0+255)
  1281  0FB0  0084               	movwf	4
  1282  0FB1  0872               	movf	?___lwmod,w
  1283  0FB2  1383               	bcf	3,7	;select IRP bank0
  1284  0FB3  0080               	movwf	0
  1285  0FB4  0A84               	incf	4,f
  1286  0FB5  0873               	movf	?___lwmod+1,w
  1287  0FB6  0080               	movwf	0
  1288  0FB7                     l2313:
  1289                           
  1290                           ;lcd.c: 107:         number = number/10;
  1291  0FB7  300A               	movlw	10
  1292  0FB8  00A0               	movwf	___lwdiv@divisor
  1293  0FB9  3000               	movlw	0
  1294  0FBA  00A1               	movwf	___lwdiv@divisor+1
  1295  0FBB  0828               	movf	LCD_Write_Number@number+1,w
  1296  0FBC  00A3               	movwf	___lwdiv@dividend+1
  1297  0FBD  0827               	movf	LCD_Write_Number@number,w
  1298  0FBE  00A2               	movwf	___lwdiv@dividend
  1299  0FBF  120A  158A  25BC  120A  158A  	fcall	___lwdiv
  1300  0FC4  1283               	bcf	3,5	;RP0=0, select bank0
  1301  0FC5  1303               	bcf	3,6	;RP1=0, select bank0
  1302  0FC6  0821               	movf	?___lwdiv+1,w
  1303  0FC7  00A8               	movwf	LCD_Write_Number@number+1
  1304  0FC8  0820               	movf	?___lwdiv,w
  1305  0FC9  00A7               	movwf	LCD_Write_Number@number
  1306  0FCA                     l2315:
  1307                           
  1308                           ;lcd.c: 108:         k++;
  1309  0FCA  3001               	movlw	1
  1310  0FCB  07C0               	addwf	LCD_Write_Number@k,f
  1311  0FCC  1803               	skipnc
  1312  0FCD  0AC1               	incf	LCD_Write_Number@k+1,f
  1313  0FCE  3000               	movlw	0
  1314  0FCF  07C1               	addwf	LCD_Write_Number@k+1,f
  1315  0FD0                     l2317:
  1316                           
  1317                           ;lcd.c: 104:         while(number>0)
  1318  0FD0  0827               	movf	LCD_Write_Number@number,w
  1319  0FD1  0428               	iorwf	LCD_Write_Number@number+1,w
  1320  0FD2  1D03               	btfss	3,2
  1321  0FD3  2FD5               	goto	u2911
  1322  0FD4  2FD6               	goto	u2910
  1323  0FD5                     u2911:
  1324  0FD5  2F9D               	goto	l2311
  1325  0FD6                     u2910:
  1326  0FD6                     l2319:
  1327                           
  1328                           ;lcd.c: 111:         k--;
  1329  0FD6  30FF               	movlw	255
  1330  0FD7  07C0               	addwf	LCD_Write_Number@k,f
  1331  0FD8  1803               	skipnc
  1332  0FD9  0AC1               	incf	LCD_Write_Number@k+1,f
  1333  0FDA  30FF               	movlw	255
  1334  0FDB  07C1               	addwf	LCD_Write_Number@k+1,f
  1335                           
  1336                           ;lcd.c: 112:         for(p=k; p>=0; p--)
  1337  0FDC  0841               	movf	LCD_Write_Number@k+1,w
  1338  0FDD  00C3               	movwf	LCD_Write_Number@p+1
  1339  0FDE  0840               	movf	LCD_Write_Number@k,w
  1340  0FDF  00C2               	movwf	LCD_Write_Number@p
  1341  0FE0                     l2321:
  1342  0FE0  1FC3               	btfss	LCD_Write_Number@p+1,7
  1343  0FE1  2FE3               	goto	u2921
  1344  0FE2  2FE4               	goto	u2920
  1345  0FE3                     u2921:
  1346  0FE3  2FE5               	goto	l2325
  1347  0FE4                     u2920:
  1348  0FE4  2FFF               	goto	l177
  1349  0FE5                     l2325:
  1350                           
  1351                           ;lcd.c: 113:         {;lcd.c: 114:             c = (char)(num[p] + '0');
  1352  0FE5  0842               	movf	LCD_Write_Number@p,w
  1353  0FE6  00A9               	movwf	??_LCD_Write_Number
  1354  0FE7  0729               	addwf	??_LCD_Write_Number,w
  1355  0FE8  3E2B               	addlw	(low (LCD_Write_Number@num| 0))& (0+255)
  1356  0FE9  0084               	movwf	4
  1357  0FEA  1383               	bcf	3,7	;select IRP bank0
  1358  0FEB  0800               	movf	0,w
  1359  0FEC  3E30               	addlw	48
  1360  0FED  00AA               	movwf	??_LCD_Write_Number+1
  1361  0FEE  082A               	movf	??_LCD_Write_Number+1,w
  1362  0FEF  00BF               	movwf	LCD_Write_Number@c
  1363  0FF0                     l2327:
  1364                           
  1365                           ;lcd.c: 115:             LCD_Write_Char(c);
  1366  0FF0  083F               	movf	LCD_Write_Number@c,w
  1367  0FF1  120A  158A  2602  120A  158A  	fcall	_LCD_Write_Char
  1368  0FF6                     l2329:
  1369                           
  1370                           ;lcd.c: 116:         }
  1371  0FF6  30FF               	movlw	255
  1372  0FF7  1283               	bcf	3,5	;RP0=0, select bank0
  1373  0FF8  1303               	bcf	3,6	;RP1=0, select bank0
  1374  0FF9  07C2               	addwf	LCD_Write_Number@p,f
  1375  0FFA  1803               	skipnc
  1376  0FFB  0AC3               	incf	LCD_Write_Number@p+1,f
  1377  0FFC  30FF               	movlw	255
  1378  0FFD  07C3               	addwf	LCD_Write_Number@p+1,f
  1379  0FFE  2FE0               	goto	l2321
  1380  0FFF                     l177:
  1381  0FFF  0008               	return
  1382  1000                     __end_of_LCD_Write_Number:
  1383                           
  1384                           	psect	text5
  1385  0D47                     __ptext5:	
  1386 ;; *************** function ___lwmod *****************
  1387 ;; Defined at:
  1388 ;;		line 5 in file "C:\Program Files\Microchip\xc8\v2.30\pic\sources\c90\common\lwmod.c"
  1389 ;; Parameters:    Size  Location     Type
  1390 ;;  divisor         2    2[COMMON] unsigned int 
  1391 ;;  dividend        2    4[COMMON] unsigned int 
  1392 ;; Auto vars:     Size  Location     Type
  1393 ;;  counter         1    7[COMMON] unsigned char 
  1394 ;; Return value:  Size  Location     Type
  1395 ;;                  2    2[COMMON] unsigned int 
  1396 ;; Registers used:
  1397 ;;		wreg, status,2, status,0
  1398 ;; Tracked objects:
  1399 ;;		On entry : 0/0
  1400 ;;		On exit  : 0/0
  1401 ;;		Unchanged: 0/0
  1402 ;; Data sizes:     COMMON   BANK0   BANK1   BANK3   BANK2
  1403 ;;      Params:         4       0       0       0       0
  1404 ;;      Locals:         1       0       0       0       0
  1405 ;;      Temps:          1       0       0       0       0
  1406 ;;      Totals:         6       0       0       0       0
  1407 ;;Total ram usage:        6 bytes
  1408 ;; Hardware stack levels used:    1
  1409 ;; Hardware stack levels required when called:    2
  1410 ;; This function calls:
  1411 ;;		Nothing
  1412 ;; This function is called by:
  1413 ;;		_hien_thi
  1414 ;;		_LCD_Write_Number
  1415 ;; This function uses a non-reentrant model
  1416 ;;
  1417                           
  1418                           
  1419                           ;psect for function ___lwmod
  1420  0D47                     ___lwmod:
  1421  0D47                     l1555:	
  1422                           ;incstack = 0
  1423                           ; Regs used in ___lwmod: [wreg+status,2+status,0]
  1424                           
  1425  0D47  0872               	movf	___lwmod@divisor,w
  1426  0D48  0473               	iorwf	___lwmod@divisor+1,w
  1427  0D49  1903               	btfsc	3,2
  1428  0D4A  2D4C               	goto	u1471
  1429  0D4B  2D4D               	goto	u1470
  1430  0D4C                     u1471:
  1431  0D4C  2D7C               	goto	l1573
  1432  0D4D                     u1470:
  1433  0D4D                     l1557:
  1434  0D4D  01F7               	clrf	___lwmod@counter
  1435  0D4E  0AF7               	incf	___lwmod@counter,f
  1436  0D4F  2D5B               	goto	l1563
  1437  0D50                     l1559:
  1438  0D50  3001               	movlw	1
  1439  0D51                     u1485:
  1440  0D51  1003               	clrc
  1441  0D52  0DF2               	rlf	___lwmod@divisor,f
  1442  0D53  0DF3               	rlf	___lwmod@divisor+1,f
  1443  0D54  3EFF               	addlw	-1
  1444  0D55  1D03               	skipz
  1445  0D56  2D51               	goto	u1485
  1446  0D57                     l1561:
  1447  0D57  3001               	movlw	1
  1448  0D58  00F6               	movwf	??___lwmod
  1449  0D59  0876               	movf	??___lwmod,w
  1450  0D5A  07F7               	addwf	___lwmod@counter,f
  1451  0D5B                     l1563:
  1452  0D5B  1FF3               	btfss	___lwmod@divisor+1,7
  1453  0D5C  2D5E               	goto	u1491
  1454  0D5D  2D5F               	goto	u1490
  1455  0D5E                     u1491:
  1456  0D5E  2D50               	goto	l1559
  1457  0D5F                     u1490:
  1458  0D5F                     l1565:
  1459  0D5F  0873               	movf	___lwmod@divisor+1,w
  1460  0D60  0275               	subwf	___lwmod@dividend+1,w
  1461  0D61  1D03               	skipz
  1462  0D62  2D65               	goto	u1505
  1463  0D63  0872               	movf	___lwmod@divisor,w
  1464  0D64  0274               	subwf	___lwmod@dividend,w
  1465  0D65                     u1505:
  1466  0D65  1C03               	skipc
  1467  0D66  2D68               	goto	u1501
  1468  0D67  2D69               	goto	u1500
  1469  0D68                     u1501:
  1470  0D68  2D6F               	goto	l1569
  1471  0D69                     u1500:
  1472  0D69                     l1567:
  1473  0D69  0872               	movf	___lwmod@divisor,w
  1474  0D6A  02F4               	subwf	___lwmod@dividend,f
  1475  0D6B  0873               	movf	___lwmod@divisor+1,w
  1476  0D6C  1C03               	skipc
  1477  0D6D  03F5               	decf	___lwmod@dividend+1,f
  1478  0D6E  02F5               	subwf	___lwmod@dividend+1,f
  1479  0D6F                     l1569:
  1480  0D6F  3001               	movlw	1
  1481  0D70                     u1515:
  1482  0D70  1003               	clrc
  1483  0D71  0CF3               	rrf	___lwmod@divisor+1,f
  1484  0D72  0CF2               	rrf	___lwmod@divisor,f
  1485  0D73  3EFF               	addlw	-1
  1486  0D74  1D03               	skipz
  1487  0D75  2D70               	goto	u1515
  1488  0D76                     l1571:
  1489  0D76  3001               	movlw	1
  1490  0D77  02F7               	subwf	___lwmod@counter,f
  1491  0D78  1D03               	btfss	3,2
  1492  0D79  2D7B               	goto	u1521
  1493  0D7A  2D7C               	goto	u1520
  1494  0D7B                     u1521:
  1495  0D7B  2D5F               	goto	l1565
  1496  0D7C                     u1520:
  1497  0D7C                     l1573:
  1498  0D7C  0875               	movf	___lwmod@dividend+1,w
  1499  0D7D  00F3               	movwf	?___lwmod+1
  1500  0D7E  0874               	movf	___lwmod@dividend,w
  1501  0D7F  00F2               	movwf	?___lwmod
  1502  0D80                     l559:
  1503  0D80  0008               	return
  1504  0D81                     __end_of___lwmod:
  1505                           
  1506                           	psect	text6
  1507  0DBC                     __ptext6:	
  1508 ;; *************** function ___lwdiv *****************
  1509 ;; Defined at:
  1510 ;;		line 5 in file "C:\Program Files\Microchip\xc8\v2.30\pic\sources\c90\common\lwdiv.c"
  1511 ;; Parameters:    Size  Location     Type
  1512 ;;  divisor         2    0[BANK0 ] unsigned int 
  1513 ;;  dividend        2    2[BANK0 ] unsigned int 
  1514 ;; Auto vars:     Size  Location     Type
  1515 ;;  quotient        2    5[BANK0 ] unsigned int 
  1516 ;;  counter         1    4[BANK0 ] unsigned char 
  1517 ;; Return value:  Size  Location     Type
  1518 ;;                  2    0[BANK0 ] unsigned int 
  1519 ;; Registers used:
  1520 ;;		wreg, status,2, status,0
  1521 ;; Tracked objects:
  1522 ;;		On entry : 0/0
  1523 ;;		On exit  : 0/0
  1524 ;;		Unchanged: 0/0
  1525 ;; Data sizes:     COMMON   BANK0   BANK1   BANK3   BANK2
  1526 ;;      Params:         0       4       0       0       0
  1527 ;;      Locals:         0       3       0       0       0
  1528 ;;      Temps:          1       0       0       0       0
  1529 ;;      Totals:         1       7       0       0       0
  1530 ;;Total ram usage:        8 bytes
  1531 ;; Hardware stack levels used:    1
  1532 ;; Hardware stack levels required when called:    2
  1533 ;; This function calls:
  1534 ;;		Nothing
  1535 ;; This function is called by:
  1536 ;;		_hien_thi
  1537 ;;		_LCD_Write_Number
  1538 ;; This function uses a non-reentrant model
  1539 ;;
  1540                           
  1541                           
  1542                           ;psect for function ___lwdiv
  1543  0DBC                     ___lwdiv:
  1544  0DBC                     l2231:	
  1545                           ;incstack = 0
  1546                           ; Regs used in ___lwdiv: [wreg+status,2+status,0]
  1547                           
  1548  0DBC  1283               	bcf	3,5	;RP0=0, select bank0
  1549  0DBD  1303               	bcf	3,6	;RP1=0, select bank0
  1550  0DBE  01A5               	clrf	___lwdiv@quotient
  1551  0DBF  01A6               	clrf	___lwdiv@quotient+1
  1552  0DC0                     l2233:
  1553  0DC0  0820               	movf	___lwdiv@divisor,w
  1554  0DC1  0421               	iorwf	___lwdiv@divisor+1,w
  1555  0DC2  1903               	btfsc	3,2
  1556  0DC3  2DC5               	goto	u2741
  1557  0DC4  2DC6               	goto	u2740
  1558  0DC5                     u2741:
  1559  0DC5  2DFD               	goto	l2253
  1560  0DC6                     u2740:
  1561  0DC6                     l2235:
  1562  0DC6  01A4               	clrf	___lwdiv@counter
  1563  0DC7  0AA4               	incf	___lwdiv@counter,f
  1564  0DC8  2DD4               	goto	l2241
  1565  0DC9                     l2237:
  1566  0DC9  3001               	movlw	1
  1567  0DCA                     u2755:
  1568  0DCA  1003               	clrc
  1569  0DCB  0DA0               	rlf	___lwdiv@divisor,f
  1570  0DCC  0DA1               	rlf	___lwdiv@divisor+1,f
  1571  0DCD  3EFF               	addlw	-1
  1572  0DCE  1D03               	skipz
  1573  0DCF  2DCA               	goto	u2755
  1574  0DD0                     l2239:
  1575  0DD0  3001               	movlw	1
  1576  0DD1  00F8               	movwf	??___lwdiv
  1577  0DD2  0878               	movf	??___lwdiv,w
  1578  0DD3  07A4               	addwf	___lwdiv@counter,f
  1579  0DD4                     l2241:
  1580  0DD4  1FA1               	btfss	___lwdiv@divisor+1,7
  1581  0DD5  2DD7               	goto	u2761
  1582  0DD6  2DD8               	goto	u2760
  1583  0DD7                     u2761:
  1584  0DD7  2DC9               	goto	l2237
  1585  0DD8                     u2760:
  1586  0DD8                     l2243:
  1587  0DD8  3001               	movlw	1
  1588  0DD9                     u2775:
  1589  0DD9  1003               	clrc
  1590  0DDA  0DA5               	rlf	___lwdiv@quotient,f
  1591  0DDB  0DA6               	rlf	___lwdiv@quotient+1,f
  1592  0DDC  3EFF               	addlw	-1
  1593  0DDD  1D03               	skipz
  1594  0DDE  2DD9               	goto	u2775
  1595  0DDF  0821               	movf	___lwdiv@divisor+1,w
  1596  0DE0  0223               	subwf	___lwdiv@dividend+1,w
  1597  0DE1  1D03               	skipz
  1598  0DE2  2DE5               	goto	u2785
  1599  0DE3  0820               	movf	___lwdiv@divisor,w
  1600  0DE4  0222               	subwf	___lwdiv@dividend,w
  1601  0DE5                     u2785:
  1602  0DE5  1C03               	skipc
  1603  0DE6  2DE8               	goto	u2781
  1604  0DE7  2DE9               	goto	u2780
  1605  0DE8                     u2781:
  1606  0DE8  2DF0               	goto	l2249
  1607  0DE9                     u2780:
  1608  0DE9                     l2245:
  1609  0DE9  0820               	movf	___lwdiv@divisor,w
  1610  0DEA  02A2               	subwf	___lwdiv@dividend,f
  1611  0DEB  0821               	movf	___lwdiv@divisor+1,w
  1612  0DEC  1C03               	skipc
  1613  0DED  03A3               	decf	___lwdiv@dividend+1,f
  1614  0DEE  02A3               	subwf	___lwdiv@dividend+1,f
  1615  0DEF                     l2247:
  1616  0DEF  1425               	bsf	___lwdiv@quotient,0
  1617  0DF0                     l2249:
  1618  0DF0  3001               	movlw	1
  1619  0DF1                     u2795:
  1620  0DF1  1003               	clrc
  1621  0DF2  0CA1               	rrf	___lwdiv@divisor+1,f
  1622  0DF3  0CA0               	rrf	___lwdiv@divisor,f
  1623  0DF4  3EFF               	addlw	-1
  1624  0DF5  1D03               	skipz
  1625  0DF6  2DF1               	goto	u2795
  1626  0DF7                     l2251:
  1627  0DF7  3001               	movlw	1
  1628  0DF8  02A4               	subwf	___lwdiv@counter,f
  1629  0DF9  1D03               	btfss	3,2
  1630  0DFA  2DFC               	goto	u2801
  1631  0DFB  2DFD               	goto	u2800
  1632  0DFC                     u2801:
  1633  0DFC  2DD8               	goto	l2243
  1634  0DFD                     u2800:
  1635  0DFD                     l2253:
  1636  0DFD  0826               	movf	___lwdiv@quotient+1,w
  1637  0DFE  00A1               	movwf	?___lwdiv+1
  1638  0DFF  0825               	movf	___lwdiv@quotient,w
  1639  0E00  00A0               	movwf	?___lwdiv
  1640  0E01                     l549:
  1641  0E01  0008               	return
  1642  0E02                     __end_of___lwdiv:
  1643                           
  1644                           	psect	text7
  1645  0E02                     __ptext7:	
  1646 ;; *************** function _LCD_Write_Char *****************
  1647 ;; Defined at:
  1648 ;;		line 54 in file "lcd.c"
  1649 ;; Parameters:    Size  Location     Type
  1650 ;;  Data            1    wreg     unsigned char 
  1651 ;; Auto vars:     Size  Location     Type
  1652 ;;  Data            1    7[COMMON] unsigned char 
  1653 ;;  High4           1    6[COMMON] unsigned char 
  1654 ;;  Low4            1    5[COMMON] unsigned char 
  1655 ;; Return value:  Size  Location     Type
  1656 ;;                  1    wreg      void 
  1657 ;; Registers used:
  1658 ;;		wreg, status,2, status,0, pclath, cstack
  1659 ;; Tracked objects:
  1660 ;;		On entry : 0/0
  1661 ;;		On exit  : 0/0
  1662 ;;		Unchanged: 0/0
  1663 ;; Data sizes:     COMMON   BANK0   BANK1   BANK3   BANK2
  1664 ;;      Params:         0       0       0       0       0
  1665 ;;      Locals:         3       0       0       0       0
  1666 ;;      Temps:          2       0       0       0       0
  1667 ;;      Totals:         5       0       0       0       0
  1668 ;;Total ram usage:        5 bytes
  1669 ;; Hardware stack levels used:    1
  1670 ;; Hardware stack levels required when called:    3
  1671 ;; This function calls:
  1672 ;;		_LCD_DATA
  1673 ;; This function is called by:
  1674 ;;		_hien_thi
  1675 ;;		_LCD_Write_String
  1676 ;;		_LCD_Write_Number
  1677 ;; This function uses a non-reentrant model
  1678 ;;
  1679                           
  1680                           
  1681                           ;psect for function _LCD_Write_Char
  1682  0E02                     _LCD_Write_Char:
  1683                           
  1684                           ;incstack = 0
  1685                           ; Regs used in _LCD_Write_Char: [wreg+status,2+status,0+pclath+cstack]
  1686                           ;LCD_Write_Char@Data stored from wreg
  1687  0E02  00F7               	movwf	LCD_Write_Char@Data
  1688  0E03                     l2197:
  1689                           
  1690                           ;lcd.c: 54: void LCD_Write_Char(char Data);lcd.c: 55: {;lcd.c: 56:   char Low4,High4;;lc
      +                          d.c: 57:   Low4 = Data & 0x0F;
  1691  0E03  0877               	movf	LCD_Write_Char@Data,w
  1692  0E04  390F               	andlw	15
  1693  0E05  00F3               	movwf	??_LCD_Write_Char
  1694  0E06  0873               	movf	??_LCD_Write_Char,w
  1695  0E07  00F5               	movwf	LCD_Write_Char@Low4
  1696                           
  1697                           ;lcd.c: 58:   High4 = Data & 0xF0;
  1698  0E08  0877               	movf	LCD_Write_Char@Data,w
  1699  0E09  39F0               	andlw	240
  1700  0E0A  00F3               	movwf	??_LCD_Write_Char
  1701  0E0B  0873               	movf	??_LCD_Write_Char,w
  1702  0E0C  00F6               	movwf	LCD_Write_Char@High4
  1703  0E0D                     l2199:
  1704                           
  1705                           ;lcd.c: 59:   RD2 = 1;
  1706  0E0D  1283               	bcf	3,5	;RP0=0, select bank0
  1707  0E0E  1303               	bcf	3,6	;RP1=0, select bank0
  1708  0E0F  1508               	bsf	8,2	;volatile
  1709  0E10                     l2201:
  1710                           
  1711                           ;lcd.c: 60:   LCD_DATA(High4>>4);
  1712  0E10  0876               	movf	LCD_Write_Char@High4,w
  1713  0E11  00F3               	movwf	??_LCD_Write_Char
  1714  0E12  3004               	movlw	4
  1715  0E13                     u2735:
  1716  0E13  1003               	clrc
  1717  0E14  0CF3               	rrf	??_LCD_Write_Char,f
  1718  0E15  3EFF               	addlw	-1
  1719  0E16  1D03               	skipz
  1720  0E17  2E13               	goto	u2735
  1721  0E18  0873               	movf	??_LCD_Write_Char,w
  1722  0E19  120A  158A  2481  120A  158A  	fcall	_LCD_DATA
  1723  0E1E                     l2203:
  1724                           
  1725                           ;lcd.c: 61:   RD3 = 1;
  1726  0E1E  1283               	bcf	3,5	;RP0=0, select bank0
  1727  0E1F  1303               	bcf	3,6	;RP1=0, select bank0
  1728  0E20  1588               	bsf	8,3	;volatile
  1729  0E21                     l2205:
  1730                           
  1731                           ;lcd.c: 62:   _delay((unsigned long)((500)*(16000000/4000000.0)));
  1732  0E21  3003               	movlw	3
  1733  0E22  00F4               	movwf	??_LCD_Write_Char+1
  1734  0E23  3097               	movlw	151
  1735  0E24  00F3               	movwf	??_LCD_Write_Char
  1736  0E25                     u3307:
  1737  0E25  0BF3               	decfsz	??_LCD_Write_Char,f
  1738  0E26  2E25               	goto	u3307
  1739  0E27  0BF4               	decfsz	??_LCD_Write_Char+1,f
  1740  0E28  2E25               	goto	u3307
  1741  0E29  2E2A               	nop2
  1742  0E2A                     l2207:
  1743                           
  1744                           ;lcd.c: 63:   RD3 = 0;
  1745  0E2A  1283               	bcf	3,5	;RP0=0, select bank0
  1746  0E2B  1303               	bcf	3,6	;RP1=0, select bank0
  1747  0E2C  1188               	bcf	8,3	;volatile
  1748  0E2D                     l2209:
  1749                           
  1750                           ;lcd.c: 64:   _delay((unsigned long)((500)*(16000000/4000000.0)));
  1751  0E2D  3003               	movlw	3
  1752  0E2E  00F4               	movwf	??_LCD_Write_Char+1
  1753  0E2F  3097               	movlw	151
  1754  0E30  00F3               	movwf	??_LCD_Write_Char
  1755  0E31                     u3317:
  1756  0E31  0BF3               	decfsz	??_LCD_Write_Char,f
  1757  0E32  2E31               	goto	u3317
  1758  0E33  0BF4               	decfsz	??_LCD_Write_Char+1,f
  1759  0E34  2E31               	goto	u3317
  1760  0E35  2E36               	nop2
  1761  0E36                     l2211:
  1762                           
  1763                           ;lcd.c: 65:   LCD_DATA(Low4);
  1764  0E36  0875               	movf	LCD_Write_Char@Low4,w
  1765  0E37  120A  158A  2481  120A  158A  	fcall	_LCD_DATA
  1766  0E3C                     l2213:
  1767                           
  1768                           ;lcd.c: 66:   RD3 = 1;
  1769  0E3C  1283               	bcf	3,5	;RP0=0, select bank0
  1770  0E3D  1303               	bcf	3,6	;RP1=0, select bank0
  1771  0E3E  1588               	bsf	8,3	;volatile
  1772  0E3F                     l2215:
  1773                           
  1774                           ;lcd.c: 67:   _delay((unsigned long)((500)*(16000000/4000000.0)));
  1775  0E3F  3003               	movlw	3
  1776  0E40  00F4               	movwf	??_LCD_Write_Char+1
  1777  0E41  3097               	movlw	151
  1778  0E42  00F3               	movwf	??_LCD_Write_Char
  1779  0E43                     u3327:
  1780  0E43  0BF3               	decfsz	??_LCD_Write_Char,f
  1781  0E44  2E43               	goto	u3327
  1782  0E45  0BF4               	decfsz	??_LCD_Write_Char+1,f
  1783  0E46  2E43               	goto	u3327
  1784  0E47  2E48               	nop2
  1785  0E48                     l2217:
  1786                           
  1787                           ;lcd.c: 68:   RD3 = 0;
  1788  0E48  1283               	bcf	3,5	;RP0=0, select bank0
  1789  0E49  1303               	bcf	3,6	;RP1=0, select bank0
  1790  0E4A  1188               	bcf	8,3	;volatile
  1791  0E4B                     l2219:
  1792                           
  1793                           ;lcd.c: 69:   _delay((unsigned long)((500)*(16000000/4000000.0)));
  1794  0E4B  3003               	movlw	3
  1795  0E4C  00F4               	movwf	??_LCD_Write_Char+1
  1796  0E4D  3097               	movlw	151
  1797  0E4E  00F3               	movwf	??_LCD_Write_Char
  1798  0E4F                     u3337:
  1799  0E4F  0BF3               	decfsz	??_LCD_Write_Char,f
  1800  0E50  2E4F               	goto	u3337
  1801  0E51  0BF4               	decfsz	??_LCD_Write_Char+1,f
  1802  0E52  2E4F               	goto	u3337
  1803  0E53  2E54               	nop2
  1804  0E54                     l154:
  1805  0E54  0008               	return
  1806  0E55                     __end_of_LCD_Write_Char:
  1807                           
  1808                           	psect	text8
  1809  0EAC                     __ptext8:	
  1810 ;; *************** function _LCD_Set_Cursor *****************
  1811 ;; Defined at:
  1812 ;;		line 33 in file "lcd.c"
  1813 ;; Parameters:    Size  Location     Type
  1814 ;;  r               1    wreg     unsigned char 
  1815 ;;  c               1    6[COMMON] unsigned char 
  1816 ;; Auto vars:     Size  Location     Type
  1817 ;;  r               1    0[BANK0 ] unsigned char 
  1818 ;;  Temp            1    3[BANK0 ] unsigned char 
  1819 ;;  High4           1    2[BANK0 ] unsigned char 
  1820 ;;  Low4            1    1[BANK0 ] unsigned char 
  1821 ;; Return value:  Size  Location     Type
  1822 ;;                  1    wreg      void 
  1823 ;; Registers used:
  1824 ;;		wreg, status,2, status,0, pclath, cstack
  1825 ;; Tracked objects:
  1826 ;;		On entry : 0/0
  1827 ;;		On exit  : 0/0
  1828 ;;		Unchanged: 0/0
  1829 ;; Data sizes:     COMMON   BANK0   BANK1   BANK3   BANK2
  1830 ;;      Params:         1       0       0       0       0
  1831 ;;      Locals:         0       4       0       0       0
  1832 ;;      Temps:          2       0       0       0       0
  1833 ;;      Totals:         3       4       0       0       0
  1834 ;;Total ram usage:        7 bytes
  1835 ;; Hardware stack levels used:    1
  1836 ;; Hardware stack levels required when called:    4
  1837 ;; This function calls:
  1838 ;;		_LCD_CMD
  1839 ;; This function is called by:
  1840 ;;		_hien_thi
  1841 ;; This function uses a non-reentrant model
  1842 ;;
  1843                           
  1844                           
  1845                           ;psect for function _LCD_Set_Cursor
  1846  0EAC                     _LCD_Set_Cursor:
  1847                           
  1848                           ;incstack = 0
  1849                           ; Regs used in _LCD_Set_Cursor: [wreg+status,2+status,0+pclath+cstack]
  1850                           ;LCD_Set_Cursor@r stored from wreg
  1851  0EAC  1283               	bcf	3,5	;RP0=0, select bank0
  1852  0EAD  1303               	bcf	3,6	;RP1=0, select bank0
  1853  0EAE  00A0               	movwf	LCD_Set_Cursor@r
  1854  0EAF                     l2271:
  1855                           
  1856                           ;lcd.c: 33: void LCD_Set_Cursor(unsigned char r, unsigned char c);lcd.c: 34: {;lcd.c: 35
      +                          :   unsigned char Temp,Low4,High4;;lcd.c: 36:   if(r == 1)
  1857  0EAF  0320               	decf	LCD_Set_Cursor@r,w
  1858  0EB0  1D03               	btfss	3,2
  1859  0EB1  2EB3               	goto	u2841
  1860  0EB2  2EB4               	goto	u2840
  1861  0EB3                     u2841:
  1862  0EB3  2ED9               	goto	l2281
  1863  0EB4                     u2840:
  1864  0EB4                     l2273:
  1865                           
  1866                           ;lcd.c: 37:   {;lcd.c: 38:     Temp = 0x80 + c - 1;
  1867  0EB4  0876               	movf	LCD_Set_Cursor@c,w
  1868  0EB5  3E7F               	addlw	127
  1869  0EB6  00F7               	movwf	??_LCD_Set_Cursor
  1870  0EB7  0877               	movf	??_LCD_Set_Cursor,w
  1871  0EB8  00A3               	movwf	LCD_Set_Cursor@Temp
  1872                           
  1873                           ;lcd.c: 39:     High4 = Temp >> 4;
  1874  0EB9  0823               	movf	LCD_Set_Cursor@Temp,w
  1875  0EBA  00F7               	movwf	??_LCD_Set_Cursor
  1876  0EBB  3004               	movlw	4
  1877  0EBC                     u2855:
  1878  0EBC  1003               	clrc
  1879  0EBD  0CF7               	rrf	??_LCD_Set_Cursor,f
  1880  0EBE  3EFF               	addlw	-1
  1881  0EBF  1D03               	skipz
  1882  0EC0  2EBC               	goto	u2855
  1883  0EC1  0877               	movf	??_LCD_Set_Cursor,w
  1884  0EC2  00F8               	movwf	??_LCD_Set_Cursor+1
  1885  0EC3  0878               	movf	??_LCD_Set_Cursor+1,w
  1886  0EC4  00A2               	movwf	LCD_Set_Cursor@High4
  1887  0EC5                     l2275:
  1888                           
  1889                           ;lcd.c: 40:     Low4 = Temp & 0x0F;
  1890  0EC5  0823               	movf	LCD_Set_Cursor@Temp,w
  1891  0EC6  390F               	andlw	15
  1892  0EC7  00F7               	movwf	??_LCD_Set_Cursor
  1893  0EC8  0877               	movf	??_LCD_Set_Cursor,w
  1894  0EC9  00A1               	movwf	LCD_Set_Cursor@Low4
  1895  0ECA                     l2277:
  1896                           
  1897                           ;lcd.c: 41:     LCD_CMD(High4);
  1898  0ECA  0822               	movf	LCD_Set_Cursor@High4,w
  1899  0ECB  120A  158A  2467  120A  158A  	fcall	_LCD_CMD
  1900  0ED0                     l2279:
  1901                           
  1902                           ;lcd.c: 42:     LCD_CMD(Low4);
  1903  0ED0  1283               	bcf	3,5	;RP0=0, select bank0
  1904  0ED1  1303               	bcf	3,6	;RP1=0, select bank0
  1905  0ED2  0821               	movf	LCD_Set_Cursor@Low4,w
  1906  0ED3  120A  158A  2467  120A  158A  	fcall	_LCD_CMD
  1907                           
  1908                           ;lcd.c: 43:   }
  1909  0ED8  2F03               	goto	l151
  1910  0ED9                     l2281:
  1911  0ED9  3002               	movlw	2
  1912  0EDA  0620               	xorwf	LCD_Set_Cursor@r,w
  1913  0EDB  1D03               	btfss	3,2
  1914  0EDC  2EDE               	goto	u2861
  1915  0EDD  2EDF               	goto	u2860
  1916  0EDE                     u2861:
  1917  0EDE  2F03               	goto	l151
  1918  0EDF                     u2860:
  1919  0EDF                     l2283:
  1920                           
  1921                           ;lcd.c: 45:   {;lcd.c: 46:     Temp = 0xC0 + c - 1;
  1922  0EDF  0876               	movf	LCD_Set_Cursor@c,w
  1923  0EE0  3EBF               	addlw	191
  1924  0EE1  00F7               	movwf	??_LCD_Set_Cursor
  1925  0EE2  0877               	movf	??_LCD_Set_Cursor,w
  1926  0EE3  00A3               	movwf	LCD_Set_Cursor@Temp
  1927                           
  1928                           ;lcd.c: 47:     High4 = Temp >> 4;
  1929  0EE4  0823               	movf	LCD_Set_Cursor@Temp,w
  1930  0EE5  00F7               	movwf	??_LCD_Set_Cursor
  1931  0EE6  3004               	movlw	4
  1932  0EE7                     u2875:
  1933  0EE7  1003               	clrc
  1934  0EE8  0CF7               	rrf	??_LCD_Set_Cursor,f
  1935  0EE9  3EFF               	addlw	-1
  1936  0EEA  1D03               	skipz
  1937  0EEB  2EE7               	goto	u2875
  1938  0EEC  0877               	movf	??_LCD_Set_Cursor,w
  1939  0EED  00F8               	movwf	??_LCD_Set_Cursor+1
  1940  0EEE  0878               	movf	??_LCD_Set_Cursor+1,w
  1941  0EEF  00A2               	movwf	LCD_Set_Cursor@High4
  1942  0EF0                     l2285:
  1943                           
  1944                           ;lcd.c: 48:     Low4 = Temp & 0x0F;
  1945  0EF0  0823               	movf	LCD_Set_Cursor@Temp,w
  1946  0EF1  390F               	andlw	15
  1947  0EF2  00F7               	movwf	??_LCD_Set_Cursor
  1948  0EF3  0877               	movf	??_LCD_Set_Cursor,w
  1949  0EF4  00A1               	movwf	LCD_Set_Cursor@Low4
  1950  0EF5                     l2287:
  1951                           
  1952                           ;lcd.c: 49:     LCD_CMD(High4);
  1953  0EF5  0822               	movf	LCD_Set_Cursor@High4,w
  1954  0EF6  120A  158A  2467  120A  158A  	fcall	_LCD_CMD
  1955  0EFB                     l2289:
  1956                           
  1957                           ;lcd.c: 50:     LCD_CMD(Low4);
  1958  0EFB  1283               	bcf	3,5	;RP0=0, select bank0
  1959  0EFC  1303               	bcf	3,6	;RP1=0, select bank0
  1960  0EFD  0821               	movf	LCD_Set_Cursor@Low4,w
  1961  0EFE  120A  158A  2467  120A  158A  	fcall	_LCD_CMD
  1962  0F03                     l151:
  1963  0F03  0008               	return
  1964  0F04                     __end_of_LCD_Set_Cursor:
  1965                           
  1966                           	psect	text9
  1967  06E9                     __ptext9:	
  1968 ;; *************** function _do_luong *****************
  1969 ;; Defined at:
  1970 ;;		line 108 in file "main_dc_volt.c"
  1971 ;; Parameters:    Size  Location     Type
  1972 ;;		None
  1973 ;; Auto vars:     Size  Location     Type
  1974 ;;		None
  1975 ;; Return value:  Size  Location     Type
  1976 ;;                  1    wreg      void 
  1977 ;; Registers used:
  1978 ;;		wreg, fsr0l, fsr0h, status,2, status,0, btemp+1, pclath, cstack
  1979 ;; Tracked objects:
  1980 ;;		On entry : 0/0
  1981 ;;		On exit  : 0/0
  1982 ;;		Unchanged: 0/0
  1983 ;; Data sizes:     COMMON   BANK0   BANK1   BANK3   BANK2
  1984 ;;      Params:         0       0       0       0       0
  1985 ;;      Locals:         0       0       0       0       0
  1986 ;;      Temps:          0       0       0       0       0
  1987 ;;      Totals:         0       0       0       0       0
  1988 ;;Total ram usage:        0 bytes
  1989 ;; Hardware stack levels used:    1
  1990 ;; Hardware stack levels required when called:    4
  1991 ;; This function calls:
  1992 ;;		_ADC_Read
  1993 ;;		___fldiv
  1994 ;;		___flmul
  1995 ;;		___fltol
  1996 ;;		___xxtofl
  1997 ;; This function is called by:
  1998 ;;		_main
  1999 ;; This function uses a non-reentrant model
  2000 ;;
  2001                           
  2002                           
  2003                           ;psect for function _do_luong
  2004  06E9                     _do_luong:
  2005  06E9                     l2509:	
  2006                           ;incstack = 0
  2007                           ; Regs used in _do_luong: [wreg-fsr0h+status,2+status,0+btemp+1+pclath+cstack]
  2008                           
  2009                           
  2010                           ;main_dc_volt.c: 110:     voltage = ADC_Read(0);
  2011  06E9  3000               	movlw	0
  2012  06EA  120A  158A  2581  120A  118A  	fcall	_ADC_Read
  2013  06EF  0873               	movf	?_ADC_Read+1,w
  2014  06F0  00FB               	movwf	_voltage+1
  2015  06F1  0872               	movf	?_ADC_Read,w
  2016  06F2  00FA               	movwf	_voltage
  2017  06F3                     l2511:
  2018                           
  2019                           ;main_dc_volt.c: 111:     voltage = (unsigned int)(voltage*4.888);
  2020  06F3  087A               	movf	_voltage,w
  2021  06F4  00F2               	movwf	___xxtofl@val
  2022  06F5  087B               	movf	_voltage+1,w
  2023  06F6  00F3               	movwf	___xxtofl@val+1
  2024  06F7  01F4               	clrf	___xxtofl@val+2
  2025  06F8  01F5               	clrf	___xxtofl@val+3
  2026  06F9  3000               	movlw	0
  2027  06FA  120A  118A  262D  120A  118A  	fcall	___xxtofl
  2028  06FF  0875               	movf	?___xxtofl+3,w
  2029  0700  1283               	bcf	3,5	;RP0=0, select bank0
  2030  0701  1303               	bcf	3,6	;RP1=0, select bank0
  2031  0702  00AD               	movwf	___flmul@a+3
  2032  0703  0874               	movf	?___xxtofl+2,w
  2033  0704  00AC               	movwf	___flmul@a+2
  2034  0705  0873               	movf	?___xxtofl+1,w
  2035  0706  00AB               	movwf	___flmul@a+1
  2036  0707  0872               	movf	?___xxtofl,w
  2037  0708  00AA               	movwf	___flmul@a
  2038  0709  3040               	movlw	64
  2039  070A  00A9               	movwf	___flmul@b+3
  2040  070B  309C               	movlw	156
  2041  070C  00A8               	movwf	___flmul@b+2
  2042  070D  306A               	movlw	106
  2043  070E  00A7               	movwf	___flmul@b+1
  2044  070F  307F               	movlw	127
  2045  0710  00A6               	movwf	___flmul@b
  2046  0711  120A  118A  201B  120A  118A  	fcall	___flmul
  2047  0716  1283               	bcf	3,5	;RP0=0, select bank0
  2048  0717  1303               	bcf	3,6	;RP1=0, select bank0
  2049  0718  0829               	movf	?___flmul+3,w
  2050  0719  00DD               	movwf	___fltol@f1+3
  2051  071A  0828               	movf	?___flmul+2,w
  2052  071B  00DC               	movwf	___fltol@f1+2
  2053  071C  0827               	movf	?___flmul+1,w
  2054  071D  00DB               	movwf	___fltol@f1+1
  2055  071E  0826               	movf	?___flmul,w
  2056  071F  00DA               	movwf	___fltol@f1
  2057  0720  120A  158A  2704  120A  118A  	fcall	___fltol
  2058  0725  1283               	bcf	3,5	;RP0=0, select bank0
  2059  0726  1303               	bcf	3,6	;RP1=0, select bank0
  2060  0727  085B               	movf	?___fltol+1,w
  2061  0728  00FB               	movwf	_voltage+1
  2062  0729  085A               	movf	?___fltol,w
  2063  072A  00FA               	movwf	_voltage
  2064  072B                     l2513:
  2065                           
  2066                           ;main_dc_volt.c: 113:     ampe = ADC_Read(1);
  2067  072B  3001               	movlw	1
  2068  072C  120A  158A  2581  120A  118A  	fcall	_ADC_Read
  2069  0731  0873               	movf	?_ADC_Read+1,w
  2070  0732  1283               	bcf	3,5	;RP0=0, select bank0
  2071  0733  1303               	bcf	3,6	;RP1=0, select bank0
  2072  0734  00E8               	movwf	_ampe+1
  2073  0735  0872               	movf	?_ADC_Read,w
  2074  0736  00E7               	movwf	_ampe
  2075                           
  2076                           ;main_dc_volt.c: 114:     ampe = (unsigned int)( (ampe*4.888)/0.47 );
  2077  0737  0867               	movf	_ampe,w
  2078  0738  00F2               	movwf	___xxtofl@val
  2079  0739  0868               	movf	_ampe+1,w
  2080  073A  00F3               	movwf	___xxtofl@val+1
  2081  073B  01F4               	clrf	___xxtofl@val+2
  2082  073C  01F5               	clrf	___xxtofl@val+3
  2083  073D  3000               	movlw	0
  2084  073E  120A  118A  262D  120A  118A  	fcall	___xxtofl
  2085  0743  0875               	movf	?___xxtofl+3,w
  2086  0744  1283               	bcf	3,5	;RP0=0, select bank0
  2087  0745  1303               	bcf	3,6	;RP1=0, select bank0
  2088  0746  00AD               	movwf	___flmul@a+3
  2089  0747  0874               	movf	?___xxtofl+2,w
  2090  0748  00AC               	movwf	___flmul@a+2
  2091  0749  0873               	movf	?___xxtofl+1,w
  2092  074A  00AB               	movwf	___flmul@a+1
  2093  074B  0872               	movf	?___xxtofl,w
  2094  074C  00AA               	movwf	___flmul@a
  2095  074D  3040               	movlw	64
  2096  074E  00A9               	movwf	___flmul@b+3
  2097  074F  309C               	movlw	156
  2098  0750  00A8               	movwf	___flmul@b+2
  2099  0751  306A               	movlw	106
  2100  0752  00A7               	movwf	___flmul@b+1
  2101  0753  307F               	movlw	127
  2102  0754  00A6               	movwf	___flmul@b
  2103  0755  120A  118A  201B  120A  118A  	fcall	___flmul
  2104  075A  1283               	bcf	3,5	;RP0=0, select bank0
  2105  075B  1303               	bcf	3,6	;RP1=0, select bank0
  2106  075C  0829               	movf	?___flmul+3,w
  2107  075D  00C7               	movwf	___fldiv@b+3
  2108  075E  0828               	movf	?___flmul+2,w
  2109  075F  00C6               	movwf	___fldiv@b+2
  2110  0760  0827               	movf	?___flmul+1,w
  2111  0761  00C5               	movwf	___fldiv@b+1
  2112  0762  0826               	movf	?___flmul,w
  2113  0763  00C4               	movwf	___fldiv@b
  2114  0764  303E               	movlw	62
  2115  0765  00C3               	movwf	___fldiv@a+3
  2116  0766  30F0               	movlw	240
  2117  0767  00C2               	movwf	___fldiv@a+2
  2118  0768  30A3               	movlw	163
  2119  0769  00C1               	movwf	___fldiv@a+1
  2120  076A  30D7               	movlw	215
  2121  076B  00C0               	movwf	___fldiv@a
  2122  076C  120A  118A  237C  120A  118A  	fcall	___fldiv
  2123  0771  1283               	bcf	3,5	;RP0=0, select bank0
  2124  0772  1303               	bcf	3,6	;RP1=0, select bank0
  2125  0773  0843               	movf	?___fldiv+3,w
  2126  0774  00DD               	movwf	___fltol@f1+3
  2127  0775  0842               	movf	?___fldiv+2,w
  2128  0776  00DC               	movwf	___fltol@f1+2
  2129  0777  0841               	movf	?___fldiv+1,w
  2130  0778  00DB               	movwf	___fltol@f1+1
  2131  0779  0840               	movf	?___fldiv,w
  2132  077A  00DA               	movwf	___fltol@f1
  2133  077B  120A  158A  2704  120A  118A  	fcall	___fltol
  2134  0780  1283               	bcf	3,5	;RP0=0, select bank0
  2135  0781  1303               	bcf	3,6	;RP1=0, select bank0
  2136  0782  085B               	movf	?___fltol+1,w
  2137  0783  00E8               	movwf	_ampe+1
  2138  0784  085A               	movf	?___fltol,w
  2139  0785  00E7               	movwf	_ampe
  2140  0786                     l112:
  2141  0786  0008               	return
  2142  0787                     __end_of_do_luong:
  2143                           
  2144                           	psect	text10
  2145  062D                     __ptext10:	
  2146 ;; *************** function ___xxtofl *****************
  2147 ;; Defined at:
  2148 ;;		line 10 in file "C:\Program Files\Microchip\xc8\v2.30\pic\sources\c90\common\xxtofl.c"
  2149 ;; Parameters:    Size  Location     Type
  2150 ;;  sign            1    wreg     unsigned char 
  2151 ;;  val             4    2[COMMON] long 
  2152 ;; Auto vars:     Size  Location     Type
  2153 ;;  sign            1    0[BANK0 ] unsigned char 
  2154 ;;  arg             4    2[BANK0 ] unsigned long 
  2155 ;;  exp             1    1[BANK0 ] unsigned char 
  2156 ;; Return value:  Size  Location     Type
  2157 ;;                  4    2[COMMON] unsigned char 
  2158 ;; Registers used:
  2159 ;;		wreg, status,2, status,0
  2160 ;; Tracked objects:
  2161 ;;		On entry : 0/0
  2162 ;;		On exit  : 0/0
  2163 ;;		Unchanged: 0/0
  2164 ;; Data sizes:     COMMON   BANK0   BANK1   BANK3   BANK2
  2165 ;;      Params:         4       0       0       0       0
  2166 ;;      Locals:         0       6       0       0       0
  2167 ;;      Temps:          4       0       0       0       0
  2168 ;;      Totals:         8       6       0       0       0
  2169 ;;Total ram usage:       14 bytes
  2170 ;; Hardware stack levels used:    1
  2171 ;; Hardware stack levels required when called:    2
  2172 ;; This function calls:
  2173 ;;		Nothing
  2174 ;; This function is called by:
  2175 ;;		_do_luong
  2176 ;; This function uses a non-reentrant model
  2177 ;;
  2178                           
  2179                           
  2180                           ;psect for function ___xxtofl
  2181  062D                     ___xxtofl:
  2182                           
  2183                           ;incstack = 0
  2184                           ; Regs used in ___xxtofl: [wreg+status,2+status,0]
  2185                           ;___xxtofl@sign stored from wreg
  2186  062D  1283               	bcf	3,5	;RP0=0, select bank0
  2187  062E  1303               	bcf	3,6	;RP1=0, select bank0
  2188  062F  00A0               	movwf	___xxtofl@sign
  2189  0630                     l1989:
  2190  0630  0820               	movf	___xxtofl@sign,w
  2191  0631  1903               	btfsc	3,2
  2192  0632  2E34               	goto	u2421
  2193  0633  2E35               	goto	u2420
  2194  0634                     u2421:
  2195  0634  2E49               	goto	l1995
  2196  0635                     u2420:
  2197  0635                     l1991:
  2198  0635  1FF5               	btfss	___xxtofl@val+3,7
  2199  0636  2E38               	goto	u2431
  2200  0637  2E39               	goto	u2430
  2201  0638                     u2431:
  2202  0638  2E49               	goto	l1995
  2203  0639                     u2430:
  2204  0639                     l1993:
  2205  0639  0972               	comf	___xxtofl@val,w
  2206  063A  00A2               	movwf	___xxtofl@arg
  2207  063B  0973               	comf	___xxtofl@val+1,w
  2208  063C  00A3               	movwf	___xxtofl@arg+1
  2209  063D  0974               	comf	___xxtofl@val+2,w
  2210  063E  00A4               	movwf	___xxtofl@arg+2
  2211  063F  0975               	comf	___xxtofl@val+3,w
  2212  0640  00A5               	movwf	___xxtofl@arg+3
  2213  0641  0AA2               	incf	___xxtofl@arg,f
  2214  0642  1903               	skipnz
  2215  0643  0AA3               	incf	___xxtofl@arg+1,f
  2216  0644  1903               	skipnz
  2217  0645  0AA4               	incf	___xxtofl@arg+2,f
  2218  0646  1903               	skipnz
  2219  0647  0AA5               	incf	___xxtofl@arg+3,f
  2220  0648  2E51               	goto	l710
  2221  0649                     l1995:
  2222  0649  0875               	movf	___xxtofl@val+3,w
  2223  064A  00A5               	movwf	___xxtofl@arg+3
  2224  064B  0874               	movf	___xxtofl@val+2,w
  2225  064C  00A4               	movwf	___xxtofl@arg+2
  2226  064D  0873               	movf	___xxtofl@val+1,w
  2227  064E  00A3               	movwf	___xxtofl@arg+1
  2228  064F  0872               	movf	___xxtofl@val,w
  2229  0650  00A2               	movwf	___xxtofl@arg
  2230  0651                     l710:
  2231  0651  0875               	movf	___xxtofl@val+3,w
  2232  0652  0474               	iorwf	___xxtofl@val+2,w
  2233  0653  0473               	iorwf	___xxtofl@val+1,w
  2234  0654  0472               	iorwf	___xxtofl@val,w
  2235  0655  1D03               	skipz
  2236  0656  2E58               	goto	u2441
  2237  0657  2E59               	goto	u2440
  2238  0658                     u2441:
  2239  0658  2E62               	goto	l2001
  2240  0659                     u2440:
  2241  0659                     l1997:
  2242  0659  3000               	movlw	0
  2243  065A  00F5               	movwf	?___xxtofl+3
  2244  065B  3000               	movlw	0
  2245  065C  00F4               	movwf	?___xxtofl+2
  2246  065D  3000               	movlw	0
  2247  065E  00F3               	movwf	?___xxtofl+1
  2248  065F  3000               	movlw	0
  2249  0660  00F2               	movwf	?___xxtofl
  2250  0661  2EE8               	goto	l712
  2251  0662                     l2001:
  2252  0662  3096               	movlw	150
  2253  0663  00F6               	movwf	??___xxtofl
  2254  0664  0876               	movf	??___xxtofl,w
  2255  0665  00A1               	movwf	___xxtofl@exp
  2256  0666  2E74               	goto	l2005
  2257  0667                     l2003:
  2258  0667  3001               	movlw	1
  2259  0668  00F6               	movwf	??___xxtofl
  2260  0669  0876               	movf	??___xxtofl,w
  2261  066A  07A1               	addwf	___xxtofl@exp,f
  2262  066B  3001               	movlw	1
  2263  066C                     u2455:
  2264  066C  1003               	clrc
  2265  066D  0CA5               	rrf	___xxtofl@arg+3,f
  2266  066E  0CA4               	rrf	___xxtofl@arg+2,f
  2267  066F  0CA3               	rrf	___xxtofl@arg+1,f
  2268  0670  0CA2               	rrf	___xxtofl@arg,f
  2269  0671  3EFF               	addlw	-1
  2270  0672  1D03               	skipz
  2271  0673  2E6C               	goto	u2455
  2272  0674                     l2005:
  2273  0674  30FE               	movlw	254
  2274  0675  0525               	andwf	___xxtofl@arg+3,w
  2275  0676  1D03               	btfss	3,2
  2276  0677  2E79               	goto	u2461
  2277  0678  2E7A               	goto	u2460
  2278  0679                     u2461:
  2279  0679  2E67               	goto	l2003
  2280  067A                     u2460:
  2281  067A  2E96               	goto	l716
  2282  067B                     l2007:
  2283  067B  3001               	movlw	1
  2284  067C  00F6               	movwf	??___xxtofl
  2285  067D  0876               	movf	??___xxtofl,w
  2286  067E  07A1               	addwf	___xxtofl@exp,f
  2287  067F                     l2009:
  2288  067F  3001               	movlw	1
  2289  0680  07A2               	addwf	___xxtofl@arg,f
  2290  0681  3000               	movlw	0
  2291  0682  1803               	skipnc
  2292  0683  3001               	movlw	1
  2293  0684  07A3               	addwf	___xxtofl@arg+1,f
  2294  0685  3000               	movlw	0
  2295  0686  1803               	skipnc
  2296  0687  3001               	movlw	1
  2297  0688  07A4               	addwf	___xxtofl@arg+2,f
  2298  0689  3000               	movlw	0
  2299  068A  1803               	skipnc
  2300  068B  3001               	movlw	1
  2301  068C  07A5               	addwf	___xxtofl@arg+3,f
  2302  068D                     l2011:
  2303  068D  3001               	movlw	1
  2304  068E                     u2475:
  2305  068E  1003               	clrc
  2306  068F  0CA5               	rrf	___xxtofl@arg+3,f
  2307  0690  0CA4               	rrf	___xxtofl@arg+2,f
  2308  0691  0CA3               	rrf	___xxtofl@arg+1,f
  2309  0692  0CA2               	rrf	___xxtofl@arg,f
  2310  0693  3EFF               	addlw	-1
  2311  0694  1D03               	skipz
  2312  0695  2E8E               	goto	u2475
  2313  0696                     l716:
  2314  0696  30FF               	movlw	255
  2315  0697  0525               	andwf	___xxtofl@arg+3,w
  2316  0698  1D03               	btfss	3,2
  2317  0699  2E9B               	goto	u2481
  2318  069A  2E9C               	goto	u2480
  2319  069B                     u2481:
  2320  069B  2E7B               	goto	l2007
  2321  069C                     u2480:
  2322  069C  2EA8               	goto	l2015
  2323  069D                     l2013:
  2324  069D  3001               	movlw	1
  2325  069E  02A1               	subwf	___xxtofl@exp,f
  2326  069F  3001               	movlw	1
  2327  06A0  00F6               	movwf	??___xxtofl
  2328  06A1                     u2495:
  2329  06A1  1003               	clrc
  2330  06A2  0DA2               	rlf	___xxtofl@arg,f
  2331  06A3  0DA3               	rlf	___xxtofl@arg+1,f
  2332  06A4  0DA4               	rlf	___xxtofl@arg+2,f
  2333  06A5  0DA5               	rlf	___xxtofl@arg+3,f
  2334  06A6  0BF6               	decfsz	??___xxtofl,f
  2335  06A7  2EA1               	goto	u2495
  2336  06A8                     l2015:
  2337  06A8  1BA4               	btfsc	___xxtofl@arg+2,7
  2338  06A9  2EAB               	goto	u2501
  2339  06AA  2EAC               	goto	u2500
  2340  06AB                     u2501:
  2341  06AB  2EB2               	goto	l723
  2342  06AC                     u2500:
  2343  06AC                     l2017:
  2344  06AC  3002               	movlw	2
  2345  06AD  0221               	subwf	___xxtofl@exp,w
  2346  06AE  1803               	skipnc
  2347  06AF  2EB1               	goto	u2511
  2348  06B0  2EB2               	goto	u2510
  2349  06B1                     u2511:
  2350  06B1  2E9D               	goto	l2013
  2351  06B2                     u2510:
  2352  06B2                     l723:
  2353  06B2  1821               	btfsc	___xxtofl@exp,0
  2354  06B3  2EB5               	goto	u2521
  2355  06B4  2EB6               	goto	u2520
  2356  06B5                     u2521:
  2357  06B5  2EBE               	goto	l724
  2358  06B6                     u2520:
  2359  06B6                     l2019:
  2360  06B6  30FF               	movlw	255
  2361  06B7  05A2               	andwf	___xxtofl@arg,f
  2362  06B8  30FF               	movlw	255
  2363  06B9  05A3               	andwf	___xxtofl@arg+1,f
  2364  06BA  307F               	movlw	127
  2365  06BB  05A4               	andwf	___xxtofl@arg+2,f
  2366  06BC  30FF               	movlw	255
  2367  06BD  05A5               	andwf	___xxtofl@arg+3,f
  2368  06BE                     l724:
  2369  06BE  1003               	clrc
  2370  06BF  0CA1               	rrf	___xxtofl@exp,f
  2371  06C0                     l2021:
  2372  06C0  0821               	movf	___xxtofl@exp,w
  2373  06C1  00F6               	movwf	??___xxtofl
  2374  06C2  01F7               	clrf	??___xxtofl+1
  2375  06C3  01F8               	clrf	??___xxtofl+2
  2376  06C4  01F9               	clrf	??___xxtofl+3
  2377  06C5  3018               	movlw	24
  2378  06C6                     u2535:
  2379  06C6  1003               	clrc
  2380  06C7  0DF6               	rlf	??___xxtofl,f
  2381  06C8  0DF7               	rlf	??___xxtofl+1,f
  2382  06C9  0DF8               	rlf	??___xxtofl+2,f
  2383  06CA  0DF9               	rlf	??___xxtofl+3,f
  2384  06CB                     u2530:
  2385  06CB  3EFF               	addlw	-1
  2386  06CC  1D03               	skipz
  2387  06CD  2EC6               	goto	u2535
  2388  06CE  0876               	movf	??___xxtofl,w
  2389  06CF  04A2               	iorwf	___xxtofl@arg,f
  2390  06D0  0877               	movf	??___xxtofl+1,w
  2391  06D1  04A3               	iorwf	___xxtofl@arg+1,f
  2392  06D2  0878               	movf	??___xxtofl+2,w
  2393  06D3  04A4               	iorwf	___xxtofl@arg+2,f
  2394  06D4  0879               	movf	??___xxtofl+3,w
  2395  06D5  04A5               	iorwf	___xxtofl@arg+3,f
  2396  06D6                     l2023:
  2397  06D6  0820               	movf	___xxtofl@sign,w
  2398  06D7  1903               	btfsc	3,2
  2399  06D8  2EDA               	goto	u2541
  2400  06D9  2EDB               	goto	u2540
  2401  06DA                     u2541:
  2402  06DA  2EE0               	goto	l2029
  2403  06DB                     u2540:
  2404  06DB                     l2025:
  2405  06DB  1FF5               	btfss	___xxtofl@val+3,7
  2406  06DC  2EDE               	goto	u2551
  2407  06DD  2EDF               	goto	u2550
  2408  06DE                     u2551:
  2409  06DE  2EE0               	goto	l2029
  2410  06DF                     u2550:
  2411  06DF                     l2027:
  2412  06DF  17A5               	bsf	___xxtofl@arg+3,7
  2413  06E0                     l2029:
  2414  06E0  0825               	movf	___xxtofl@arg+3,w
  2415  06E1  00F5               	movwf	?___xxtofl+3
  2416  06E2  0824               	movf	___xxtofl@arg+2,w
  2417  06E3  00F4               	movwf	?___xxtofl+2
  2418  06E4  0823               	movf	___xxtofl@arg+1,w
  2419  06E5  00F3               	movwf	?___xxtofl+1
  2420  06E6  0822               	movf	___xxtofl@arg,w
  2421  06E7  00F2               	movwf	?___xxtofl
  2422  06E8                     l712:
  2423  06E8  0008               	return
  2424  06E9                     __end_of___xxtofl:
  2425                           
  2426                           	psect	text11
  2427  0F04                     __ptext11:	
  2428 ;; *************** function ___fltol *****************
  2429 ;; Defined at:
  2430 ;;		line 43 in file "C:\Program Files\Microchip\xc8\v2.30\pic\sources\c90\common\fltol.c"
  2431 ;; Parameters:    Size  Location     Type
  2432 ;;  f1              4   58[BANK0 ] unsigned char 
  2433 ;; Auto vars:     Size  Location     Type
  2434 ;;  exp1            1   68[BANK0 ] unsigned char 
  2435 ;;  sign1           1   67[BANK0 ] unsigned char 
  2436 ;; Return value:  Size  Location     Type
  2437 ;;                  4   58[BANK0 ] long 
  2438 ;; Registers used:
  2439 ;;		wreg, status,2, status,0
  2440 ;; Tracked objects:
  2441 ;;		On entry : 0/0
  2442 ;;		On exit  : 0/0
  2443 ;;		Unchanged: 0/0
  2444 ;; Data sizes:     COMMON   BANK0   BANK1   BANK3   BANK2
  2445 ;;      Params:         0       4       0       0       0
  2446 ;;      Locals:         0       2       0       0       0
  2447 ;;      Temps:          0       5       0       0       0
  2448 ;;      Totals:         0      11       0       0       0
  2449 ;;Total ram usage:       11 bytes
  2450 ;; Hardware stack levels used:    1
  2451 ;; Hardware stack levels required when called:    2
  2452 ;; This function calls:
  2453 ;;		Nothing
  2454 ;; This function is called by:
  2455 ;;		_do_luong
  2456 ;; This function uses a non-reentrant model
  2457 ;;
  2458                           
  2459                           
  2460                           ;psect for function ___fltol
  2461  0F04                     ___fltol:
  2462  0F04                     l1671:	
  2463                           ;incstack = 0
  2464                           ; Regs used in ___fltol: [wreg+status,2+status,0]
  2465                           
  2466  0F04  1003               	clrc
  2467  0F05  1283               	bcf	3,5	;RP0=0, select bank0
  2468  0F06  1303               	bcf	3,6	;RP1=0, select bank0
  2469  0F07  0D5C               	rlf	___fltol@f1+2,w
  2470  0F08  0D5D               	rlf	___fltol@f1+3,w
  2471  0F09  00DE               	movwf	??___fltol
  2472  0F0A  085E               	movf	??___fltol,w
  2473  0F0B  00E4               	movwf	___fltol@exp1
  2474  0F0C  0864               	movf	___fltol@exp1,w
  2475  0F0D  1D03               	btfss	3,2
  2476  0F0E  2F10               	goto	u1661
  2477  0F0F  2F11               	goto	u1660
  2478  0F10                     u1661:
  2479  0F10  2F1A               	goto	l1677
  2480  0F11                     u1660:
  2481  0F11                     l1673:
  2482  0F11  3000               	movlw	0
  2483  0F12  00DD               	movwf	?___fltol+3
  2484  0F13  3000               	movlw	0
  2485  0F14  00DC               	movwf	?___fltol+2
  2486  0F15  3000               	movlw	0
  2487  0F16  00DB               	movwf	?___fltol+1
  2488  0F17  3000               	movlw	0
  2489  0F18  00DA               	movwf	?___fltol
  2490  0F19  2F7F               	goto	l463
  2491  0F1A                     l1677:
  2492  0F1A  085A               	movf	___fltol@f1,w
  2493  0F1B  00DE               	movwf	??___fltol
  2494  0F1C  085B               	movf	___fltol@f1+1,w
  2495  0F1D  00DF               	movwf	??___fltol+1
  2496  0F1E  085C               	movf	___fltol@f1+2,w
  2497  0F1F  00E0               	movwf	??___fltol+2
  2498  0F20  085D               	movf	___fltol@f1+3,w
  2499  0F21  00E1               	movwf	??___fltol+3
  2500  0F22  301F               	movlw	31
  2501  0F23                     u1675:
  2502  0F23  1003               	clrc
  2503  0F24  0CE1               	rrf	??___fltol+3,f
  2504  0F25  0CE0               	rrf	??___fltol+2,f
  2505  0F26  0CDF               	rrf	??___fltol+1,f
  2506  0F27  0CDE               	rrf	??___fltol,f
  2507  0F28                     u1670:
  2508  0F28  3EFF               	addlw	-1
  2509  0F29  1D03               	skipz
  2510  0F2A  2F23               	goto	u1675
  2511  0F2B  085E               	movf	??___fltol,w
  2512  0F2C  00E2               	movwf	??___fltol+4
  2513  0F2D  0862               	movf	??___fltol+4,w
  2514  0F2E  00E3               	movwf	___fltol@sign1
  2515  0F2F                     l1679:
  2516  0F2F  17DC               	bsf	___fltol@f1+2,7
  2517  0F30                     l1681:
  2518  0F30  30FF               	movlw	255
  2519  0F31  05DA               	andwf	___fltol@f1,f
  2520  0F32  30FF               	movlw	255
  2521  0F33  05DB               	andwf	___fltol@f1+1,f
  2522  0F34  30FF               	movlw	255
  2523  0F35  05DC               	andwf	___fltol@f1+2,f
  2524  0F36  3000               	movlw	0
  2525  0F37  05DD               	andwf	___fltol@f1+3,f
  2526  0F38                     l1683:
  2527  0F38  3096               	movlw	150
  2528  0F39  02E4               	subwf	___fltol@exp1,f
  2529  0F3A                     l1685:
  2530  0F3A  1FE4               	btfss	___fltol@exp1,7
  2531  0F3B  2F3D               	goto	u1681
  2532  0F3C  2F3E               	goto	u1680
  2533  0F3D                     u1681:
  2534  0F3D  2F58               	goto	l1695
  2535  0F3E                     u1680:
  2536  0F3E                     l1687:
  2537  0F3E  0864               	movf	___fltol@exp1,w
  2538  0F3F  3A80               	xorlw	128
  2539  0F40  3E97               	addlw	151
  2540  0F41  1803               	skipnc
  2541  0F42  2F44               	goto	u1691
  2542  0F43  2F45               	goto	u1690
  2543  0F44                     u1691:
  2544  0F44  2F46               	goto	l1693
  2545  0F45                     u1690:
  2546  0F45  2F11               	goto	l1673
  2547  0F46                     l1693:
  2548  0F46  3001               	movlw	1
  2549  0F47                     u1705:
  2550  0F47  1003               	clrc
  2551  0F48  0CDD               	rrf	___fltol@f1+3,f
  2552  0F49  0CDC               	rrf	___fltol@f1+2,f
  2553  0F4A  0CDB               	rrf	___fltol@f1+1,f
  2554  0F4B  0CDA               	rrf	___fltol@f1,f
  2555  0F4C  3EFF               	addlw	-1
  2556  0F4D  1D03               	skipz
  2557  0F4E  2F47               	goto	u1705
  2558  0F4F  3001               	movlw	1
  2559  0F50  00DE               	movwf	??___fltol
  2560  0F51  085E               	movf	??___fltol,w
  2561  0F52  07E4               	addwf	___fltol@exp1,f
  2562  0F53  1D03               	btfss	3,2
  2563  0F54  2F56               	goto	u1711
  2564  0F55  2F57               	goto	u1710
  2565  0F56                     u1711:
  2566  0F56  2F46               	goto	l1693
  2567  0F57                     u1710:
  2568  0F57  2F6F               	goto	l1703
  2569  0F58                     l1695:
  2570  0F58  3020               	movlw	32
  2571  0F59  0264               	subwf	___fltol@exp1,w
  2572  0F5A  1C03               	skipc
  2573  0F5B  2F5D               	goto	u1721
  2574  0F5C  2F5E               	goto	u1720
  2575  0F5D                     u1721:
  2576  0F5D  2F6A               	goto	l470
  2577  0F5E                     u1720:
  2578  0F5E  2F11               	goto	l1673
  2579  0F5F                     l1701:
  2580  0F5F  3001               	movlw	1
  2581  0F60  00DE               	movwf	??___fltol
  2582  0F61                     u1735:
  2583  0F61  1003               	clrc
  2584  0F62  0DDA               	rlf	___fltol@f1,f
  2585  0F63  0DDB               	rlf	___fltol@f1+1,f
  2586  0F64  0DDC               	rlf	___fltol@f1+2,f
  2587  0F65  0DDD               	rlf	___fltol@f1+3,f
  2588  0F66  0BDE               	decfsz	??___fltol,f
  2589  0F67  2F61               	goto	u1735
  2590  0F68  3001               	movlw	1
  2591  0F69  02E4               	subwf	___fltol@exp1,f
  2592  0F6A                     l470:
  2593  0F6A  0864               	movf	___fltol@exp1,w
  2594  0F6B  1D03               	btfss	3,2
  2595  0F6C  2F6E               	goto	u1741
  2596  0F6D  2F6F               	goto	u1740
  2597  0F6E                     u1741:
  2598  0F6E  2F5F               	goto	l1701
  2599  0F6F                     u1740:
  2600  0F6F                     l1703:
  2601  0F6F  0863               	movf	___fltol@sign1,w
  2602  0F70  1903               	btfsc	3,2
  2603  0F71  2F73               	goto	u1751
  2604  0F72  2F74               	goto	u1750
  2605  0F73                     u1751:
  2606  0F73  2F7F               	goto	l473
  2607  0F74                     u1750:
  2608  0F74                     l1705:
  2609  0F74  09DA               	comf	___fltol@f1,f
  2610  0F75  09DB               	comf	___fltol@f1+1,f
  2611  0F76  09DC               	comf	___fltol@f1+2,f
  2612  0F77  09DD               	comf	___fltol@f1+3,f
  2613  0F78  0ADA               	incf	___fltol@f1,f
  2614  0F79  1903               	skipnz
  2615  0F7A  0ADB               	incf	___fltol@f1+1,f
  2616  0F7B  1903               	skipnz
  2617  0F7C  0ADC               	incf	___fltol@f1+2,f
  2618  0F7D  1903               	skipnz
  2619  0F7E  0ADD               	incf	___fltol@f1+3,f
  2620  0F7F                     l473:
  2621  0F7F                     l463:
  2622  0F7F  0008               	return
  2623  0F80                     __end_of___fltol:
  2624                           
  2625                           	psect	text12
  2626  001B                     __ptext12:	
  2627 ;; *************** function ___flmul *****************
  2628 ;; Defined at:
  2629 ;;		line 8 in file "C:\Program Files\Microchip\xc8\v2.30\pic\sources\c90\common\sprcmul.c"
  2630 ;; Parameters:    Size  Location     Type
  2631 ;;  b               4    6[BANK0 ] long 
  2632 ;;  a               4   10[BANK0 ] long 
  2633 ;; Auto vars:     Size  Location     Type
  2634 ;;  prod            4   26[BANK0 ] struct .
  2635 ;;  grs             4   21[BANK0 ] unsigned long 
  2636 ;;  temp            2   30[BANK0 ] struct .
  2637 ;;  bexp            1   25[BANK0 ] unsigned char 
  2638 ;;  aexp            1   20[BANK0 ] unsigned char 
  2639 ;;  sign            1   19[BANK0 ] unsigned char 
  2640 ;; Return value:  Size  Location     Type
  2641 ;;                  4    6[BANK0 ] unsigned char 
  2642 ;; Registers used:
  2643 ;;		wreg, status,2, status,0, btemp+1, pclath, cstack
  2644 ;; Tracked objects:
  2645 ;;		On entry : 0/0
  2646 ;;		On exit  : 0/0
  2647 ;;		Unchanged: 0/0
  2648 ;; Data sizes:     COMMON   BANK0   BANK1   BANK3   BANK2
  2649 ;;      Params:         0       8       0       0       0
  2650 ;;      Locals:         0      13       0       0       0
  2651 ;;      Temps:          0       5       0       0       0
  2652 ;;      Totals:         0      26       0       0       0
  2653 ;;Total ram usage:       26 bytes
  2654 ;; Hardware stack levels used:    1
  2655 ;; Hardware stack levels required when called:    3
  2656 ;; This function calls:
  2657 ;;		__Umul8_16
  2658 ;; This function is called by:
  2659 ;;		_do_luong
  2660 ;; This function uses a non-reentrant model
  2661 ;;
  2662                           
  2663                           
  2664                           ;psect for function ___flmul
  2665  001B                     ___flmul:
  2666  001B                     l2333:	
  2667                           ;incstack = 0
  2668                           ; Regs used in ___flmul: [wreg+status,2+status,0+btemp+1+pclath+cstack]
  2669                           
  2670  001B  1283               	bcf	3,5	;RP0=0, select bank0
  2671  001C  1303               	bcf	3,6	;RP1=0, select bank0
  2672  001D  0829               	movf	___flmul@b+3,w
  2673  001E  3980               	andlw	128
  2674  001F  00AE               	movwf	??___flmul
  2675  0020  082E               	movf	??___flmul,w
  2676  0021  00B3               	movwf	___flmul@sign
  2677  0022                     l2335:
  2678  0022  0829               	movf	___flmul@b+3,w
  2679  0023  00AE               	movwf	??___flmul
  2680  0024  072E               	addwf	??___flmul,w
  2681  0025  00AF               	movwf	??___flmul+1
  2682  0026  082F               	movf	??___flmul+1,w
  2683  0027  00B9               	movwf	___flmul@bexp
  2684  0028                     l2337:
  2685  0028  1FA8               	btfss	___flmul@b+2,7
  2686  0029  282B               	goto	u2931
  2687  002A  282C               	goto	u2930
  2688  002B                     u2931:
  2689  002B  282D               	goto	l2341
  2690  002C                     u2930:
  2691  002C                     l2339:
  2692  002C  1439               	bsf	___flmul@bexp,0
  2693  002D                     l2341:
  2694  002D  0839               	movf	___flmul@bexp,w
  2695  002E  1903               	btfsc	3,2
  2696  002F  2831               	goto	u2941
  2697  0030  2832               	goto	u2940
  2698  0031                     u2941:
  2699  0031  2841               	goto	l2349
  2700  0032                     u2940:
  2701  0032                     l2343:
  2702  0032  0A39               	incf	___flmul@bexp,w
  2703  0033  1D03               	btfss	3,2
  2704  0034  2836               	goto	u2951
  2705  0035  2837               	goto	u2950
  2706  0036                     u2951:
  2707  0036  283F               	goto	l2347
  2708  0037                     u2950:
  2709  0037                     l2345:
  2710  0037  3000               	movlw	0
  2711  0038  00A9               	movwf	___flmul@b+3
  2712  0039  3000               	movlw	0
  2713  003A  00A8               	movwf	___flmul@b+2
  2714  003B  3000               	movlw	0
  2715  003C  00A7               	movwf	___flmul@b+1
  2716  003D  3000               	movlw	0
  2717  003E  00A6               	movwf	___flmul@b
  2718  003F                     l2347:
  2719  003F  17A8               	bsf	___flmul@b+2,7
  2720  0040  2849               	goto	l2351
  2721  0041                     l2349:
  2722  0041  3000               	movlw	0
  2723  0042  00A9               	movwf	___flmul@b+3
  2724  0043  3000               	movlw	0
  2725  0044  00A8               	movwf	___flmul@b+2
  2726  0045  3000               	movlw	0
  2727  0046  00A7               	movwf	___flmul@b+1
  2728  0047  3000               	movlw	0
  2729  0048  00A6               	movwf	___flmul@b
  2730  0049                     l2351:
  2731  0049  082D               	movf	___flmul@a+3,w
  2732  004A  3980               	andlw	128
  2733  004B  00AE               	movwf	??___flmul
  2734  004C  082E               	movf	??___flmul,w
  2735  004D  06B3               	xorwf	___flmul@sign,f
  2736  004E                     l2353:
  2737  004E  082D               	movf	___flmul@a+3,w
  2738  004F  00AE               	movwf	??___flmul
  2739  0050  072E               	addwf	??___flmul,w
  2740  0051  00AF               	movwf	??___flmul+1
  2741  0052  082F               	movf	??___flmul+1,w
  2742  0053  00B4               	movwf	___flmul@aexp
  2743  0054                     l2355:
  2744  0054  1FAC               	btfss	___flmul@a+2,7
  2745  0055  2857               	goto	u2961
  2746  0056  2858               	goto	u2960
  2747  0057                     u2961:
  2748  0057  2859               	goto	l2359
  2749  0058                     u2960:
  2750  0058                     l2357:
  2751  0058  1434               	bsf	___flmul@aexp,0
  2752  0059                     l2359:
  2753  0059  0834               	movf	___flmul@aexp,w
  2754  005A  1903               	btfsc	3,2
  2755  005B  285D               	goto	u2971
  2756  005C  285E               	goto	u2970
  2757  005D                     u2971:
  2758  005D  286D               	goto	l2367
  2759  005E                     u2970:
  2760  005E                     l2361:
  2761  005E  0A34               	incf	___flmul@aexp,w
  2762  005F  1D03               	btfss	3,2
  2763  0060  2862               	goto	u2981
  2764  0061  2863               	goto	u2980
  2765  0062                     u2981:
  2766  0062  286B               	goto	l2365
  2767  0063                     u2980:
  2768  0063                     l2363:
  2769  0063  3000               	movlw	0
  2770  0064  00AD               	movwf	___flmul@a+3
  2771  0065  3000               	movlw	0
  2772  0066  00AC               	movwf	___flmul@a+2
  2773  0067  3000               	movlw	0
  2774  0068  00AB               	movwf	___flmul@a+1
  2775  0069  3000               	movlw	0
  2776  006A  00AA               	movwf	___flmul@a
  2777  006B                     l2365:
  2778  006B  17AC               	bsf	___flmul@a+2,7
  2779  006C  2875               	goto	l2369
  2780  006D                     l2367:
  2781  006D  3000               	movlw	0
  2782  006E  00AD               	movwf	___flmul@a+3
  2783  006F  3000               	movlw	0
  2784  0070  00AC               	movwf	___flmul@a+2
  2785  0071  3000               	movlw	0
  2786  0072  00AB               	movwf	___flmul@a+1
  2787  0073  3000               	movlw	0
  2788  0074  00AA               	movwf	___flmul@a
  2789  0075                     l2369:
  2790  0075  0834               	movf	___flmul@aexp,w
  2791  0076  1903               	btfsc	3,2
  2792  0077  2879               	goto	u2991
  2793  0078  287A               	goto	u2990
  2794  0079                     u2991:
  2795  0079  287F               	goto	l2373
  2796  007A                     u2990:
  2797  007A                     l2371:
  2798  007A  0839               	movf	___flmul@bexp,w
  2799  007B  1D03               	btfss	3,2
  2800  007C  287E               	goto	u3001
  2801  007D  287F               	goto	u3000
  2802  007E                     u3001:
  2803  007E  2888               	goto	l2377
  2804  007F                     u3000:
  2805  007F                     l2373:
  2806  007F  3000               	movlw	0
  2807  0080  00A9               	movwf	?___flmul+3
  2808  0081  3000               	movlw	0
  2809  0082  00A8               	movwf	?___flmul+2
  2810  0083  3000               	movlw	0
  2811  0084  00A7               	movwf	?___flmul+1
  2812  0085  3000               	movlw	0
  2813  0086  00A6               	movwf	?___flmul
  2814  0087  2B7B               	goto	l666
  2815  0088                     l2377:
  2816  0088  0826               	movf	___flmul@b,w
  2817  0089  00AE               	movwf	??___flmul
  2818  008A  082E               	movf	??___flmul,w
  2819  008B  00F2               	movwf	__Umul8_16@multiplicand
  2820  008C  082C               	movf	___flmul@a+2,w
  2821  008D  120A  158A  24C5  120A  118A  	fcall	__Umul8_16
  2822  0092  0873               	movf	?__Umul8_16+1,w
  2823  0093  1283               	bcf	3,5	;RP0=0, select bank0
  2824  0094  1303               	bcf	3,6	;RP1=0, select bank0
  2825  0095  00BF               	movwf	___flmul@temp+1
  2826  0096  0872               	movf	?__Umul8_16,w
  2827  0097  00BE               	movwf	___flmul@temp
  2828  0098                     l2379:
  2829  0098  083E               	movf	___flmul@temp,w
  2830  0099  00AE               	movwf	??___flmul
  2831  009A  01AF               	clrf	??___flmul+1
  2832  009B  01B0               	clrf	??___flmul+2
  2833  009C  01B1               	clrf	??___flmul+3
  2834  009D  0831               	movf	??___flmul+3,w
  2835  009E  00B8               	movwf	___flmul@grs+3
  2836  009F  0830               	movf	??___flmul+2,w
  2837  00A0  00B7               	movwf	___flmul@grs+2
  2838  00A1  082F               	movf	??___flmul+1,w
  2839  00A2  00B6               	movwf	___flmul@grs+1
  2840  00A3  082E               	movf	??___flmul,w
  2841  00A4  00B5               	movwf	___flmul@grs
  2842  00A5                     l2381:
  2843  00A5  083F               	movf	___flmul@temp+1,w
  2844  00A6  00AE               	movwf	??___flmul
  2845  00A7  01AF               	clrf	??___flmul+1
  2846  00A8  01B0               	clrf	??___flmul+2
  2847  00A9  01B1               	clrf	??___flmul+3
  2848  00AA  0831               	movf	??___flmul+3,w
  2849  00AB  00BD               	movwf	___flmul@prod+3
  2850  00AC  0830               	movf	??___flmul+2,w
  2851  00AD  00BC               	movwf	___flmul@prod+2
  2852  00AE  082F               	movf	??___flmul+1,w
  2853  00AF  00BB               	movwf	___flmul@prod+1
  2854  00B0  082E               	movf	??___flmul,w
  2855  00B1  00BA               	movwf	___flmul@prod
  2856  00B2  0827               	movf	___flmul@b+1,w
  2857  00B3  00AE               	movwf	??___flmul
  2858  00B4  082E               	movf	??___flmul,w
  2859  00B5  00F2               	movwf	__Umul8_16@multiplicand
  2860  00B6  082B               	movf	___flmul@a+1,w
  2861  00B7  120A  158A  24C5  120A  118A  	fcall	__Umul8_16
  2862  00BC  0873               	movf	?__Umul8_16+1,w
  2863  00BD  1283               	bcf	3,5	;RP0=0, select bank0
  2864  00BE  1303               	bcf	3,6	;RP1=0, select bank0
  2865  00BF  00BF               	movwf	___flmul@temp+1
  2866  00C0  0872               	movf	?__Umul8_16,w
  2867  00C1  00BE               	movwf	___flmul@temp
  2868  00C2                     l2383:
  2869  00C2  083E               	movf	___flmul@temp,w
  2870  00C3  00AE               	movwf	??___flmul
  2871  00C4  01AF               	clrf	??___flmul+1
  2872  00C5  01B0               	clrf	??___flmul+2
  2873  00C6  01B1               	clrf	??___flmul+3
  2874  00C7  082E               	movf	??___flmul,w
  2875  00C8  07B5               	addwf	___flmul@grs,f
  2876  00C9  082F               	movf	??___flmul+1,w
  2877  00CA  1103               	clrz
  2878  00CB  1803               	skipnc
  2879  00CC  3E01               	addlw	1
  2880  00CD  1903               	skipnz
  2881  00CE  28D0               	goto	u3011
  2882  00CF  07B6               	addwf	___flmul@grs+1,f
  2883  00D0                     u3011:
  2884  00D0  0830               	movf	??___flmul+2,w
  2885  00D1  1103               	clrz
  2886  00D2  1803               	skipnc
  2887  00D3  3E01               	addlw	1
  2888  00D4  1903               	skipnz
  2889  00D5  28D7               	goto	u3012
  2890  00D6  07B7               	addwf	___flmul@grs+2,f
  2891  00D7                     u3012:
  2892  00D7  0831               	movf	??___flmul+3,w
  2893  00D8  1103               	clrz
  2894  00D9  1803               	skipnc
  2895  00DA  3E01               	addlw	1
  2896  00DB  1903               	skipnz
  2897  00DC  28DE               	goto	u3013
  2898  00DD  07B8               	addwf	___flmul@grs+3,f
  2899  00DE                     u3013:
  2900  00DE                     l2385:
  2901  00DE  083F               	movf	___flmul@temp+1,w
  2902  00DF  00AE               	movwf	??___flmul
  2903  00E0  01AF               	clrf	??___flmul+1
  2904  00E1  01B0               	clrf	??___flmul+2
  2905  00E2  01B1               	clrf	??___flmul+3
  2906  00E3  082E               	movf	??___flmul,w
  2907  00E4  07BA               	addwf	___flmul@prod,f
  2908  00E5  082F               	movf	??___flmul+1,w
  2909  00E6  1103               	clrz
  2910  00E7  1803               	skipnc
  2911  00E8  3E01               	addlw	1
  2912  00E9  1903               	skipnz
  2913  00EA  28EC               	goto	u3021
  2914  00EB  07BB               	addwf	___flmul@prod+1,f
  2915  00EC                     u3021:
  2916  00EC  0830               	movf	??___flmul+2,w
  2917  00ED  1103               	clrz
  2918  00EE  1803               	skipnc
  2919  00EF  3E01               	addlw	1
  2920  00F0  1903               	skipnz
  2921  00F1  28F3               	goto	u3022
  2922  00F2  07BC               	addwf	___flmul@prod+2,f
  2923  00F3                     u3022:
  2924  00F3  0831               	movf	??___flmul+3,w
  2925  00F4  1103               	clrz
  2926  00F5  1803               	skipnc
  2927  00F6  3E01               	addlw	1
  2928  00F7  1903               	skipnz
  2929  00F8  28FA               	goto	u3023
  2930  00F9  07BD               	addwf	___flmul@prod+3,f
  2931  00FA                     u3023:
  2932  00FA  0828               	movf	___flmul@b+2,w
  2933  00FB  00AE               	movwf	??___flmul
  2934  00FC  082E               	movf	??___flmul,w
  2935  00FD  00F2               	movwf	__Umul8_16@multiplicand
  2936  00FE  082A               	movf	___flmul@a,w
  2937  00FF  120A  158A  24C5  120A  118A  	fcall	__Umul8_16
  2938  0104  0873               	movf	?__Umul8_16+1,w
  2939  0105  1283               	bcf	3,5	;RP0=0, select bank0
  2940  0106  1303               	bcf	3,6	;RP1=0, select bank0
  2941  0107  00BF               	movwf	___flmul@temp+1
  2942  0108  0872               	movf	?__Umul8_16,w
  2943  0109  00BE               	movwf	___flmul@temp
  2944  010A                     l2387:
  2945  010A  083E               	movf	___flmul@temp,w
  2946  010B  00AE               	movwf	??___flmul
  2947  010C  01AF               	clrf	??___flmul+1
  2948  010D  01B0               	clrf	??___flmul+2
  2949  010E  01B1               	clrf	??___flmul+3
  2950  010F  082E               	movf	??___flmul,w
  2951  0110  07B5               	addwf	___flmul@grs,f
  2952  0111  082F               	movf	??___flmul+1,w
  2953  0112  1103               	clrz
  2954  0113  1803               	skipnc
  2955  0114  3E01               	addlw	1
  2956  0115  1903               	skipnz
  2957  0116  2918               	goto	u3031
  2958  0117  07B6               	addwf	___flmul@grs+1,f
  2959  0118                     u3031:
  2960  0118  0830               	movf	??___flmul+2,w
  2961  0119  1103               	clrz
  2962  011A  1803               	skipnc
  2963  011B  3E01               	addlw	1
  2964  011C  1903               	skipnz
  2965  011D  291F               	goto	u3032
  2966  011E  07B7               	addwf	___flmul@grs+2,f
  2967  011F                     u3032:
  2968  011F  0831               	movf	??___flmul+3,w
  2969  0120  1103               	clrz
  2970  0121  1803               	skipnc
  2971  0122  3E01               	addlw	1
  2972  0123  1903               	skipnz
  2973  0124  2926               	goto	u3033
  2974  0125  07B8               	addwf	___flmul@grs+3,f
  2975  0126                     u3033:
  2976  0126                     l2389:
  2977  0126  083F               	movf	___flmul@temp+1,w
  2978  0127  00AE               	movwf	??___flmul
  2979  0128  01AF               	clrf	??___flmul+1
  2980  0129  01B0               	clrf	??___flmul+2
  2981  012A  01B1               	clrf	??___flmul+3
  2982  012B  082E               	movf	??___flmul,w
  2983  012C  07BA               	addwf	___flmul@prod,f
  2984  012D  082F               	movf	??___flmul+1,w
  2985  012E  1103               	clrz
  2986  012F  1803               	skipnc
  2987  0130  3E01               	addlw	1
  2988  0131  1903               	skipnz
  2989  0132  2934               	goto	u3041
  2990  0133  07BB               	addwf	___flmul@prod+1,f
  2991  0134                     u3041:
  2992  0134  0830               	movf	??___flmul+2,w
  2993  0135  1103               	clrz
  2994  0136  1803               	skipnc
  2995  0137  3E01               	addlw	1
  2996  0138  1903               	skipnz
  2997  0139  293B               	goto	u3042
  2998  013A  07BC               	addwf	___flmul@prod+2,f
  2999  013B                     u3042:
  3000  013B  0831               	movf	??___flmul+3,w
  3001  013C  1103               	clrz
  3002  013D  1803               	skipnc
  3003  013E  3E01               	addlw	1
  3004  013F  1903               	skipnz
  3005  0140  2942               	goto	u3043
  3006  0141  07BD               	addwf	___flmul@prod+3,f
  3007  0142                     u3043:
  3008  0142                     l2391:
  3009  0142  3008               	movlw	8
  3010  0143  00AE               	movwf	??___flmul
  3011  0144                     u3055:
  3012  0144  1003               	clrc
  3013  0145  0DB5               	rlf	___flmul@grs,f
  3014  0146  0DB6               	rlf	___flmul@grs+1,f
  3015  0147  0DB7               	rlf	___flmul@grs+2,f
  3016  0148  0DB8               	rlf	___flmul@grs+3,f
  3017  0149  0BAE               	decfsz	??___flmul,f
  3018  014A  2944               	goto	u3055
  3019  014B                     l2393:
  3020  014B  0827               	movf	___flmul@b+1,w
  3021  014C  00AE               	movwf	??___flmul
  3022  014D  082E               	movf	??___flmul,w
  3023  014E  00F2               	movwf	__Umul8_16@multiplicand
  3024  014F  082A               	movf	___flmul@a,w
  3025  0150  120A  158A  24C5  120A  118A  	fcall	__Umul8_16
  3026  0155  0873               	movf	?__Umul8_16+1,w
  3027  0156  1283               	bcf	3,5	;RP0=0, select bank0
  3028  0157  1303               	bcf	3,6	;RP1=0, select bank0
  3029  0158  00BF               	movwf	___flmul@temp+1
  3030  0159  0872               	movf	?__Umul8_16,w
  3031  015A  00BE               	movwf	___flmul@temp
  3032  015B                     l2395:
  3033  015B  083E               	movf	___flmul@temp,w
  3034  015C  00AE               	movwf	??___flmul
  3035  015D  083F               	movf	___flmul@temp+1,w
  3036  015E  00AF               	movwf	??___flmul+1
  3037  015F  01B0               	clrf	??___flmul+2
  3038  0160  01B1               	clrf	??___flmul+3
  3039  0161  082E               	movf	??___flmul,w
  3040  0162  07B5               	addwf	___flmul@grs,f
  3041  0163  082F               	movf	??___flmul+1,w
  3042  0164  1103               	clrz
  3043  0165  1803               	skipnc
  3044  0166  3E01               	addlw	1
  3045  0167  1903               	skipnz
  3046  0168  296A               	goto	u3061
  3047  0169  07B6               	addwf	___flmul@grs+1,f
  3048  016A                     u3061:
  3049  016A  0830               	movf	??___flmul+2,w
  3050  016B  1103               	clrz
  3051  016C  1803               	skipnc
  3052  016D  3E01               	addlw	1
  3053  016E  1903               	skipnz
  3054  016F  2971               	goto	u3062
  3055  0170  07B7               	addwf	___flmul@grs+2,f
  3056  0171                     u3062:
  3057  0171  0831               	movf	??___flmul+3,w
  3058  0172  1103               	clrz
  3059  0173  1803               	skipnc
  3060  0174  3E01               	addlw	1
  3061  0175  1903               	skipnz
  3062  0176  2978               	goto	u3063
  3063  0177  07B8               	addwf	___flmul@grs+3,f
  3064  0178                     u3063:
  3065  0178                     l2397:
  3066  0178  0826               	movf	___flmul@b,w
  3067  0179  00AE               	movwf	??___flmul
  3068  017A  082E               	movf	??___flmul,w
  3069  017B  00F2               	movwf	__Umul8_16@multiplicand
  3070  017C  082B               	movf	___flmul@a+1,w
  3071  017D  120A  158A  24C5  120A  118A  	fcall	__Umul8_16
  3072  0182  0873               	movf	?__Umul8_16+1,w
  3073  0183  1283               	bcf	3,5	;RP0=0, select bank0
  3074  0184  1303               	bcf	3,6	;RP1=0, select bank0
  3075  0185  00BF               	movwf	___flmul@temp+1
  3076  0186  0872               	movf	?__Umul8_16,w
  3077  0187  00BE               	movwf	___flmul@temp
  3078  0188                     l2399:
  3079  0188  083E               	movf	___flmul@temp,w
  3080  0189  00AE               	movwf	??___flmul
  3081  018A  083F               	movf	___flmul@temp+1,w
  3082  018B  00AF               	movwf	??___flmul+1
  3083  018C  01B0               	clrf	??___flmul+2
  3084  018D  01B1               	clrf	??___flmul+3
  3085  018E  082E               	movf	??___flmul,w
  3086  018F  07B5               	addwf	___flmul@grs,f
  3087  0190  082F               	movf	??___flmul+1,w
  3088  0191  1103               	clrz
  3089  0192  1803               	skipnc
  3090  0193  3E01               	addlw	1
  3091  0194  1903               	skipnz
  3092  0195  2997               	goto	u3071
  3093  0196  07B6               	addwf	___flmul@grs+1,f
  3094  0197                     u3071:
  3095  0197  0830               	movf	??___flmul+2,w
  3096  0198  1103               	clrz
  3097  0199  1803               	skipnc
  3098  019A  3E01               	addlw	1
  3099  019B  1903               	skipnz
  3100  019C  299E               	goto	u3072
  3101  019D  07B7               	addwf	___flmul@grs+2,f
  3102  019E                     u3072:
  3103  019E  0831               	movf	??___flmul+3,w
  3104  019F  1103               	clrz
  3105  01A0  1803               	skipnc
  3106  01A1  3E01               	addlw	1
  3107  01A2  1903               	skipnz
  3108  01A3  29A5               	goto	u3073
  3109  01A4  07B8               	addwf	___flmul@grs+3,f
  3110  01A5                     u3073:
  3111  01A5                     l2401:
  3112  01A5  3008               	movlw	8
  3113  01A6  00AE               	movwf	??___flmul
  3114  01A7                     u3085:
  3115  01A7  1003               	clrc
  3116  01A8  0DB5               	rlf	___flmul@grs,f
  3117  01A9  0DB6               	rlf	___flmul@grs+1,f
  3118  01AA  0DB7               	rlf	___flmul@grs+2,f
  3119  01AB  0DB8               	rlf	___flmul@grs+3,f
  3120  01AC  0BAE               	decfsz	??___flmul,f
  3121  01AD  29A7               	goto	u3085
  3122  01AE  0826               	movf	___flmul@b,w
  3123  01AF  00AE               	movwf	??___flmul
  3124  01B0  082E               	movf	??___flmul,w
  3125  01B1  00F2               	movwf	__Umul8_16@multiplicand
  3126  01B2  082A               	movf	___flmul@a,w
  3127  01B3  120A  158A  24C5  120A  118A  	fcall	__Umul8_16
  3128  01B8  0873               	movf	?__Umul8_16+1,w
  3129  01B9  1283               	bcf	3,5	;RP0=0, select bank0
  3130  01BA  1303               	bcf	3,6	;RP1=0, select bank0
  3131  01BB  00BF               	movwf	___flmul@temp+1
  3132  01BC  0872               	movf	?__Umul8_16,w
  3133  01BD  00BE               	movwf	___flmul@temp
  3134  01BE                     l2403:
  3135  01BE  083E               	movf	___flmul@temp,w
  3136  01BF  00AE               	movwf	??___flmul
  3137  01C0  083F               	movf	___flmul@temp+1,w
  3138  01C1  00AF               	movwf	??___flmul+1
  3139  01C2  01B0               	clrf	??___flmul+2
  3140  01C3  01B1               	clrf	??___flmul+3
  3141  01C4  082E               	movf	??___flmul,w
  3142  01C5  07B5               	addwf	___flmul@grs,f
  3143  01C6  082F               	movf	??___flmul+1,w
  3144  01C7  1103               	clrz
  3145  01C8  1803               	skipnc
  3146  01C9  3E01               	addlw	1
  3147  01CA  1903               	skipnz
  3148  01CB  29CD               	goto	u3091
  3149  01CC  07B6               	addwf	___flmul@grs+1,f
  3150  01CD                     u3091:
  3151  01CD  0830               	movf	??___flmul+2,w
  3152  01CE  1103               	clrz
  3153  01CF  1803               	skipnc
  3154  01D0  3E01               	addlw	1
  3155  01D1  1903               	skipnz
  3156  01D2  29D4               	goto	u3092
  3157  01D3  07B7               	addwf	___flmul@grs+2,f
  3158  01D4                     u3092:
  3159  01D4  0831               	movf	??___flmul+3,w
  3160  01D5  1103               	clrz
  3161  01D6  1803               	skipnc
  3162  01D7  3E01               	addlw	1
  3163  01D8  1903               	skipnz
  3164  01D9  29DB               	goto	u3093
  3165  01DA  07B8               	addwf	___flmul@grs+3,f
  3166  01DB                     u3093:
  3167  01DB                     l2405:
  3168  01DB  0827               	movf	___flmul@b+1,w
  3169  01DC  00AE               	movwf	??___flmul
  3170  01DD  082E               	movf	??___flmul,w
  3171  01DE  00F2               	movwf	__Umul8_16@multiplicand
  3172  01DF  082C               	movf	___flmul@a+2,w
  3173  01E0  120A  158A  24C5  120A  118A  	fcall	__Umul8_16
  3174  01E5  0873               	movf	?__Umul8_16+1,w
  3175  01E6  1283               	bcf	3,5	;RP0=0, select bank0
  3176  01E7  1303               	bcf	3,6	;RP1=0, select bank0
  3177  01E8  00BF               	movwf	___flmul@temp+1
  3178  01E9  0872               	movf	?__Umul8_16,w
  3179  01EA  00BE               	movwf	___flmul@temp
  3180  01EB  083E               	movf	___flmul@temp,w
  3181  01EC  00AE               	movwf	??___flmul
  3182  01ED  083F               	movf	___flmul@temp+1,w
  3183  01EE  00AF               	movwf	??___flmul+1
  3184  01EF  01B0               	clrf	??___flmul+2
  3185  01F0  01B1               	clrf	??___flmul+3
  3186  01F1  082E               	movf	??___flmul,w
  3187  01F2  07BA               	addwf	___flmul@prod,f
  3188  01F3  082F               	movf	??___flmul+1,w
  3189  01F4  1103               	clrz
  3190  01F5  1803               	skipnc
  3191  01F6  3E01               	addlw	1
  3192  01F7  1903               	skipnz
  3193  01F8  29FA               	goto	u3101
  3194  01F9  07BB               	addwf	___flmul@prod+1,f
  3195  01FA                     u3101:
  3196  01FA  0830               	movf	??___flmul+2,w
  3197  01FB  1103               	clrz
  3198  01FC  1803               	skipnc
  3199  01FD  3E01               	addlw	1
  3200  01FE  1903               	skipnz
  3201  01FF  2A01               	goto	u3102
  3202  0200  07BC               	addwf	___flmul@prod+2,f
  3203  0201                     u3102:
  3204  0201  0831               	movf	??___flmul+3,w
  3205  0202  1103               	clrz
  3206  0203  1803               	skipnc
  3207  0204  3E01               	addlw	1
  3208  0205  1903               	skipnz
  3209  0206  2A08               	goto	u3103
  3210  0207  07BD               	addwf	___flmul@prod+3,f
  3211  0208                     u3103:
  3212  0208                     l2407:
  3213  0208  0828               	movf	___flmul@b+2,w
  3214  0209  00AE               	movwf	??___flmul
  3215  020A  082E               	movf	??___flmul,w
  3216  020B  00F2               	movwf	__Umul8_16@multiplicand
  3217  020C  082B               	movf	___flmul@a+1,w
  3218  020D  120A  158A  24C5  120A  118A  	fcall	__Umul8_16
  3219  0212  0873               	movf	?__Umul8_16+1,w
  3220  0213  1283               	bcf	3,5	;RP0=0, select bank0
  3221  0214  1303               	bcf	3,6	;RP1=0, select bank0
  3222  0215  00BF               	movwf	___flmul@temp+1
  3223  0216  0872               	movf	?__Umul8_16,w
  3224  0217  00BE               	movwf	___flmul@temp
  3225  0218                     l2409:
  3226  0218  083E               	movf	___flmul@temp,w
  3227  0219  00AE               	movwf	??___flmul
  3228  021A  083F               	movf	___flmul@temp+1,w
  3229  021B  00AF               	movwf	??___flmul+1
  3230  021C  01B0               	clrf	??___flmul+2
  3231  021D  01B1               	clrf	??___flmul+3
  3232  021E  082E               	movf	??___flmul,w
  3233  021F  07BA               	addwf	___flmul@prod,f
  3234  0220  082F               	movf	??___flmul+1,w
  3235  0221  1103               	clrz
  3236  0222  1803               	skipnc
  3237  0223  3E01               	addlw	1
  3238  0224  1903               	skipnz
  3239  0225  2A27               	goto	u3111
  3240  0226  07BB               	addwf	___flmul@prod+1,f
  3241  0227                     u3111:
  3242  0227  0830               	movf	??___flmul+2,w
  3243  0228  1103               	clrz
  3244  0229  1803               	skipnc
  3245  022A  3E01               	addlw	1
  3246  022B  1903               	skipnz
  3247  022C  2A2E               	goto	u3112
  3248  022D  07BC               	addwf	___flmul@prod+2,f
  3249  022E                     u3112:
  3250  022E  0831               	movf	??___flmul+3,w
  3251  022F  1103               	clrz
  3252  0230  1803               	skipnc
  3253  0231  3E01               	addlw	1
  3254  0232  1903               	skipnz
  3255  0233  2A35               	goto	u3113
  3256  0234  07BD               	addwf	___flmul@prod+3,f
  3257  0235                     u3113:
  3258  0235  0828               	movf	___flmul@b+2,w
  3259  0236  00AE               	movwf	??___flmul
  3260  0237  082E               	movf	??___flmul,w
  3261  0238  00F2               	movwf	__Umul8_16@multiplicand
  3262  0239  082C               	movf	___flmul@a+2,w
  3263  023A  120A  158A  24C5  120A  118A  	fcall	__Umul8_16
  3264  023F  0873               	movf	?__Umul8_16+1,w
  3265  0240  1283               	bcf	3,5	;RP0=0, select bank0
  3266  0241  1303               	bcf	3,6	;RP1=0, select bank0
  3267  0242  00BF               	movwf	___flmul@temp+1
  3268  0243  0872               	movf	?__Umul8_16,w
  3269  0244  00BE               	movwf	___flmul@temp
  3270  0245                     l2411:
  3271  0245  083E               	movf	___flmul@temp,w
  3272  0246  00AE               	movwf	??___flmul
  3273  0247  083F               	movf	___flmul@temp+1,w
  3274  0248  00AF               	movwf	??___flmul+1
  3275  0249  01B0               	clrf	??___flmul+2
  3276  024A  01B1               	clrf	??___flmul+3
  3277  024B  3008               	movlw	8
  3278  024C                     u3125:
  3279  024C  1003               	clrc
  3280  024D  0DAE               	rlf	??___flmul,f
  3281  024E  0DAF               	rlf	??___flmul+1,f
  3282  024F  0DB0               	rlf	??___flmul+2,f
  3283  0250  0DB1               	rlf	??___flmul+3,f
  3284  0251                     u3120:
  3285  0251  3EFF               	addlw	-1
  3286  0252  1D03               	skipz
  3287  0253  2A4C               	goto	u3125
  3288  0254  082E               	movf	??___flmul,w
  3289  0255  07BA               	addwf	___flmul@prod,f
  3290  0256  082F               	movf	??___flmul+1,w
  3291  0257  1103               	clrz
  3292  0258  1803               	skipnc
  3293  0259  3E01               	addlw	1
  3294  025A  1903               	skipnz
  3295  025B  2A5D               	goto	u3131
  3296  025C  07BB               	addwf	___flmul@prod+1,f
  3297  025D                     u3131:
  3298  025D  0830               	movf	??___flmul+2,w
  3299  025E  1103               	clrz
  3300  025F  1803               	skipnc
  3301  0260  3E01               	addlw	1
  3302  0261  1903               	skipnz
  3303  0262  2A64               	goto	u3132
  3304  0263  07BC               	addwf	___flmul@prod+2,f
  3305  0264                     u3132:
  3306  0264  0831               	movf	??___flmul+3,w
  3307  0265  1103               	clrz
  3308  0266  1803               	skipnc
  3309  0267  3E01               	addlw	1
  3310  0268  1903               	skipnz
  3311  0269  2A6B               	goto	u3133
  3312  026A  07BD               	addwf	___flmul@prod+3,f
  3313  026B                     u3133:
  3314  026B                     l2413:
  3315  026B  0835               	movf	___flmul@grs,w
  3316  026C  00AE               	movwf	??___flmul
  3317  026D  0836               	movf	___flmul@grs+1,w
  3318  026E  00AF               	movwf	??___flmul+1
  3319  026F  0837               	movf	___flmul@grs+2,w
  3320  0270  00B0               	movwf	??___flmul+2
  3321  0271  0838               	movf	___flmul@grs+3,w
  3322  0272  00B1               	movwf	??___flmul+3
  3323  0273  3018               	movlw	24
  3324  0274                     u3145:
  3325  0274  1003               	clrc
  3326  0275  0CB1               	rrf	??___flmul+3,f
  3327  0276  0CB0               	rrf	??___flmul+2,f
  3328  0277  0CAF               	rrf	??___flmul+1,f
  3329  0278  0CAE               	rrf	??___flmul,f
  3330  0279                     u3140:
  3331  0279  3EFF               	addlw	-1
  3332  027A  1D03               	skipz
  3333  027B  2A74               	goto	u3145
  3334  027C  082E               	movf	??___flmul,w
  3335  027D  07BA               	addwf	___flmul@prod,f
  3336  027E  082F               	movf	??___flmul+1,w
  3337  027F  1103               	clrz
  3338  0280  1803               	skipnc
  3339  0281  3E01               	addlw	1
  3340  0282  1903               	skipnz
  3341  0283  2A85               	goto	u3151
  3342  0284  07BB               	addwf	___flmul@prod+1,f
  3343  0285                     u3151:
  3344  0285  0830               	movf	??___flmul+2,w
  3345  0286  1103               	clrz
  3346  0287  1803               	skipnc
  3347  0288  3E01               	addlw	1
  3348  0289  1903               	skipnz
  3349  028A  2A8C               	goto	u3152
  3350  028B  07BC               	addwf	___flmul@prod+2,f
  3351  028C                     u3152:
  3352  028C  0831               	movf	??___flmul+3,w
  3353  028D  1103               	clrz
  3354  028E  1803               	skipnc
  3355  028F  3E01               	addlw	1
  3356  0290  1903               	skipnz
  3357  0291  2A93               	goto	u3153
  3358  0292  07BD               	addwf	___flmul@prod+3,f
  3359  0293                     u3153:
  3360  0293                     l2415:
  3361  0293  3008               	movlw	8
  3362  0294  00AE               	movwf	??___flmul
  3363  0295                     u3165:
  3364  0295  1003               	clrc
  3365  0296  0DB5               	rlf	___flmul@grs,f
  3366  0297  0DB6               	rlf	___flmul@grs+1,f
  3367  0298  0DB7               	rlf	___flmul@grs+2,f
  3368  0299  0DB8               	rlf	___flmul@grs+3,f
  3369  029A  0BAE               	decfsz	??___flmul,f
  3370  029B  2A95               	goto	u3165
  3371  029C                     l2417:
  3372  029C  0839               	movf	___flmul@bexp,w
  3373  029D  0734               	addwf	___flmul@aexp,w
  3374  029E  00AE               	movwf	??___flmul
  3375  029F  01AF               	clrf	??___flmul+1
  3376  02A0  0DAF               	rlf	??___flmul+1,f
  3377  02A1  082E               	movf	??___flmul,w
  3378  02A2  3E82               	addlw	130
  3379  02A3  00BE               	movwf	___flmul@temp
  3380  02A4  082F               	movf	??___flmul+1,w
  3381  02A5  1803               	skipnc
  3382  02A6  3E01               	addlw	1
  3383  02A7  3EFF               	addlw	255
  3384  02A8  00BF               	movwf	___flmul@temp+1
  3385  02A9  2AC7               	goto	l2429
  3386  02AA                     l2419:
  3387  02AA  3001               	movlw	1
  3388  02AB  00AE               	movwf	??___flmul
  3389  02AC                     u3175:
  3390  02AC  1003               	clrc
  3391  02AD  0DBA               	rlf	___flmul@prod,f
  3392  02AE  0DBB               	rlf	___flmul@prod+1,f
  3393  02AF  0DBC               	rlf	___flmul@prod+2,f
  3394  02B0  0DBD               	rlf	___flmul@prod+3,f
  3395  02B1  0BAE               	decfsz	??___flmul,f
  3396  02B2  2AAC               	goto	u3175
  3397  02B3                     l2421:
  3398  02B3  1FB8               	btfss	___flmul@grs+3,7
  3399  02B4  2AB6               	goto	u3181
  3400  02B5  2AB7               	goto	u3180
  3401  02B6                     u3181:
  3402  02B6  2AB8               	goto	l2425
  3403  02B7                     u3180:
  3404  02B7                     l2423:
  3405  02B7  143A               	bsf	___flmul@prod,0
  3406  02B8                     l2425:
  3407  02B8  3001               	movlw	1
  3408  02B9  00AE               	movwf	??___flmul
  3409  02BA                     u3195:
  3410  02BA  1003               	clrc
  3411  02BB  0DB5               	rlf	___flmul@grs,f
  3412  02BC  0DB6               	rlf	___flmul@grs+1,f
  3413  02BD  0DB7               	rlf	___flmul@grs+2,f
  3414  02BE  0DB8               	rlf	___flmul@grs+3,f
  3415  02BF  0BAE               	decfsz	??___flmul,f
  3416  02C0  2ABA               	goto	u3195
  3417  02C1                     l2427:
  3418  02C1  30FF               	movlw	255
  3419  02C2  07BE               	addwf	___flmul@temp,f
  3420  02C3  1803               	skipnc
  3421  02C4  0ABF               	incf	___flmul@temp+1,f
  3422  02C5  30FF               	movlw	255
  3423  02C6  07BF               	addwf	___flmul@temp+1,f
  3424  02C7                     l2429:
  3425  02C7  1FBC               	btfss	___flmul@prod+2,7
  3426  02C8  2ACA               	goto	u3201
  3427  02C9  2ACB               	goto	u3200
  3428  02CA                     u3201:
  3429  02CA  2AAA               	goto	l2419
  3430  02CB                     u3200:
  3431  02CB                     l2431:
  3432  02CB  01B4               	clrf	___flmul@aexp
  3433  02CC                     l2433:
  3434  02CC  1FB8               	btfss	___flmul@grs+3,7
  3435  02CD  2ACF               	goto	u3211
  3436  02CE  2AD0               	goto	u3210
  3437  02CF                     u3211:
  3438  02CF  2AEC               	goto	l2441
  3439  02D0                     u3210:
  3440  02D0                     l2435:
  3441  02D0  30FF               	movlw	255
  3442  02D1  0535               	andwf	___flmul@grs,w
  3443  02D2  00AE               	movwf	??___flmul
  3444  02D3  30FF               	movlw	255
  3445  02D4  0536               	andwf	___flmul@grs+1,w
  3446  02D5  00AF               	movwf	??___flmul+1
  3447  02D6  30FF               	movlw	255
  3448  02D7  0537               	andwf	___flmul@grs+2,w
  3449  02D8  00B0               	movwf	??___flmul+2
  3450  02D9  307F               	movlw	127
  3451  02DA  0538               	andwf	___flmul@grs+3,w
  3452  02DB  00B1               	movwf	??___flmul+3
  3453  02DC  0831               	movf	??___flmul+3,w
  3454  02DD  0430               	iorwf	??___flmul+2,w
  3455  02DE  042F               	iorwf	??___flmul+1,w
  3456  02DF  042E               	iorwf	??___flmul,w
  3457  02E0  1903               	skipnz
  3458  02E1  2AE3               	goto	u3221
  3459  02E2  2AE4               	goto	u3220
  3460  02E3                     u3221:
  3461  02E3  2AE7               	goto	l672
  3462  02E4                     u3220:
  3463  02E4                     l2437:
  3464  02E4  01B4               	clrf	___flmul@aexp
  3465  02E5  0AB4               	incf	___flmul@aexp,f
  3466  02E6  2AEC               	goto	l2441
  3467  02E7                     l672:
  3468  02E7  1C3A               	btfss	___flmul@prod,0
  3469  02E8  2AEA               	goto	u3231
  3470  02E9  2AEB               	goto	u3230
  3471  02EA                     u3231:
  3472  02EA  2AEC               	goto	l2441
  3473  02EB                     u3230:
  3474  02EB  2AE4               	goto	l2437
  3475  02EC                     l2441:
  3476  02EC  0834               	movf	___flmul@aexp,w
  3477  02ED  1903               	btfsc	3,2
  3478  02EE  2AF0               	goto	u3241
  3479  02EF  2AF1               	goto	u3240
  3480  02F0                     u3241:
  3481  02F0  2B22               	goto	l2451
  3482  02F1                     u3240:
  3483  02F1                     l2443:
  3484  02F1  3001               	movlw	1
  3485  02F2  07BA               	addwf	___flmul@prod,f
  3486  02F3  3000               	movlw	0
  3487  02F4  1803               	skipnc
  3488  02F5  3001               	movlw	1
  3489  02F6  07BB               	addwf	___flmul@prod+1,f
  3490  02F7  3000               	movlw	0
  3491  02F8  1803               	skipnc
  3492  02F9  3001               	movlw	1
  3493  02FA  07BC               	addwf	___flmul@prod+2,f
  3494  02FB  3000               	movlw	0
  3495  02FC  1803               	skipnc
  3496  02FD  3001               	movlw	1
  3497  02FE  07BD               	addwf	___flmul@prod+3,f
  3498  02FF                     l2445:
  3499  02FF  1C3D               	btfss	___flmul@prod+3,0
  3500  0300  2B02               	goto	u3251
  3501  0301  2B03               	goto	u3250
  3502  0302                     u3251:
  3503  0302  2B22               	goto	l2451
  3504  0303                     u3250:
  3505  0303                     l2447:
  3506  0303  083A               	movf	___flmul@prod,w
  3507  0304  00AE               	movwf	??___flmul
  3508  0305  083B               	movf	___flmul@prod+1,w
  3509  0306  00AF               	movwf	??___flmul+1
  3510  0307  083C               	movf	___flmul@prod+2,w
  3511  0308  00B0               	movwf	??___flmul+2
  3512  0309  083D               	movf	___flmul@prod+3,w
  3513  030A  00B1               	movwf	??___flmul+3
  3514  030B  3001               	movlw	1
  3515  030C  00B2               	movwf	??___flmul+4
  3516  030D                     u3265:
  3517  030D  0D31               	rlf	??___flmul+3,w
  3518  030E  0CB1               	rrf	??___flmul+3,f
  3519  030F  0CB0               	rrf	??___flmul+2,f
  3520  0310  0CAF               	rrf	??___flmul+1,f
  3521  0311  0CAE               	rrf	??___flmul,f
  3522  0312                     u3260:
  3523  0312  0BB2               	decfsz	??___flmul+4,f
  3524  0313  2B0D               	goto	u3265
  3525  0314  0831               	movf	??___flmul+3,w
  3526  0315  00BD               	movwf	___flmul@prod+3
  3527  0316  0830               	movf	??___flmul+2,w
  3528  0317  00BC               	movwf	___flmul@prod+2
  3529  0318  082F               	movf	??___flmul+1,w
  3530  0319  00BB               	movwf	___flmul@prod+1
  3531  031A  082E               	movf	??___flmul,w
  3532  031B  00BA               	movwf	___flmul@prod
  3533  031C                     l2449:
  3534  031C  3001               	movlw	1
  3535  031D  07BE               	addwf	___flmul@temp,f
  3536  031E  1803               	skipnc
  3537  031F  0ABF               	incf	___flmul@temp+1,f
  3538  0320  3000               	movlw	0
  3539  0321  07BF               	addwf	___flmul@temp+1,f
  3540  0322                     l2451:
  3541  0322  083F               	movf	___flmul@temp+1,w
  3542  0323  3A80               	xorlw	128
  3543  0324  00FF               	movwf	btemp+1
  3544  0325  3080               	movlw	128
  3545  0326  027F               	subwf	btemp+1,w
  3546  0327  1D03               	skipz
  3547  0328  2B2B               	goto	u3275
  3548  0329  30FF               	movlw	255
  3549  032A  023E               	subwf	___flmul@temp,w
  3550  032B                     u3275:
  3551  032B  1C03               	skipc
  3552  032C  2B2E               	goto	u3271
  3553  032D  2B2F               	goto	u3270
  3554  032E                     u3271:
  3555  032E  2B3A               	goto	l2455
  3556  032F                     u3270:
  3557  032F                     l2453:
  3558  032F  307F               	movlw	127
  3559  0330  1283               	bcf	3,5	;RP0=0, select bank0
  3560  0331  1303               	bcf	3,6	;RP1=0, select bank0
  3561  0332  00BD               	movwf	___flmul@prod+3
  3562  0333  3080               	movlw	128
  3563  0334  00BC               	movwf	___flmul@prod+2
  3564  0335  3000               	movlw	0
  3565  0336  00BB               	movwf	___flmul@prod+1
  3566  0337  3000               	movlw	0
  3567  0338  00BA               	movwf	___flmul@prod
  3568  0339  2B6F               	goto	l678
  3569  033A                     l2455:
  3570  033A  1283               	bcf	3,5	;RP0=0, select bank0
  3571  033B  1303               	bcf	3,6	;RP1=0, select bank0
  3572  033C  083F               	movf	___flmul@temp+1,w
  3573  033D  3A80               	xorlw	128
  3574  033E  00FF               	movwf	btemp+1
  3575  033F  3080               	movlw	128
  3576  0340  027F               	subwf	btemp+1,w
  3577  0341  1D03               	skipz
  3578  0342  2B45               	goto	u3285
  3579  0343  3001               	movlw	1
  3580  0344  023E               	subwf	___flmul@temp,w
  3581  0345                     u3285:
  3582  0345  1803               	skipnc
  3583  0346  2B48               	goto	u3281
  3584  0347  2B49               	goto	u3280
  3585  0348                     u3281:
  3586  0348  2B55               	goto	l2461
  3587  0349                     u3280:
  3588  0349                     l2457:
  3589  0349  3000               	movlw	0
  3590  034A  1283               	bcf	3,5	;RP0=0, select bank0
  3591  034B  1303               	bcf	3,6	;RP1=0, select bank0
  3592  034C  00BD               	movwf	___flmul@prod+3
  3593  034D  3000               	movlw	0
  3594  034E  00BC               	movwf	___flmul@prod+2
  3595  034F  3000               	movlw	0
  3596  0350  00BB               	movwf	___flmul@prod+1
  3597  0351  3000               	movlw	0
  3598  0352  00BA               	movwf	___flmul@prod
  3599  0353                     l2459:
  3600  0353  01B3               	clrf	___flmul@sign
  3601  0354  2B6F               	goto	l678
  3602  0355                     l2461:
  3603  0355  1283               	bcf	3,5	;RP0=0, select bank0
  3604  0356  1303               	bcf	3,6	;RP1=0, select bank0
  3605  0357  083E               	movf	___flmul@temp,w
  3606  0358  00AE               	movwf	??___flmul
  3607  0359  082E               	movf	??___flmul,w
  3608  035A  00B9               	movwf	___flmul@bexp
  3609  035B  30FF               	movlw	255
  3610  035C  05BA               	andwf	___flmul@prod,f
  3611  035D  30FF               	movlw	255
  3612  035E  05BB               	andwf	___flmul@prod+1,f
  3613  035F  307F               	movlw	127
  3614  0360  05BC               	andwf	___flmul@prod+2,f
  3615  0361  3000               	movlw	0
  3616  0362  05BD               	andwf	___flmul@prod+3,f
  3617  0363                     l2463:
  3618  0363  1C39               	btfss	___flmul@bexp,0
  3619  0364  2B66               	goto	u3291
  3620  0365  2B67               	goto	u3290
  3621  0366                     u3291:
  3622  0366  2B68               	goto	l2467
  3623  0367                     u3290:
  3624  0367                     l2465:
  3625  0367  17BC               	bsf	___flmul@prod+2,7
  3626  0368                     l2467:
  3627  0368  0839               	movf	___flmul@bexp,w
  3628  0369  00AE               	movwf	??___flmul
  3629  036A  1003               	clrc
  3630  036B  0C2E               	rrf	??___flmul,w
  3631  036C  00AF               	movwf	??___flmul+1
  3632  036D  082F               	movf	??___flmul+1,w
  3633  036E  00BD               	movwf	___flmul@prod+3
  3634  036F                     l678:
  3635  036F  0833               	movf	___flmul@sign,w
  3636  0370  00AE               	movwf	??___flmul
  3637  0371  082E               	movf	??___flmul,w
  3638  0372  04BD               	iorwf	___flmul@prod+3,f
  3639  0373                     l2469:
  3640  0373  083D               	movf	___flmul@prod+3,w
  3641  0374  00A9               	movwf	?___flmul+3
  3642  0375  083C               	movf	___flmul@prod+2,w
  3643  0376  00A8               	movwf	?___flmul+2
  3644  0377  083B               	movf	___flmul@prod+1,w
  3645  0378  00A7               	movwf	?___flmul+1
  3646  0379  083A               	movf	___flmul@prod,w
  3647  037A  00A6               	movwf	?___flmul
  3648  037B                     l666:
  3649  037B  0008               	return
  3650  037C                     __end_of___flmul:
  3651                           
  3652                           	psect	text13
  3653  0CC5                     __ptext13:	
  3654 ;; *************** function __Umul8_16 *****************
  3655 ;; Defined at:
  3656 ;;		line 4 in file "C:\Program Files\Microchip\xc8\v2.30\pic\sources\c90\common\Umul8_16.c"
  3657 ;; Parameters:    Size  Location     Type
  3658 ;;  multiplier      1    wreg     unsigned char 
  3659 ;;  multiplicand    1    2[COMMON] unsigned char 
  3660 ;; Auto vars:     Size  Location     Type
  3661 ;;  multiplier      1    4[BANK0 ] unsigned char 
  3662 ;;  word_mpld       2    2[BANK0 ] unsigned int 
  3663 ;;  product         2    0[BANK0 ] unsigned int 
  3664 ;; Return value:  Size  Location     Type
  3665 ;;                  2    2[COMMON] unsigned int 
  3666 ;; Registers used:
  3667 ;;		wreg, status,2, status,0
  3668 ;; Tracked objects:
  3669 ;;		On entry : 0/0
  3670 ;;		On exit  : 0/0
  3671 ;;		Unchanged: 0/0
  3672 ;; Data sizes:     COMMON   BANK0   BANK1   BANK3   BANK2
  3673 ;;      Params:         2       0       0       0       0
  3674 ;;      Locals:         0       5       0       0       0
  3675 ;;      Temps:          2       0       0       0       0
  3676 ;;      Totals:         4       5       0       0       0
  3677 ;;Total ram usage:        9 bytes
  3678 ;; Hardware stack levels used:    1
  3679 ;; Hardware stack levels required when called:    2
  3680 ;; This function calls:
  3681 ;;		Nothing
  3682 ;; This function is called by:
  3683 ;;		___flmul
  3684 ;; This function uses a non-reentrant model
  3685 ;;
  3686                           
  3687                           
  3688                           ;psect for function __Umul8_16
  3689  0CC5                     __Umul8_16:
  3690                           
  3691                           ;incstack = 0
  3692                           ; Regs used in __Umul8_16: [wreg+status,2+status,0]
  3693                           ;__Umul8_16@multiplier stored from wreg
  3694  0CC5  1283               	bcf	3,5	;RP0=0, select bank0
  3695  0CC6  1303               	bcf	3,6	;RP1=0, select bank0
  3696  0CC7  00A4               	movwf	__Umul8_16@multiplier
  3697  0CC8                     l2257:
  3698  0CC8  01A0               	clrf	__Umul8_16@product
  3699  0CC9  01A1               	clrf	__Umul8_16@product+1
  3700  0CCA                     l2259:
  3701  0CCA  0872               	movf	__Umul8_16@multiplicand,w
  3702  0CCB  00F4               	movwf	??__Umul8_16
  3703  0CCC  01F5               	clrf	??__Umul8_16+1
  3704  0CCD  0874               	movf	??__Umul8_16,w
  3705  0CCE  00A2               	movwf	__Umul8_16@word_mpld
  3706  0CCF  0875               	movf	??__Umul8_16+1,w
  3707  0CD0  00A3               	movwf	__Umul8_16@word_mpld+1
  3708  0CD1                     l2261:
  3709  0CD1  1C24               	btfss	__Umul8_16@multiplier,0
  3710  0CD2  2CD4               	goto	u2811
  3711  0CD3  2CD5               	goto	u2810
  3712  0CD4                     u2811:
  3713  0CD4  2CDB               	goto	l685
  3714  0CD5                     u2810:
  3715  0CD5                     l2263:
  3716  0CD5  0822               	movf	__Umul8_16@word_mpld,w
  3717  0CD6  07A0               	addwf	__Umul8_16@product,f
  3718  0CD7  1803               	skipnc
  3719  0CD8  0AA1               	incf	__Umul8_16@product+1,f
  3720  0CD9  0823               	movf	__Umul8_16@word_mpld+1,w
  3721  0CDA  07A1               	addwf	__Umul8_16@product+1,f
  3722  0CDB                     l685:
  3723  0CDB  3001               	movlw	1
  3724  0CDC                     u2825:
  3725  0CDC  1003               	clrc
  3726  0CDD  0DA2               	rlf	__Umul8_16@word_mpld,f
  3727  0CDE  0DA3               	rlf	__Umul8_16@word_mpld+1,f
  3728  0CDF  3EFF               	addlw	-1
  3729  0CE0  1D03               	skipz
  3730  0CE1  2CDC               	goto	u2825
  3731  0CE2  1003               	clrc
  3732  0CE3  0CA4               	rrf	__Umul8_16@multiplier,f
  3733  0CE4                     l2265:
  3734  0CE4  0824               	movf	__Umul8_16@multiplier,w
  3735  0CE5  1D03               	btfss	3,2
  3736  0CE6  2CE8               	goto	u2831
  3737  0CE7  2CE9               	goto	u2830
  3738  0CE8                     u2831:
  3739  0CE8  2CD1               	goto	l2261
  3740  0CE9                     u2830:
  3741  0CE9                     l2267:
  3742  0CE9  0821               	movf	__Umul8_16@product+1,w
  3743  0CEA  00F3               	movwf	?__Umul8_16+1
  3744  0CEB  0820               	movf	__Umul8_16@product,w
  3745  0CEC  00F2               	movwf	?__Umul8_16
  3746  0CED                     l687:
  3747  0CED  0008               	return
  3748  0CEE                     __end_of__Umul8_16:
  3749                           
  3750                           	psect	text14
  3751  037C                     __ptext14:	
  3752 ;; *************** function ___fldiv *****************
  3753 ;; Defined at:
  3754 ;;		line 8 in file "C:\Program Files\Microchip\xc8\v2.30\pic\sources\c90\common\sprcdiv.c"
  3755 ;; Parameters:    Size  Location     Type
  3756 ;;  a               4   32[BANK0 ] unsigned int 
  3757 ;;  b               4   36[BANK0 ] unsigned int 
  3758 ;; Auto vars:     Size  Location     Type
  3759 ;;  grs             4   52[BANK0 ] unsigned long 
  3760 ;;  rem             4   45[BANK0 ] unsigned long 
  3761 ;;  new_exp         2   50[BANK0 ] int 
  3762 ;;  aexp            1   57[BANK0 ] unsigned char 
  3763 ;;  bexp            1   56[BANK0 ] unsigned char 
  3764 ;;  sign            1   49[BANK0 ] unsigned char 
  3765 ;; Return value:  Size  Location     Type
  3766 ;;                  4   32[BANK0 ] unsigned char 
  3767 ;; Registers used:
  3768 ;;		wreg, status,2, status,0, btemp+1
  3769 ;; Tracked objects:
  3770 ;;		On entry : 0/0
  3771 ;;		On exit  : 0/0
  3772 ;;		Unchanged: 0/0
  3773 ;; Data sizes:     COMMON   BANK0   BANK1   BANK3   BANK2
  3774 ;;      Params:         0       8       0       0       0
  3775 ;;      Locals:         0      13       0       0       0
  3776 ;;      Temps:          0       5       0       0       0
  3777 ;;      Totals:         0      26       0       0       0
  3778 ;;Total ram usage:       26 bytes
  3779 ;; Hardware stack levels used:    1
  3780 ;; Hardware stack levels required when called:    2
  3781 ;; This function calls:
  3782 ;;		Nothing
  3783 ;; This function is called by:
  3784 ;;		_do_luong
  3785 ;; This function uses a non-reentrant model
  3786 ;;
  3787                           
  3788                           
  3789                           ;psect for function ___fldiv
  3790  037C                     ___fldiv:
  3791  037C                     l1707:	
  3792                           ;incstack = 0
  3793                           ; Regs used in ___fldiv: [wreg+status,2+status,0+btemp+1]
  3794                           
  3795  037C  1283               	bcf	3,5	;RP0=0, select bank0
  3796  037D  1303               	bcf	3,6	;RP1=0, select bank0
  3797  037E  0847               	movf	___fldiv@b+3,w
  3798  037F  3980               	andlw	128
  3799  0380  00C8               	movwf	??___fldiv
  3800  0381  0848               	movf	??___fldiv,w
  3801  0382  00D1               	movwf	___fldiv@sign
  3802  0383                     l1709:
  3803  0383  0847               	movf	___fldiv@b+3,w
  3804  0384  00C8               	movwf	??___fldiv
  3805  0385  0748               	addwf	??___fldiv,w
  3806  0386  00C9               	movwf	??___fldiv+1
  3807  0387  0849               	movf	??___fldiv+1,w
  3808  0388  00D8               	movwf	___fldiv@bexp
  3809  0389                     l1711:
  3810  0389  1FC6               	btfss	___fldiv@b+2,7
  3811  038A  2B8C               	goto	u1761
  3812  038B  2B8D               	goto	u1760
  3813  038C                     u1761:
  3814  038C  2B8E               	goto	l1715
  3815  038D                     u1760:
  3816  038D                     l1713:
  3817  038D  1458               	bsf	___fldiv@bexp,0
  3818  038E                     l1715:
  3819  038E  0858               	movf	___fldiv@bexp,w
  3820  038F  1903               	btfsc	3,2
  3821  0390  2B92               	goto	u1771
  3822  0391  2B93               	goto	u1770
  3823  0392                     u1771:
  3824  0392  2BA3               	goto	l1725
  3825  0393                     u1770:
  3826  0393                     l1717:
  3827  0393  0A58               	incf	___fldiv@bexp,w
  3828  0394  1D03               	btfss	3,2
  3829  0395  2B97               	goto	u1781
  3830  0396  2B98               	goto	u1780
  3831  0397                     u1781:
  3832  0397  2BA0               	goto	l1721
  3833  0398                     u1780:
  3834  0398                     l1719:
  3835  0398  3000               	movlw	0
  3836  0399  00C7               	movwf	___fldiv@b+3
  3837  039A  3000               	movlw	0
  3838  039B  00C6               	movwf	___fldiv@b+2
  3839  039C  3000               	movlw	0
  3840  039D  00C5               	movwf	___fldiv@b+1
  3841  039E  3000               	movlw	0
  3842  039F  00C4               	movwf	___fldiv@b
  3843  03A0                     l1721:
  3844  03A0  17C6               	bsf	___fldiv@b+2,7
  3845  03A1                     l1723:
  3846  03A1  01C7               	clrf	___fldiv@b+3
  3847  03A2  2BAB               	goto	l1727
  3848  03A3                     l1725:
  3849  03A3  3000               	movlw	0
  3850  03A4  00C7               	movwf	___fldiv@b+3
  3851  03A5  3000               	movlw	0
  3852  03A6  00C6               	movwf	___fldiv@b+2
  3853  03A7  3000               	movlw	0
  3854  03A8  00C5               	movwf	___fldiv@b+1
  3855  03A9  3000               	movlw	0
  3856  03AA  00C4               	movwf	___fldiv@b
  3857  03AB                     l1727:
  3858  03AB  0843               	movf	___fldiv@a+3,w
  3859  03AC  3980               	andlw	128
  3860  03AD  00C8               	movwf	??___fldiv
  3861  03AE  0848               	movf	??___fldiv,w
  3862  03AF  06D1               	xorwf	___fldiv@sign,f
  3863  03B0                     l1729:
  3864  03B0  0843               	movf	___fldiv@a+3,w
  3865  03B1  00C8               	movwf	??___fldiv
  3866  03B2  0748               	addwf	??___fldiv,w
  3867  03B3  00C9               	movwf	??___fldiv+1
  3868  03B4  0849               	movf	??___fldiv+1,w
  3869  03B5  00D9               	movwf	___fldiv@aexp
  3870  03B6                     l1731:
  3871  03B6  1FC2               	btfss	___fldiv@a+2,7
  3872  03B7  2BB9               	goto	u1791
  3873  03B8  2BBA               	goto	u1790
  3874  03B9                     u1791:
  3875  03B9  2BBB               	goto	l1735
  3876  03BA                     u1790:
  3877  03BA                     l1733:
  3878  03BA  1459               	bsf	___fldiv@aexp,0
  3879  03BB                     l1735:
  3880  03BB  0859               	movf	___fldiv@aexp,w
  3881  03BC  1903               	btfsc	3,2
  3882  03BD  2BBF               	goto	u1801
  3883  03BE  2BC0               	goto	u1800
  3884  03BF                     u1801:
  3885  03BF  2BD0               	goto	l1745
  3886  03C0                     u1800:
  3887  03C0                     l1737:
  3888  03C0  0A59               	incf	___fldiv@aexp,w
  3889  03C1  1D03               	btfss	3,2
  3890  03C2  2BC4               	goto	u1811
  3891  03C3  2BC5               	goto	u1810
  3892  03C4                     u1811:
  3893  03C4  2BCD               	goto	l1741
  3894  03C5                     u1810:
  3895  03C5                     l1739:
  3896  03C5  3000               	movlw	0
  3897  03C6  00C3               	movwf	___fldiv@a+3
  3898  03C7  3000               	movlw	0
  3899  03C8  00C2               	movwf	___fldiv@a+2
  3900  03C9  3000               	movlw	0
  3901  03CA  00C1               	movwf	___fldiv@a+1
  3902  03CB  3000               	movlw	0
  3903  03CC  00C0               	movwf	___fldiv@a
  3904  03CD                     l1741:
  3905  03CD  17C2               	bsf	___fldiv@a+2,7
  3906  03CE                     l1743:
  3907  03CE  01C3               	clrf	___fldiv@a+3
  3908  03CF  2BD8               	goto	l626
  3909  03D0                     l1745:
  3910  03D0  3000               	movlw	0
  3911  03D1  00C3               	movwf	___fldiv@a+3
  3912  03D2  3000               	movlw	0
  3913  03D3  00C2               	movwf	___fldiv@a+2
  3914  03D4  3000               	movlw	0
  3915  03D5  00C1               	movwf	___fldiv@a+1
  3916  03D6  3000               	movlw	0
  3917  03D7  00C0               	movwf	___fldiv@a
  3918  03D8                     l626:
  3919  03D8  0843               	movf	___fldiv@a+3,w
  3920  03D9  0442               	iorwf	___fldiv@a+2,w
  3921  03DA  0441               	iorwf	___fldiv@a+1,w
  3922  03DB  0440               	iorwf	___fldiv@a,w
  3923  03DC  1D03               	skipz
  3924  03DD  2BDF               	goto	u1821
  3925  03DE  2BE0               	goto	u1820
  3926  03DF                     u1821:
  3927  03DF  2BF9               	goto	l1755
  3928  03E0                     u1820:
  3929  03E0                     l1747:
  3930  03E0  3000               	movlw	0
  3931  03E1  00C7               	movwf	___fldiv@b+3
  3932  03E2  3000               	movlw	0
  3933  03E3  00C6               	movwf	___fldiv@b+2
  3934  03E4  3000               	movlw	0
  3935  03E5  00C5               	movwf	___fldiv@b+1
  3936  03E6  3000               	movlw	0
  3937  03E7  00C4               	movwf	___fldiv@b
  3938  03E8  3080               	movlw	128
  3939  03E9  04C6               	iorwf	___fldiv@b+2,f
  3940  03EA  307F               	movlw	127
  3941  03EB  04C7               	iorwf	___fldiv@b+3,f
  3942  03EC                     l1749:
  3943  03EC  0851               	movf	___fldiv@sign,w
  3944  03ED  00C8               	movwf	??___fldiv
  3945  03EE  0848               	movf	??___fldiv,w
  3946  03EF  04C7               	iorwf	___fldiv@b+3,f
  3947  03F0                     l1751:
  3948  03F0  0847               	movf	___fldiv@b+3,w
  3949  03F1  00C3               	movwf	?___fldiv+3
  3950  03F2  0846               	movf	___fldiv@b+2,w
  3951  03F3  00C2               	movwf	?___fldiv+2
  3952  03F4  0845               	movf	___fldiv@b+1,w
  3953  03F5  00C1               	movwf	?___fldiv+1
  3954  03F6  0844               	movf	___fldiv@b,w
  3955  03F7  00C0               	movwf	?___fldiv
  3956  03F8  2D58               	goto	l628
  3957  03F9                     l1755:
  3958  03F9  0858               	movf	___fldiv@bexp,w
  3959  03FA  1D03               	btfss	3,2
  3960  03FB  2BFD               	goto	u1831
  3961  03FC  2BFE               	goto	u1830
  3962  03FD                     u1831:
  3963  03FD  2C07               	goto	l1761
  3964  03FE                     u1830:
  3965  03FE                     l1757:
  3966  03FE  3000               	movlw	0
  3967  03FF  00C3               	movwf	?___fldiv+3
  3968  0400  3000               	movlw	0
  3969  0401  00C2               	movwf	?___fldiv+2
  3970  0402  3000               	movlw	0
  3971  0403  00C1               	movwf	?___fldiv+1
  3972  0404  3000               	movlw	0
  3973  0405  00C0               	movwf	?___fldiv
  3974  0406  2D58               	goto	l628
  3975  0407                     l1761:
  3976  0407  0858               	movf	___fldiv@bexp,w
  3977  0408  00C8               	movwf	??___fldiv
  3978  0409  01C9               	clrf	??___fldiv+1
  3979  040A  0849               	movf	??___fldiv+1,w
  3980  040B  00CB               	movwf	??___fldiv+3
  3981  040C  0859               	movf	___fldiv@aexp,w
  3982  040D  0248               	subwf	??___fldiv,w
  3983  040E  00CA               	movwf	??___fldiv+2
  3984  040F  1C03               	skipc
  3985  0410  03CB               	decf	??___fldiv+3,f
  3986  0411  084A               	movf	??___fldiv+2,w
  3987  0412  3E7F               	addlw	127
  3988  0413  00D2               	movwf	___fldiv@new_exp
  3989  0414  084B               	movf	??___fldiv+3,w
  3990  0415  1803               	skipnc
  3991  0416  3E01               	addlw	1
  3992  0417  3E00               	addlw	0
  3993  0418  00D3               	movwf	___fldiv@new_exp+1
  3994  0419                     l1763:
  3995  0419  0847               	movf	___fldiv@b+3,w
  3996  041A  00D0               	movwf	___fldiv@rem+3
  3997  041B  0846               	movf	___fldiv@b+2,w
  3998  041C  00CF               	movwf	___fldiv@rem+2
  3999  041D  0845               	movf	___fldiv@b+1,w
  4000  041E  00CE               	movwf	___fldiv@rem+1
  4001  041F  0844               	movf	___fldiv@b,w
  4002  0420  00CD               	movwf	___fldiv@rem
  4003  0421                     l1765:
  4004  0421  3000               	movlw	0
  4005  0422  00C7               	movwf	___fldiv@b+3
  4006  0423  3000               	movlw	0
  4007  0424  00C6               	movwf	___fldiv@b+2
  4008  0425  3000               	movlw	0
  4009  0426  00C5               	movwf	___fldiv@b+1
  4010  0427  3000               	movlw	0
  4011  0428  00C4               	movwf	___fldiv@b
  4012  0429                     l1767:
  4013  0429  3000               	movlw	0
  4014  042A  00D7               	movwf	___fldiv@grs+3
  4015  042B  3000               	movlw	0
  4016  042C  00D6               	movwf	___fldiv@grs+2
  4017  042D  3000               	movlw	0
  4018  042E  00D5               	movwf	___fldiv@grs+1
  4019  042F  3000               	movlw	0
  4020  0430  00D4               	movwf	___fldiv@grs
  4021  0431                     l1769:
  4022  0431  01D9               	clrf	___fldiv@aexp
  4023  0432  2C7D               	goto	l1789
  4024  0433                     l1771:
  4025  0433  0859               	movf	___fldiv@aexp,w
  4026  0434  1903               	btfsc	3,2
  4027  0435  2C37               	goto	u1841
  4028  0436  2C38               	goto	u1840
  4029  0437                     u1841:
  4030  0437  2C58               	goto	l1781
  4031  0438                     u1840:
  4032  0438                     l1773:
  4033  0438  3001               	movlw	1
  4034  0439  00C8               	movwf	??___fldiv
  4035  043A                     u1855:
  4036  043A  1003               	clrc
  4037  043B  0DCD               	rlf	___fldiv@rem,f
  4038  043C  0DCE               	rlf	___fldiv@rem+1,f
  4039  043D  0DCF               	rlf	___fldiv@rem+2,f
  4040  043E  0DD0               	rlf	___fldiv@rem+3,f
  4041  043F  0BC8               	decfsz	??___fldiv,f
  4042  0440  2C3A               	goto	u1855
  4043  0441  3001               	movlw	1
  4044  0442  00C8               	movwf	??___fldiv
  4045  0443                     u1865:
  4046  0443  1003               	clrc
  4047  0444  0DC4               	rlf	___fldiv@b,f
  4048  0445  0DC5               	rlf	___fldiv@b+1,f
  4049  0446  0DC6               	rlf	___fldiv@b+2,f
  4050  0447  0DC7               	rlf	___fldiv@b+3,f
  4051  0448  0BC8               	decfsz	??___fldiv,f
  4052  0449  2C43               	goto	u1865
  4053  044A                     l1775:
  4054  044A  1FD7               	btfss	___fldiv@grs+3,7
  4055  044B  2C4D               	goto	u1871
  4056  044C  2C4E               	goto	u1870
  4057  044D                     u1871:
  4058  044D  2C4F               	goto	l1779
  4059  044E                     u1870:
  4060  044E                     l1777:
  4061  044E  1444               	bsf	___fldiv@b,0
  4062  044F                     l1779:
  4063  044F  3001               	movlw	1
  4064  0450  00C8               	movwf	??___fldiv
  4065  0451                     u1885:
  4066  0451  1003               	clrc
  4067  0452  0DD4               	rlf	___fldiv@grs,f
  4068  0453  0DD5               	rlf	___fldiv@grs+1,f
  4069  0454  0DD6               	rlf	___fldiv@grs+2,f
  4070  0455  0DD7               	rlf	___fldiv@grs+3,f
  4071  0456  0BC8               	decfsz	??___fldiv,f
  4072  0457  2C51               	goto	u1885
  4073  0458                     l1781:
  4074  0458  0843               	movf	___fldiv@a+3,w
  4075  0459  0250               	subwf	___fldiv@rem+3,w
  4076  045A  1D03               	skipz
  4077  045B  2C66               	goto	u1895
  4078  045C  0842               	movf	___fldiv@a+2,w
  4079  045D  024F               	subwf	___fldiv@rem+2,w
  4080  045E  1D03               	skipz
  4081  045F  2C66               	goto	u1895
  4082  0460  0841               	movf	___fldiv@a+1,w
  4083  0461  024E               	subwf	___fldiv@rem+1,w
  4084  0462  1D03               	skipz
  4085  0463  2C66               	goto	u1895
  4086  0464  0840               	movf	___fldiv@a,w
  4087  0465  024D               	subwf	___fldiv@rem,w
  4088  0466                     u1895:
  4089  0466  1C03               	skipc
  4090  0467  2C69               	goto	u1891
  4091  0468  2C6A               	goto	u1890
  4092  0469                     u1891:
  4093  0469  2C79               	goto	l1787
  4094  046A                     u1890:
  4095  046A                     l1783:
  4096  046A  1757               	bsf	___fldiv@grs+3,6
  4097  046B                     l1785:
  4098  046B  0840               	movf	___fldiv@a,w
  4099  046C  02CD               	subwf	___fldiv@rem,f
  4100  046D  0841               	movf	___fldiv@a+1,w
  4101  046E  1C03               	skipc
  4102  046F  0F41               	incfsz	___fldiv@a+1,w
  4103  0470  02CE               	subwf	___fldiv@rem+1,f
  4104  0471  0842               	movf	___fldiv@a+2,w
  4105  0472  1C03               	skipc
  4106  0473  0F42               	incfsz	___fldiv@a+2,w
  4107  0474  02CF               	subwf	___fldiv@rem+2,f
  4108  0475  0843               	movf	___fldiv@a+3,w
  4109  0476  1C03               	skipc
  4110  0477  0F43               	incfsz	___fldiv@a+3,w
  4111  0478  02D0               	subwf	___fldiv@rem+3,f
  4112  0479                     l1787:
  4113  0479  3001               	movlw	1
  4114  047A  00C8               	movwf	??___fldiv
  4115  047B  0848               	movf	??___fldiv,w
  4116  047C  07D9               	addwf	___fldiv@aexp,f
  4117  047D                     l1789:
  4118  047D  301A               	movlw	26
  4119  047E  0259               	subwf	___fldiv@aexp,w
  4120  047F  1C03               	skipc
  4121  0480  2C82               	goto	u1901
  4122  0481  2C83               	goto	u1900
  4123  0482                     u1901:
  4124  0482  2C33               	goto	l1771
  4125  0483                     u1900:
  4126  0483                     l1791:
  4127  0483  0850               	movf	___fldiv@rem+3,w
  4128  0484  044F               	iorwf	___fldiv@rem+2,w
  4129  0485  044E               	iorwf	___fldiv@rem+1,w
  4130  0486  044D               	iorwf	___fldiv@rem,w
  4131  0487  1903               	skipnz
  4132  0488  2C8A               	goto	u1911
  4133  0489  2C8B               	goto	u1910
  4134  048A                     u1911:
  4135  048A  2CAA               	goto	l1805
  4136  048B                     u1910:
  4137  048B                     l1793:
  4138  048B  1454               	bsf	___fldiv@grs,0
  4139  048C  2CAA               	goto	l1805
  4140  048D                     l1795:
  4141  048D  3001               	movlw	1
  4142  048E  00C8               	movwf	??___fldiv
  4143  048F                     u1925:
  4144  048F  1003               	clrc
  4145  0490  0DC4               	rlf	___fldiv@b,f
  4146  0491  0DC5               	rlf	___fldiv@b+1,f
  4147  0492  0DC6               	rlf	___fldiv@b+2,f
  4148  0493  0DC7               	rlf	___fldiv@b+3,f
  4149  0494  0BC8               	decfsz	??___fldiv,f
  4150  0495  2C8F               	goto	u1925
  4151  0496                     l1797:
  4152  0496  1FD7               	btfss	___fldiv@grs+3,7
  4153  0497  2C99               	goto	u1931
  4154  0498  2C9A               	goto	u1930
  4155  0499                     u1931:
  4156  0499  2C9B               	goto	l1801
  4157  049A                     u1930:
  4158  049A                     l1799:
  4159  049A  1444               	bsf	___fldiv@b,0
  4160  049B                     l1801:
  4161  049B  3001               	movlw	1
  4162  049C  00C8               	movwf	??___fldiv
  4163  049D                     u1945:
  4164  049D  1003               	clrc
  4165  049E  0DD4               	rlf	___fldiv@grs,f
  4166  049F  0DD5               	rlf	___fldiv@grs+1,f
  4167  04A0  0DD6               	rlf	___fldiv@grs+2,f
  4168  04A1  0DD7               	rlf	___fldiv@grs+3,f
  4169  04A2  0BC8               	decfsz	??___fldiv,f
  4170  04A3  2C9D               	goto	u1945
  4171  04A4                     l1803:
  4172  04A4  30FF               	movlw	255
  4173  04A5  07D2               	addwf	___fldiv@new_exp,f
  4174  04A6  1803               	skipnc
  4175  04A7  0AD3               	incf	___fldiv@new_exp+1,f
  4176  04A8  30FF               	movlw	255
  4177  04A9  07D3               	addwf	___fldiv@new_exp+1,f
  4178  04AA                     l1805:
  4179  04AA  1FC6               	btfss	___fldiv@b+2,7
  4180  04AB  2CAD               	goto	u1951
  4181  04AC  2CAE               	goto	u1950
  4182  04AD                     u1951:
  4183  04AD  2C8D               	goto	l1795
  4184  04AE                     u1950:
  4185  04AE                     l1807:
  4186  04AE  01D9               	clrf	___fldiv@aexp
  4187  04AF                     l1809:
  4188  04AF  1FD7               	btfss	___fldiv@grs+3,7
  4189  04B0  2CB2               	goto	u1961
  4190  04B1  2CB3               	goto	u1960
  4191  04B2                     u1961:
  4192  04B2  2CCF               	goto	l1817
  4193  04B3                     u1960:
  4194  04B3                     l1811:
  4195  04B3  30FF               	movlw	255
  4196  04B4  0554               	andwf	___fldiv@grs,w
  4197  04B5  00C8               	movwf	??___fldiv
  4198  04B6  30FF               	movlw	255
  4199  04B7  0555               	andwf	___fldiv@grs+1,w
  4200  04B8  00C9               	movwf	??___fldiv+1
  4201  04B9  30FF               	movlw	255
  4202  04BA  0556               	andwf	___fldiv@grs+2,w
  4203  04BB  00CA               	movwf	??___fldiv+2
  4204  04BC  307F               	movlw	127
  4205  04BD  0557               	andwf	___fldiv@grs+3,w
  4206  04BE  00CB               	movwf	??___fldiv+3
  4207  04BF  084B               	movf	??___fldiv+3,w
  4208  04C0  044A               	iorwf	??___fldiv+2,w
  4209  04C1  0449               	iorwf	??___fldiv+1,w
  4210  04C2  0448               	iorwf	??___fldiv,w
  4211  04C3  1903               	skipnz
  4212  04C4  2CC6               	goto	u1971
  4213  04C5  2CC7               	goto	u1970
  4214  04C6                     u1971:
  4215  04C6  2CCA               	goto	l642
  4216  04C7                     u1970:
  4217  04C7                     l1813:
  4218  04C7  01D9               	clrf	___fldiv@aexp
  4219  04C8  0AD9               	incf	___fldiv@aexp,f
  4220  04C9  2CCF               	goto	l1817
  4221  04CA                     l642:
  4222  04CA  1C44               	btfss	___fldiv@b,0
  4223  04CB  2CCD               	goto	u1981
  4224  04CC  2CCE               	goto	u1980
  4225  04CD                     u1981:
  4226  04CD  2CCF               	goto	l1817
  4227  04CE                     u1980:
  4228  04CE  2CC7               	goto	l1813
  4229  04CF                     l1817:
  4230  04CF  0859               	movf	___fldiv@aexp,w
  4231  04D0  1903               	btfsc	3,2
  4232  04D1  2CD3               	goto	u1991
  4233  04D2  2CD4               	goto	u1990
  4234  04D3                     u1991:
  4235  04D3  2D05               	goto	l1827
  4236  04D4                     u1990:
  4237  04D4                     l1819:
  4238  04D4  3001               	movlw	1
  4239  04D5  07C4               	addwf	___fldiv@b,f
  4240  04D6  3000               	movlw	0
  4241  04D7  1803               	skipnc
  4242  04D8  3001               	movlw	1
  4243  04D9  07C5               	addwf	___fldiv@b+1,f
  4244  04DA  3000               	movlw	0
  4245  04DB  1803               	skipnc
  4246  04DC  3001               	movlw	1
  4247  04DD  07C6               	addwf	___fldiv@b+2,f
  4248  04DE  3000               	movlw	0
  4249  04DF  1803               	skipnc
  4250  04E0  3001               	movlw	1
  4251  04E1  07C7               	addwf	___fldiv@b+3,f
  4252  04E2                     l1821:
  4253  04E2  1C47               	btfss	___fldiv@b+3,0
  4254  04E3  2CE5               	goto	u2001
  4255  04E4  2CE6               	goto	u2000
  4256  04E5                     u2001:
  4257  04E5  2D05               	goto	l1827
  4258  04E6                     u2000:
  4259  04E6                     l1823:
  4260  04E6  0844               	movf	___fldiv@b,w
  4261  04E7  00C8               	movwf	??___fldiv
  4262  04E8  0845               	movf	___fldiv@b+1,w
  4263  04E9  00C9               	movwf	??___fldiv+1
  4264  04EA  0846               	movf	___fldiv@b+2,w
  4265  04EB  00CA               	movwf	??___fldiv+2
  4266  04EC  0847               	movf	___fldiv@b+3,w
  4267  04ED  00CB               	movwf	??___fldiv+3
  4268  04EE  3001               	movlw	1
  4269  04EF  00CC               	movwf	??___fldiv+4
  4270  04F0                     u2015:
  4271  04F0  0D4B               	rlf	??___fldiv+3,w
  4272  04F1  0CCB               	rrf	??___fldiv+3,f
  4273  04F2  0CCA               	rrf	??___fldiv+2,f
  4274  04F3  0CC9               	rrf	??___fldiv+1,f
  4275  04F4  0CC8               	rrf	??___fldiv,f
  4276  04F5                     u2010:
  4277  04F5  0BCC               	decfsz	??___fldiv+4,f
  4278  04F6  2CF0               	goto	u2015
  4279  04F7  084B               	movf	??___fldiv+3,w
  4280  04F8  00C7               	movwf	___fldiv@b+3
  4281  04F9  084A               	movf	??___fldiv+2,w
  4282  04FA  00C6               	movwf	___fldiv@b+2
  4283  04FB  0849               	movf	??___fldiv+1,w
  4284  04FC  00C5               	movwf	___fldiv@b+1
  4285  04FD  0848               	movf	??___fldiv,w
  4286  04FE  00C4               	movwf	___fldiv@b
  4287  04FF                     l1825:
  4288  04FF  3001               	movlw	1
  4289  0500  07D2               	addwf	___fldiv@new_exp,f
  4290  0501  1803               	skipnc
  4291  0502  0AD3               	incf	___fldiv@new_exp+1,f
  4292  0503  3000               	movlw	0
  4293  0504  07D3               	addwf	___fldiv@new_exp+1,f
  4294  0505                     l1827:
  4295  0505  0853               	movf	___fldiv@new_exp+1,w
  4296  0506  3A80               	xorlw	128
  4297  0507  00FF               	movwf	btemp+1
  4298  0508  3080               	movlw	128
  4299  0509  027F               	subwf	btemp+1,w
  4300  050A  1D03               	skipz
  4301  050B  2D0E               	goto	u2025
  4302  050C  30FF               	movlw	255
  4303  050D  0252               	subwf	___fldiv@new_exp,w
  4304  050E                     u2025:
  4305  050E  1C03               	skipc
  4306  050F  2D11               	goto	u2021
  4307  0510  2D12               	goto	u2020
  4308  0511                     u2021:
  4309  0511  2D20               	goto	l1831
  4310  0512                     u2020:
  4311  0512                     l1829:
  4312  0512  30FF               	movlw	255
  4313  0513  1283               	bcf	3,5	;RP0=0, select bank0
  4314  0514  1303               	bcf	3,6	;RP1=0, select bank0
  4315  0515  00D2               	movwf	___fldiv@new_exp
  4316  0516  3000               	movlw	0
  4317  0517  00D3               	movwf	___fldiv@new_exp+1
  4318  0518  3000               	movlw	0
  4319  0519  00C7               	movwf	___fldiv@b+3
  4320  051A  3000               	movlw	0
  4321  051B  00C6               	movwf	___fldiv@b+2
  4322  051C  3000               	movlw	0
  4323  051D  00C5               	movwf	___fldiv@b+1
  4324  051E  3000               	movlw	0
  4325  051F  00C4               	movwf	___fldiv@b
  4326  0520                     l1831:
  4327  0520  1283               	bcf	3,5	;RP0=0, select bank0
  4328  0521  1303               	bcf	3,6	;RP1=0, select bank0
  4329  0522  0853               	movf	___fldiv@new_exp+1,w
  4330  0523  3A80               	xorlw	128
  4331  0524  00FF               	movwf	btemp+1
  4332  0525  3080               	movlw	128
  4333  0526  027F               	subwf	btemp+1,w
  4334  0527  1D03               	skipz
  4335  0528  2D2B               	goto	u2035
  4336  0529  3001               	movlw	1
  4337  052A  0252               	subwf	___fldiv@new_exp,w
  4338  052B                     u2035:
  4339  052B  1803               	skipnc
  4340  052C  2D2E               	goto	u2031
  4341  052D  2D2F               	goto	u2030
  4342  052E                     u2031:
  4343  052E  2D3C               	goto	l648
  4344  052F                     u2030:
  4345  052F                     l1833:
  4346  052F  1283               	bcf	3,5	;RP0=0, select bank0
  4347  0530  1303               	bcf	3,6	;RP1=0, select bank0
  4348  0531  01D2               	clrf	___fldiv@new_exp
  4349  0532  01D3               	clrf	___fldiv@new_exp+1
  4350  0533                     l1835:
  4351  0533  3000               	movlw	0
  4352  0534  00C7               	movwf	___fldiv@b+3
  4353  0535  3000               	movlw	0
  4354  0536  00C6               	movwf	___fldiv@b+2
  4355  0537  3000               	movlw	0
  4356  0538  00C5               	movwf	___fldiv@b+1
  4357  0539  3000               	movlw	0
  4358  053A  00C4               	movwf	___fldiv@b
  4359  053B                     l1837:
  4360  053B  01D1               	clrf	___fldiv@sign
  4361  053C                     l648:
  4362  053C  1283               	bcf	3,5	;RP0=0, select bank0
  4363  053D  1303               	bcf	3,6	;RP1=0, select bank0
  4364  053E  0852               	movf	___fldiv@new_exp,w
  4365  053F  00C8               	movwf	??___fldiv
  4366  0540  0848               	movf	??___fldiv,w
  4367  0541  00D8               	movwf	___fldiv@bexp
  4368  0542                     l1839:
  4369  0542  1C58               	btfss	___fldiv@bexp,0
  4370  0543  2D45               	goto	u2041
  4371  0544  2D46               	goto	u2040
  4372  0545                     u2041:
  4373  0545  2D48               	goto	l1843
  4374  0546                     u2040:
  4375  0546                     l1841:
  4376  0546  17C6               	bsf	___fldiv@b+2,7
  4377  0547  2D4C               	goto	l650
  4378  0548                     l1843:
  4379  0548  307F               	movlw	127
  4380  0549  00C8               	movwf	??___fldiv
  4381  054A  0848               	movf	??___fldiv,w
  4382  054B  05C6               	andwf	___fldiv@b+2,f
  4383  054C                     l650:
  4384  054C  0858               	movf	___fldiv@bexp,w
  4385  054D  00C8               	movwf	??___fldiv
  4386  054E  1003               	clrc
  4387  054F  0C48               	rrf	??___fldiv,w
  4388  0550  00C9               	movwf	??___fldiv+1
  4389  0551  0849               	movf	??___fldiv+1,w
  4390  0552  00C7               	movwf	___fldiv@b+3
  4391  0553  0851               	movf	___fldiv@sign,w
  4392  0554  00C8               	movwf	??___fldiv
  4393  0555  0848               	movf	??___fldiv,w
  4394  0556  04C7               	iorwf	___fldiv@b+3,f
  4395  0557  2BF0               	goto	l1751
  4396  0558                     l628:
  4397  0558  0008               	return
  4398  0559                     __end_of___fldiv:
  4399                           
  4400                           	psect	text15
  4401  0D81                     __ptext15:	
  4402 ;; *************** function _ADC_Read *****************
  4403 ;; Defined at:
  4404 ;;		line 11 in file "./adc_thay_hai.h"
  4405 ;; Parameters:    Size  Location     Type
  4406 ;;  Channel         1    wreg     unsigned char 
  4407 ;; Auto vars:     Size  Location     Type
  4408 ;;  Channel         1    8[COMMON] unsigned char 
  4409 ;;  value           2    6[COMMON] unsigned int 
  4410 ;; Return value:  Size  Location     Type
  4411 ;;                  2    2[COMMON] unsigned int 
  4412 ;; Registers used:
  4413 ;;		wreg, fsr0l, fsr0h, status,2, status,0
  4414 ;; Tracked objects:
  4415 ;;		On entry : 0/0
  4416 ;;		On exit  : 0/0
  4417 ;;		Unchanged: 0/0
  4418 ;; Data sizes:     COMMON   BANK0   BANK1   BANK3   BANK2
  4419 ;;      Params:         2       0       0       0       0
  4420 ;;      Locals:         3       0       0       0       0
  4421 ;;      Temps:          2       0       0       0       0
  4422 ;;      Totals:         7       0       0       0       0
  4423 ;;Total ram usage:        7 bytes
  4424 ;; Hardware stack levels used:    1
  4425 ;; Hardware stack levels required when called:    2
  4426 ;; This function calls:
  4427 ;;		Nothing
  4428 ;; This function is called by:
  4429 ;;		_do_luong
  4430 ;; This function uses a non-reentrant model
  4431 ;;
  4432                           
  4433                           
  4434                           ;psect for function _ADC_Read
  4435  0D81                     _ADC_Read:
  4436                           
  4437                           ;incstack = 0
  4438                           ; Regs used in _ADC_Read: [wreg-fsr0h+status,2+status,0]
  4439                           ;ADC_Read@Channel stored from wreg
  4440  0D81  00F8               	movwf	ADC_Read@Channel
  4441  0D82                     l1591:
  4442                           
  4443                           ;./adc_thay_hai.h: 11: unsigned int ADC_Read(unsigned char Channel);./adc_thay_hai.h: 12
      +                          : {;./adc_thay_hai.h: 13:     unsigned int value;;./adc_thay_hai.h: 14:     switch(Chann
      +                          el)
  4444  0D82  2D8F               	goto	l1593
  4445  0D83                     l63:	
  4446                           ;./adc_thay_hai.h: 15:  {;./adc_thay_hai.h: 16:  case 0: CHS0 = 0; CHS1 = 0; CHS2 = 0; b
      +                          reak;
  4447                           
  4448  0D83  1283               	bcf	3,5	;RP0=0, select bank0
  4449  0D84  1303               	bcf	3,6	;RP1=0, select bank0
  4450  0D85  119F               	bcf	31,3	;volatile
  4451  0D86  121F               	bcf	31,4	;volatile
  4452  0D87  129F               	bcf	31,5	;volatile
  4453  0D88  2D9F               	goto	l64
  4454  0D89                     l65:	
  4455                           ;./adc_thay_hai.h: 17:     case 1: CHS0 = 1; CHS1 = 0; CHS2 = 0;
  4456                           
  4457  0D89  1283               	bcf	3,5	;RP0=0, select bank0
  4458  0D8A  1303               	bcf	3,6	;RP1=0, select bank0
  4459  0D8B  159F               	bsf	31,3	;volatile
  4460  0D8C  121F               	bcf	31,4	;volatile
  4461  0D8D  129F               	bcf	31,5	;volatile
  4462                           
  4463                           ;./adc_thay_hai.h: 18:     }
  4464  0D8E  2D9F               	goto	l64
  4465  0D8F                     l1593:
  4466  0D8F  0878               	movf	ADC_Read@Channel,w
  4467  0D90  00F4               	movwf	??_ADC_Read
  4468  0D91  01F5               	clrf	??_ADC_Read+1
  4469                           
  4470                           ; Switch on 2 bytes has been partitioned into a top level switch of size 1, and 1 sub-sw
      +                          itches
  4471                           ; Switch size 1, requested type "simple"
  4472                           ; Number of cases is 1, Range of values is 0 to 0
  4473                           ; switch strategies available:
  4474                           ; Name         Instructions Cycles
  4475                           ; simple_byte            4     3 (average)
  4476                           ; direct_byte           11     8 (fixed)
  4477                           ; jumptable            260     6 (fixed)
  4478                           ;	Chosen strategy is simple_byte
  4479  0D92  0875               	movf	??_ADC_Read+1,w
  4480  0D93  3A00               	xorlw	0	; case 0
  4481  0D94  1903               	skipnz
  4482  0D95  2D97               	goto	l2579
  4483  0D96  2D9F               	goto	l64
  4484  0D97                     l2579:
  4485                           
  4486                           ; Switch size 1, requested type "simple"
  4487                           ; Number of cases is 2, Range of values is 0 to 1
  4488                           ; switch strategies available:
  4489                           ; Name         Instructions Cycles
  4490                           ; simple_byte            7     4 (average)
  4491                           ; direct_byte           14     8 (fixed)
  4492                           ; jumptable            260     6 (fixed)
  4493                           ;	Chosen strategy is simple_byte
  4494  0D97  0874               	movf	??_ADC_Read,w
  4495  0D98  3A00               	xorlw	0	; case 0
  4496  0D99  1903               	skipnz
  4497  0D9A  2D83               	goto	l63
  4498  0D9B  3A01               	xorlw	1	; case 1
  4499  0D9C  1903               	skipnz
  4500  0D9D  2D89               	goto	l65
  4501  0D9E  2D9F               	goto	l64
  4502  0D9F                     l64:
  4503                           
  4504                           ;./adc_thay_hai.h: 19:     ADON=1;
  4505  0D9F  1283               	bcf	3,5	;RP0=0, select bank0
  4506  0DA0  1303               	bcf	3,6	;RP1=0, select bank0
  4507  0DA1  141F               	bsf	31,0	;volatile
  4508  0DA2                     l1595:
  4509                           
  4510                           ;./adc_thay_hai.h: 20:     _delay((unsigned long)((5)*(16000000/4000000.0)));
  4511  0DA2  3006               	movlw	6
  4512  0DA3  00F4               	movwf	??_ADC_Read
  4513  0DA4                     u3347:
  4514  0DA4  0BF4               	decfsz	??_ADC_Read,f
  4515  0DA5  2DA4               	goto	u3347
  4516  0DA6  0000               	nop
  4517  0DA7                     l1597:
  4518                           
  4519                           ;./adc_thay_hai.h: 21:     GO_DONE=1;
  4520  0DA7  1283               	bcf	3,5	;RP0=0, select bank0
  4521  0DA8  1303               	bcf	3,6	;RP1=0, select bank0
  4522  0DA9  151F               	bsf	31,2	;volatile
  4523  0DAA                     l66:	
  4524                           ;./adc_thay_hai.h: 22:     while(GO_DONE);
  4525                           
  4526  0DAA  191F               	btfsc	31,2	;volatile
  4527  0DAB  2DAD               	goto	u1561
  4528  0DAC  2DAE               	goto	u1560
  4529  0DAD                     u1561:
  4530  0DAD  2DAA               	goto	l66
  4531  0DAE                     u1560:
  4532  0DAE                     l1599:
  4533                           
  4534                           ;./adc_thay_hai.h: 23:     value=(unsigned int)ADRESH*256+ADRESL;
  4535  0DAE  081E               	movf	30,w	;volatile
  4536  0DAF  00F7               	movwf	ADC_Read@value+1
  4537  0DB0  1683               	bsf	3,5	;RP0=1, select bank1
  4538  0DB1  1303               	bcf	3,6	;RP1=0, select bank1
  4539  0DB2  081E               	movf	30,w	;volatile
  4540  0DB3  00F6               	movwf	ADC_Read@value
  4541  0DB4                     l1601:
  4542                           
  4543                           ;./adc_thay_hai.h: 24:     ADON=0;
  4544  0DB4  1283               	bcf	3,5	;RP0=0, select bank0
  4545  0DB5  1303               	bcf	3,6	;RP1=0, select bank0
  4546  0DB6  101F               	bcf	31,0	;volatile
  4547                           
  4548                           ;./adc_thay_hai.h: 28:     return value;
  4549  0DB7  0877               	movf	ADC_Read@value+1,w
  4550  0DB8  00F3               	movwf	?_ADC_Read+1
  4551  0DB9  0876               	movf	ADC_Read@value,w
  4552  0DBA  00F2               	movwf	?_ADC_Read
  4553  0DBB                     l69:
  4554  0DBB  0008               	return
  4555  0DBC                     __end_of_ADC_Read:
  4556                           
  4557                           	psect	text16
  4558  0787                     __ptext16:	
  4559 ;; *************** function _LCD_Init *****************
  4560 ;; Defined at:
  4561 ;;		line 3 in file "lcd.c"
  4562 ;; Parameters:    Size  Location     Type
  4563 ;;		None
  4564 ;; Auto vars:     Size  Location     Type
  4565 ;;		None
  4566 ;; Return value:  Size  Location     Type
  4567 ;;                  1    wreg      void 
  4568 ;; Registers used:
  4569 ;;		wreg, status,2, status,0, pclath, cstack
  4570 ;; Tracked objects:
  4571 ;;		On entry : 0/0
  4572 ;;		On exit  : 0/0
  4573 ;;		Unchanged: 0/0
  4574 ;; Data sizes:     COMMON   BANK0   BANK1   BANK3   BANK2
  4575 ;;      Params:         0       0       0       0       0
  4576 ;;      Locals:         0       0       0       0       0
  4577 ;;      Temps:          2       0       0       0       0
  4578 ;;      Totals:         2       0       0       0       0
  4579 ;;Total ram usage:        2 bytes
  4580 ;; Hardware stack levels used:    1
  4581 ;; Hardware stack levels required when called:    4
  4582 ;; This function calls:
  4583 ;;		_LCD_CMD
  4584 ;;		_LCD_DATA
  4585 ;; This function is called by:
  4586 ;;		_main
  4587 ;; This function uses a non-reentrant model
  4588 ;;
  4589                           
  4590                           
  4591                           ;psect for function _LCD_Init
  4592  0787                     _LCD_Init:
  4593  0787                     l2473:	
  4594                           ;incstack = 0
  4595                           ; Regs used in _LCD_Init: [wreg+status,2+status,0+pclath+cstack]
  4596                           
  4597                           
  4598                           ;lcd.c: 6:   TRISD = 0x00;
  4599  0787  1683               	bsf	3,5	;RP0=1, select bank1
  4600  0788  1303               	bcf	3,6	;RP1=0, select bank1
  4601  0789  0188               	clrf	8	;volatile
  4602  078A                     l2475:
  4603                           
  4604                           ;lcd.c: 7:   TRISD2 = 0;
  4605  078A  1108               	bcf	8,2	;volatile
  4606  078B                     l2477:
  4607                           
  4608                           ;lcd.c: 8:   TRISD3 = 0;
  4609  078B  1188               	bcf	8,3	;volatile
  4610  078C                     l2479:
  4611                           
  4612                           ;lcd.c: 10:   LCD_DATA(0x00);
  4613  078C  3000               	movlw	0
  4614  078D  120A  158A  2481  120A  118A  	fcall	_LCD_DATA
  4615  0792                     l2481:
  4616                           
  4617                           ;lcd.c: 11:   _delay((unsigned long)((30)*(16000000/4000.0)));
  4618  0792  309C               	movlw	156
  4619  0793  00F7               	movwf	??_LCD_Init+1
  4620  0794  30D7               	movlw	215
  4621  0795  00F6               	movwf	??_LCD_Init
  4622  0796                     u3357:
  4623  0796  0BF6               	decfsz	??_LCD_Init,f
  4624  0797  2F96               	goto	u3357
  4625  0798  0BF7               	decfsz	??_LCD_Init+1,f
  4626  0799  2F96               	goto	u3357
  4627  079A                     l2483:
  4628                           
  4629                           ;lcd.c: 12:   _delay((unsigned long)((500)*(16000000/4000000.0)));
  4630  079A  3003               	movlw	3
  4631  079B  00F7               	movwf	??_LCD_Init+1
  4632  079C  3097               	movlw	151
  4633  079D  00F6               	movwf	??_LCD_Init
  4634  079E                     u3367:
  4635  079E  0BF6               	decfsz	??_LCD_Init,f
  4636  079F  2F9E               	goto	u3367
  4637  07A0  0BF7               	decfsz	??_LCD_Init+1,f
  4638  07A1  2F9E               	goto	u3367
  4639  07A2  2FA3               	nop2
  4640  07A3                     l2485:
  4641                           
  4642                           ;lcd.c: 13:   LCD_CMD(0x03);
  4643  07A3  3003               	movlw	3
  4644  07A4  120A  158A  2467  120A  118A  	fcall	_LCD_CMD
  4645  07A9                     l2487:
  4646                           
  4647                           ;lcd.c: 14:   _delay((unsigned long)((5)*(16000000/4000.0)));
  4648  07A9  301A               	movlw	26
  4649  07AA  00F7               	movwf	??_LCD_Init+1
  4650  07AB  30F8               	movlw	248
  4651  07AC  00F6               	movwf	??_LCD_Init
  4652  07AD                     u3377:
  4653  07AD  0BF6               	decfsz	??_LCD_Init,f
  4654  07AE  2FAD               	goto	u3377
  4655  07AF  0BF7               	decfsz	??_LCD_Init+1,f
  4656  07B0  2FAD               	goto	u3377
  4657  07B1  0000               	nop
  4658  07B2                     l2489:
  4659                           
  4660                           ;lcd.c: 15:   LCD_CMD(0x03);
  4661  07B2  3003               	movlw	3
  4662  07B3  120A  158A  2467  120A  118A  	fcall	_LCD_CMD
  4663  07B8                     l2491:
  4664                           
  4665                           ;lcd.c: 16:   _delay((unsigned long)((150)*(16000000/4000000.0)));
  4666  07B8  30C7               	movlw	199
  4667  07B9  00F6               	movwf	??_LCD_Init
  4668  07BA                     u3387:
  4669  07BA  0BF6               	decfsz	??_LCD_Init,f
  4670  07BB  2FBA               	goto	u3387
  4671  07BC  2FBD               	nop2
  4672  07BD                     l2493:
  4673                           
  4674                           ;lcd.c: 17:   LCD_CMD(0x03);
  4675  07BD  3003               	movlw	3
  4676  07BE  120A  158A  2467  120A  118A  	fcall	_LCD_CMD
  4677  07C3                     l2495:
  4678                           
  4679                           ;lcd.c: 18:   LCD_CMD(0x02);
  4680  07C3  3002               	movlw	2
  4681  07C4  120A  158A  2467  120A  118A  	fcall	_LCD_CMD
  4682  07C9                     l2497:
  4683                           
  4684                           ;lcd.c: 19:   LCD_CMD(0x02);
  4685  07C9  3002               	movlw	2
  4686  07CA  120A  158A  2467  120A  118A  	fcall	_LCD_CMD
  4687  07CF                     l2499:
  4688                           
  4689                           ;lcd.c: 20:   LCD_CMD(0x08);
  4690  07CF  3008               	movlw	8
  4691  07D0  120A  158A  2467  120A  118A  	fcall	_LCD_CMD
  4692  07D5                     l2501:
  4693                           
  4694                           ;lcd.c: 21:   LCD_CMD(0x00);
  4695  07D5  3000               	movlw	0
  4696  07D6  120A  158A  2467  120A  118A  	fcall	_LCD_CMD
  4697  07DB                     l2503:
  4698                           
  4699                           ;lcd.c: 22:   LCD_CMD(0x0C);
  4700  07DB  300C               	movlw	12
  4701  07DC  120A  158A  2467  120A  118A  	fcall	_LCD_CMD
  4702  07E1                     l2505:
  4703                           
  4704                           ;lcd.c: 23:   LCD_CMD(0x00);
  4705  07E1  3000               	movlw	0
  4706  07E2  120A  158A  2467  120A  118A  	fcall	_LCD_CMD
  4707  07E7                     l2507:
  4708                           
  4709                           ;lcd.c: 24:   LCD_CMD(0x06);
  4710  07E7  3006               	movlw	6
  4711  07E8  120A  158A  2467  120A  118A  	fcall	_LCD_CMD
  4712  07ED                     l142:
  4713  07ED  0008               	return
  4714  07EE                     __end_of_LCD_Init:
  4715                           
  4716                           	psect	text17
  4717  0C67                     __ptext17:	
  4718 ;; *************** function _LCD_CMD *****************
  4719 ;; Defined at:
  4720 ;;		line 140 in file "lcd.c"
  4721 ;; Parameters:    Size  Location     Type
  4722 ;;  CMD             1    wreg     unsigned char 
  4723 ;; Auto vars:     Size  Location     Type
  4724 ;;  CMD             1    5[COMMON] unsigned char 
  4725 ;; Return value:  Size  Location     Type
  4726 ;;                  1    wreg      void 
  4727 ;; Registers used:
  4728 ;;		wreg, status,2, status,0, pclath, cstack
  4729 ;; Tracked objects:
  4730 ;;		On entry : 0/0
  4731 ;;		On exit  : 0/0
  4732 ;;		Unchanged: 0/0
  4733 ;; Data sizes:     COMMON   BANK0   BANK1   BANK3   BANK2
  4734 ;;      Params:         0       0       0       0       0
  4735 ;;      Locals:         1       0       0       0       0
  4736 ;;      Temps:          2       0       0       0       0
  4737 ;;      Totals:         3       0       0       0       0
  4738 ;;Total ram usage:        3 bytes
  4739 ;; Hardware stack levels used:    1
  4740 ;; Hardware stack levels required when called:    3
  4741 ;; This function calls:
  4742 ;;		_LCD_DATA
  4743 ;; This function is called by:
  4744 ;;		_LCD_Init
  4745 ;;		_LCD_Set_Cursor
  4746 ;;		_LCD_Clear
  4747 ;;		_LCD_SL
  4748 ;;		_LCD_SR
  4749 ;; This function uses a non-reentrant model
  4750 ;;
  4751                           
  4752                           
  4753                           ;psect for function _LCD_CMD
  4754  0C67                     _LCD_CMD:
  4755                           
  4756                           ;incstack = 0
  4757                           ; Regs used in _LCD_CMD: [wreg+status,2+status,0+pclath+cstack]
  4758                           ;LCD_CMD@CMD stored from wreg
  4759  0C67  00F5               	movwf	LCD_CMD@CMD
  4760  0C68                     l2221:
  4761                           
  4762                           ;lcd.c: 140: void LCD_CMD(unsigned char CMD);lcd.c: 141: {;lcd.c: 143:   RD2 = 0;
  4763  0C68  1283               	bcf	3,5	;RP0=0, select bank0
  4764  0C69  1303               	bcf	3,6	;RP1=0, select bank0
  4765  0C6A  1108               	bcf	8,2	;volatile
  4766  0C6B                     l2223:
  4767                           
  4768                           ;lcd.c: 145:   LCD_DATA(CMD);
  4769  0C6B  0875               	movf	LCD_CMD@CMD,w
  4770  0C6C  120A  158A  2481  120A  158A  	fcall	_LCD_DATA
  4771  0C71                     l2225:
  4772                           
  4773                           ;lcd.c: 147:   RD3 = 1;
  4774  0C71  1283               	bcf	3,5	;RP0=0, select bank0
  4775  0C72  1303               	bcf	3,6	;RP1=0, select bank0
  4776  0C73  1588               	bsf	8,3	;volatile
  4777  0C74                     l2227:
  4778                           
  4779                           ;lcd.c: 148:   _delay((unsigned long)((500)*(16000000/4000000.0)));
  4780  0C74  3003               	movlw	3
  4781  0C75  00F4               	movwf	??_LCD_CMD+1
  4782  0C76  3097               	movlw	151
  4783  0C77  00F3               	movwf	??_LCD_CMD
  4784  0C78                     u3397:
  4785  0C78  0BF3               	decfsz	??_LCD_CMD,f
  4786  0C79  2C78               	goto	u3397
  4787  0C7A  0BF4               	decfsz	??_LCD_CMD+1,f
  4788  0C7B  2C78               	goto	u3397
  4789  0C7C  2C7D               	nop2
  4790  0C7D                     l2229:
  4791                           
  4792                           ;lcd.c: 149:   RD3 = 0;
  4793  0C7D  1283               	bcf	3,5	;RP0=0, select bank0
  4794  0C7E  1303               	bcf	3,6	;RP1=0, select bank0
  4795  0C7F  1188               	bcf	8,3	;volatile
  4796  0C80                     l191:
  4797  0C80  0008               	return
  4798  0C81                     __end_of_LCD_CMD:
  4799                           
  4800                           	psect	text18
  4801  0C81                     __ptext18:	
  4802 ;; *************** function _LCD_DATA *****************
  4803 ;; Defined at:
  4804 ;;		line 120 in file "lcd.c"
  4805 ;; Parameters:    Size  Location     Type
  4806 ;;  Data            1    wreg     unsigned char 
  4807 ;; Auto vars:     Size  Location     Type
  4808 ;;  Data            1    2[COMMON] unsigned char 
  4809 ;; Return value:  Size  Location     Type
  4810 ;;                  1    wreg      void 
  4811 ;; Registers used:
  4812 ;;		wreg
  4813 ;; Tracked objects:
  4814 ;;		On entry : 0/0
  4815 ;;		On exit  : 0/0
  4816 ;;		Unchanged: 0/0
  4817 ;; Data sizes:     COMMON   BANK0   BANK1   BANK3   BANK2
  4818 ;;      Params:         0       0       0       0       0
  4819 ;;      Locals:         1       0       0       0       0
  4820 ;;      Temps:          0       0       0       0       0
  4821 ;;      Totals:         1       0       0       0       0
  4822 ;;Total ram usage:        1 bytes
  4823 ;; Hardware stack levels used:    1
  4824 ;; Hardware stack levels required when called:    2
  4825 ;; This function calls:
  4826 ;;		Nothing
  4827 ;; This function is called by:
  4828 ;;		_LCD_Init
  4829 ;;		_LCD_Write_Char
  4830 ;;		_LCD_CMD
  4831 ;; This function uses a non-reentrant model
  4832 ;;
  4833                           
  4834                           
  4835                           ;psect for function _LCD_DATA
  4836  0C81                     _LCD_DATA:
  4837                           
  4838                           ;incstack = 0
  4839                           ; Regs used in _LCD_DATA: [wreg]
  4840                           ;LCD_DATA@Data stored from wreg
  4841  0C81  00F2               	movwf	LCD_DATA@Data
  4842  0C82                     l2187:
  4843                           
  4844                           ;lcd.c: 120: void LCD_DATA(unsigned char Data);lcd.c: 121: {;lcd.c: 122:   if(Data & 1)
  4845  0C82  1C72               	btfss	LCD_DATA@Data,0
  4846  0C83  2C85               	goto	u2691
  4847  0C84  2C86               	goto	u2690
  4848  0C85                     u2691:
  4849  0C85  2C8A               	goto	l180
  4850  0C86                     u2690:
  4851  0C86                     l2189:
  4852                           
  4853                           ;lcd.c: 123:     RD4 = 1;
  4854  0C86  1283               	bcf	3,5	;RP0=0, select bank0
  4855  0C87  1303               	bcf	3,6	;RP1=0, select bank0
  4856  0C88  1608               	bsf	8,4	;volatile
  4857  0C89  2C8D               	goto	l181
  4858  0C8A                     l180:	
  4859                           ;lcd.c: 124:   else
  4860                           
  4861                           
  4862                           ;lcd.c: 125:     RD4 = 0;
  4863  0C8A  1283               	bcf	3,5	;RP0=0, select bank0
  4864  0C8B  1303               	bcf	3,6	;RP1=0, select bank0
  4865  0C8C  1208               	bcf	8,4	;volatile
  4866  0C8D                     l181:
  4867                           
  4868                           ;lcd.c: 126:   if(Data & 2)
  4869  0C8D  1CF2               	btfss	LCD_DATA@Data,1
  4870  0C8E  2C90               	goto	u2701
  4871  0C8F  2C91               	goto	u2700
  4872  0C90                     u2701:
  4873  0C90  2C93               	goto	l182
  4874  0C91                     u2700:
  4875  0C91                     l2191:
  4876                           
  4877                           ;lcd.c: 127:     RD5 = 1;
  4878  0C91  1688               	bsf	8,5	;volatile
  4879  0C92  2C94               	goto	l183
  4880  0C93                     l182:	
  4881                           ;lcd.c: 128:   else
  4882                           
  4883                           
  4884                           ;lcd.c: 129:     RD5 = 0;
  4885  0C93  1288               	bcf	8,5	;volatile
  4886  0C94                     l183:
  4887                           
  4888                           ;lcd.c: 130:   if(Data & 4)
  4889  0C94  1D72               	btfss	LCD_DATA@Data,2
  4890  0C95  2C97               	goto	u2711
  4891  0C96  2C98               	goto	u2710
  4892  0C97                     u2711:
  4893  0C97  2C9A               	goto	l184
  4894  0C98                     u2710:
  4895  0C98                     l2193:
  4896                           
  4897                           ;lcd.c: 131:     RD6 = 1;
  4898  0C98  1708               	bsf	8,6	;volatile
  4899  0C99  2C9B               	goto	l185
  4900  0C9A                     l184:	
  4901                           ;lcd.c: 132:   else
  4902                           
  4903                           
  4904                           ;lcd.c: 133:     RD6 = 0;
  4905  0C9A  1308               	bcf	8,6	;volatile
  4906  0C9B                     l185:
  4907                           
  4908                           ;lcd.c: 134:   if(Data & 8)
  4909  0C9B  1DF2               	btfss	LCD_DATA@Data,3
  4910  0C9C  2C9E               	goto	u2721
  4911  0C9D  2C9F               	goto	u2720
  4912  0C9E                     u2721:
  4913  0C9E  2CA1               	goto	l186
  4914  0C9F                     u2720:
  4915  0C9F                     l2195:
  4916                           
  4917                           ;lcd.c: 135:     RD7 = 1;
  4918  0C9F  1788               	bsf	8,7	;volatile
  4919  0CA0  2CA2               	goto	l188
  4920  0CA1                     l186:	
  4921                           ;lcd.c: 136:   else
  4922                           
  4923                           
  4924                           ;lcd.c: 137:     RD7 = 0;
  4925  0CA1  1388               	bcf	8,7	;volatile
  4926  0CA2                     l188:
  4927  0CA2  0008               	return
  4928  0CA3                     __end_of_LCD_DATA:
  4929                           
  4930                           	psect	text19
  4931  07EE                     __ptext19:	
  4932 ;; *************** function _GPIO *****************
  4933 ;; Defined at:
  4934 ;;		line 60 in file "main_dc_volt.c"
  4935 ;; Parameters:    Size  Location     Type
  4936 ;;		None
  4937 ;; Auto vars:     Size  Location     Type
  4938 ;;		None
  4939 ;; Return value:  Size  Location     Type
  4940 ;;                  1    wreg      void 
  4941 ;; Registers used:
  4942 ;;		None
  4943 ;; Tracked objects:
  4944 ;;		On entry : 0/0
  4945 ;;		On exit  : 0/0
  4946 ;;		Unchanged: 0/0
  4947 ;; Data sizes:     COMMON   BANK0   BANK1   BANK3   BANK2
  4948 ;;      Params:         0       0       0       0       0
  4949 ;;      Locals:         0       0       0       0       0
  4950 ;;      Temps:          0       0       0       0       0
  4951 ;;      Totals:         0       0       0       0       0
  4952 ;;Total ram usage:        0 bytes
  4953 ;; Hardware stack levels used:    1
  4954 ;; Hardware stack levels required when called:    2
  4955 ;; This function calls:
  4956 ;;		Nothing
  4957 ;; This function is called by:
  4958 ;;		_main
  4959 ;; This function uses a non-reentrant model
  4960 ;;
  4961                           
  4962                           
  4963                           ;psect for function _GPIO
  4964  07EE                     _GPIO:
  4965  07EE                     l2065:	
  4966                           ;incstack = 0
  4967                           ; Regs used in _GPIO: []
  4968                           
  4969                           
  4970                           ;main_dc_volt.c: 62:     TRISBbits.TRISB0 = TRISBbits.TRISB1 = 0;
  4971  07EE  1683               	bsf	3,5	;RP0=1, select bank1
  4972  07EF  1303               	bcf	3,6	;RP1=0, select bank1
  4973  07F0  1086               	bcf	6,1	;volatile
  4974  07F1  1006               	bcf	6,0	;volatile
  4975                           
  4976                           ;main_dc_volt.c: 63:     PORTBbits.RB0 = PORTBbits.RB1 = 1;
  4977  07F2  1283               	bcf	3,5	;RP0=0, select bank0
  4978  07F3  1303               	bcf	3,6	;RP1=0, select bank0
  4979  07F4  1486               	bsf	6,1	;volatile
  4980  07F5  1886               	btfsc	6,1	;volatile
  4981  07F6  2FF8               	goto	u2641
  4982  07F7  2FFC               	goto	u2640
  4983  07F8                     u2641:
  4984  07F8  1283               	bcf	3,5	;RP0=0, select bank0
  4985  07F9  1303               	bcf	3,6	;RP1=0, select bank0
  4986  07FA  1406               	bsf	6,0	;volatile
  4987  07FB  2FFF               	goto	u2654
  4988  07FC                     u2640:
  4989  07FC  1283               	bcf	3,5	;RP0=0, select bank0
  4990  07FD  1303               	bcf	3,6	;RP1=0, select bank0
  4991  07FE  1006               	bcf	6,0	;volatile
  4992  07FF                     u2654:
  4993  07FF                     l93:
  4994  07FF  0008               	return
  4995  0800                     __end_of_GPIO:
  4996                           
  4997                           	psect	text20
  4998  0C4B                     __ptext20:	
  4999 ;; *************** function _ADC_Init *****************
  5000 ;; Defined at:
  5001 ;;		line 4 in file "./adc_thay_hai.h"
  5002 ;; Parameters:    Size  Location     Type
  5003 ;;		None
  5004 ;; Auto vars:     Size  Location     Type
  5005 ;;		None
  5006 ;; Return value:  Size  Location     Type
  5007 ;;                  1    wreg      void 
  5008 ;; Registers used:
  5009 ;;		wreg
  5010 ;; Tracked objects:
  5011 ;;		On entry : 0/0
  5012 ;;		On exit  : 0/0
  5013 ;;		Unchanged: 0/0
  5014 ;; Data sizes:     COMMON   BANK0   BANK1   BANK3   BANK2
  5015 ;;      Params:         0       0       0       0       0
  5016 ;;      Locals:         0       0       0       0       0
  5017 ;;      Temps:          0       0       0       0       0
  5018 ;;      Totals:         0       0       0       0       0
  5019 ;;Total ram usage:        0 bytes
  5020 ;; Hardware stack levels used:    1
  5021 ;; Hardware stack levels required when called:    2
  5022 ;; This function calls:
  5023 ;;		Nothing
  5024 ;; This function is called by:
  5025 ;;		_main
  5026 ;; This function uses a non-reentrant model
  5027 ;;
  5028                           
  5029                           
  5030                           ;psect for function _ADC_Init
  5031  0C4B                     _ADC_Init:
  5032  0C4B                     l2033:	
  5033                           ;incstack = 0
  5034                           ; Regs used in _ADC_Init: [wreg]
  5035                           
  5036                           
  5037                           ;./adc_thay_hai.h: 6:     ADCON1 = 0b11000100;
  5038  0C4B  30C4               	movlw	196
  5039  0C4C  1683               	bsf	3,5	;RP0=1, select bank1
  5040  0C4D  1303               	bcf	3,6	;RP1=0, select bank1
  5041  0C4E  009F               	movwf	31	;volatile
  5042                           
  5043                           ;./adc_thay_hai.h: 7:     ADCON0 =0x80;
  5044  0C4F  3080               	movlw	128
  5045  0C50  1283               	bcf	3,5	;RP0=0, select bank0
  5046  0C51  1303               	bcf	3,6	;RP1=0, select bank0
  5047  0C52  009F               	movwf	31	;volatile
  5048  0C53                     l59:
  5049  0C53  0008               	return
  5050  0C54                     __end_of_ADC_Init:
  5051                           
  5052                           	psect	text21
  5053  0D17                     __ptext21:	
  5054 ;; *************** function _ISR *****************
  5055 ;; Defined at:
  5056 ;;		line 22 in file "main_dc_volt.c"
  5057 ;; Parameters:    Size  Location     Type
  5058 ;;		None
  5059 ;; Auto vars:     Size  Location     Type
  5060 ;;		None
  5061 ;; Return value:  Size  Location     Type
  5062 ;;                  1    wreg      void 
  5063 ;; Registers used:
  5064 ;;		wreg, status,2, status,0, pclath, cstack
  5065 ;; Tracked objects:
  5066 ;;		On entry : 0/0
  5067 ;;		On exit  : 0/0
  5068 ;;		Unchanged: 0/0
  5069 ;; Data sizes:     COMMON   BANK0   BANK1   BANK3   BANK2
  5070 ;;      Params:         0       0       0       0       0
  5071 ;;      Locals:         0       0       0       0       0
  5072 ;;      Temps:          2       0       0       0       0
  5073 ;;      Totals:         2       0       0       0       0
  5074 ;;Total ram usage:        2 bytes
  5075 ;; Hardware stack levels used:    1
  5076 ;; Hardware stack levels required when called:    1
  5077 ;; This function calls:
  5078 ;;		_compe
  5079 ;; This function is called by:
  5080 ;;		Interrupt level 1
  5081 ;; This function uses a non-reentrant model
  5082 ;;
  5083                           
  5084                           
  5085                           ;psect for function _ISR
  5086  0D17                     _ISR:
  5087  0D17                     i1l2133:
  5088                           
  5089                           ;main_dc_volt.c: 24:     if(TMR1IE && TMR1IF)
  5090  0D17  1683               	bsf	3,5	;RP0=1, select bank1
  5091  0D18  1303               	bcf	3,6	;RP1=0, select bank1
  5092  0D19  1C0C               	btfss	12,0	;volatile
  5093  0D1A  2D1C               	goto	u266_21
  5094  0D1B  2D1D               	goto	u266_20
  5095  0D1C                     u266_21:
  5096  0D1C  2D40               	goto	i1l82
  5097  0D1D                     u266_20:
  5098  0D1D                     i1l2135:
  5099  0D1D  1283               	bcf	3,5	;RP0=0, select bank0
  5100  0D1E  1303               	bcf	3,6	;RP1=0, select bank0
  5101  0D1F  1C0C               	btfss	12,0	;volatile
  5102  0D20  2D22               	goto	u267_21
  5103  0D21  2D23               	goto	u267_20
  5104  0D22                     u267_21:
  5105  0D22  2D40               	goto	i1l82
  5106  0D23                     u267_20:
  5107  0D23                     i1l2137:
  5108                           
  5109                           ;main_dc_volt.c: 25:     {;main_dc_volt.c: 26:         count++;
  5110  0D23  3001               	movlw	1
  5111  0D24  07E5               	addwf	_count,f
  5112  0D25  1803               	skipnc
  5113  0D26  0AE6               	incf	_count+1,f
  5114  0D27  3000               	movlw	0
  5115  0D28  07E6               	addwf	_count+1,f
  5116                           
  5117                           ;main_dc_volt.c: 27:         if(count>=100)
  5118  0D29  3000               	movlw	0
  5119  0D2A  0266               	subwf	_count+1,w
  5120  0D2B  3064               	movlw	100
  5121  0D2C  1903               	skipnz
  5122  0D2D  0265               	subwf	_count,w
  5123  0D2E  1C03               	skipc
  5124  0D2F  2D31               	goto	u268_21
  5125  0D30  2D32               	goto	u268_20
  5126  0D31                     u268_21:
  5127  0D31  2D34               	goto	i1l2141
  5128  0D32                     u268_20:
  5129  0D32                     i1l2139:
  5130                           
  5131                           ;main_dc_volt.c: 28:             count=0;
  5132  0D32  01E5               	clrf	_count
  5133  0D33  01E6               	clrf	_count+1
  5134  0D34                     i1l2141:
  5135                           
  5136                           ;main_dc_volt.c: 30:         compe();
  5137  0D34  120A  158A  2655  120A  158A  	fcall	_compe
  5138  0D39                     i1l2143:
  5139                           
  5140                           ;main_dc_volt.c: 32:         TMR1=55536;
  5141  0D39  30D8               	movlw	216
  5142  0D3A  1283               	bcf	3,5	;RP0=0, select bank0
  5143  0D3B  1303               	bcf	3,6	;RP1=0, select bank0
  5144  0D3C  008F               	movwf	15	;volatile
  5145  0D3D  30F0               	movlw	240
  5146  0D3E  008E               	movwf	14	;volatile
  5147  0D3F                     i1l2145:
  5148                           
  5149                           ;main_dc_volt.c: 33:         TMR1IF=0;
  5150  0D3F  100C               	bcf	12,0	;volatile
  5151  0D40                     i1l82:
  5152  0D40  0871               	movf	??_ISR+1,w
  5153  0D41  008A               	movwf	10
  5154  0D42  0E70               	swapf	??_ISR,w
  5155  0D43  0083               	movwf	3
  5156  0D44  0EFE               	swapf	btemp,f
  5157  0D45  0E7E               	swapf	btemp,w
  5158  0D46  0009               	retfie
  5159  0D47                     __end_of_ISR:
  5160                           
  5161                           	psect	intentry
  5162  0004                     __pintentry:	
  5163                           ;incstack = 0
  5164                           ; Regs used in _ISR: [wreg+status,2+status,0+pclath+cstack]
  5165                           
  5166  0004                     interrupt_function:
  5167  007E                     saved_w	set	btemp
  5168  0004  00FE               	movwf	btemp
  5169  0005  0E03               	swapf	3,w
  5170  0006  00F0               	movwf	??_ISR
  5171  0007  080A               	movf	10,w
  5172  0008  00F1               	movwf	??_ISR+1
  5173  0009  120A  158A  2D17   	ljmp	_ISR
  5174                           
  5175                           	psect	text22
  5176  0E55                     __ptext22:	
  5177 ;; *************** function _compe *****************
  5178 ;; Defined at:
  5179 ;;		line 83 in file "main_dc_volt.c"
  5180 ;; Parameters:    Size  Location     Type
  5181 ;;		None
  5182 ;; Auto vars:     Size  Location     Type
  5183 ;;		None
  5184 ;; Return value:  Size  Location     Type
  5185 ;;                  1    wreg      void 
  5186 ;; Registers used:
  5187 ;;		wreg
  5188 ;; Tracked objects:
  5189 ;;		On entry : 0/0
  5190 ;;		On exit  : 0/0
  5191 ;;		Unchanged: 0/0
  5192 ;; Data sizes:     COMMON   BANK0   BANK1   BANK3   BANK2
  5193 ;;      Params:         0       0       0       0       0
  5194 ;;      Locals:         0       0       0       0       0
  5195 ;;      Temps:          0       0       0       0       0
  5196 ;;      Totals:         0       0       0       0       0
  5197 ;;Total ram usage:        0 bytes
  5198 ;; Hardware stack levels used:    1
  5199 ;; This function calls:
  5200 ;;		Nothing
  5201 ;; This function is called by:
  5202 ;;		_ISR
  5203 ;; This function uses a non-reentrant model
  5204 ;;
  5205                           
  5206                           
  5207                           ;psect for function _compe
  5208  0E55                     _compe:
  5209  0E55                     i1l2035:	
  5210                           ;incstack = 0
  5211                           ; Regs used in _compe: [wreg]
  5212                           
  5213                           
  5214                           ;main_dc_volt.c: 85:     if(voltage<1500)
  5215  0E55  3005               	movlw	5
  5216  0E56  027B               	subwf	_voltage+1,w
  5217  0E57  30DC               	movlw	220
  5218  0E58  1903               	skipnz
  5219  0E59  027A               	subwf	_voltage,w
  5220  0E5A  1803               	skipnc
  5221  0E5B  2E5D               	goto	u256_21
  5222  0E5C  2E5E               	goto	u256_20
  5223  0E5D                     u256_21:
  5224  0E5D  2E61               	goto	i1l2039
  5225  0E5E                     u256_20:
  5226  0E5E                     i1l2037:
  5227                           
  5228                           ;main_dc_volt.c: 86:         PORTBbits.RB0 = 1;
  5229  0E5E  1283               	bcf	3,5	;RP0=0, select bank0
  5230  0E5F  1303               	bcf	3,6	;RP1=0, select bank0
  5231  0E60  1406               	bsf	6,0	;volatile
  5232  0E61                     i1l2039:
  5233                           
  5234                           ;main_dc_volt.c: 88:     if(voltage >= 1500)
  5235  0E61  3005               	movlw	5
  5236  0E62  027B               	subwf	_voltage+1,w
  5237  0E63  30DC               	movlw	220
  5238  0E64  1903               	skipnz
  5239  0E65  027A               	subwf	_voltage,w
  5240  0E66  1C03               	skipc
  5241  0E67  2E69               	goto	u257_21
  5242  0E68  2E6A               	goto	u257_20
  5243  0E69                     u257_21:
  5244  0E69  2E81               	goto	i1l2049
  5245  0E6A                     u257_20:
  5246  0E6A                     i1l2041:
  5247                           
  5248                           ;main_dc_volt.c: 89:     {;main_dc_volt.c: 90:         if(count<=50)
  5249  0E6A  3000               	movlw	0
  5250  0E6B  1283               	bcf	3,5	;RP0=0, select bank0
  5251  0E6C  1303               	bcf	3,6	;RP1=0, select bank0
  5252  0E6D  0266               	subwf	_count+1,w
  5253  0E6E  3033               	movlw	51
  5254  0E6F  1903               	skipnz
  5255  0E70  0265               	subwf	_count,w
  5256  0E71  1803               	skipnc
  5257  0E72  2E74               	goto	u258_21
  5258  0E73  2E75               	goto	u258_20
  5259  0E74                     u258_21:
  5260  0E74  2E77               	goto	i1l2045
  5261  0E75                     u258_20:
  5262  0E75                     i1l2043:
  5263                           
  5264                           ;main_dc_volt.c: 91:             PORTBbits.RB0 = 0;
  5265  0E75  1006               	bcf	6,0	;volatile
  5266  0E76  2E81               	goto	i1l2049
  5267  0E77                     i1l2045:
  5268  0E77  3000               	movlw	0
  5269  0E78  0266               	subwf	_count+1,w
  5270  0E79  3033               	movlw	51
  5271  0E7A  1903               	skipnz
  5272  0E7B  0265               	subwf	_count,w
  5273  0E7C  1C03               	skipc
  5274  0E7D  2E7F               	goto	u259_21
  5275  0E7E  2E80               	goto	u259_20
  5276  0E7F                     u259_21:
  5277  0E7F  2E81               	goto	i1l2049
  5278  0E80                     u259_20:
  5279  0E80                     i1l2047:
  5280                           
  5281                           ;main_dc_volt.c: 93:             PORTBbits.RB0 = 1;
  5282  0E80  1406               	bsf	6,0	;volatile
  5283  0E81                     i1l2049:
  5284                           
  5285                           ;main_dc_volt.c: 96:     if(ampe <750)
  5286  0E81  3002               	movlw	2
  5287  0E82  1283               	bcf	3,5	;RP0=0, select bank0
  5288  0E83  1303               	bcf	3,6	;RP1=0, select bank0
  5289  0E84  0268               	subwf	_ampe+1,w
  5290  0E85  30EE               	movlw	238
  5291  0E86  1903               	skipnz
  5292  0E87  0267               	subwf	_ampe,w
  5293  0E88  1803               	skipnc
  5294  0E89  2E8B               	goto	u260_21
  5295  0E8A  2E8C               	goto	u260_20
  5296  0E8B                     u260_21:
  5297  0E8B  2E8D               	goto	i1l2053
  5298  0E8C                     u260_20:
  5299  0E8C                     i1l2051:
  5300                           
  5301                           ;main_dc_volt.c: 97:         PORTBbits.RB1 = 1;
  5302  0E8C  1486               	bsf	6,1	;volatile
  5303  0E8D                     i1l2053:
  5304                           
  5305                           ;main_dc_volt.c: 99:     if(ampe >=750)
  5306  0E8D  3002               	movlw	2
  5307  0E8E  0268               	subwf	_ampe+1,w
  5308  0E8F  30EE               	movlw	238
  5309  0E90  1903               	skipnz
  5310  0E91  0267               	subwf	_ampe,w
  5311  0E92  1C03               	skipc
  5312  0E93  2E95               	goto	u261_21
  5313  0E94  2E96               	goto	u261_20
  5314  0E95                     u261_21:
  5315  0E95  2EAB               	goto	i1l109
  5316  0E96                     u261_20:
  5317  0E96                     i1l2055:
  5318                           
  5319                           ;main_dc_volt.c: 100:     {;main_dc_volt.c: 101:         if(count<=50)
  5320  0E96  3000               	movlw	0
  5321  0E97  0266               	subwf	_count+1,w
  5322  0E98  3033               	movlw	51
  5323  0E99  1903               	skipnz
  5324  0E9A  0265               	subwf	_count,w
  5325  0E9B  1803               	skipnc
  5326  0E9C  2E9E               	goto	u262_21
  5327  0E9D  2E9F               	goto	u262_20
  5328  0E9E                     u262_21:
  5329  0E9E  2EA1               	goto	i1l2059
  5330  0E9F                     u262_20:
  5331  0E9F                     i1l2057:
  5332                           
  5333                           ;main_dc_volt.c: 102:             PORTBbits.RB1 = 0;
  5334  0E9F  1086               	bcf	6,1	;volatile
  5335  0EA0  2EAB               	goto	i1l109
  5336  0EA1                     i1l2059:
  5337  0EA1  3000               	movlw	0
  5338  0EA2  0266               	subwf	_count+1,w
  5339  0EA3  3033               	movlw	51
  5340  0EA4  1903               	skipnz
  5341  0EA5  0265               	subwf	_count,w
  5342  0EA6  1C03               	skipc
  5343  0EA7  2EA9               	goto	u263_21
  5344  0EA8  2EAA               	goto	u263_20
  5345  0EA9                     u263_21:
  5346  0EA9  2EAB               	goto	i1l109
  5347  0EAA                     u263_20:
  5348  0EAA                     i1l2061:
  5349                           
  5350                           ;main_dc_volt.c: 104:             PORTBbits.RB1 = 1;
  5351  0EAA  1486               	bsf	6,1	;volatile
  5352  0EAB                     i1l109:
  5353  0EAB  0008               	return
  5354  0EAC                     __end_of_compe:
  5355  007E                     btemp	set	126	;btemp
  5356  007E                     wtemp0	set	126
  5357                           
  5358                           	psect	config
  5359                           
  5360                           ;Config register CONFIG @ 0x2007
  5361                           ;	Oscillator Selection bits
  5362                           ;	FOSC = HS, HS oscillator
  5363                           ;	Watchdog Timer Enable bit
  5364                           ;	WDTE = OFF, WDT disabled
  5365                           ;	Power-up Timer Enable bit
  5366                           ;	PWRTE = ON, PWRT enabled
  5367                           ;	Brown-out Reset Enable bit
  5368                           ;	BOREN = ON, BOR enabled
  5369                           ;	Low-Voltage (Single-Supply) In-Circuit Serial Programming Enable bit
  5370                           ;	LVP = ON, RB3/PGM pin has PGM function; low-voltage programming enabled
  5371                           ;	Data EEPROM Memory Code Protection bit
  5372                           ;	CPD = OFF, Data EEPROM code protection off
  5373                           ;	Flash Program Memory Write Enable bits
  5374                           ;	WRT = OFF, Write protection off; all program memory may be written to by EECON control
  5375                           ;	In-Circuit Debugger Mode bit
  5376                           ;	DEBUG = 0x1, unprogrammed default
  5377                           ;	Flash Program Memory Code Protection bit
  5378                           ;	CP = OFF, Code protection off
  5379  2007                     	org	8199
  5380  2007  3FF2               	dw	16370

Data Sizes:
    Strings     21
    Constant    0
    Data        0
    BSS         6
    Persistent  0
    Stack       0

Auto Spaces:
    Space          Size  Autos    Used
    COMMON           14     10      12
    BANK0            80     71      75
    BANK1            80      0       0
    BANK3            96      0       0
    BANK2            96      0       0

Pointer List with Targets:

    LCD_Write_String@str	PTR unsigned char  size(1) Largest target is 5
		 -> STR_5(CODE[4]), STR_4(CODE[3]), STR_3(CODE[5]), STR_2(CODE[4]), 
		 -> STR_1(CODE[5]), 


Critical Paths under _main in COMMON

    _hien_thi->_LCD_Set_Cursor
    _hien_thi->___lwdiv
    _LCD_Write_String->_LCD_Write_Char
    _LCD_Write_Number->___lwdiv
    ___lwdiv->___lwmod
    _LCD_Write_Char->_LCD_DATA
    _LCD_Set_Cursor->_LCD_CMD
    _do_luong->___xxtofl
    ___fltol->___xxtofl
    ___flmul->___xxtofl
    ___fldiv->___xxtofl
    _LCD_Init->_LCD_CMD
    _LCD_CMD->_LCD_DATA

Critical Paths under _ISR in COMMON

    None.

Critical Paths under _main in BANK0

    _hien_thi->_LCD_Write_Number
    _LCD_Write_Number->___lwdiv
    _do_luong->___fltol
    ___fltol->___fldiv
    ___flmul->___xxtofl
    ___fldiv->___flmul

Critical Paths under _ISR in BANK0

    None.

Critical Paths under _main in BANK1

    None.

Critical Paths under _ISR in BANK1

    None.

Critical Paths under _main in BANK3

    None.

Critical Paths under _ISR in BANK3

    None.

Critical Paths under _main in BANK2

    None.

Critical Paths under _ISR in BANK2

    None.

Call Graph Tables:

 ---------------------------------------------------------------------------------
 (Depth) Function   	        Calls       Base Space   Used Autos Params    Refs
 ---------------------------------------------------------------------------------
 (0) _main                                                 2     2      0   12328
                                             69 BANK0      2     2      0
                           _ADC_Init
                               _GPIO
                           _LCD_Init
                           _do_luong
                           _hien_thi
                              _time1
 ---------------------------------------------------------------------------------
 (1) _time1                                                0     0      0       0
 ---------------------------------------------------------------------------------
 (1) _hien_thi                                             4     4      0    6340
                                             36 BANK0      4     4      0
                     _LCD_Set_Cursor
                     _LCD_Write_Char
                   _LCD_Write_Number
                   _LCD_Write_String
                            ___lwdiv
                            ___lwmod
 ---------------------------------------------------------------------------------
 (2) _LCD_Write_String                                     3     3      0     564
                                              0 BANK0      3     3      0
                     _LCD_Write_Char
 ---------------------------------------------------------------------------------
 (2) _LCD_Write_Number                                    29    27      2    2933
                                              7 BANK0     29    27      2
                     _LCD_Write_Char
                            ___lwdiv
                            ___lwmod
 ---------------------------------------------------------------------------------
 (2) ___lwmod                                              6     2      4     767
                                              2 COMMON     6     2      4
 ---------------------------------------------------------------------------------
 (2) ___lwdiv                                              8     4      4     961
                                              8 COMMON     1     1      0
                                              0 BANK0      7     3      4
                            ___lwmod (ARG)
 ---------------------------------------------------------------------------------
 (3) _LCD_Write_Char                                       5     5      0     254
                                              3 COMMON     5     5      0
                           _LCD_DATA
 ---------------------------------------------------------------------------------
 (2) _LCD_Set_Cursor                                       7     6      1     725
                                              6 COMMON     3     2      1
                                              0 BANK0      4     4      0
                            _LCD_CMD
 ---------------------------------------------------------------------------------
 (1) _do_luong                                             0     0      0    5706
                           _ADC_Read
                            ___fldiv
                            ___flmul
                            ___fltol
                           ___xxtofl
 ---------------------------------------------------------------------------------
 (2) ___xxtofl                                            14    10      4     474
                                              2 COMMON     8     4      4
                                              0 BANK0      6     6      0
 ---------------------------------------------------------------------------------
 (2) ___fltol                                             11     7      4     381
                                             58 BANK0     11     7      4
                            ___fldiv (ARG)
                            ___flmul (ARG)
                           ___xxtofl (ARG)
 ---------------------------------------------------------------------------------
 (2) ___flmul                                             26    18      8    3533
                                              6 BANK0     26    18      8
                          __Umul8_16
                           ___xxtofl (ARG)
 ---------------------------------------------------------------------------------
 (3) __Umul8_16                                            9     7      2     980
                                              2 COMMON     4     2      2
                                              0 BANK0      5     5      0
 ---------------------------------------------------------------------------------
 (2) ___fldiv                                             26    18      8    1273
                                             32 BANK0     26    18      8
                            ___flmul (ARG)
                           ___xxtofl (ARG)
 ---------------------------------------------------------------------------------
 (2) _ADC_Read                                             7     5      2      45
                                              2 COMMON     7     5      2
 ---------------------------------------------------------------------------------
 (1) _LCD_Init                                             2     2      0     279
                                              6 COMMON     2     2      0
                            _LCD_CMD
                           _LCD_DATA
 ---------------------------------------------------------------------------------
 (3) _LCD_CMD                                              3     3      0     155
                                              3 COMMON     3     3      0
                           _LCD_DATA
 ---------------------------------------------------------------------------------
 (4) _LCD_DATA                                             1     1      0     124
                                              2 COMMON     1     1      0
 ---------------------------------------------------------------------------------
 (1) _GPIO                                                 0     0      0       0
 ---------------------------------------------------------------------------------
 (1) _ADC_Init                                             0     0      0       0
 ---------------------------------------------------------------------------------
 Estimated maximum stack depth 4
 ---------------------------------------------------------------------------------
 (Depth) Function   	        Calls       Base Space   Used Autos Params    Refs
 ---------------------------------------------------------------------------------
 (5) _ISR                                                  2     2      0       0
                                              0 COMMON     2     2      0
                              _compe
 ---------------------------------------------------------------------------------
 (6) _compe                                                0     0      0       0
 ---------------------------------------------------------------------------------
 Estimated maximum stack depth 6
 ---------------------------------------------------------------------------------

 Call Graph Graphs:

 _main (ROOT)
   _ADC_Init
   _GPIO
   _LCD_Init
     _LCD_CMD
       _LCD_DATA
     _LCD_DATA
   _do_luong
     _ADC_Read
     ___fldiv
       ___flmul (ARG)
         __Umul8_16
         ___xxtofl (ARG)
       ___xxtofl (ARG)
     ___flmul
       __Umul8_16
       ___xxtofl (ARG)
     ___fltol
       ___fldiv (ARG)
         ___flmul (ARG)
           __Umul8_16
           ___xxtofl (ARG)
         ___xxtofl (ARG)
       ___flmul (ARG)
         __Umul8_16
         ___xxtofl (ARG)
       ___xxtofl (ARG)
     ___xxtofl
   _hien_thi
     _LCD_Set_Cursor
       _LCD_CMD
         _LCD_DATA
     _LCD_Write_Char
       _LCD_DATA
     _LCD_Write_Number
       _LCD_Write_Char
         _LCD_DATA
       ___lwdiv
         ___lwmod (ARG)
       ___lwmod
     _LCD_Write_String
       _LCD_Write_Char
         _LCD_DATA
     ___lwdiv
       ___lwmod (ARG)
     ___lwmod
   _time1

 _ISR (ROOT)
   _compe

 Address spaces:
Name               Size   Autos  Total    Cost      Usage
BITCOMMON            E      0       0       0        0.0%
EEDATA             100      0       0       0        0.0%
NULL                 0      0       0       0        0.0%
CODE                 0      0       0       0        0.0%
COMMON               E      A       C       1       85.7%
BITSFR0              0      0       0       1        0.0%
SFR0                 0      0       0       1        0.0%
BITSFR1              0      0       0       2        0.0%
SFR1                 0      0       0       2        0.0%
STACK                0      0       0       2        0.0%
ABS                  0      0      57       3        0.0%
BITBANK0            50      0       0       4        0.0%
BITSFR3              0      0       0       4        0.0%
SFR3                 0      0       0       4        0.0%
BANK0               50     47      4B       5       93.8%
BITSFR2              0      0       0       5        0.0%
SFR2                 0      0       0       5        0.0%
BITBANK1            50      0       0       6        0.0%
BANK1               50      0       0       7        0.0%
BITBANK3            60      0       0       8        0.0%
BANK3               60      0       0       9        0.0%
BITBANK2            60      0       0      10        0.0%
BANK2               60      0       0      11        0.0%
DATA                 0      0      57      12        0.0%


Microchip Technology PIC Macro Assembler V2.30 build 20200825195618 
Symbol Table                                                                                   Thu Dec 23 03:00:33 2021

             ___fldiv@aexp 0059               ___fldiv@bexp 0058                          pc 0002  
             ___fldiv@sign 0051                         l63 0D83                         l64 0D9F  
                       l65 0D89                         l66 0DAA                         l59 0C53  
                       l93 07FF                         l69 0DBB                         l96 0C66  
                       fsr 0004        __Umul8_16@word_mpld 0022                        l112 0786  
                      l115 062C                        l142 07ED                        l151 0F03  
                      l160 0D16                        l154 0E54                        l180 0C8A  
                      l181 0C8D                        l182 0C93                        l183 0C94  
                      l191 0C80                        l184 0C9A                        l185 0C9B  
                      l177 0FFF                        l186 0CA1                        l188 0CA2  
                      l470 0F6A                        l710 0651                        l463 0F7F  
                      l712 06E8                        l473 0F7F                        l650 054C  
                      l642 04CA                        l626 03D8                        l723 06B2  
                      l628 0558                        l724 06BE                        l716 0696  
                      l549 0E01                        l559 0D80                        l648 053C  
                      l672 02E7                        l666 037B                        l685 0CDB  
                      l678 036F                        l687 0CED                        _GIE 005F  
                      _RD2 0042                        _RD3 0043                        _RD4 0044  
                      _RD5 0045                        _RD6 0046                        _RD7 0047  
                      _ISR 0D17                        fsr0 0004                        indf 0000  
             ___flmul@aexp 0034               ___flmul@bexp 0039               ___flmul@sign 0033  
             ___flmul@temp 003E               ___flmul@prod 003A            __end_of_LCD_CMD 0C81  
                     ?_ISR 0070             _LCD_Set_Cursor 0EAC               ___fltol@exp1 0064  
                     l2001 0662                       l2011 068D                       l2003 0667  
                     l2021 06C0                       l2013 069D                       l2005 0674  
                     l2023 06D6                       l2015 06A8                       l2007 067B  
                     l2033 0C4B                       l2025 06DB                       l2017 06AC  
                     l2009 067F                       l2201 0E10                       l2027 06DF  
                     l2019 06B6                       l2211 0E36                       l2203 0E1E  
                     l2221 0C68                       l2029 06E0                       l2213 0E3C  
                     l2205 0E21                       l2301 0F84                       l2223 0C6B  
                     l2215 0E3F                       l2207 0E2A                       l2231 0DBC  
                     l2311 0F9D                       l2303 0F8A                       l2063 0C54  
                     l2065 07EE                       l2225 0C71                       l1601 0DB4  
                     l2401 01A5                       l2217 0E48                       l2209 0E2D  
                     l2241 0DD4                       l2233 0DC0                       l2321 0FE0  
                     l2313 0FB7                       l2305 0F8F                       l2227 0C74  
                     l2411 0245                       l2403 01BE                       l2219 0E4B  
                     l2251 0DF7                       l2243 0DD8                       l2235 0DC6  
                     l2315 0FCA                       l2307 0F96                       l2229 0C7D  
                     l2501 07D5                       l2261 0CD1                       l2421 02B3  
                     l2413 026B                       l2405 01DB                       l2341 002D  
                     l2333 001B                       l1701 0F5F                       l2245 0DE9  
                     l2237 0DC9                       l2253 0DFD                       l2325 0FE5  
                     l2317 0FD0                       l2191 0C91                       l2503 07DB  
                     l1711 0389                       l2263 0CD5                       l2431 02CB  
                     l2423 02B7                       l2415 0293                       l2407 0208  
                     l2351 0049                       l2343 0032                       l2335 0022  
                     l1703 0F6F                       l2511 06F3                       l2271 0EAF  
                     l2247 0DEF                       l2239 0DD0                       l2327 0FF0  
                     l2319 0FD6                       l2193 0C98                       l2505 07E1  
                     l1801 049B                       l1721 03A0                       l1713 038D  
                     l2265 0CE4                       l2257 0CC8                       l2441 02EC  
                     l2433 02CC                       l2425 02B8                       l2417 029C  
                     l2409 0218                       l2361 005E                       l2353 004E  
                     l2345 0037                       l2337 0028                       l1705 0F74  
                     l2513 072B                       l2273 0EB4                       l2281 0ED9  
                     l2249 0DF0                       l1561 0D57                       l2329 0FF6  
                     l2521 0585                       l2195 0C9F                       l2187 0C82  
                     l2507 07E7                       l1811 04B3                       l1803 04A4  
                     l1731 03B6                       l1723 03A1                       l1715 038E  
                     l1707 037C                       l2267 0CE9                       l2259 0CCA  
                     l2443 02F1                       l2451 0322                       l2435 02D0  
                     l2427 02C1                       l2419 02AA                       l2371 007A  
                     l2363 0063                       l2355 0054                       l2347 003F  
                     l2339 002C                       l2283 0EDF                       l2275 0EC5  
                     l1571 0D76                       l1563 0D5B                       l1555 0D47  
                     l2291 0CF1                       l2531 060F                       l2523 05A9  
                     l2515 0559                       l2189 0C86                       l1821 04E2  
                     l1813 04C7                       l1805 04AA                       l1741 03CD  
                     l1733 03BA                       l1717 0393                       l1725 03A3  
                     l1709 0383                       l2461 0355                       l2453 032F  
                     l2445 02FF                       l2437 02E4                       l2429 02C7  
                     l2381 00A5                       l2373 007F                       l2365 006B  
                     l2357 0058                       l2349 0041                       l2509 06E9  
                     l2285 0EF0                       l2277 0ECA                       l2197 0E03  
                     l1565 0D5F                       l1557 0D4D                       l1573 0D7C  
                     l2293 0CF4                       l2533 0615                       l2525 05DC  
                     l2517 0561                       l2541 0CA3                       l1591 0D82  
                     l1831 0520                       l1823 04E6                       l1807 04AE  
                     l1751 03F0                       l1743 03CE                       l1735 03BB  
                     l1727 03AB                       l1719 0398                       l2463 0363  
                     l2455 033A                       l2447 0303                       l2391 0142  
                     l2383 00C2                       l2367 006D                       l2359 0059  
                     l1671 0F04                       l2287 0EF5                       l2279 0ED0  
                     l2199 0E0D                       l1567 0D69                       l1559 0D50  
                     l2295 0D01                       l2535 061B                       l2527 05E5  
                     l2519 0567                       l2551 0CBC                       l2543 0CA8  
                     l2481 0792                       l2473 0787                       l1593 0D8F  
                     l1841 0546                       l1833 052F                       l1825 04FF  
                     l1817 04CF                       l1809 04AF                       l1761 0407  
                     l1737 03C0                       l1745 03D0                       l1729 03B0  
                     l2465 0367                       l2457 0349                       l2449 031C  
                     l2393 014B                       l2385 00DE                       l2377 0088  
                     l2369 0075                       l1681 0F30                       l1673 0F11  
                     l2289 0EFB                       l1569 0D6F                       l2297 0D09  
                     l2537 0626                       l2529 0607                       l2545 0CAD  
                     l2491 07B8                       l2483 079A                       l2475 078A  
                     l1595 0DA2                       l1843 0548                       l1835 0533  
                     l1819 04D4                       l1827 0505                       l1771 0433  
                     l1763 0419                       l1747 03E0                       l1755 03F9  
                     l1739 03C5                       l2467 0368                       l2459 0353  
                     l2395 015B                       l2387 010A                       l2379 0098  
                     l1683 0F38                       l2299 0F80                       l2547 0CB2  
                     l2539 0CA3        LCD_Write_String@str 0022                       l2493 07BD  
                     l2485 07A3                       l2477 078B                       l1597 0DA7  
                     l1837 053B                       l1829 0512                       l1773 0438  
                     l1781 0458                       l1765 0421                       l1757 03FE  
                     l1749 03EC                       l2469 0373                       l2397 0178  
                     l2389 0126                       l1693 0F46                       l1685 0F3A  
                     l1677 0F1A                       l2549 0CB7                       l2495 07C3  
                     l2487 07A9                       l2479 078C                       l1599 0DAE  
                     l1839 0542                       l1791 0483                       l1783 046A  
                     l1775 044A                       l1767 0429                       l2399 0188  
                     l1687 0F3E                       l1695 0F58                       l1679 0F2F  
                     l2497 07C9                       l2489 07B2                       l1793 048B  
                     l1785 046B                       l1777 044E                       l1769 0431  
                     l2499 07CF                       l2579 0D97                       l1795 048D  
                     l1787 0479                       l1779 044F                       l1797 0496  
                     l1789 047D                       l1799 049A                       l1991 0635  
                     l1993 0639                       l1995 0649                       l1997 0659  
                     l1989 0630                       _ADON 00F8                       _CHS0 00FB  
                     _CHS1 00FC                       _CHS2 00FD                       STR_1 080B  
                     STR_2 0814                       STR_3 0806                       STR_4 0818  
                     STR_5 0810                       u2000 04E6                       u2001 04E5  
                     u2010 04F5                       u2020 0512                       u2021 0511  
                     u2030 052F                       u2031 052E                       u2015 04F0  
                     u2040 0546                       u3000 007F                       u2041 0545  
                     u2025 050E                       u3001 007E                       u2035 052B  
                     u3011 00D0                       u3012 00D7                       u1500 0D69  
                     u3101 01FA                       u3021 00EC                       u3013 00DE  
                     u1501 0D68                       u3102 0201                       u3022 00F3  
                     u3111 0227                       u3103 0208                       u3031 0118  
                     u3023 00FA                       u3200 02CB                       u3120 0251  
                     u3112 022E                       u3032 011F                       u1520 0D7C  
                     u3201 02CA                       u3113 0235                       u3041 0134  
                     u3033 0126                       u1521 0D7B                       u1505 0D65  
                     u3210 02D0                       u3042 013B                       u3211 02CF  
                     u3131 025D                       u3043 0142                       u1515 0D70  
                     u3220 02E4                       u3140 0279                       u3132 0264  
                     u2500 06AC                       u2420 0635                       u3221 02E3  
                     u3133 026B                       u3125 024C                       u3061 016A  
                     u2501 06AB                       u2421 0634                       u3230 02EB  
                     u3062 0171                       u1710 0F57                       u2510 06B2  
                     u2430 0639                       u1470 0D4D                       u3231 02EA  
                     u3151 0285                       u3071 0197                       u3063 0178  
                     u3055 0144                       u1711 0F56                       u2511 06B1  
                     u2431 0638                       u1471 0D4C                       u1560 0DAE  
                     u1800 03C0                       u3240 02F1                       u3152 028C  
                     u3072 019E                       u1720 0F5E                       u2520 06B6  
                     u2440 0659                       u1561 0DAD                       u1801 03BF  
                     u3241 02F0                       u3153 0293                       u3145 0274  
                     u3073 01A5                       u1721 0F5D                       u1705 0F47  
                     u2521 06B5                       u2441 0658                       _GPIO 07EE  
                     u1810 03C5                       u3250 0303                       u2530 06CB  
                     u1490 0D5F                       u1811 03C4                       u3251 0302  
                     u3091 01CD                       u3307 0E25                       u1491 0D5E  
                     u2700 0C91                       u1900 0483                       u1820 03E0  
                     u3260 0312                       u3180 02B7                       u3092 01D4  
                     u1740 0F6F                       u1660 0F11                       u2540 06DB  
                     u2460 067A                       u2701 0C90                       u1901 0482  
                     u1821 03DF                       u3181 02B6                       u3165 0295  
                     u3093 01DB                       u3085 01A7                       u1741 0F6E  
                     u1661 0F10                       u2541 06DA                       u2461 0679  
                     u3317 0E31                       u1485 0D51                       u2710 0C98  
                     u1910 048B                       u1830 03FE                       u3270 032F  
                     u1750 0F74                       u1670 0F28                       u2550 06DF  
                     u2711 0C97                       u1911 048A                       u1831 03FD  
                     u3271 032E                       u3175 02AC                       u1751 0F73  
                     u1735 0F61                       u2551 06DE                       u2535 06C6  
                     u2455 066C                       u3327 0E43                       u2640 07FC  
                     u2720 0C9F                       u1840 0438                       u1760 038D  
                     u3280 0349                       u1680 0F3E                       u2480 069C  
                     u2800 0DFD                       u2641 07F8                       u2721 0C9E  
                     u1841 0437                       u1761 038C                       u3281 0348  
                     u3265 030D                       u1681 0F3D                       u2481 069B  
                     u3337 0E4F                       u2801 0DFC                       u1930 049A  
                     u1770 0393                       u2810 0CD5                       u3290 0367  
                     u1690 0F45                       u3347 0DA4                       u1931 0499  
                     u1771 0392                       u2811 0CD4                       u3291 0366  
                     u3275 032B                       u3195 02BA                       u1691 0F44  
                     u1675 0F23                       u2475 068E                       u1780 0398  
                     u2740 0DC6                       u2900 0F9C                       u3357 0796  
                     u1925 048F                       u1781 0397                       u3285 0345  
                     u2741 0DC5                       u2901 0F9B                       u2654 07FF  
                     u1950 04AE                       u1870 044E                       u1790 03BA  
                     u2830 0CE9                       u2910 0FD6                       u3367 079E  
                     u1951 04AD                       u1871 044D                       u1855 043A  
                     u1791 03B9                       u2831 0CE8                       u2495 06A1  
                     u2735 0E13                       u2911 0FD5                       u1960 04B3  
                     u2840 0EB4                       u2760 0DD8                       u2920 0FE4  
                     u3377 07AD                       u1961 04B2                       u1945 049D  
                     u1865 0443                       u2825 0CDC                       u2841 0EB3  
                     u2761 0DD7                       u2921 0FE3                       u2690 0C86  
                     u1970 04C7                       u1890 046A                       u2930 002C  
                     u2691 0C85                       u3387 07BA                       u1971 04C6  
                     u1891 0469                       u2931 002B                       u2755 0DCA  
                     _PEIE 005E                       u1980 04CE                       u2940 0032  
                     u2860 0EDF                       u2780 0DE9                       u3397 0C78  
                     u1981 04CD                       u1885 0451                       u2941 0031  
                     u2861 0EDE                       u2781 0DE8                       u1990 04D4  
                     u2950 0037                       u1991 04D3                       u1895 0466  
                     u2951 0036                       u2855 0EBC                       u2775 0DD9  
                     u2960 0058                       u2880 0D16                       u2961 0057  
                     u2785 0DE5                       u2881 0D15                       u2970 005E  
                     u2890 0F8A                       u2971 005D                       u2875 0EE7  
                     u2795 0DF1                       u2891 0F89                       u2980 0063  
                     u2981 0062                       u2990 007A                       u2991 0079  
                     i1l82 0D40                       _TMR1 000E          ?_LCD_Write_Number 0027  
        ?_LCD_Write_String 0070                       _ampe 0067                       _main 0CA3  
                     btemp 007E         ??_LCD_Write_Number 0029           __end_of_ADC_Init 0C54  
         __end_of_ADC_Read 0DBC                       start 000C         ??_LCD_Write_String 0078  
          ___fldiv@new_exp 0052                      ??_ISR 0070           __end_of_LCD_DATA 0CA3  
                    ?_GPIO 0070           __end_of_LCD_Init 07EE              ___fltol@sign1 0063  
                    ?_main 0070            __end_of___fldiv 0559            __end_of___flmul 037C  
          __end_of___fltol 0F80            __end_of___lwdiv 0E02                      i1l109 0EAB  
          __end_of___lwmod 0D81                      _TRISD 0088     __end_of_LCD_Set_Cursor 0F04  
                    _compe 0E55                      _count 0065                      _time1 0C54  
                    pclath 000A                      status 0003                      wtemp0 007E  
             __end_of_GPIO 0800             _LCD_Write_Char 0E02            __initialization 000F  
             __end_of_main 0CC5                     ??_GPIO 0072                     ??_main 007A  
                ??_LCD_CMD 0073            ?_LCD_Set_Cursor 0076                     _ADCON0 001F  
                   ?_compe 0070                     _ADCON1 009F                     _ADRESH 001E  
                   _ADRESL 009E                     ?_time1 0070            ADC_Read@Channel 0078  
                   i1l2041 0E6A                     i1l2051 0E8C                     i1l2043 0E75  
                   i1l2035 0E55                     i1l2061 0EAA                     i1l2053 0E8D  
                   i1l2045 0E77                     i1l2037 0E5E                     i1l2141 0D34  
                   i1l2133 0D17                     i1l2055 0E96                     i1l2047 0E80  
                   i1l2039 0E61                     i1l2143 0D39                     i1l2135 0D1D  
                   i1l2057 0E9F                     i1l2049 0E81                     i1l2145 0D3F  
                   i1l2137 0D23                     i1l2059 0EA1                     i1l2139 0D32  
                   u260_20 0E8C                     u260_21 0E8B                     u261_20 0E96  
                   u261_21 0E95                     u262_20 0E9F                     u262_21 0E9E  
                   u263_20 0EAA                     u263_21 0EA9                     u256_20 0E5E  
                   u256_21 0E5D                     u257_20 0E6A                     u257_21 0E69  
                   u258_20 0E75                     u266_20 0D1D                     u258_21 0E74  
                   u266_21 0D1C                     u259_20 0E80                     u267_20 0D23  
                   u259_21 0E7F                     u267_21 0D22                     u268_20 0D32  
                   u268_21 0D31                     _TMR1IE 0460                     _TMR1IF 0060  
                   _TRISD2 0442                     _TRISD3 0443           __end_of___xxtofl 06E9  
   __end_of_LCD_Write_Char 0E55           __end_of_do_luong 0787           __end_of_hien_thi 062D  
                ??___fldiv 0048                  ??___flmul 002E                  ??___fltol 005E  
                ??___lwdiv 0078                  ??___lwmod 0076         __size_of__Umul8_16 0029  
                ?_ADC_Init 0070                  ?_ADC_Read 0072                     saved_w 007E  
          LCD_Set_Cursor@c 0076            LCD_Set_Cursor@r 0020                  ?_LCD_DATA 0070  
             ___xxtofl@arg 0022               ___xxtofl@exp 0021               ___xxtofl@val 0072  
  __end_of__initialization 0017                  ?_LCD_Init 0070                 ___fltol@f1 005A  
          ?_LCD_Write_Char 0070             __pcstackCOMMON 0070              __end_of_compe 0EAC  
            __end_of_time1 0C67                 ??_ADC_Init 0072                 ??_ADC_Read 0074  
                  ??_compe 0070                    ??_time1 0072                 __pbssBANK0 0065  
               ??_LCD_DATA 0072                 ??_LCD_Init 0076          __end_of__Umul8_16 0CEE  
               __pmaintext 0CA3                 __pintentry 0004  __size_of_LCD_Write_Number 0080  
__size_of_LCD_Write_String 0029                    _LCD_CMD 0C67                  ?___xxtofl 0072  
                  _GO_DONE 00FA                  ?_do_luong 0070                  ?_hien_thi 0070  
               __stringtab 0800                    ___fldiv 037C                    ___flmul 001B  
                  ___fltol 0F04                    ___lwdiv 0DBC                    ___lwmod 0D47  
         ??_LCD_Set_Cursor 0077                    __ptext1 0C54                    __ptext2 0559  
                  __ptext3 0CEE                    __ptext4 0F80                    __ptext5 0D47  
                  __ptext6 0DBC                    __ptext7 0E02                    __ptext8 0EAC  
                  __ptext9 06E9               __size_of_ISR 0030                  _T1CONbits 0010  
               ??___xxtofl 0076                 ??_do_luong 007A                    _voltage 007A  
               ??_hien_thi 0079       end_of_initialization 0017               _hien_thi$884 0046  
             _hien_thi$885 0044                  _PORTBbits 0006                 LCD_CMD@CMD 0075  
        LCD_Write_Number@c 003F          LCD_Write_Number@k 0040          LCD_Write_Number@p 0042  
            ___xxtofl@sign 0020                  _TRISBbits 0086                ___fldiv@grs 0054  
              ___fldiv@rem 004D          __size_of_ADC_Init 0009          __size_of_ADC_Read 003B  
        LCD_Write_String@i 0020           ??_LCD_Write_Char 0073                ___flmul@grs 0035  
        __size_of_LCD_DATA 0022          __size_of_LCD_Init 0067           _LCD_Write_Number 0F80  
         _LCD_Write_String 0CEE        start_initialization 000F                __end_of_ISR 0D47  
                __Umul8_16 0CC5                   ?_LCD_CMD 0070                  ___fldiv@a 0040  
                ___fldiv@b 0044                  ___flmul@a 002A                  ___flmul@b 0026  
              __pbssCOMMON 007A                  ___latbits 0002              __pcstackBANK0 0020  
        __size_of___xxtofl 00BC          __size_of_do_luong 009E          __size_of_hien_thi 00D4  
         ___lwdiv@dividend 0022                   ?___fldiv 0040                   ?___flmul 0026  
                 ?___fltol 005A                 ?__Umul8_16 0072                   ?___lwdiv 0020  
                 ?___lwmod 0072                  __pstrings 0800                   _ADC_Init 0C4B  
                 _ADC_Read 0D81           ___lwdiv@quotient 0025             __size_of_compe 0057  
           __size_of_time1 0013                   _LCD_DATA 0C81          interrupt_function 0004  
                 _LCD_Init 0787                __stringbase 0805           __size_of_LCD_CMD 001A  
 __end_of_LCD_Write_Number 1000   __end_of_LCD_Write_String 0D17        LCD_Write_Char@High4 0076  
            ADC_Read@value 0076                ??__Umul8_16 0074           __size_of___fldiv 01DD  
         __size_of___flmul 0361           __size_of___fltol 007C           __size_of___lwdiv 0046  
         __size_of___lwmod 003A         __end_of__stringtab 0806                   ___xxtofl 062D  
          ___lwdiv@divisor 0020            ___lwdiv@counter 0024                   __ptext10 062D  
                 __ptext11 0F04                   __ptext20 0C4B                   __ptext12 001B  
                 __ptext21 0D17                   __ptext13 0CC5                   __ptext22 0E55  
                 __ptext14 037C                   __ptext15 0D81                   __ptext16 0787  
                 __ptext17 0C67                   __ptext18 0C81                   __ptext19 07EE  
                 _do_luong 06E9                   _hien_thi 0559    __size_of_LCD_Set_Cursor 0058  
            __size_of_GPIO 0012              __size_of_main 0022        LCD_Set_Cursor@High4 0022  
   LCD_Write_Number@number 0027         LCD_Write_Char@Data 0077         LCD_Write_Char@Low4 0075  
                 intlevel1 0000           ___lwmod@dividend 0074                  stringcode 0800  
  __size_of_LCD_Write_Char 0053         LCD_Set_Cursor@Low4 0021         LCD_Set_Cursor@Temp 0023  
   __Umul8_16@multiplicand 0072               LCD_DATA@Data 0072            ___lwmod@divisor 0072  
          ___lwmod@counter 0077                   stringdir 0800                   stringtab 0800  
      LCD_Write_Number@num 002B       __Umul8_16@multiplier 0024          __Umul8_16@product 0020  
