

Microchip MPLAB XC8 Assembler V2.32 build 20210201212658 
                                                                                               Tue Jan 25 05:45:09 2022

Microchip MPLAB XC8 C Compiler v2.32 (Free license) build 20210201212658 Og1 
     1                           	processor	16F877A
     2                           	pagewidth 120
     3                           	opt	flic
     4                           	psect	strings,global,class=STRING,delta=2,noexec
     5                           	psect	cinit,global,class=CODE,merge=1,delta=2
     6                           	psect	bssBANK0,global,class=BANK0,space=1,delta=1,noexec
     7                           	psect	cstackCOMMON,global,class=COMMON,space=1,delta=1,noexec
     8                           	psect	cstackBANK0,global,class=BANK0,space=1,delta=1,noexec
     9                           	psect	maintext,global,class=CODE,split=1,delta=2
    10                           	psect	text1,local,class=CODE,merge=1,delta=2,group=1
    11                           	psect	text2,local,class=CODE,merge=1,delta=2
    12                           	psect	text3,local,class=CODE,merge=1,delta=2
    13                           	psect	text4,local,class=CODE,merge=1,delta=2
    14                           	psect	text5,local,class=CODE,merge=1,delta=2,group=1
    15                           	psect	text6,local,class=CODE,merge=1,delta=2,group=1
    16                           	psect	text7,local,class=CODE,merge=1,delta=2,group=1
    17                           	psect	text8,local,class=CODE,merge=1,delta=2,group=1
    18                           	psect	text9,local,class=CODE,merge=1,delta=2,group=1
    19                           	psect	text10,local,class=CODE,merge=1,delta=2
    20                           	psect	text11,local,class=CODE,merge=1,delta=2,group=1
    21                           	psect	text12,local,class=CODE,merge=1,delta=2
    22                           	psect	text13,local,class=CODE,merge=1,delta=2
    23                           	psect	config,global,abs,ovrld,class=CONFIG,space=4,delta=2,noexec
    24                           	dabs	1,0x7E,2
    25  0000                     
    26                           ; Version 2.20
    27                           ; Generated 12/02/2020 GMT
    28                           ; 
    29                           ; Copyright © 2020, Microchip Technology Inc. and its subsidiaries ("Microchip")
    30                           ; All rights reserved.
    31                           ; 
    32                           ; This software is developed by Microchip Technology Inc. and its subsidiaries ("Microch
      +                          ip").
    33                           ; 
    34                           ; Redistribution and use in source and binary forms, with or without modification, are
    35                           ; permitted provided that the following conditions are met:
    36                           ; 
    37                           ;     1. Redistributions of source code must retain the above copyright notice, this lis
      +                          t of
    38                           ;        conditions and the following disclaimer.
    39                           ; 
    40                           ;     2. Redistributions in binary form must reproduce the above copyright notice, this 
      +                          list
    41                           ;        of conditions and the following disclaimer in the documentation and/or other
    42                           ;        materials provided with the distribution.
    43                           ; 
    44                           ;     3. Microchip's name may not be used to endorse or promote products derived from th
      +                          is
    45                           ;        software without specific prior written permission.
    46                           ; 
    47                           ; THIS SOFTWARE IS PROVIDED BY MICROCHIP "AS IS" AND ANY EXPRESS OR IMPLIED WARRANTIES,
    48                           ; INCLUDING, BUT NOT LIMITED TO, THE IMPLIED WARRANTIES OF MERCHANTABILITY AND FITNESS F
      +                          OR
    49                           ; PURPOSE ARE DISCLAIMED.  IN NO EVENT SHALL MICROCHIP BE LIABLE FOR ANY DIRECT, INDIREC
      +                          T,
    50                           ; INCIDENTAL, SPECIAL, EXEMPLARY, OR CONSEQUENTIAL DAMAGES (INCLUDING BUT NOT LIMITED TO
    51                           ; PROCUREMENT OF SUBSTITUTE GOODS OR SERVICES; LOSS OF USE, DATA OR PROFITS; OR BUSINESS
    52                           ; INTERRUPTION) HOWSOEVER CAUSED AND ON ANY THEORY OF LIABILITY, WHETHER IN CONTRACT, ST
      +                          RICT
    53                           ; LIABILITY, OR TORT (INCLUDING NEGLIGENCE OR OTHERWISE) ARISING IN ANY WAY OUT OF THE U
      +                          SE OF
    54                           ; THIS SOFTWARE, EVEN IF ADVISED OF THE POSSIBILITY OF SUCH DAMAGE.
    55                           ; 
    56                           ; 
    57                           ; Code-generator required, PIC16F877A Definitions
    58                           ; 
    59                           ; SFR Addresses
    60  0000                     	;# 
    61  0001                     	;# 
    62  0002                     	;# 
    63  0003                     	;# 
    64  0004                     	;# 
    65  0005                     	;# 
    66  0006                     	;# 
    67  0007                     	;# 
    68  0008                     	;# 
    69  0009                     	;# 
    70  000A                     	;# 
    71  000B                     	;# 
    72  000C                     	;# 
    73  000D                     	;# 
    74  000E                     	;# 
    75  000E                     	;# 
    76  000F                     	;# 
    77  0010                     	;# 
    78  0011                     	;# 
    79  0012                     	;# 
    80  0013                     	;# 
    81  0014                     	;# 
    82  0015                     	;# 
    83  0015                     	;# 
    84  0016                     	;# 
    85  0017                     	;# 
    86  0018                     	;# 
    87  0019                     	;# 
    88  001A                     	;# 
    89  001B                     	;# 
    90  001B                     	;# 
    91  001C                     	;# 
    92  001D                     	;# 
    93  001E                     	;# 
    94  001F                     	;# 
    95  0081                     	;# 
    96  0085                     	;# 
    97  0086                     	;# 
    98  0087                     	;# 
    99  0088                     	;# 
   100  0089                     	;# 
   101  008C                     	;# 
   102  008D                     	;# 
   103  008E                     	;# 
   104  0091                     	;# 
   105  0092                     	;# 
   106  0093                     	;# 
   107  0094                     	;# 
   108  0098                     	;# 
   109  0099                     	;# 
   110  009C                     	;# 
   111  009D                     	;# 
   112  009E                     	;# 
   113  009F                     	;# 
   114  010C                     	;# 
   115  010D                     	;# 
   116  010E                     	;# 
   117  010F                     	;# 
   118  018C                     	;# 
   119  018D                     	;# 
   120  0000                     	;# 
   121  0001                     	;# 
   122  0002                     	;# 
   123  0003                     	;# 
   124  0004                     	;# 
   125  0005                     	;# 
   126  0006                     	;# 
   127  0007                     	;# 
   128  0008                     	;# 
   129  0009                     	;# 
   130  000A                     	;# 
   131  000B                     	;# 
   132  000C                     	;# 
   133  000D                     	;# 
   134  000E                     	;# 
   135  000E                     	;# 
   136  000F                     	;# 
   137  0010                     	;# 
   138  0011                     	;# 
   139  0012                     	;# 
   140  0013                     	;# 
   141  0014                     	;# 
   142  0015                     	;# 
   143  0015                     	;# 
   144  0016                     	;# 
   145  0017                     	;# 
   146  0018                     	;# 
   147  0019                     	;# 
   148  001A                     	;# 
   149  001B                     	;# 
   150  001B                     	;# 
   151  001C                     	;# 
   152  001D                     	;# 
   153  001E                     	;# 
   154  001F                     	;# 
   155  0081                     	;# 
   156  0085                     	;# 
   157  0086                     	;# 
   158  0087                     	;# 
   159  0088                     	;# 
   160  0089                     	;# 
   161  008C                     	;# 
   162  008D                     	;# 
   163  008E                     	;# 
   164  0091                     	;# 
   165  0092                     	;# 
   166  0093                     	;# 
   167  0094                     	;# 
   168  0098                     	;# 
   169  0099                     	;# 
   170  009C                     	;# 
   171  009D                     	;# 
   172  009E                     	;# 
   173  009F                     	;# 
   174  010C                     	;# 
   175  010D                     	;# 
   176  010E                     	;# 
   177  010F                     	;# 
   178  018C                     	;# 
   179  018D                     	;# 
   180  0000                     	;# 
   181  0001                     	;# 
   182  0002                     	;# 
   183  0003                     	;# 
   184  0004                     	;# 
   185  0005                     	;# 
   186  0006                     	;# 
   187  0007                     	;# 
   188  0008                     	;# 
   189  0009                     	;# 
   190  000A                     	;# 
   191  000B                     	;# 
   192  000C                     	;# 
   193  000D                     	;# 
   194  000E                     	;# 
   195  000E                     	;# 
   196  000F                     	;# 
   197  0010                     	;# 
   198  0011                     	;# 
   199  0012                     	;# 
   200  0013                     	;# 
   201  0014                     	;# 
   202  0015                     	;# 
   203  0015                     	;# 
   204  0016                     	;# 
   205  0017                     	;# 
   206  0018                     	;# 
   207  0019                     	;# 
   208  001A                     	;# 
   209  001B                     	;# 
   210  001B                     	;# 
   211  001C                     	;# 
   212  001D                     	;# 
   213  001E                     	;# 
   214  001F                     	;# 
   215  0081                     	;# 
   216  0085                     	;# 
   217  0086                     	;# 
   218  0087                     	;# 
   219  0088                     	;# 
   220  0089                     	;# 
   221  008C                     	;# 
   222  008D                     	;# 
   223  008E                     	;# 
   224  0091                     	;# 
   225  0092                     	;# 
   226  0093                     	;# 
   227  0094                     	;# 
   228  0098                     	;# 
   229  0099                     	;# 
   230  009C                     	;# 
   231  009D                     	;# 
   232  009E                     	;# 
   233  009F                     	;# 
   234  010C                     	;# 
   235  010D                     	;# 
   236  010E                     	;# 
   237  010F                     	;# 
   238  018C                     	;# 
   239  018D                     	;# 
   240                           
   241                           	psect	strings
   242  0800                     __pstrings:
   243  0800                     stringtab:
   244  0800                     __stringtab:
   245  0800                     stringcode:	
   246                           ;	String table - string pointers are 1 byte each
   247                           
   248  0800                     stringdir:
   249  0800  3008               	movlw	high stringdir
   250  0801  008A               	movwf	10
   251  0802  0804               	movf	4,w
   252  0803  0A84               	incf	4,f
   253  0804  0782               	addwf	2,f
   254  0805                     __stringbase:
   255  0805  3400               	retlw	0
   256  0806                     __end_of__stringtab:
   257  0806                     _LED7_HEX:
   258  0806  34C0               	retlw	192
   259  0807  34F9               	retlw	249
   260  0808  34A4               	retlw	164
   261  0809  34B0               	retlw	176
   262  080A  3499               	retlw	153
   263  080B  3492               	retlw	146
   264  080C  3482               	retlw	130
   265  080D  34F8               	retlw	248
   266  080E  3480               	retlw	128
   267  080F  3490               	retlw	144
   268  0810  3440               	retlw	64
   269  0811  3479               	retlw	121
   270  0812  3424               	retlw	36
   271  0813  3430               	retlw	48
   272  0814  3419               	retlw	25
   273  0815  3412               	retlw	18
   274  0816  3402               	retlw	2
   275  0817  3478               	retlw	120
   276  0818  3400               	retlw	0
   277  0819  3410               	retlw	16
   278  081A                     __end_of_LED7_HEX:
   279  0007                     _PORTC	set	7
   280  0007                     _PORTCbits	set	7
   281  0008                     _PORTD	set	8
   282  0006                     _PORTBbits	set	6
   283  0087                     _TRISCbits	set	135
   284  0088                     _TRISD	set	136
   285  0086                     _TRISBbits	set	134
   286  009F                     _ADCON1	set	159
   287                           
   288                           	psect	cinit
   289  07F6                     start_initialization:	
   290                           ; #config settings
   291                           
   292  07F6                     __initialization:
   293                           
   294                           ; Clear objects allocated to BANK0
   295  07F6  1283               	bcf	3,5	;RP0=0, select bank0
   296  07F7  1303               	bcf	3,6	;RP1=0, select bank0
   297  07F8  01D4               	clrf	__pbssBANK0& (0+127)
   298  07F9  01D5               	clrf	(__pbssBANK0+1)& (0+127)
   299  07FA  01D6               	clrf	(__pbssBANK0+2)& (0+127)
   300  07FB  01D7               	clrf	(__pbssBANK0+3)& (0+127)
   301  07FC                     end_of_initialization:	
   302                           ;End of C runtime variable initialization code
   303                           
   304  07FC                     __end_of__initialization:
   305  07FC  0183               	clrf	3
   306  07FD  120A  118A  289B   	ljmp	_main	;jump to C main() function
   307                           
   308                           	psect	bssBANK0
   309  0054                     __pbssBANK0:
   310  0054                     _buffer:
   311  0054                     	ds	4
   312                           
   313                           	psect	cstackCOMMON
   314  0070                     __pcstackCOMMON:
   315  0070                     ?___flge:
   316  0070                     ?_Config_Init:	
   317                           ; 1 bit 
   318                           
   319  0070                     ??_Config_Init:	
   320                           ; 1 bytes @ 0x0
   321                           
   322  0070                     ?_Led_7seg_Init:	
   323                           ; 1 bytes @ 0x0
   324                           
   325  0070                     ??_Led_7seg_Init:	
   326                           ; 1 bytes @ 0x0
   327                           
   328  0070                     ?_main:	
   329                           ; 1 bytes @ 0x0
   330                           
   331  0070                     ?_Led7_displayUnit:	
   332                           ; 1 bytes @ 0x0
   333                           
   334  0070                     ??_Led7_displayUnit:	
   335                           ; 1 bytes @ 0x0
   336                           
   337  0070                     ?__Umul8_16:	
   338                           ; 1 bytes @ 0x0
   339                           
   340  0070                     ?___awdiv:	
   341                           ; 2 bytes @ 0x0
   342                           
   343  0070                     ?___awmod:	
   344                           ; 2 bytes @ 0x0
   345                           
   346  0070                     ?___xxtofl:	
   347                           ; 2 bytes @ 0x0
   348                           
   349  0070                     Led7_displayUnit@number:	
   350                           ; 4 bytes @ 0x0
   351                           
   352  0070                     __Umul8_16@multiplicand:	
   353                           ; 1 bytes @ 0x0
   354                           
   355  0070                     ___awdiv@divisor:	
   356                           ; 1 bytes @ 0x0
   357                           
   358  0070                     ___awmod@divisor:	
   359                           ; 2 bytes @ 0x0
   360                           
   361  0070                     ___flge@ff1:	
   362                           ; 2 bytes @ 0x0
   363                           
   364  0070                     ___xxtofl@val:	
   365                           ; 4 bytes @ 0x0
   366                           
   367                           
   368                           ; 4 bytes @ 0x0
   369  0070                     	ds	2
   370  0072                     ??__Umul8_16:
   371  0072                     ___awdiv@dividend:	
   372                           ; 1 bytes @ 0x2
   373                           
   374  0072                     ___awmod@dividend:	
   375                           ; 2 bytes @ 0x2
   376                           
   377                           
   378                           ; 2 bytes @ 0x2
   379  0072                     	ds	2
   380  0074                     ??___awdiv:
   381  0074                     ??___awmod:	
   382                           ; 1 bytes @ 0x4
   383                           
   384  0074                     ??___xxtofl:	
   385                           ; 1 bytes @ 0x4
   386                           
   387  0074                     __Umul8_16@product:	
   388                           ; 1 bytes @ 0x4
   389                           
   390  0074                     ___flge@ff2:	
   391                           ; 2 bytes @ 0x4
   392                           
   393                           
   394                           ; 4 bytes @ 0x4
   395  0074                     	ds	1
   396  0075                     ___awdiv@counter:
   397  0075                     ___awmod@counter:	
   398                           ; 1 bytes @ 0x5
   399                           
   400                           
   401                           ; 1 bytes @ 0x5
   402  0075                     	ds	1
   403  0076                     ___awdiv@sign:
   404  0076                     ___awmod@sign:	
   405                           ; 1 bytes @ 0x6
   406                           
   407  0076                     __Umul8_16@word_mpld:	
   408                           ; 1 bytes @ 0x6
   409                           
   410                           
   411                           ; 2 bytes @ 0x6
   412  0076                     	ds	1
   413  0077                     ___awdiv@quotient:
   414                           
   415                           ; 2 bytes @ 0x7
   416  0077                     	ds	1
   417  0078                     ??___flge:
   418  0078                     __Umul8_16@multiplier:	
   419                           ; 1 bytes @ 0x8
   420                           
   421  0078                     ___xxtofl@sign:	
   422                           ; 1 bytes @ 0x8
   423                           
   424                           
   425                           ; 1 bytes @ 0x8
   426  0078                     	ds	1
   427  0079                     ??___flmul:
   428  0079                     ___xxtofl@exp:	
   429                           ; 1 bytes @ 0x9
   430                           
   431                           
   432                           ; 1 bytes @ 0x9
   433  0079                     	ds	1
   434  007A                     ___xxtofl@arg:
   435                           
   436                           ; 4 bytes @ 0xA
   437  007A                     	ds	2
   438  007C                     ??_Led7_pointIndex:
   439                           
   440                           ; 1 bytes @ 0xC
   441  007C                     	ds	2
   442  007E                     ??_main:
   443                           
   444                           	psect	cstackBANK0
   445  0020                     __pcstackBANK0:	
   446                           ; 1 bytes @ 0xE
   447                           
   448  0020                     ?_Led7_pointIndex:
   449  0020                     ?___flmul:	
   450                           ; 1 bytes @ 0x0
   451                           
   452  0020                     Led7_pointIndex@num:	
   453                           ; 4 bytes @ 0x0
   454                           
   455  0020                     ___flmul@b:	
   456                           ; 4 bytes @ 0x0
   457                           
   458                           
   459                           ; 4 bytes @ 0x0
   460  0020                     	ds	4
   461  0024                     ___flmul@a:
   462                           
   463                           ; 4 bytes @ 0x4
   464  0024                     	ds	4
   465  0028                     ___flmul@sign:
   466                           
   467                           ; 1 bytes @ 0x8
   468  0028                     	ds	1
   469  0029                     ___flmul@grs:
   470                           
   471                           ; 4 bytes @ 0x9
   472  0029                     	ds	4
   473  002D                     ___flmul@aexp:
   474                           
   475                           ; 1 bytes @ 0xD
   476  002D                     	ds	1
   477  002E                     ___flmul@bexp:
   478                           
   479                           ; 1 bytes @ 0xE
   480  002E                     	ds	1
   481  002F                     ___flmul@prod:
   482                           
   483                           ; 4 bytes @ 0xF
   484  002F                     	ds	4
   485  0033                     ___flmul@temp:
   486                           
   487                           ; 2 bytes @ 0x13
   488  0033                     	ds	2
   489  0035                     ?___fltol:
   490  0035                     ___fltol@f1:	
   491                           ; 4 bytes @ 0x15
   492                           
   493                           
   494                           ; 4 bytes @ 0x15
   495  0035                     	ds	4
   496  0039                     ??___fltol:
   497                           
   498                           ; 1 bytes @ 0x19
   499  0039                     	ds	5
   500  003E                     ___fltol@sign1:
   501                           
   502                           ; 1 bytes @ 0x1E
   503  003E                     	ds	1
   504  003F                     ___fltol@exp1:
   505                           
   506                           ; 1 bytes @ 0x1F
   507  003F                     	ds	1
   508  0040                     ?_Led7_addFloatToBuffer:
   509  0040                     Led7_addFloatToBuffer@num:	
   510                           ; 1 bytes @ 0x20
   511                           
   512                           
   513                           ; 4 bytes @ 0x20
   514  0040                     	ds	4
   515  0044                     ??_Led7_addFloatToBuffer:
   516                           
   517                           ; 1 bytes @ 0x24
   518  0044                     	ds	1
   519  0045                     Led7_addFloatToBuffer@newNum:
   520                           
   521                           ; 2 bytes @ 0x25
   522  0045                     	ds	2
   523  0047                     Led7_addFloatToBuffer@i:
   524                           
   525                           ; 2 bytes @ 0x27
   526  0047                     	ds	2
   527  0049                     Led7_addFloatToBuffer@p:
   528                           
   529                           ; 1 bytes @ 0x29
   530  0049                     	ds	1
   531  004A                     ?_Led_7seg_Display:
   532  004A                     Led_7seg_Display@num:	
   533                           ; 1 bytes @ 0x2A
   534                           
   535                           
   536                           ; 4 bytes @ 0x2A
   537  004A                     	ds	4
   538  004E                     ??_Led_7seg_Display:
   539                           
   540                           ; 1 bytes @ 0x2E
   541  004E                     	ds	2
   542  0050                     main@value:
   543                           
   544                           ; 2 bytes @ 0x30
   545  0050                     	ds	2
   546  0052                     main@i:
   547                           
   548                           ; 2 bytes @ 0x32
   549  0052                     	ds	2
   550                           
   551                           	psect	maintext
   552  009B                     __pmaintext:	
   553 ;;
   554 ;;Main: autosize = 0, tempsize = 0, incstack = 0, save=0
   555 ;;
   556 ;; *************** function _main *****************
   557 ;; Defined at:
   558 ;;		line 21 in file "main_led_7seg.c"
   559 ;; Parameters:    Size  Location     Type
   560 ;;		None
   561 ;; Auto vars:     Size  Location     Type
   562 ;;  i               2   50[BANK0 ] int 
   563 ;;  value           2   48[BANK0 ] int 
   564 ;; Return value:  Size  Location     Type
   565 ;;                  1    wreg      void 
   566 ;; Registers used:
   567 ;;		wreg, fsr0l, fsr0h, status,2, status,0, btemp+1, pclath, cstack
   568 ;; Tracked objects:
   569 ;;		On entry : B00/0
   570 ;;		On exit  : 0/0
   571 ;;		Unchanged: 0/0
   572 ;; Data sizes:     COMMON   BANK0   BANK1   BANK3   BANK2
   573 ;;      Params:         0       0       0       0       0
   574 ;;      Locals:         0       4       0       0       0
   575 ;;      Temps:          0       0       0       0       0
   576 ;;      Totals:         0       4       0       0       0
   577 ;;Total ram usage:        4 bytes
   578 ;; Hardware stack levels required when called: 4
   579 ;; This function calls:
   580 ;;		_Config_Init
   581 ;;		_Led_7seg_Display
   582 ;;		___xxtofl
   583 ;; This function is called by:
   584 ;;		Startup code after reset
   585 ;; This function uses a non-reentrant model
   586 ;;
   587                           
   588                           
   589                           ;psect for function _main
   590  009B                     _main:
   591  009B                     l1646:	
   592                           ;incstack = 0
   593                           ; Regs used in _main: [wreg-fsr0h+status,2+status,0+btemp+1+pclath+cstack]
   594                           
   595                           
   596                           ;main_led_7seg.c: 23:     int value = 4;
   597  009B  3004               	movlw	4
   598  009C  1283               	bcf	3,5	;RP0=0, select bank0
   599  009D  1303               	bcf	3,6	;RP1=0, select bank0
   600  009E  00D0               	movwf	main@value
   601  009F  3000               	movlw	0
   602  00A0  00D1               	movwf	main@value+1
   603  00A1                     l1648:
   604                           
   605                           ;main_led_7seg.c: 24:     int i=0;
   606  00A1  01D2               	clrf	main@i
   607  00A2  01D3               	clrf	main@i+1
   608  00A3                     l1650:
   609                           
   610                           ;main_led_7seg.c: 26:     Config_Init();
   611  00A3  120A  158A  272B  120A  118A  	fcall	_Config_Init
   612  00A8                     l1652:
   613                           
   614                           ;main_led_7seg.c: 29:         if(PORTBbits.RB4 == 0){
   615  00A8  1283               	bcf	3,5	;RP0=0, select bank0
   616  00A9  1303               	bcf	3,6	;RP1=0, select bank0
   617  00AA  1A06               	btfsc	6,4	;volatile
   618  00AB  28AD               	goto	u2131
   619  00AC  28AE               	goto	u2130
   620  00AD                     u2131:
   621  00AD  28B8               	goto	l1658
   622  00AE                     u2130:
   623  00AE                     l19:
   624  00AE  1E06               	btfss	6,4	;volatile
   625  00AF  28B1               	goto	u2141
   626  00B0  28B2               	goto	u2140
   627  00B1                     u2141:
   628  00B1  28AE               	goto	l19
   629  00B2                     u2140:
   630  00B2                     l1656:
   631                           
   632                           ;main_led_7seg.c: 31:             value++;
   633  00B2  3001               	movlw	1
   634  00B3  07D0               	addwf	main@value,f
   635  00B4  1803               	skipnc
   636  00B5  0AD1               	incf	main@value+1,f
   637  00B6  3000               	movlw	0
   638  00B7  07D1               	addwf	main@value+1,f
   639  00B8                     l1658:
   640                           
   641                           ;main_led_7seg.c: 33:         if(PORTBbits.RB5 == 0){
   642  00B8  1A86               	btfsc	6,5	;volatile
   643  00B9  28BB               	goto	u2151
   644  00BA  28BC               	goto	u2150
   645  00BB                     u2151:
   646  00BB  28C6               	goto	l1664
   647  00BC                     u2150:
   648  00BC                     l23:
   649  00BC  1E86               	btfss	6,5	;volatile
   650  00BD  28BF               	goto	u2161
   651  00BE  28C0               	goto	u2160
   652  00BF                     u2161:
   653  00BF  28BC               	goto	l23
   654  00C0                     u2160:
   655  00C0                     l1662:
   656                           
   657                           ;main_led_7seg.c: 35:             value--;
   658  00C0  30FF               	movlw	255
   659  00C1  07D0               	addwf	main@value,f
   660  00C2  1803               	skipnc
   661  00C3  0AD1               	incf	main@value+1,f
   662  00C4  30FF               	movlw	255
   663  00C5  07D1               	addwf	main@value+1,f
   664  00C6                     l1664:
   665                           
   666                           ;main_led_7seg.c: 37:         if(i==10)
   667  00C6  300A               	movlw	10
   668  00C7  0652               	xorwf	main@i,w
   669  00C8  0453               	iorwf	main@i+1,w
   670  00C9  1D03               	btfss	3,2
   671  00CA  28CC               	goto	u2171
   672  00CB  28CD               	goto	u2170
   673  00CC                     u2171:
   674  00CC  28EB               	goto	l1668
   675  00CD                     u2170:
   676  00CD                     l1666:
   677                           
   678                           ;main_led_7seg.c: 38:             Led_7seg_Display(value);
   679  00CD  0850               	movf	main@value,w
   680  00CE  00F0               	movwf	___xxtofl@val
   681  00CF  0851               	movf	main@value+1,w
   682  00D0  00F1               	movwf	___xxtofl@val+1
   683  00D1  3000               	movlw	0
   684  00D2  1BF1               	btfsc	___xxtofl@val+1,7
   685  00D3  30FF               	movlw	255
   686  00D4  00F2               	movwf	___xxtofl@val+2
   687  00D5  00F3               	movwf	___xxtofl@val+3
   688  00D6  3001               	movlw	1
   689  00D7  120A  118A  22D0  120A  118A  	fcall	___xxtofl
   690  00DC  0873               	movf	?___xxtofl+3,w
   691  00DD  1283               	bcf	3,5	;RP0=0, select bank0
   692  00DE  1303               	bcf	3,6	;RP1=0, select bank0
   693  00DF  00CD               	movwf	Led_7seg_Display@num+3
   694  00E0  0872               	movf	?___xxtofl+2,w
   695  00E1  00CC               	movwf	Led_7seg_Display@num+2
   696  00E2  0871               	movf	?___xxtofl+1,w
   697  00E3  00CB               	movwf	Led_7seg_Display@num+1
   698  00E4  0870               	movf	?___xxtofl,w
   699  00E5  00CA               	movwf	Led_7seg_Display@num
   700  00E6  120A  118A  2033  120A  118A  	fcall	_Led_7seg_Display
   701  00EB                     l1668:
   702                           
   703                           ;main_led_7seg.c: 39:         i++;
   704  00EB  3001               	movlw	1
   705  00EC  1283               	bcf	3,5	;RP0=0, select bank0
   706  00ED  1303               	bcf	3,6	;RP1=0, select bank0
   707  00EE  07D2               	addwf	main@i,f
   708  00EF  1803               	skipnc
   709  00F0  0AD3               	incf	main@i+1,f
   710  00F1  3000               	movlw	0
   711  00F2  07D3               	addwf	main@i+1,f
   712  00F3                     l1670:
   713                           
   714                           ;main_led_7seg.c: 40:         if(i>10)
   715  00F3  0853               	movf	main@i+1,w
   716  00F4  3A80               	xorlw	128
   717  00F5  00FF               	movwf	btemp+1
   718  00F6  3080               	movlw	128
   719  00F7  027F               	subwf	btemp+1,w
   720  00F8  1D03               	skipz
   721  00F9  28FC               	goto	u2185
   722  00FA  300B               	movlw	11
   723  00FB  0252               	subwf	main@i,w
   724  00FC                     u2185:
   725  00FC  1C03               	skipc
   726  00FD  28FF               	goto	u2181
   727  00FE  2900               	goto	u2180
   728  00FF                     u2181:
   729  00FF  28A8               	goto	l1652
   730  0100                     u2180:
   731  0100                     l1672:
   732                           
   733                           ;main_led_7seg.c: 41:             i=0;
   734  0100  1283               	bcf	3,5	;RP0=0, select bank0
   735  0101  1303               	bcf	3,6	;RP1=0, select bank0
   736  0102  01D2               	clrf	main@i
   737  0103  01D3               	clrf	main@i+1
   738  0104  28A8               	goto	l1652
   739  0105  120A  118A  2800   	ljmp	start
   740  0108                     __end_of_main:
   741                           
   742                           	psect	text1
   743  02D0                     __ptext1:	
   744 ;; *************** function ___xxtofl *****************
   745 ;; Defined at:
   746 ;;		line 10 in file "C:\Program Files\Microchip\xc8\v2.32\pic\sources\c90\common\xxtofl.c"
   747 ;; Parameters:    Size  Location     Type
   748 ;;  sign            1    wreg     unsigned char 
   749 ;;  val             4    0[COMMON] long 
   750 ;; Auto vars:     Size  Location     Type
   751 ;;  sign            1    8[COMMON] unsigned char 
   752 ;;  arg             4   10[COMMON] unsigned long 
   753 ;;  exp             1    9[COMMON] unsigned char 
   754 ;; Return value:  Size  Location     Type
   755 ;;                  4    0[COMMON] unsigned char 
   756 ;; Registers used:
   757 ;;		wreg, status,2, status,0
   758 ;; Tracked objects:
   759 ;;		On entry : 0/0
   760 ;;		On exit  : 0/0
   761 ;;		Unchanged: 0/0
   762 ;; Data sizes:     COMMON   BANK0   BANK1   BANK3   BANK2
   763 ;;      Params:         4       0       0       0       0
   764 ;;      Locals:         6       0       0       0       0
   765 ;;      Temps:          4       0       0       0       0
   766 ;;      Totals:        14       0       0       0       0
   767 ;;Total ram usage:       14 bytes
   768 ;; Hardware stack levels used: 1
   769 ;; This function calls:
   770 ;;		Nothing
   771 ;; This function is called by:
   772 ;;		_main
   773 ;; This function uses a non-reentrant model
   774 ;;
   775                           
   776                           
   777                           ;psect for function ___xxtofl
   778  02D0                     ___xxtofl:
   779                           
   780                           ;incstack = 0
   781                           ; Regs used in ___xxtofl: [wreg+status,2+status,0]
   782                           ;___xxtofl@sign stored from wreg
   783  02D0  00F8               	movwf	___xxtofl@sign
   784  02D1                     l1602:
   785  02D1  0878               	movf	___xxtofl@sign,w
   786  02D2  1903               	btfsc	3,2
   787  02D3  2AD5               	goto	u1991
   788  02D4  2AD6               	goto	u1990
   789  02D5                     u1991:
   790  02D5  2AEA               	goto	l1608
   791  02D6                     u1990:
   792  02D6                     l1604:
   793  02D6  1FF3               	btfss	___xxtofl@val+3,7
   794  02D7  2AD9               	goto	u2001
   795  02D8  2ADA               	goto	u2000
   796  02D9                     u2001:
   797  02D9  2AEA               	goto	l1608
   798  02DA                     u2000:
   799  02DA                     l1606:
   800  02DA  0970               	comf	___xxtofl@val,w
   801  02DB  00FA               	movwf	___xxtofl@arg
   802  02DC  0971               	comf	___xxtofl@val+1,w
   803  02DD  00FB               	movwf	___xxtofl@arg+1
   804  02DE  0972               	comf	___xxtofl@val+2,w
   805  02DF  00FC               	movwf	___xxtofl@arg+2
   806  02E0  0973               	comf	___xxtofl@val+3,w
   807  02E1  00FD               	movwf	___xxtofl@arg+3
   808  02E2  0AFA               	incf	___xxtofl@arg,f
   809  02E3  1903               	skipnz
   810  02E4  0AFB               	incf	___xxtofl@arg+1,f
   811  02E5  1903               	skipnz
   812  02E6  0AFC               	incf	___xxtofl@arg+2,f
   813  02E7  1903               	skipnz
   814  02E8  0AFD               	incf	___xxtofl@arg+3,f
   815  02E9  2AF2               	goto	l597
   816  02EA                     l1608:
   817  02EA  0873               	movf	___xxtofl@val+3,w
   818  02EB  00FD               	movwf	___xxtofl@arg+3
   819  02EC  0872               	movf	___xxtofl@val+2,w
   820  02ED  00FC               	movwf	___xxtofl@arg+2
   821  02EE  0871               	movf	___xxtofl@val+1,w
   822  02EF  00FB               	movwf	___xxtofl@arg+1
   823  02F0  0870               	movf	___xxtofl@val,w
   824  02F1  00FA               	movwf	___xxtofl@arg
   825  02F2                     l597:
   826  02F2  0873               	movf	___xxtofl@val+3,w
   827  02F3  0472               	iorwf	___xxtofl@val+2,w
   828  02F4  0471               	iorwf	___xxtofl@val+1,w
   829  02F5  0470               	iorwf	___xxtofl@val,w
   830  02F6  1D03               	skipz
   831  02F7  2AF9               	goto	u2011
   832  02F8  2AFA               	goto	u2010
   833  02F9                     u2011:
   834  02F9  2B03               	goto	l1614
   835  02FA                     u2010:
   836  02FA                     l1610:
   837  02FA  3000               	movlw	0
   838  02FB  00F3               	movwf	?___xxtofl+3
   839  02FC  3000               	movlw	0
   840  02FD  00F2               	movwf	?___xxtofl+2
   841  02FE  3000               	movlw	0
   842  02FF  00F1               	movwf	?___xxtofl+1
   843  0300  3000               	movlw	0
   844  0301  00F0               	movwf	?___xxtofl
   845  0302  2B89               	goto	l599
   846  0303                     l1614:
   847  0303  3096               	movlw	150
   848  0304  00F4               	movwf	??___xxtofl
   849  0305  0874               	movf	??___xxtofl,w
   850  0306  00F9               	movwf	___xxtofl@exp
   851  0307  2B15               	goto	l1618
   852  0308                     l1616:
   853  0308  3001               	movlw	1
   854  0309  00F4               	movwf	??___xxtofl
   855  030A  0874               	movf	??___xxtofl,w
   856  030B  07F9               	addwf	___xxtofl@exp,f
   857  030C  3001               	movlw	1
   858  030D                     u2025:
   859  030D  1003               	clrc
   860  030E  0CFD               	rrf	___xxtofl@arg+3,f
   861  030F  0CFC               	rrf	___xxtofl@arg+2,f
   862  0310  0CFB               	rrf	___xxtofl@arg+1,f
   863  0311  0CFA               	rrf	___xxtofl@arg,f
   864  0312  3EFF               	addlw	-1
   865  0313  1D03               	skipz
   866  0314  2B0D               	goto	u2025
   867  0315                     l1618:
   868  0315  30FE               	movlw	254
   869  0316  057D               	andwf	___xxtofl@arg+3,w
   870  0317  1D03               	btfss	3,2
   871  0318  2B1A               	goto	u2031
   872  0319  2B1B               	goto	u2030
   873  031A                     u2031:
   874  031A  2B08               	goto	l1616
   875  031B                     u2030:
   876  031B  2B37               	goto	l603
   877  031C                     l1620:
   878  031C  3001               	movlw	1
   879  031D  00F4               	movwf	??___xxtofl
   880  031E  0874               	movf	??___xxtofl,w
   881  031F  07F9               	addwf	___xxtofl@exp,f
   882  0320                     l1622:
   883  0320  3001               	movlw	1
   884  0321  07FA               	addwf	___xxtofl@arg,f
   885  0322  3000               	movlw	0
   886  0323  1803               	skipnc
   887  0324  3001               	movlw	1
   888  0325  07FB               	addwf	___xxtofl@arg+1,f
   889  0326  3000               	movlw	0
   890  0327  1803               	skipnc
   891  0328  3001               	movlw	1
   892  0329  07FC               	addwf	___xxtofl@arg+2,f
   893  032A  3000               	movlw	0
   894  032B  1803               	skipnc
   895  032C  3001               	movlw	1
   896  032D  07FD               	addwf	___xxtofl@arg+3,f
   897  032E                     l1624:
   898  032E  3001               	movlw	1
   899  032F                     u2045:
   900  032F  1003               	clrc
   901  0330  0CFD               	rrf	___xxtofl@arg+3,f
   902  0331  0CFC               	rrf	___xxtofl@arg+2,f
   903  0332  0CFB               	rrf	___xxtofl@arg+1,f
   904  0333  0CFA               	rrf	___xxtofl@arg,f
   905  0334  3EFF               	addlw	-1
   906  0335  1D03               	skipz
   907  0336  2B2F               	goto	u2045
   908  0337                     l603:
   909  0337  30FF               	movlw	255
   910  0338  057D               	andwf	___xxtofl@arg+3,w
   911  0339  1D03               	btfss	3,2
   912  033A  2B3C               	goto	u2051
   913  033B  2B3D               	goto	u2050
   914  033C                     u2051:
   915  033C  2B1C               	goto	l1620
   916  033D                     u2050:
   917  033D  2B49               	goto	l1628
   918  033E                     l1626:
   919  033E  3001               	movlw	1
   920  033F  02F9               	subwf	___xxtofl@exp,f
   921  0340  3001               	movlw	1
   922  0341  00F4               	movwf	??___xxtofl
   923  0342                     u2065:
   924  0342  1003               	clrc
   925  0343  0DFA               	rlf	___xxtofl@arg,f
   926  0344  0DFB               	rlf	___xxtofl@arg+1,f
   927  0345  0DFC               	rlf	___xxtofl@arg+2,f
   928  0346  0DFD               	rlf	___xxtofl@arg+3,f
   929  0347  0BF4               	decfsz	??___xxtofl,f
   930  0348  2B42               	goto	u2065
   931  0349                     l1628:
   932  0349  1BFC               	btfsc	___xxtofl@arg+2,7
   933  034A  2B4C               	goto	u2071
   934  034B  2B4D               	goto	u2070
   935  034C                     u2071:
   936  034C  2B53               	goto	l610
   937  034D                     u2070:
   938  034D                     l1630:
   939  034D  3002               	movlw	2
   940  034E  0279               	subwf	___xxtofl@exp,w
   941  034F  1803               	skipnc
   942  0350  2B52               	goto	u2081
   943  0351  2B53               	goto	u2080
   944  0352                     u2081:
   945  0352  2B3E               	goto	l1626
   946  0353                     u2080:
   947  0353                     l610:
   948  0353  1879               	btfsc	___xxtofl@exp,0
   949  0354  2B56               	goto	u2091
   950  0355  2B57               	goto	u2090
   951  0356                     u2091:
   952  0356  2B5F               	goto	l611
   953  0357                     u2090:
   954  0357                     l1632:
   955  0357  30FF               	movlw	255
   956  0358  05FA               	andwf	___xxtofl@arg,f
   957  0359  30FF               	movlw	255
   958  035A  05FB               	andwf	___xxtofl@arg+1,f
   959  035B  307F               	movlw	127
   960  035C  05FC               	andwf	___xxtofl@arg+2,f
   961  035D  30FF               	movlw	255
   962  035E  05FD               	andwf	___xxtofl@arg+3,f
   963  035F                     l611:
   964  035F  1003               	clrc
   965  0360  0CF9               	rrf	___xxtofl@exp,f
   966  0361                     l1634:
   967  0361  0879               	movf	___xxtofl@exp,w
   968  0362  00F4               	movwf	??___xxtofl
   969  0363  01F5               	clrf	??___xxtofl+1
   970  0364  01F6               	clrf	??___xxtofl+2
   971  0365  01F7               	clrf	??___xxtofl+3
   972  0366  3018               	movlw	24
   973  0367                     u2105:
   974  0367  1003               	clrc
   975  0368  0DF4               	rlf	??___xxtofl,f
   976  0369  0DF5               	rlf	??___xxtofl+1,f
   977  036A  0DF6               	rlf	??___xxtofl+2,f
   978  036B  0DF7               	rlf	??___xxtofl+3,f
   979  036C                     u2100:
   980  036C  3EFF               	addlw	-1
   981  036D  1D03               	skipz
   982  036E  2B67               	goto	u2105
   983  036F  0874               	movf	??___xxtofl,w
   984  0370  04FA               	iorwf	___xxtofl@arg,f
   985  0371  0875               	movf	??___xxtofl+1,w
   986  0372  04FB               	iorwf	___xxtofl@arg+1,f
   987  0373  0876               	movf	??___xxtofl+2,w
   988  0374  04FC               	iorwf	___xxtofl@arg+2,f
   989  0375  0877               	movf	??___xxtofl+3,w
   990  0376  04FD               	iorwf	___xxtofl@arg+3,f
   991  0377                     l1636:
   992  0377  0878               	movf	___xxtofl@sign,w
   993  0378  1903               	btfsc	3,2
   994  0379  2B7B               	goto	u2111
   995  037A  2B7C               	goto	u2110
   996  037B                     u2111:
   997  037B  2B81               	goto	l1642
   998  037C                     u2110:
   999  037C                     l1638:
  1000  037C  1FF3               	btfss	___xxtofl@val+3,7
  1001  037D  2B7F               	goto	u2121
  1002  037E  2B80               	goto	u2120
  1003  037F                     u2121:
  1004  037F  2B81               	goto	l1642
  1005  0380                     u2120:
  1006  0380                     l1640:
  1007  0380  17FD               	bsf	___xxtofl@arg+3,7
  1008  0381                     l1642:
  1009  0381  087D               	movf	___xxtofl@arg+3,w
  1010  0382  00F3               	movwf	?___xxtofl+3
  1011  0383  087C               	movf	___xxtofl@arg+2,w
  1012  0384  00F2               	movwf	?___xxtofl+2
  1013  0385  087B               	movf	___xxtofl@arg+1,w
  1014  0386  00F1               	movwf	?___xxtofl+1
  1015  0387  087A               	movf	___xxtofl@arg,w
  1016  0388  00F0               	movwf	?___xxtofl
  1017  0389                     l599:
  1018  0389  0008               	return
  1019  038A                     __end_of___xxtofl:
  1020                           
  1021                           	psect	text2
  1022  0033                     __ptext2:	
  1023 ;; *************** function _Led_7seg_Display *****************
  1024 ;; Defined at:
  1025 ;;		line 70 in file "led_7seg.c"
  1026 ;; Parameters:    Size  Location     Type
  1027 ;;  num             4   42[BANK0 ] unsigned char 
  1028 ;; Auto vars:     Size  Location     Type
  1029 ;;		None
  1030 ;; Return value:  Size  Location     Type
  1031 ;;                  1    wreg      void 
  1032 ;; Registers used:
  1033 ;;		wreg, fsr0l, fsr0h, status,2, status,0, btemp+1, pclath, cstack
  1034 ;; Tracked objects:
  1035 ;;		On entry : 0/0
  1036 ;;		On exit  : 0/0
  1037 ;;		Unchanged: 0/0
  1038 ;; Data sizes:     COMMON   BANK0   BANK1   BANK3   BANK2
  1039 ;;      Params:         0       4       0       0       0
  1040 ;;      Locals:         0       0       0       0       0
  1041 ;;      Temps:          0       2       0       0       0
  1042 ;;      Totals:         0       6       0       0       0
  1043 ;;Total ram usage:        6 bytes
  1044 ;; Hardware stack levels used: 1
  1045 ;; Hardware stack levels required when called: 3
  1046 ;; This function calls:
  1047 ;;		_Led7_addFloatToBuffer
  1048 ;;		_Led7_displayUnit
  1049 ;; This function is called by:
  1050 ;;		_main
  1051 ;; This function uses a non-reentrant model
  1052 ;;
  1053                           
  1054                           
  1055                           ;psect for function _Led_7seg_Display
  1056  0033                     _Led_7seg_Display:
  1057  0033                     l1566:	
  1058                           ;incstack = 0
  1059                           ; Regs used in _Led_7seg_Display: [wreg-fsr0h+status,2+status,0+btemp+1+pclath+cstack]
  1060                           
  1061                           
  1062                           ;led_7seg.c: 70: void Led_7seg_Display(double num);led_7seg.c: 71: {;led_7seg.c: 72:    
      +                           Led7_addFloatToBuffer(num);
  1063  0033  1283               	bcf	3,5	;RP0=0, select bank0
  1064  0034  1303               	bcf	3,6	;RP1=0, select bank0
  1065  0035  084D               	movf	Led_7seg_Display@num+3,w
  1066  0036  00C3               	movwf	Led7_addFloatToBuffer@num+3
  1067  0037  084C               	movf	Led_7seg_Display@num+2,w
  1068  0038  00C2               	movwf	Led7_addFloatToBuffer@num+2
  1069  0039  084B               	movf	Led_7seg_Display@num+1,w
  1070  003A  00C1               	movwf	Led7_addFloatToBuffer@num+1
  1071  003B  084A               	movf	Led_7seg_Display@num,w
  1072  003C  00C0               	movwf	Led7_addFloatToBuffer@num
  1073  003D  120A  118A  238A  120A  118A  	fcall	_Led7_addFloatToBuffer
  1074  0042                     l1568:
  1075                           
  1076                           ;led_7seg.c: 80:     PORTC = 0xFF;
  1077  0042  30FF               	movlw	255
  1078  0043  1283               	bcf	3,5	;RP0=0, select bank0
  1079  0044  1303               	bcf	3,6	;RP1=0, select bank0
  1080  0045  0087               	movwf	7	;volatile
  1081  0046                     l1570:
  1082                           
  1083                           ;led_7seg.c: 82:     PORTCbits.RC4 = 0;
  1084  0046  1207               	bcf	7,4	;volatile
  1085  0047                     l1572:
  1086                           
  1087                           ;led_7seg.c: 83:     Led7_displayUnit(buffer[3]);
  1088  0047  0857               	movf	_buffer+3,w
  1089  0048  120A  158A  2709  120A  118A  	fcall	_Led7_displayUnit
  1090  004D                     l1574:
  1091                           
  1092                           ;led_7seg.c: 84:     _delay((unsigned long)((3)*(16000000/4000.0)));
  1093  004D  3010               	movlw	16
  1094  004E  1283               	bcf	3,5	;RP0=0, select bank0
  1095  004F  1303               	bcf	3,6	;RP1=0, select bank0
  1096  0050  00CF               	movwf	??_Led_7seg_Display+1
  1097  0051  3093               	movlw	147
  1098  0052  00CE               	movwf	??_Led_7seg_Display
  1099  0053                     u2197:
  1100  0053  0BCE               	decfsz	??_Led_7seg_Display,f
  1101  0054  2853               	goto	u2197
  1102  0055  0BCF               	decfsz	??_Led_7seg_Display+1,f
  1103  0056  2853               	goto	u2197
  1104  0057  2858               	nop2
  1105  0058                     l1576:
  1106                           
  1107                           ;led_7seg.c: 85:     PORTCbits.RC4 = 1;
  1108  0058  1283               	bcf	3,5	;RP0=0, select bank0
  1109  0059  1303               	bcf	3,6	;RP1=0, select bank0
  1110  005A  1607               	bsf	7,4	;volatile
  1111  005B                     l1578:
  1112                           
  1113                           ;led_7seg.c: 88:     PORTCbits.RC5 = 0;
  1114  005B  1287               	bcf	7,5	;volatile
  1115  005C                     l1580:
  1116                           
  1117                           ;led_7seg.c: 89:     Led7_displayUnit(buffer[2]);
  1118  005C  0856               	movf	_buffer+2,w
  1119  005D  120A  158A  2709  120A  118A  	fcall	_Led7_displayUnit
  1120  0062                     l1582:
  1121                           
  1122                           ;led_7seg.c: 90:     _delay((unsigned long)((3)*(16000000/4000.0)));
  1123  0062  3010               	movlw	16
  1124  0063  1283               	bcf	3,5	;RP0=0, select bank0
  1125  0064  1303               	bcf	3,6	;RP1=0, select bank0
  1126  0065  00CF               	movwf	??_Led_7seg_Display+1
  1127  0066  3093               	movlw	147
  1128  0067  00CE               	movwf	??_Led_7seg_Display
  1129  0068                     u2207:
  1130  0068  0BCE               	decfsz	??_Led_7seg_Display,f
  1131  0069  2868               	goto	u2207
  1132  006A  0BCF               	decfsz	??_Led_7seg_Display+1,f
  1133  006B  2868               	goto	u2207
  1134  006C  286D               	nop2
  1135  006D                     l1584:
  1136                           
  1137                           ;led_7seg.c: 91:    PORTCbits.RC5 = 1;
  1138  006D  1283               	bcf	3,5	;RP0=0, select bank0
  1139  006E  1303               	bcf	3,6	;RP1=0, select bank0
  1140  006F  1687               	bsf	7,5	;volatile
  1141  0070                     l1586:
  1142                           
  1143                           ;led_7seg.c: 94:     PORTCbits.RC6 = 0;
  1144  0070  1307               	bcf	7,6	;volatile
  1145  0071                     l1588:
  1146                           
  1147                           ;led_7seg.c: 95:     Led7_displayUnit(buffer[1]);
  1148  0071  0855               	movf	_buffer+1,w
  1149  0072  120A  158A  2709  120A  118A  	fcall	_Led7_displayUnit
  1150  0077                     l1590:
  1151                           
  1152                           ;led_7seg.c: 96:     _delay((unsigned long)((3)*(16000000/4000.0)));
  1153  0077  3010               	movlw	16
  1154  0078  1283               	bcf	3,5	;RP0=0, select bank0
  1155  0079  1303               	bcf	3,6	;RP1=0, select bank0
  1156  007A  00CF               	movwf	??_Led_7seg_Display+1
  1157  007B  3093               	movlw	147
  1158  007C  00CE               	movwf	??_Led_7seg_Display
  1159  007D                     u2217:
  1160  007D  0BCE               	decfsz	??_Led_7seg_Display,f
  1161  007E  287D               	goto	u2217
  1162  007F  0BCF               	decfsz	??_Led_7seg_Display+1,f
  1163  0080  287D               	goto	u2217
  1164  0081  2882               	nop2
  1165  0082                     l1592:
  1166                           
  1167                           ;led_7seg.c: 97:    PORTCbits.RC6 = 1;
  1168  0082  1283               	bcf	3,5	;RP0=0, select bank0
  1169  0083  1303               	bcf	3,6	;RP1=0, select bank0
  1170  0084  1707               	bsf	7,6	;volatile
  1171  0085                     l1594:
  1172                           
  1173                           ;led_7seg.c: 100:     PORTCbits.RC7 = 0;
  1174  0085  1387               	bcf	7,7	;volatile
  1175  0086                     l1596:
  1176                           
  1177                           ;led_7seg.c: 101:     Led7_displayUnit(buffer[0]);
  1178  0086  0854               	movf	_buffer,w
  1179  0087  120A  158A  2709  120A  118A  	fcall	_Led7_displayUnit
  1180  008C                     l1598:
  1181                           
  1182                           ;led_7seg.c: 102:     _delay((unsigned long)((3)*(16000000/4000.0)));
  1183  008C  3010               	movlw	16
  1184  008D  1283               	bcf	3,5	;RP0=0, select bank0
  1185  008E  1303               	bcf	3,6	;RP1=0, select bank0
  1186  008F  00CF               	movwf	??_Led_7seg_Display+1
  1187  0090  3093               	movlw	147
  1188  0091  00CE               	movwf	??_Led_7seg_Display
  1189  0092                     u2227:
  1190  0092  0BCE               	decfsz	??_Led_7seg_Display,f
  1191  0093  2892               	goto	u2227
  1192  0094  0BCF               	decfsz	??_Led_7seg_Display+1,f
  1193  0095  2892               	goto	u2227
  1194  0096  2897               	nop2
  1195  0097                     l1600:
  1196                           
  1197                           ;led_7seg.c: 103:     PORTCbits.RC7 = 1;
  1198  0097  1283               	bcf	3,5	;RP0=0, select bank0
  1199  0098  1303               	bcf	3,6	;RP1=0, select bank0
  1200  0099  1787               	bsf	7,7	;volatile
  1201  009A                     l78:
  1202  009A  0008               	return
  1203  009B                     __end_of_Led_7seg_Display:
  1204                           
  1205                           	psect	text3
  1206  0F09                     __ptext3:	
  1207 ;; *************** function _Led7_displayUnit *****************
  1208 ;; Defined at:
  1209 ;;		line 42 in file "led_7seg.c"
  1210 ;; Parameters:    Size  Location     Type
  1211 ;;  number          1    wreg     unsigned char 
  1212 ;; Auto vars:     Size  Location     Type
  1213 ;;  number          1    0[COMMON] unsigned char 
  1214 ;; Return value:  Size  Location     Type
  1215 ;;                  1    wreg      void 
  1216 ;; Registers used:
  1217 ;;		wreg, fsr0l, fsr0h, status,2, status,0, pclath
  1218 ;; Tracked objects:
  1219 ;;		On entry : 0/0
  1220 ;;		On exit  : 0/0
  1221 ;;		Unchanged: 0/0
  1222 ;; Data sizes:     COMMON   BANK0   BANK1   BANK3   BANK2
  1223 ;;      Params:         0       0       0       0       0
  1224 ;;      Locals:         1       0       0       0       0
  1225 ;;      Temps:          0       0       0       0       0
  1226 ;;      Totals:         1       0       0       0       0
  1227 ;;Total ram usage:        1 bytes
  1228 ;; Hardware stack levels used: 2
  1229 ;; This function calls:
  1230 ;;		Nothing
  1231 ;; This function is called by:
  1232 ;;		_Led_7seg_Display
  1233 ;; This function uses a non-reentrant model
  1234 ;;
  1235                           
  1236                           
  1237                           ;psect for function _Led7_displayUnit
  1238  0F09                     _Led7_displayUnit:
  1239                           
  1240                           ;incstack = 0
  1241                           ; Regs used in _Led7_displayUnit: [wreg-fsr0h+status,2+status,0+pclath]
  1242                           ;Led7_displayUnit@number stored from wreg
  1243  0F09  00F0               	movwf	Led7_displayUnit@number
  1244  0F0A                     l1522:
  1245                           
  1246                           ;led_7seg.c: 42: void Led7_displayUnit(unsigned char number);led_7seg.c: 43: {;led_7seg.
      +                          c: 44:  PORTD = 0xff;
  1247  0F0A  30FF               	movlw	255
  1248  0F0B  1283               	bcf	3,5	;RP0=0, select bank0
  1249  0F0C  1303               	bcf	3,6	;RP1=0, select bank0
  1250  0F0D  0088               	movwf	8	;volatile
  1251  0F0E                     l1524:
  1252                           
  1253                           ;led_7seg.c: 45:     PORTD = LED7_HEX[number];
  1254  0F0E  0870               	movf	Led7_displayUnit@number,w
  1255  0F0F  3E01               	addlw	low ((_LED7_HEX-__stringbase)| (0+32768))
  1256  0F10  0084               	movwf	4
  1257  0F11  120A  158A  2000  120A  158A  	fcall	stringdir
  1258  0F16  0088               	movwf	8	;volatile
  1259  0F17                     l63:
  1260  0F17  0008               	return
  1261  0F18                     __end_of_Led7_displayUnit:
  1262                           
  1263                           	psect	text4
  1264  038A                     __ptext4:	
  1265 ;; *************** function _Led7_addFloatToBuffer *****************
  1266 ;; Defined at:
  1267 ;;		line 48 in file "led_7seg.c"
  1268 ;; Parameters:    Size  Location     Type
  1269 ;;  num             4   32[BANK0 ] void 
  1270 ;; Auto vars:     Size  Location     Type
  1271 ;;  i               2   39[BANK0 ] int 
  1272 ;;  newNum          2   37[BANK0 ] int 
  1273 ;;  p               1   41[BANK0 ] unsigned char 
  1274 ;; Return value:  Size  Location     Type
  1275 ;;                  1    wreg      void 
  1276 ;; Registers used:
  1277 ;;		wreg, fsr0l, fsr0h, status,2, status,0, btemp+1, pclath, cstack
  1278 ;; Tracked objects:
  1279 ;;		On entry : 0/0
  1280 ;;		On exit  : 0/0
  1281 ;;		Unchanged: 0/0
  1282 ;; Data sizes:     COMMON   BANK0   BANK1   BANK3   BANK2
  1283 ;;      Params:         0       4       0       0       0
  1284 ;;      Locals:         0       5       0       0       0
  1285 ;;      Temps:          0       1       0       0       0
  1286 ;;      Totals:         0      10       0       0       0
  1287 ;;Total ram usage:       10 bytes
  1288 ;; Hardware stack levels used: 1
  1289 ;; Hardware stack levels required when called: 2
  1290 ;; This function calls:
  1291 ;;		_Led7_pointIndex
  1292 ;;		___awdiv
  1293 ;;		___awmod
  1294 ;;		___flmul
  1295 ;;		___fltol
  1296 ;; This function is called by:
  1297 ;;		_Led_7seg_Display
  1298 ;; This function uses a non-reentrant model
  1299 ;;
  1300                           
  1301                           
  1302                           ;psect for function _Led7_addFloatToBuffer
  1303  038A                     _Led7_addFloatToBuffer:
  1304  038A                     l1526:	
  1305                           ;incstack = 0
  1306                           ; Regs used in _Led7_addFloatToBuffer: [wreg-fsr0h+status,2+status,0+btemp+1+pclath+csta
      +                          ck]
  1307                           
  1308                           
  1309                           ;led_7seg.c: 48: void Led7_addFloatToBuffer(double num);led_7seg.c: 49: {;led_7seg.c: 50
      +                          :     int newNum;;led_7seg.c: 51:     char p = Led7_pointIndex(num);
  1310  038A  1283               	bcf	3,5	;RP0=0, select bank0
  1311  038B  1303               	bcf	3,6	;RP1=0, select bank0
  1312  038C  0843               	movf	Led7_addFloatToBuffer@num+3,w
  1313  038D  00A3               	movwf	Led7_pointIndex@num+3
  1314  038E  0842               	movf	Led7_addFloatToBuffer@num+2,w
  1315  038F  00A2               	movwf	Led7_pointIndex@num+2
  1316  0390  0841               	movf	Led7_addFloatToBuffer@num+1,w
  1317  0391  00A1               	movwf	Led7_pointIndex@num+1
  1318  0392  0840               	movf	Led7_addFloatToBuffer@num,w
  1319  0393  00A0               	movwf	Led7_pointIndex@num
  1320  0394  120A  118A  2226  120A  118A  	fcall	_Led7_pointIndex
  1321  0399  1283               	bcf	3,5	;RP0=0, select bank0
  1322  039A  1303               	bcf	3,6	;RP1=0, select bank0
  1323  039B  00C4               	movwf	??_Led7_addFloatToBuffer
  1324  039C  0844               	movf	??_Led7_addFloatToBuffer,w
  1325  039D  00C9               	movwf	Led7_addFloatToBuffer@p
  1326  039E                     l1528:
  1327                           
  1328                           ;led_7seg.c: 53:     if (p == 0)
  1329  039E  0849               	movf	Led7_addFloatToBuffer@p,w
  1330  039F  1D03               	btfss	3,2
  1331  03A0  2BA2               	goto	u1921
  1332  03A1  2BA3               	goto	u1920
  1333  03A2                     u1921:
  1334  03A2  2BB7               	goto	l1532
  1335  03A3                     u1920:
  1336  03A3                     l1530:
  1337                           
  1338                           ;led_7seg.c: 54:         newNum = (int) num;
  1339  03A3  0843               	movf	Led7_addFloatToBuffer@num+3,w
  1340  03A4  00B8               	movwf	___fltol@f1+3
  1341  03A5  0842               	movf	Led7_addFloatToBuffer@num+2,w
  1342  03A6  00B7               	movwf	___fltol@f1+2
  1343  03A7  0841               	movf	Led7_addFloatToBuffer@num+1,w
  1344  03A8  00B6               	movwf	___fltol@f1+1
  1345  03A9  0840               	movf	Led7_addFloatToBuffer@num,w
  1346  03AA  00B5               	movwf	___fltol@f1
  1347  03AB  120A  118A  2108  120A  118A  	fcall	___fltol
  1348  03B0  1283               	bcf	3,5	;RP0=0, select bank0
  1349  03B1  1303               	bcf	3,6	;RP1=0, select bank0
  1350  03B2  0836               	movf	?___fltol+1,w
  1351  03B3  00C6               	movwf	Led7_addFloatToBuffer@newNum+1
  1352  03B4  0835               	movf	?___fltol,w
  1353  03B5  00C5               	movwf	Led7_addFloatToBuffer@newNum
  1354  03B6  2C49               	goto	l1544
  1355  03B7                     l1532:
  1356  03B7  0349               	decf	Led7_addFloatToBuffer@p,w
  1357  03B8  1D03               	btfss	3,2
  1358  03B9  2BBB               	goto	u1931
  1359  03BA  2BBC               	goto	u1930
  1360  03BB                     u1931:
  1361  03BB  2BE7               	goto	l1536
  1362  03BC                     u1930:
  1363  03BC                     l1534:
  1364                           
  1365                           ;led_7seg.c: 56:         newNum = (int) (num * 10);
  1366  03BC  0843               	movf	Led7_addFloatToBuffer@num+3,w
  1367  03BD  00A7               	movwf	___flmul@a+3
  1368  03BE  0842               	movf	Led7_addFloatToBuffer@num+2,w
  1369  03BF  00A6               	movwf	___flmul@a+2
  1370  03C0  0841               	movf	Led7_addFloatToBuffer@num+1,w
  1371  03C1  00A5               	movwf	___flmul@a+1
  1372  03C2  0840               	movf	Led7_addFloatToBuffer@num,w
  1373  03C3  00A4               	movwf	___flmul@a
  1374  03C4  3041               	movlw	65
  1375  03C5  00A3               	movwf	___flmul@b+3
  1376  03C6  3020               	movlw	32
  1377  03C7  00A2               	movwf	___flmul@b+2
  1378  03C8  3000               	movlw	0
  1379  03C9  00A1               	movwf	___flmul@b+1
  1380  03CA  3000               	movlw	0
  1381  03CB  00A0               	movwf	___flmul@b
  1382  03CC  120A  118A  2495  120A  118A  	fcall	___flmul
  1383  03D1  1283               	bcf	3,5	;RP0=0, select bank0
  1384  03D2  1303               	bcf	3,6	;RP1=0, select bank0
  1385  03D3  0823               	movf	?___flmul+3,w
  1386  03D4  00B8               	movwf	___fltol@f1+3
  1387  03D5  0822               	movf	?___flmul+2,w
  1388  03D6  00B7               	movwf	___fltol@f1+2
  1389  03D7  0821               	movf	?___flmul+1,w
  1390  03D8  00B6               	movwf	___fltol@f1+1
  1391  03D9  0820               	movf	?___flmul,w
  1392  03DA  00B5               	movwf	___fltol@f1
  1393  03DB  120A  118A  2108  120A  118A  	fcall	___fltol
  1394  03E0  1283               	bcf	3,5	;RP0=0, select bank0
  1395  03E1  1303               	bcf	3,6	;RP1=0, select bank0
  1396  03E2  0836               	movf	?___fltol+1,w
  1397  03E3  00C6               	movwf	Led7_addFloatToBuffer@newNum+1
  1398  03E4  0835               	movf	?___fltol,w
  1399  03E5  00C5               	movwf	Led7_addFloatToBuffer@newNum
  1400  03E6  2C49               	goto	l1544
  1401  03E7                     l1536:
  1402  03E7  3002               	movlw	2
  1403  03E8  0649               	xorwf	Led7_addFloatToBuffer@p,w
  1404  03E9  1D03               	btfss	3,2
  1405  03EA  2BEC               	goto	u1941
  1406  03EB  2BED               	goto	u1940
  1407  03EC                     u1941:
  1408  03EC  2C18               	goto	l1540
  1409  03ED                     u1940:
  1410  03ED                     l1538:
  1411                           
  1412                           ;led_7seg.c: 58:         newNum = (int) (num * 100);
  1413  03ED  0843               	movf	Led7_addFloatToBuffer@num+3,w
  1414  03EE  00A7               	movwf	___flmul@a+3
  1415  03EF  0842               	movf	Led7_addFloatToBuffer@num+2,w
  1416  03F0  00A6               	movwf	___flmul@a+2
  1417  03F1  0841               	movf	Led7_addFloatToBuffer@num+1,w
  1418  03F2  00A5               	movwf	___flmul@a+1
  1419  03F3  0840               	movf	Led7_addFloatToBuffer@num,w
  1420  03F4  00A4               	movwf	___flmul@a
  1421  03F5  3042               	movlw	66
  1422  03F6  00A3               	movwf	___flmul@b+3
  1423  03F7  30C8               	movlw	200
  1424  03F8  00A2               	movwf	___flmul@b+2
  1425  03F9  3000               	movlw	0
  1426  03FA  00A1               	movwf	___flmul@b+1
  1427  03FB  3000               	movlw	0
  1428  03FC  00A0               	movwf	___flmul@b
  1429  03FD  120A  118A  2495  120A  118A  	fcall	___flmul
  1430  0402  1283               	bcf	3,5	;RP0=0, select bank0
  1431  0403  1303               	bcf	3,6	;RP1=0, select bank0
  1432  0404  0823               	movf	?___flmul+3,w
  1433  0405  00B8               	movwf	___fltol@f1+3
  1434  0406  0822               	movf	?___flmul+2,w
  1435  0407  00B7               	movwf	___fltol@f1+2
  1436  0408  0821               	movf	?___flmul+1,w
  1437  0409  00B6               	movwf	___fltol@f1+1
  1438  040A  0820               	movf	?___flmul,w
  1439  040B  00B5               	movwf	___fltol@f1
  1440  040C  120A  118A  2108  120A  118A  	fcall	___fltol
  1441  0411  1283               	bcf	3,5	;RP0=0, select bank0
  1442  0412  1303               	bcf	3,6	;RP1=0, select bank0
  1443  0413  0836               	movf	?___fltol+1,w
  1444  0414  00C6               	movwf	Led7_addFloatToBuffer@newNum+1
  1445  0415  0835               	movf	?___fltol,w
  1446  0416  00C5               	movwf	Led7_addFloatToBuffer@newNum
  1447  0417  2C49               	goto	l1544
  1448  0418                     l1540:
  1449  0418  3003               	movlw	3
  1450  0419  0649               	xorwf	Led7_addFloatToBuffer@p,w
  1451  041A  1D03               	btfss	3,2
  1452  041B  2C1D               	goto	u1951
  1453  041C  2C1E               	goto	u1950
  1454  041D                     u1951:
  1455  041D  2C49               	goto	l69
  1456  041E                     u1950:
  1457  041E                     l1542:
  1458                           
  1459                           ;led_7seg.c: 60:         newNum = (int) (num * 1000);
  1460  041E  0843               	movf	Led7_addFloatToBuffer@num+3,w
  1461  041F  00A7               	movwf	___flmul@a+3
  1462  0420  0842               	movf	Led7_addFloatToBuffer@num+2,w
  1463  0421  00A6               	movwf	___flmul@a+2
  1464  0422  0841               	movf	Led7_addFloatToBuffer@num+1,w
  1465  0423  00A5               	movwf	___flmul@a+1
  1466  0424  0840               	movf	Led7_addFloatToBuffer@num,w
  1467  0425  00A4               	movwf	___flmul@a
  1468  0426  3044               	movlw	68
  1469  0427  00A3               	movwf	___flmul@b+3
  1470  0428  307A               	movlw	122
  1471  0429  00A2               	movwf	___flmul@b+2
  1472  042A  3000               	movlw	0
  1473  042B  00A1               	movwf	___flmul@b+1
  1474  042C  3000               	movlw	0
  1475  042D  00A0               	movwf	___flmul@b
  1476  042E  120A  118A  2495  120A  118A  	fcall	___flmul
  1477  0433  1283               	bcf	3,5	;RP0=0, select bank0
  1478  0434  1303               	bcf	3,6	;RP1=0, select bank0
  1479  0435  0823               	movf	?___flmul+3,w
  1480  0436  00B8               	movwf	___fltol@f1+3
  1481  0437  0822               	movf	?___flmul+2,w
  1482  0438  00B7               	movwf	___fltol@f1+2
  1483  0439  0821               	movf	?___flmul+1,w
  1484  043A  00B6               	movwf	___fltol@f1+1
  1485  043B  0820               	movf	?___flmul,w
  1486  043C  00B5               	movwf	___fltol@f1
  1487  043D  120A  118A  2108  120A  118A  	fcall	___fltol
  1488  0442  1283               	bcf	3,5	;RP0=0, select bank0
  1489  0443  1303               	bcf	3,6	;RP1=0, select bank0
  1490  0444  0836               	movf	?___fltol+1,w
  1491  0445  00C6               	movwf	Led7_addFloatToBuffer@newNum+1
  1492  0446  0835               	movf	?___fltol,w
  1493  0447  00C5               	movwf	Led7_addFloatToBuffer@newNum
  1494  0448  2C49               	goto	l1544
  1495  0449                     l69:
  1496  0449                     l1544:
  1497                           
  1498                           ;led_7seg.c: 62:     for (int i = 0; i < 4; i++)
  1499  0449  01C7               	clrf	Led7_addFloatToBuffer@i
  1500  044A  01C8               	clrf	Led7_addFloatToBuffer@i+1
  1501  044B                     l1550:
  1502                           
  1503                           ;led_7seg.c: 63:  {;led_7seg.c: 64:         buffer[i] = newNum % 10;
  1504  044B  300A               	movlw	10
  1505  044C  00F0               	movwf	___awmod@divisor
  1506  044D  3000               	movlw	0
  1507  044E  00F1               	movwf	___awmod@divisor+1
  1508  044F  1283               	bcf	3,5	;RP0=0, select bank0
  1509  0450  1303               	bcf	3,6	;RP1=0, select bank0
  1510  0451  0846               	movf	Led7_addFloatToBuffer@newNum+1,w
  1511  0452  00F3               	movwf	___awmod@dividend+1
  1512  0453  0845               	movf	Led7_addFloatToBuffer@newNum,w
  1513  0454  00F2               	movwf	___awmod@dividend
  1514  0455  120A  158A  2740  120A  118A  	fcall	___awmod
  1515  045A  0870               	movf	?___awmod,w
  1516  045B  1283               	bcf	3,5	;RP0=0, select bank0
  1517  045C  1303               	bcf	3,6	;RP1=0, select bank0
  1518  045D  00C4               	movwf	??_Led7_addFloatToBuffer
  1519  045E  0847               	movf	Led7_addFloatToBuffer@i,w
  1520  045F  3E54               	addlw	(low (_buffer| 0))& (0+255)
  1521  0460  0084               	movwf	4
  1522  0461  0844               	movf	??_Led7_addFloatToBuffer,w
  1523  0462  1383               	bcf	3,7	;select IRP bank0
  1524  0463  0080               	movwf	0
  1525  0464                     l1552:
  1526                           
  1527                           ;led_7seg.c: 65:         newNum /= 10;
  1528  0464  300A               	movlw	10
  1529  0465  00F0               	movwf	___awdiv@divisor
  1530  0466  3000               	movlw	0
  1531  0467  00F1               	movwf	___awdiv@divisor+1
  1532  0468  0846               	movf	Led7_addFloatToBuffer@newNum+1,w
  1533  0469  00F3               	movwf	___awdiv@dividend+1
  1534  046A  0845               	movf	Led7_addFloatToBuffer@newNum,w
  1535  046B  00F2               	movwf	___awdiv@dividend
  1536  046C  120A  158A  2799  120A  118A  	fcall	___awdiv
  1537  0471  0871               	movf	?___awdiv+1,w
  1538  0472  1283               	bcf	3,5	;RP0=0, select bank0
  1539  0473  1303               	bcf	3,6	;RP1=0, select bank0
  1540  0474  00C6               	movwf	Led7_addFloatToBuffer@newNum+1
  1541  0475  0870               	movf	?___awdiv,w
  1542  0476  00C5               	movwf	Led7_addFloatToBuffer@newNum
  1543  0477                     l1554:
  1544                           
  1545                           ;led_7seg.c: 66:     }
  1546  0477  3001               	movlw	1
  1547  0478  07C7               	addwf	Led7_addFloatToBuffer@i,f
  1548  0479  1803               	skipnc
  1549  047A  0AC8               	incf	Led7_addFloatToBuffer@i+1,f
  1550  047B  3000               	movlw	0
  1551  047C  07C8               	addwf	Led7_addFloatToBuffer@i+1,f
  1552  047D                     l1556:
  1553  047D  0848               	movf	Led7_addFloatToBuffer@i+1,w
  1554  047E  3A80               	xorlw	128
  1555  047F  00FF               	movwf	btemp+1
  1556  0480  3080               	movlw	128
  1557  0481  027F               	subwf	btemp+1,w
  1558  0482  1D03               	skipz
  1559  0483  2C86               	goto	u1965
  1560  0484  3004               	movlw	4
  1561  0485  0247               	subwf	Led7_addFloatToBuffer@i,w
  1562  0486                     u1965:
  1563  0486  1C03               	skipc
  1564  0487  2C89               	goto	u1961
  1565  0488  2C8A               	goto	u1960
  1566  0489                     u1961:
  1567  0489  2C4B               	goto	l1550
  1568  048A                     u1960:
  1569  048A                     l1558:
  1570                           
  1571                           ;led_7seg.c: 67:     buffer[p] += 10;
  1572  048A  300A               	movlw	10
  1573  048B  1283               	bcf	3,5	;RP0=0, select bank0
  1574  048C  1303               	bcf	3,6	;RP1=0, select bank0
  1575  048D  00C4               	movwf	??_Led7_addFloatToBuffer
  1576  048E  0849               	movf	Led7_addFloatToBuffer@p,w
  1577  048F  3E54               	addlw	(low (_buffer| 0))& (0+255)
  1578  0490  0084               	movwf	4
  1579  0491  0844               	movf	??_Led7_addFloatToBuffer,w
  1580  0492  1383               	bcf	3,7	;select IRP bank0
  1581  0493  0780               	addwf	0,f
  1582  0494                     l75:
  1583  0494  0008               	return
  1584  0495                     __end_of_Led7_addFloatToBuffer:
  1585                           
  1586                           	psect	text5
  1587  0108                     __ptext5:	
  1588 ;; *************** function ___fltol *****************
  1589 ;; Defined at:
  1590 ;;		line 43 in file "C:\Program Files\Microchip\xc8\v2.32\pic\sources\c90\common\fltol.c"
  1591 ;; Parameters:    Size  Location     Type
  1592 ;;  f1              4   21[BANK0 ] void 
  1593 ;; Auto vars:     Size  Location     Type
  1594 ;;  exp1            1   31[BANK0 ] unsigned char 
  1595 ;;  sign1           1   30[BANK0 ] unsigned char 
  1596 ;; Return value:  Size  Location     Type
  1597 ;;                  4   21[BANK0 ] long 
  1598 ;; Registers used:
  1599 ;;		wreg, status,2, status,0
  1600 ;; Tracked objects:
  1601 ;;		On entry : 0/0
  1602 ;;		On exit  : 0/0
  1603 ;;		Unchanged: 0/0
  1604 ;; Data sizes:     COMMON   BANK0   BANK1   BANK3   BANK2
  1605 ;;      Params:         0       4       0       0       0
  1606 ;;      Locals:         0       2       0       0       0
  1607 ;;      Temps:          0       5       0       0       0
  1608 ;;      Totals:         0      11       0       0       0
  1609 ;;Total ram usage:       11 bytes
  1610 ;; Hardware stack levels used: 1
  1611 ;; This function calls:
  1612 ;;		Nothing
  1613 ;; This function is called by:
  1614 ;;		_Led7_addFloatToBuffer
  1615 ;; This function uses a non-reentrant model
  1616 ;;
  1617                           
  1618                           
  1619                           ;psect for function ___fltol
  1620  0108                     ___fltol:
  1621  0108                     l1328:	
  1622                           ;incstack = 0
  1623                           ; Regs used in ___fltol: [wreg+status,2+status,0]
  1624                           
  1625  0108  1003               	clrc
  1626  0109  1283               	bcf	3,5	;RP0=0, select bank0
  1627  010A  1303               	bcf	3,6	;RP1=0, select bank0
  1628  010B  0D37               	rlf	___fltol@f1+2,w
  1629  010C  0D38               	rlf	___fltol@f1+3,w
  1630  010D  00B9               	movwf	??___fltol
  1631  010E  0839               	movf	??___fltol,w
  1632  010F  00BF               	movwf	___fltol@exp1
  1633  0110  083F               	movf	___fltol@exp1,w
  1634  0111  1D03               	btfss	3,2
  1635  0112  2914               	goto	u1451
  1636  0113  2915               	goto	u1450
  1637  0114                     u1451:
  1638  0114  291E               	goto	l1334
  1639  0115                     u1450:
  1640  0115                     l1330:
  1641  0115  3000               	movlw	0
  1642  0116  00B8               	movwf	?___fltol+3
  1643  0117  3000               	movlw	0
  1644  0118  00B7               	movwf	?___fltol+2
  1645  0119  3000               	movlw	0
  1646  011A  00B6               	movwf	?___fltol+1
  1647  011B  3000               	movlw	0
  1648  011C  00B5               	movwf	?___fltol
  1649  011D  2983               	goto	l350
  1650  011E                     l1334:
  1651  011E  0835               	movf	___fltol@f1,w
  1652  011F  00B9               	movwf	??___fltol
  1653  0120  0836               	movf	___fltol@f1+1,w
  1654  0121  00BA               	movwf	??___fltol+1
  1655  0122  0837               	movf	___fltol@f1+2,w
  1656  0123  00BB               	movwf	??___fltol+2
  1657  0124  0838               	movf	___fltol@f1+3,w
  1658  0125  00BC               	movwf	??___fltol+3
  1659  0126  301F               	movlw	31
  1660  0127                     u1465:
  1661  0127  1003               	clrc
  1662  0128  0CBC               	rrf	??___fltol+3,f
  1663  0129  0CBB               	rrf	??___fltol+2,f
  1664  012A  0CBA               	rrf	??___fltol+1,f
  1665  012B  0CB9               	rrf	??___fltol,f
  1666  012C                     u1460:
  1667  012C  3EFF               	addlw	-1
  1668  012D  1D03               	skipz
  1669  012E  2927               	goto	u1465
  1670  012F  0839               	movf	??___fltol,w
  1671  0130  00BD               	movwf	??___fltol+4
  1672  0131  083D               	movf	??___fltol+4,w
  1673  0132  00BE               	movwf	___fltol@sign1
  1674  0133                     l1336:
  1675  0133  17B7               	bsf	___fltol@f1+2,7
  1676  0134                     l1338:
  1677  0134  30FF               	movlw	255
  1678  0135  05B5               	andwf	___fltol@f1,f
  1679  0136  30FF               	movlw	255
  1680  0137  05B6               	andwf	___fltol@f1+1,f
  1681  0138  30FF               	movlw	255
  1682  0139  05B7               	andwf	___fltol@f1+2,f
  1683  013A  3000               	movlw	0
  1684  013B  05B8               	andwf	___fltol@f1+3,f
  1685  013C                     l1340:
  1686  013C  3096               	movlw	150
  1687  013D  02BF               	subwf	___fltol@exp1,f
  1688  013E                     l1342:
  1689  013E  1FBF               	btfss	___fltol@exp1,7
  1690  013F  2941               	goto	u1471
  1691  0140  2942               	goto	u1470
  1692  0141                     u1471:
  1693  0141  295C               	goto	l1352
  1694  0142                     u1470:
  1695  0142                     l1344:
  1696  0142  083F               	movf	___fltol@exp1,w
  1697  0143  3A80               	xorlw	128
  1698  0144  3E97               	addlw	151
  1699  0145  1803               	skipnc
  1700  0146  2948               	goto	u1481
  1701  0147  2949               	goto	u1480
  1702  0148                     u1481:
  1703  0148  294A               	goto	l1350
  1704  0149                     u1480:
  1705  0149  2915               	goto	l1330
  1706  014A                     l1350:
  1707  014A  3001               	movlw	1
  1708  014B                     u1495:
  1709  014B  1003               	clrc
  1710  014C  0CB8               	rrf	___fltol@f1+3,f
  1711  014D  0CB7               	rrf	___fltol@f1+2,f
  1712  014E  0CB6               	rrf	___fltol@f1+1,f
  1713  014F  0CB5               	rrf	___fltol@f1,f
  1714  0150  3EFF               	addlw	-1
  1715  0151  1D03               	skipz
  1716  0152  294B               	goto	u1495
  1717  0153  3001               	movlw	1
  1718  0154  00B9               	movwf	??___fltol
  1719  0155  0839               	movf	??___fltol,w
  1720  0156  07BF               	addwf	___fltol@exp1,f
  1721  0157  1D03               	btfss	3,2
  1722  0158  295A               	goto	u1501
  1723  0159  295B               	goto	u1500
  1724  015A                     u1501:
  1725  015A  294A               	goto	l1350
  1726  015B                     u1500:
  1727  015B  2973               	goto	l1360
  1728  015C                     l1352:
  1729  015C  3020               	movlw	32
  1730  015D  023F               	subwf	___fltol@exp1,w
  1731  015E  1C03               	skipc
  1732  015F  2961               	goto	u1511
  1733  0160  2962               	goto	u1510
  1734  0161                     u1511:
  1735  0161  296E               	goto	l357
  1736  0162                     u1510:
  1737  0162  2915               	goto	l1330
  1738  0163                     l1358:
  1739  0163  3001               	movlw	1
  1740  0164  00B9               	movwf	??___fltol
  1741  0165                     u1525:
  1742  0165  1003               	clrc
  1743  0166  0DB5               	rlf	___fltol@f1,f
  1744  0167  0DB6               	rlf	___fltol@f1+1,f
  1745  0168  0DB7               	rlf	___fltol@f1+2,f
  1746  0169  0DB8               	rlf	___fltol@f1+3,f
  1747  016A  0BB9               	decfsz	??___fltol,f
  1748  016B  2965               	goto	u1525
  1749  016C  3001               	movlw	1
  1750  016D  02BF               	subwf	___fltol@exp1,f
  1751  016E                     l357:
  1752  016E  083F               	movf	___fltol@exp1,w
  1753  016F  1D03               	btfss	3,2
  1754  0170  2972               	goto	u1531
  1755  0171  2973               	goto	u1530
  1756  0172                     u1531:
  1757  0172  2963               	goto	l1358
  1758  0173                     u1530:
  1759  0173                     l1360:
  1760  0173  083E               	movf	___fltol@sign1,w
  1761  0174  1903               	btfsc	3,2
  1762  0175  2977               	goto	u1541
  1763  0176  2978               	goto	u1540
  1764  0177                     u1541:
  1765  0177  2983               	goto	l360
  1766  0178                     u1540:
  1767  0178                     l1362:
  1768  0178  09B5               	comf	___fltol@f1,f
  1769  0179  09B6               	comf	___fltol@f1+1,f
  1770  017A  09B7               	comf	___fltol@f1+2,f
  1771  017B  09B8               	comf	___fltol@f1+3,f
  1772  017C  0AB5               	incf	___fltol@f1,f
  1773  017D  1903               	skipnz
  1774  017E  0AB6               	incf	___fltol@f1+1,f
  1775  017F  1903               	skipnz
  1776  0180  0AB7               	incf	___fltol@f1+2,f
  1777  0181  1903               	skipnz
  1778  0182  0AB8               	incf	___fltol@f1+3,f
  1779  0183                     l360:
  1780  0183                     l350:
  1781  0183  0008               	return
  1782  0184                     __end_of___fltol:
  1783                           
  1784                           	psect	text6
  1785  0495                     __ptext6:	
  1786 ;; *************** function ___flmul *****************
  1787 ;; Defined at:
  1788 ;;		line 8 in file "C:\Program Files\Microchip\xc8\v2.32\pic\sources\c90\common\sprcmul.c"
  1789 ;; Parameters:    Size  Location     Type
  1790 ;;  b               4    0[BANK0 ] long 
  1791 ;;  a               4    4[BANK0 ] long 
  1792 ;; Auto vars:     Size  Location     Type
  1793 ;;  prod            4   15[BANK0 ] struct .
  1794 ;;  grs             4    9[BANK0 ] unsigned long 
  1795 ;;  temp            2   19[BANK0 ] struct .
  1796 ;;  bexp            1   14[BANK0 ] unsigned char 
  1797 ;;  aexp            1   13[BANK0 ] unsigned char 
  1798 ;;  sign            1    8[BANK0 ] unsigned char 
  1799 ;; Return value:  Size  Location     Type
  1800 ;;                  4    0[BANK0 ] unsigned char 
  1801 ;; Registers used:
  1802 ;;		wreg, status,2, status,0, btemp+1, pclath, cstack
  1803 ;; Tracked objects:
  1804 ;;		On entry : 0/0
  1805 ;;		On exit  : 0/0
  1806 ;;		Unchanged: 0/0
  1807 ;; Data sizes:     COMMON   BANK0   BANK1   BANK3   BANK2
  1808 ;;      Params:         0       8       0       0       0
  1809 ;;      Locals:         0      13       0       0       0
  1810 ;;      Temps:          5       0       0       0       0
  1811 ;;      Totals:         5      21       0       0       0
  1812 ;;Total ram usage:       26 bytes
  1813 ;; Hardware stack levels used: 1
  1814 ;; Hardware stack levels required when called: 1
  1815 ;; This function calls:
  1816 ;;		__Umul8_16
  1817 ;; This function is called by:
  1818 ;;		_Led7_addFloatToBuffer
  1819 ;; This function uses a non-reentrant model
  1820 ;;
  1821                           
  1822                           
  1823                           ;psect for function ___flmul
  1824  0495                     ___flmul:
  1825  0495                     l1364:	
  1826                           ;incstack = 0
  1827                           ; Regs used in ___flmul: [wreg+status,2+status,0+btemp+1+pclath+cstack]
  1828                           
  1829  0495  1283               	bcf	3,5	;RP0=0, select bank0
  1830  0496  1303               	bcf	3,6	;RP1=0, select bank0
  1831  0497  0823               	movf	___flmul@b+3,w
  1832  0498  3980               	andlw	128
  1833  0499  00F9               	movwf	??___flmul
  1834  049A  0879               	movf	??___flmul,w
  1835  049B  00A8               	movwf	___flmul@sign
  1836  049C                     l1366:
  1837  049C  0823               	movf	___flmul@b+3,w
  1838  049D  00F9               	movwf	??___flmul
  1839  049E  0779               	addwf	??___flmul,w
  1840  049F  00FA               	movwf	??___flmul+1
  1841  04A0  087A               	movf	??___flmul+1,w
  1842  04A1  00AE               	movwf	___flmul@bexp
  1843  04A2                     l1368:
  1844  04A2  1FA2               	btfss	___flmul@b+2,7
  1845  04A3  2CA5               	goto	u1551
  1846  04A4  2CA6               	goto	u1550
  1847  04A5                     u1551:
  1848  04A5  2CA7               	goto	l1372
  1849  04A6                     u1550:
  1850  04A6                     l1370:
  1851  04A6  142E               	bsf	___flmul@bexp,0
  1852  04A7                     l1372:
  1853  04A7  082E               	movf	___flmul@bexp,w
  1854  04A8  1903               	btfsc	3,2
  1855  04A9  2CAB               	goto	u1561
  1856  04AA  2CAC               	goto	u1560
  1857  04AB                     u1561:
  1858  04AB  2CBB               	goto	l1380
  1859  04AC                     u1560:
  1860  04AC                     l1374:
  1861  04AC  0A2E               	incf	___flmul@bexp,w
  1862  04AD  1D03               	btfss	3,2
  1863  04AE  2CB0               	goto	u1571
  1864  04AF  2CB1               	goto	u1570
  1865  04B0                     u1571:
  1866  04B0  2CB9               	goto	l1378
  1867  04B1                     u1570:
  1868  04B1                     l1376:
  1869  04B1  3000               	movlw	0
  1870  04B2  00A3               	movwf	___flmul@b+3
  1871  04B3  3000               	movlw	0
  1872  04B4  00A2               	movwf	___flmul@b+2
  1873  04B5  3000               	movlw	0
  1874  04B6  00A1               	movwf	___flmul@b+1
  1875  04B7  3000               	movlw	0
  1876  04B8  00A0               	movwf	___flmul@b
  1877  04B9                     l1378:
  1878  04B9  17A2               	bsf	___flmul@b+2,7
  1879  04BA  2CC3               	goto	l1382
  1880  04BB                     l1380:
  1881  04BB  3000               	movlw	0
  1882  04BC  00A3               	movwf	___flmul@b+3
  1883  04BD  3000               	movlw	0
  1884  04BE  00A2               	movwf	___flmul@b+2
  1885  04BF  3000               	movlw	0
  1886  04C0  00A1               	movwf	___flmul@b+1
  1887  04C1  3000               	movlw	0
  1888  04C2  00A0               	movwf	___flmul@b
  1889  04C3                     l1382:
  1890  04C3  0827               	movf	___flmul@a+3,w
  1891  04C4  3980               	andlw	128
  1892  04C5  00F9               	movwf	??___flmul
  1893  04C6  0879               	movf	??___flmul,w
  1894  04C7  06A8               	xorwf	___flmul@sign,f
  1895  04C8                     l1384:
  1896  04C8  0827               	movf	___flmul@a+3,w
  1897  04C9  00F9               	movwf	??___flmul
  1898  04CA  0779               	addwf	??___flmul,w
  1899  04CB  00FA               	movwf	??___flmul+1
  1900  04CC  087A               	movf	??___flmul+1,w
  1901  04CD  00AD               	movwf	___flmul@aexp
  1902  04CE                     l1386:
  1903  04CE  1FA6               	btfss	___flmul@a+2,7
  1904  04CF  2CD1               	goto	u1581
  1905  04D0  2CD2               	goto	u1580
  1906  04D1                     u1581:
  1907  04D1  2CD3               	goto	l1390
  1908  04D2                     u1580:
  1909  04D2                     l1388:
  1910  04D2  142D               	bsf	___flmul@aexp,0
  1911  04D3                     l1390:
  1912  04D3  082D               	movf	___flmul@aexp,w
  1913  04D4  1903               	btfsc	3,2
  1914  04D5  2CD7               	goto	u1591
  1915  04D6  2CD8               	goto	u1590
  1916  04D7                     u1591:
  1917  04D7  2CE7               	goto	l1398
  1918  04D8                     u1590:
  1919  04D8                     l1392:
  1920  04D8  0A2D               	incf	___flmul@aexp,w
  1921  04D9  1D03               	btfss	3,2
  1922  04DA  2CDC               	goto	u1601
  1923  04DB  2CDD               	goto	u1600
  1924  04DC                     u1601:
  1925  04DC  2CE5               	goto	l1396
  1926  04DD                     u1600:
  1927  04DD                     l1394:
  1928  04DD  3000               	movlw	0
  1929  04DE  00A7               	movwf	___flmul@a+3
  1930  04DF  3000               	movlw	0
  1931  04E0  00A6               	movwf	___flmul@a+2
  1932  04E1  3000               	movlw	0
  1933  04E2  00A5               	movwf	___flmul@a+1
  1934  04E3  3000               	movlw	0
  1935  04E4  00A4               	movwf	___flmul@a
  1936  04E5                     l1396:
  1937  04E5  17A6               	bsf	___flmul@a+2,7
  1938  04E6  2CEF               	goto	l1400
  1939  04E7                     l1398:
  1940  04E7  3000               	movlw	0
  1941  04E8  00A7               	movwf	___flmul@a+3
  1942  04E9  3000               	movlw	0
  1943  04EA  00A6               	movwf	___flmul@a+2
  1944  04EB  3000               	movlw	0
  1945  04EC  00A5               	movwf	___flmul@a+1
  1946  04ED  3000               	movlw	0
  1947  04EE  00A4               	movwf	___flmul@a
  1948  04EF                     l1400:
  1949  04EF  082D               	movf	___flmul@aexp,w
  1950  04F0  1903               	btfsc	3,2
  1951  04F1  2CF3               	goto	u1611
  1952  04F2  2CF4               	goto	u1610
  1953  04F3                     u1611:
  1954  04F3  2CF9               	goto	l1404
  1955  04F4                     u1610:
  1956  04F4                     l1402:
  1957  04F4  082E               	movf	___flmul@bexp,w
  1958  04F5  1D03               	btfss	3,2
  1959  04F6  2CF8               	goto	u1621
  1960  04F7  2CF9               	goto	u1620
  1961  04F8                     u1621:
  1962  04F8  2D02               	goto	l1408
  1963  04F9                     u1620:
  1964  04F9                     l1404:
  1965  04F9  3000               	movlw	0
  1966  04FA  00A3               	movwf	?___flmul+3
  1967  04FB  3000               	movlw	0
  1968  04FC  00A2               	movwf	?___flmul+2
  1969  04FD  3000               	movlw	0
  1970  04FE  00A1               	movwf	?___flmul+1
  1971  04FF  3000               	movlw	0
  1972  0500  00A0               	movwf	?___flmul
  1973  0501  2FF5               	goto	l553
  1974  0502                     l1408:
  1975  0502  0820               	movf	___flmul@b,w
  1976  0503  00F9               	movwf	??___flmul
  1977  0504  0879               	movf	??___flmul,w
  1978  0505  00F0               	movwf	__Umul8_16@multiplicand
  1979  0506  0826               	movf	___flmul@a+2,w
  1980  0507  120A  118A  200C  120A  118A  	fcall	__Umul8_16
  1981  050C  0871               	movf	?__Umul8_16+1,w
  1982  050D  1283               	bcf	3,5	;RP0=0, select bank0
  1983  050E  1303               	bcf	3,6	;RP1=0, select bank0
  1984  050F  00B4               	movwf	___flmul@temp+1
  1985  0510  0870               	movf	?__Umul8_16,w
  1986  0511  00B3               	movwf	___flmul@temp
  1987  0512                     l1410:
  1988  0512  0833               	movf	___flmul@temp,w
  1989  0513  00F9               	movwf	??___flmul
  1990  0514  01FA               	clrf	??___flmul+1
  1991  0515  01FB               	clrf	??___flmul+2
  1992  0516  01FC               	clrf	??___flmul+3
  1993  0517  087C               	movf	??___flmul+3,w
  1994  0518  00AC               	movwf	___flmul@grs+3
  1995  0519  087B               	movf	??___flmul+2,w
  1996  051A  00AB               	movwf	___flmul@grs+2
  1997  051B  087A               	movf	??___flmul+1,w
  1998  051C  00AA               	movwf	___flmul@grs+1
  1999  051D  0879               	movf	??___flmul,w
  2000  051E  00A9               	movwf	___flmul@grs
  2001  051F                     l1412:
  2002  051F  0834               	movf	___flmul@temp+1,w
  2003  0520  00F9               	movwf	??___flmul
  2004  0521  01FA               	clrf	??___flmul+1
  2005  0522  01FB               	clrf	??___flmul+2
  2006  0523  01FC               	clrf	??___flmul+3
  2007  0524  087C               	movf	??___flmul+3,w
  2008  0525  00B2               	movwf	___flmul@prod+3
  2009  0526  087B               	movf	??___flmul+2,w
  2010  0527  00B1               	movwf	___flmul@prod+2
  2011  0528  087A               	movf	??___flmul+1,w
  2012  0529  00B0               	movwf	___flmul@prod+1
  2013  052A  0879               	movf	??___flmul,w
  2014  052B  00AF               	movwf	___flmul@prod
  2015  052C  0821               	movf	___flmul@b+1,w
  2016  052D  00F9               	movwf	??___flmul
  2017  052E  0879               	movf	??___flmul,w
  2018  052F  00F0               	movwf	__Umul8_16@multiplicand
  2019  0530  0825               	movf	___flmul@a+1,w
  2020  0531  120A  118A  200C  120A  118A  	fcall	__Umul8_16
  2021  0536  0871               	movf	?__Umul8_16+1,w
  2022  0537  1283               	bcf	3,5	;RP0=0, select bank0
  2023  0538  1303               	bcf	3,6	;RP1=0, select bank0
  2024  0539  00B4               	movwf	___flmul@temp+1
  2025  053A  0870               	movf	?__Umul8_16,w
  2026  053B  00B3               	movwf	___flmul@temp
  2027  053C                     l1414:
  2028  053C  0833               	movf	___flmul@temp,w
  2029  053D  00F9               	movwf	??___flmul
  2030  053E  01FA               	clrf	??___flmul+1
  2031  053F  01FB               	clrf	??___flmul+2
  2032  0540  01FC               	clrf	??___flmul+3
  2033  0541  0879               	movf	??___flmul,w
  2034  0542  07A9               	addwf	___flmul@grs,f
  2035  0543  087A               	movf	??___flmul+1,w
  2036  0544  1103               	clrz
  2037  0545  1803               	skipnc
  2038  0546  3E01               	addlw	1
  2039  0547  1903               	skipnz
  2040  0548  2D4A               	goto	u1631
  2041  0549  07AA               	addwf	___flmul@grs+1,f
  2042  054A                     u1631:
  2043  054A  087B               	movf	??___flmul+2,w
  2044  054B  1103               	clrz
  2045  054C  1803               	skipnc
  2046  054D  3E01               	addlw	1
  2047  054E  1903               	skipnz
  2048  054F  2D51               	goto	u1632
  2049  0550  07AB               	addwf	___flmul@grs+2,f
  2050  0551                     u1632:
  2051  0551  087C               	movf	??___flmul+3,w
  2052  0552  1103               	clrz
  2053  0553  1803               	skipnc
  2054  0554  3E01               	addlw	1
  2055  0555  1903               	skipnz
  2056  0556  2D58               	goto	u1633
  2057  0557  07AC               	addwf	___flmul@grs+3,f
  2058  0558                     u1633:
  2059  0558                     l1416:
  2060  0558  0834               	movf	___flmul@temp+1,w
  2061  0559  00F9               	movwf	??___flmul
  2062  055A  01FA               	clrf	??___flmul+1
  2063  055B  01FB               	clrf	??___flmul+2
  2064  055C  01FC               	clrf	??___flmul+3
  2065  055D  0879               	movf	??___flmul,w
  2066  055E  07AF               	addwf	___flmul@prod,f
  2067  055F  087A               	movf	??___flmul+1,w
  2068  0560  1103               	clrz
  2069  0561  1803               	skipnc
  2070  0562  3E01               	addlw	1
  2071  0563  1903               	skipnz
  2072  0564  2D66               	goto	u1641
  2073  0565  07B0               	addwf	___flmul@prod+1,f
  2074  0566                     u1641:
  2075  0566  087B               	movf	??___flmul+2,w
  2076  0567  1103               	clrz
  2077  0568  1803               	skipnc
  2078  0569  3E01               	addlw	1
  2079  056A  1903               	skipnz
  2080  056B  2D6D               	goto	u1642
  2081  056C  07B1               	addwf	___flmul@prod+2,f
  2082  056D                     u1642:
  2083  056D  087C               	movf	??___flmul+3,w
  2084  056E  1103               	clrz
  2085  056F  1803               	skipnc
  2086  0570  3E01               	addlw	1
  2087  0571  1903               	skipnz
  2088  0572  2D74               	goto	u1643
  2089  0573  07B2               	addwf	___flmul@prod+3,f
  2090  0574                     u1643:
  2091  0574  0822               	movf	___flmul@b+2,w
  2092  0575  00F9               	movwf	??___flmul
  2093  0576  0879               	movf	??___flmul,w
  2094  0577  00F0               	movwf	__Umul8_16@multiplicand
  2095  0578  0824               	movf	___flmul@a,w
  2096  0579  120A  118A  200C  120A  118A  	fcall	__Umul8_16
  2097  057E  0871               	movf	?__Umul8_16+1,w
  2098  057F  1283               	bcf	3,5	;RP0=0, select bank0
  2099  0580  1303               	bcf	3,6	;RP1=0, select bank0
  2100  0581  00B4               	movwf	___flmul@temp+1
  2101  0582  0870               	movf	?__Umul8_16,w
  2102  0583  00B3               	movwf	___flmul@temp
  2103  0584                     l1418:
  2104  0584  0833               	movf	___flmul@temp,w
  2105  0585  00F9               	movwf	??___flmul
  2106  0586  01FA               	clrf	??___flmul+1
  2107  0587  01FB               	clrf	??___flmul+2
  2108  0588  01FC               	clrf	??___flmul+3
  2109  0589  0879               	movf	??___flmul,w
  2110  058A  07A9               	addwf	___flmul@grs,f
  2111  058B  087A               	movf	??___flmul+1,w
  2112  058C  1103               	clrz
  2113  058D  1803               	skipnc
  2114  058E  3E01               	addlw	1
  2115  058F  1903               	skipnz
  2116  0590  2D92               	goto	u1651
  2117  0591  07AA               	addwf	___flmul@grs+1,f
  2118  0592                     u1651:
  2119  0592  087B               	movf	??___flmul+2,w
  2120  0593  1103               	clrz
  2121  0594  1803               	skipnc
  2122  0595  3E01               	addlw	1
  2123  0596  1903               	skipnz
  2124  0597  2D99               	goto	u1652
  2125  0598  07AB               	addwf	___flmul@grs+2,f
  2126  0599                     u1652:
  2127  0599  087C               	movf	??___flmul+3,w
  2128  059A  1103               	clrz
  2129  059B  1803               	skipnc
  2130  059C  3E01               	addlw	1
  2131  059D  1903               	skipnz
  2132  059E  2DA0               	goto	u1653
  2133  059F  07AC               	addwf	___flmul@grs+3,f
  2134  05A0                     u1653:
  2135  05A0                     l1420:
  2136  05A0  0834               	movf	___flmul@temp+1,w
  2137  05A1  00F9               	movwf	??___flmul
  2138  05A2  01FA               	clrf	??___flmul+1
  2139  05A3  01FB               	clrf	??___flmul+2
  2140  05A4  01FC               	clrf	??___flmul+3
  2141  05A5  0879               	movf	??___flmul,w
  2142  05A6  07AF               	addwf	___flmul@prod,f
  2143  05A7  087A               	movf	??___flmul+1,w
  2144  05A8  1103               	clrz
  2145  05A9  1803               	skipnc
  2146  05AA  3E01               	addlw	1
  2147  05AB  1903               	skipnz
  2148  05AC  2DAE               	goto	u1661
  2149  05AD  07B0               	addwf	___flmul@prod+1,f
  2150  05AE                     u1661:
  2151  05AE  087B               	movf	??___flmul+2,w
  2152  05AF  1103               	clrz
  2153  05B0  1803               	skipnc
  2154  05B1  3E01               	addlw	1
  2155  05B2  1903               	skipnz
  2156  05B3  2DB5               	goto	u1662
  2157  05B4  07B1               	addwf	___flmul@prod+2,f
  2158  05B5                     u1662:
  2159  05B5  087C               	movf	??___flmul+3,w
  2160  05B6  1103               	clrz
  2161  05B7  1803               	skipnc
  2162  05B8  3E01               	addlw	1
  2163  05B9  1903               	skipnz
  2164  05BA  2DBC               	goto	u1663
  2165  05BB  07B2               	addwf	___flmul@prod+3,f
  2166  05BC                     u1663:
  2167  05BC                     l1422:
  2168  05BC  3008               	movlw	8
  2169  05BD  00F9               	movwf	??___flmul
  2170  05BE                     u1675:
  2171  05BE  1003               	clrc
  2172  05BF  0DA9               	rlf	___flmul@grs,f
  2173  05C0  0DAA               	rlf	___flmul@grs+1,f
  2174  05C1  0DAB               	rlf	___flmul@grs+2,f
  2175  05C2  0DAC               	rlf	___flmul@grs+3,f
  2176  05C3  0BF9               	decfsz	??___flmul,f
  2177  05C4  2DBE               	goto	u1675
  2178  05C5                     l1424:
  2179  05C5  0821               	movf	___flmul@b+1,w
  2180  05C6  00F9               	movwf	??___flmul
  2181  05C7  0879               	movf	??___flmul,w
  2182  05C8  00F0               	movwf	__Umul8_16@multiplicand
  2183  05C9  0824               	movf	___flmul@a,w
  2184  05CA  120A  118A  200C  120A  118A  	fcall	__Umul8_16
  2185  05CF  0871               	movf	?__Umul8_16+1,w
  2186  05D0  1283               	bcf	3,5	;RP0=0, select bank0
  2187  05D1  1303               	bcf	3,6	;RP1=0, select bank0
  2188  05D2  00B4               	movwf	___flmul@temp+1
  2189  05D3  0870               	movf	?__Umul8_16,w
  2190  05D4  00B3               	movwf	___flmul@temp
  2191  05D5                     l1426:
  2192  05D5  0833               	movf	___flmul@temp,w
  2193  05D6  00F9               	movwf	??___flmul
  2194  05D7  0834               	movf	___flmul@temp+1,w
  2195  05D8  00FA               	movwf	??___flmul+1
  2196  05D9  01FB               	clrf	??___flmul+2
  2197  05DA  01FC               	clrf	??___flmul+3
  2198  05DB  0879               	movf	??___flmul,w
  2199  05DC  07A9               	addwf	___flmul@grs,f
  2200  05DD  087A               	movf	??___flmul+1,w
  2201  05DE  1103               	clrz
  2202  05DF  1803               	skipnc
  2203  05E0  3E01               	addlw	1
  2204  05E1  1903               	skipnz
  2205  05E2  2DE4               	goto	u1681
  2206  05E3  07AA               	addwf	___flmul@grs+1,f
  2207  05E4                     u1681:
  2208  05E4  087B               	movf	??___flmul+2,w
  2209  05E5  1103               	clrz
  2210  05E6  1803               	skipnc
  2211  05E7  3E01               	addlw	1
  2212  05E8  1903               	skipnz
  2213  05E9  2DEB               	goto	u1682
  2214  05EA  07AB               	addwf	___flmul@grs+2,f
  2215  05EB                     u1682:
  2216  05EB  087C               	movf	??___flmul+3,w
  2217  05EC  1103               	clrz
  2218  05ED  1803               	skipnc
  2219  05EE  3E01               	addlw	1
  2220  05EF  1903               	skipnz
  2221  05F0  2DF2               	goto	u1683
  2222  05F1  07AC               	addwf	___flmul@grs+3,f
  2223  05F2                     u1683:
  2224  05F2                     l1428:
  2225  05F2  0820               	movf	___flmul@b,w
  2226  05F3  00F9               	movwf	??___flmul
  2227  05F4  0879               	movf	??___flmul,w
  2228  05F5  00F0               	movwf	__Umul8_16@multiplicand
  2229  05F6  0825               	movf	___flmul@a+1,w
  2230  05F7  120A  118A  200C  120A  118A  	fcall	__Umul8_16
  2231  05FC  0871               	movf	?__Umul8_16+1,w
  2232  05FD  1283               	bcf	3,5	;RP0=0, select bank0
  2233  05FE  1303               	bcf	3,6	;RP1=0, select bank0
  2234  05FF  00B4               	movwf	___flmul@temp+1
  2235  0600  0870               	movf	?__Umul8_16,w
  2236  0601  00B3               	movwf	___flmul@temp
  2237  0602                     l1430:
  2238  0602  0833               	movf	___flmul@temp,w
  2239  0603  00F9               	movwf	??___flmul
  2240  0604  0834               	movf	___flmul@temp+1,w
  2241  0605  00FA               	movwf	??___flmul+1
  2242  0606  01FB               	clrf	??___flmul+2
  2243  0607  01FC               	clrf	??___flmul+3
  2244  0608  0879               	movf	??___flmul,w
  2245  0609  07A9               	addwf	___flmul@grs,f
  2246  060A  087A               	movf	??___flmul+1,w
  2247  060B  1103               	clrz
  2248  060C  1803               	skipnc
  2249  060D  3E01               	addlw	1
  2250  060E  1903               	skipnz
  2251  060F  2E11               	goto	u1691
  2252  0610  07AA               	addwf	___flmul@grs+1,f
  2253  0611                     u1691:
  2254  0611  087B               	movf	??___flmul+2,w
  2255  0612  1103               	clrz
  2256  0613  1803               	skipnc
  2257  0614  3E01               	addlw	1
  2258  0615  1903               	skipnz
  2259  0616  2E18               	goto	u1692
  2260  0617  07AB               	addwf	___flmul@grs+2,f
  2261  0618                     u1692:
  2262  0618  087C               	movf	??___flmul+3,w
  2263  0619  1103               	clrz
  2264  061A  1803               	skipnc
  2265  061B  3E01               	addlw	1
  2266  061C  1903               	skipnz
  2267  061D  2E1F               	goto	u1693
  2268  061E  07AC               	addwf	___flmul@grs+3,f
  2269  061F                     u1693:
  2270  061F                     l1432:
  2271  061F  3008               	movlw	8
  2272  0620  00F9               	movwf	??___flmul
  2273  0621                     u1705:
  2274  0621  1003               	clrc
  2275  0622  0DA9               	rlf	___flmul@grs,f
  2276  0623  0DAA               	rlf	___flmul@grs+1,f
  2277  0624  0DAB               	rlf	___flmul@grs+2,f
  2278  0625  0DAC               	rlf	___flmul@grs+3,f
  2279  0626  0BF9               	decfsz	??___flmul,f
  2280  0627  2E21               	goto	u1705
  2281  0628  0820               	movf	___flmul@b,w
  2282  0629  00F9               	movwf	??___flmul
  2283  062A  0879               	movf	??___flmul,w
  2284  062B  00F0               	movwf	__Umul8_16@multiplicand
  2285  062C  0824               	movf	___flmul@a,w
  2286  062D  120A  118A  200C  120A  118A  	fcall	__Umul8_16
  2287  0632  0871               	movf	?__Umul8_16+1,w
  2288  0633  1283               	bcf	3,5	;RP0=0, select bank0
  2289  0634  1303               	bcf	3,6	;RP1=0, select bank0
  2290  0635  00B4               	movwf	___flmul@temp+1
  2291  0636  0870               	movf	?__Umul8_16,w
  2292  0637  00B3               	movwf	___flmul@temp
  2293  0638                     l1434:
  2294  0638  0833               	movf	___flmul@temp,w
  2295  0639  00F9               	movwf	??___flmul
  2296  063A  0834               	movf	___flmul@temp+1,w
  2297  063B  00FA               	movwf	??___flmul+1
  2298  063C  01FB               	clrf	??___flmul+2
  2299  063D  01FC               	clrf	??___flmul+3
  2300  063E  0879               	movf	??___flmul,w
  2301  063F  07A9               	addwf	___flmul@grs,f
  2302  0640  087A               	movf	??___flmul+1,w
  2303  0641  1103               	clrz
  2304  0642  1803               	skipnc
  2305  0643  3E01               	addlw	1
  2306  0644  1903               	skipnz
  2307  0645  2E47               	goto	u1711
  2308  0646  07AA               	addwf	___flmul@grs+1,f
  2309  0647                     u1711:
  2310  0647  087B               	movf	??___flmul+2,w
  2311  0648  1103               	clrz
  2312  0649  1803               	skipnc
  2313  064A  3E01               	addlw	1
  2314  064B  1903               	skipnz
  2315  064C  2E4E               	goto	u1712
  2316  064D  07AB               	addwf	___flmul@grs+2,f
  2317  064E                     u1712:
  2318  064E  087C               	movf	??___flmul+3,w
  2319  064F  1103               	clrz
  2320  0650  1803               	skipnc
  2321  0651  3E01               	addlw	1
  2322  0652  1903               	skipnz
  2323  0653  2E55               	goto	u1713
  2324  0654  07AC               	addwf	___flmul@grs+3,f
  2325  0655                     u1713:
  2326  0655                     l1436:
  2327  0655  0821               	movf	___flmul@b+1,w
  2328  0656  00F9               	movwf	??___flmul
  2329  0657  0879               	movf	??___flmul,w
  2330  0658  00F0               	movwf	__Umul8_16@multiplicand
  2331  0659  0826               	movf	___flmul@a+2,w
  2332  065A  120A  118A  200C  120A  118A  	fcall	__Umul8_16
  2333  065F  0871               	movf	?__Umul8_16+1,w
  2334  0660  1283               	bcf	3,5	;RP0=0, select bank0
  2335  0661  1303               	bcf	3,6	;RP1=0, select bank0
  2336  0662  00B4               	movwf	___flmul@temp+1
  2337  0663  0870               	movf	?__Umul8_16,w
  2338  0664  00B3               	movwf	___flmul@temp
  2339  0665  0833               	movf	___flmul@temp,w
  2340  0666  00F9               	movwf	??___flmul
  2341  0667  0834               	movf	___flmul@temp+1,w
  2342  0668  00FA               	movwf	??___flmul+1
  2343  0669  01FB               	clrf	??___flmul+2
  2344  066A  01FC               	clrf	??___flmul+3
  2345  066B  0879               	movf	??___flmul,w
  2346  066C  07AF               	addwf	___flmul@prod,f
  2347  066D  087A               	movf	??___flmul+1,w
  2348  066E  1103               	clrz
  2349  066F  1803               	skipnc
  2350  0670  3E01               	addlw	1
  2351  0671  1903               	skipnz
  2352  0672  2E74               	goto	u1721
  2353  0673  07B0               	addwf	___flmul@prod+1,f
  2354  0674                     u1721:
  2355  0674  087B               	movf	??___flmul+2,w
  2356  0675  1103               	clrz
  2357  0676  1803               	skipnc
  2358  0677  3E01               	addlw	1
  2359  0678  1903               	skipnz
  2360  0679  2E7B               	goto	u1722
  2361  067A  07B1               	addwf	___flmul@prod+2,f
  2362  067B                     u1722:
  2363  067B  087C               	movf	??___flmul+3,w
  2364  067C  1103               	clrz
  2365  067D  1803               	skipnc
  2366  067E  3E01               	addlw	1
  2367  067F  1903               	skipnz
  2368  0680  2E82               	goto	u1723
  2369  0681  07B2               	addwf	___flmul@prod+3,f
  2370  0682                     u1723:
  2371  0682                     l1438:
  2372  0682  0822               	movf	___flmul@b+2,w
  2373  0683  00F9               	movwf	??___flmul
  2374  0684  0879               	movf	??___flmul,w
  2375  0685  00F0               	movwf	__Umul8_16@multiplicand
  2376  0686  0825               	movf	___flmul@a+1,w
  2377  0687  120A  118A  200C  120A  118A  	fcall	__Umul8_16
  2378  068C  0871               	movf	?__Umul8_16+1,w
  2379  068D  1283               	bcf	3,5	;RP0=0, select bank0
  2380  068E  1303               	bcf	3,6	;RP1=0, select bank0
  2381  068F  00B4               	movwf	___flmul@temp+1
  2382  0690  0870               	movf	?__Umul8_16,w
  2383  0691  00B3               	movwf	___flmul@temp
  2384  0692                     l1440:
  2385  0692  0833               	movf	___flmul@temp,w
  2386  0693  00F9               	movwf	??___flmul
  2387  0694  0834               	movf	___flmul@temp+1,w
  2388  0695  00FA               	movwf	??___flmul+1
  2389  0696  01FB               	clrf	??___flmul+2
  2390  0697  01FC               	clrf	??___flmul+3
  2391  0698  0879               	movf	??___flmul,w
  2392  0699  07AF               	addwf	___flmul@prod,f
  2393  069A  087A               	movf	??___flmul+1,w
  2394  069B  1103               	clrz
  2395  069C  1803               	skipnc
  2396  069D  3E01               	addlw	1
  2397  069E  1903               	skipnz
  2398  069F  2EA1               	goto	u1731
  2399  06A0  07B0               	addwf	___flmul@prod+1,f
  2400  06A1                     u1731:
  2401  06A1  087B               	movf	??___flmul+2,w
  2402  06A2  1103               	clrz
  2403  06A3  1803               	skipnc
  2404  06A4  3E01               	addlw	1
  2405  06A5  1903               	skipnz
  2406  06A6  2EA8               	goto	u1732
  2407  06A7  07B1               	addwf	___flmul@prod+2,f
  2408  06A8                     u1732:
  2409  06A8  087C               	movf	??___flmul+3,w
  2410  06A9  1103               	clrz
  2411  06AA  1803               	skipnc
  2412  06AB  3E01               	addlw	1
  2413  06AC  1903               	skipnz
  2414  06AD  2EAF               	goto	u1733
  2415  06AE  07B2               	addwf	___flmul@prod+3,f
  2416  06AF                     u1733:
  2417  06AF  0822               	movf	___flmul@b+2,w
  2418  06B0  00F9               	movwf	??___flmul
  2419  06B1  0879               	movf	??___flmul,w
  2420  06B2  00F0               	movwf	__Umul8_16@multiplicand
  2421  06B3  0826               	movf	___flmul@a+2,w
  2422  06B4  120A  118A  200C  120A  118A  	fcall	__Umul8_16
  2423  06B9  0871               	movf	?__Umul8_16+1,w
  2424  06BA  1283               	bcf	3,5	;RP0=0, select bank0
  2425  06BB  1303               	bcf	3,6	;RP1=0, select bank0
  2426  06BC  00B4               	movwf	___flmul@temp+1
  2427  06BD  0870               	movf	?__Umul8_16,w
  2428  06BE  00B3               	movwf	___flmul@temp
  2429  06BF                     l1442:
  2430  06BF  0833               	movf	___flmul@temp,w
  2431  06C0  00F9               	movwf	??___flmul
  2432  06C1  0834               	movf	___flmul@temp+1,w
  2433  06C2  00FA               	movwf	??___flmul+1
  2434  06C3  01FB               	clrf	??___flmul+2
  2435  06C4  01FC               	clrf	??___flmul+3
  2436  06C5  3008               	movlw	8
  2437  06C6                     u1745:
  2438  06C6  1003               	clrc
  2439  06C7  0DF9               	rlf	??___flmul,f
  2440  06C8  0DFA               	rlf	??___flmul+1,f
  2441  06C9  0DFB               	rlf	??___flmul+2,f
  2442  06CA  0DFC               	rlf	??___flmul+3,f
  2443  06CB                     u1740:
  2444  06CB  3EFF               	addlw	-1
  2445  06CC  1D03               	skipz
  2446  06CD  2EC6               	goto	u1745
  2447  06CE  0879               	movf	??___flmul,w
  2448  06CF  07AF               	addwf	___flmul@prod,f
  2449  06D0  087A               	movf	??___flmul+1,w
  2450  06D1  1103               	clrz
  2451  06D2  1803               	skipnc
  2452  06D3  3E01               	addlw	1
  2453  06D4  1903               	skipnz
  2454  06D5  2ED7               	goto	u1751
  2455  06D6  07B0               	addwf	___flmul@prod+1,f
  2456  06D7                     u1751:
  2457  06D7  087B               	movf	??___flmul+2,w
  2458  06D8  1103               	clrz
  2459  06D9  1803               	skipnc
  2460  06DA  3E01               	addlw	1
  2461  06DB  1903               	skipnz
  2462  06DC  2EDE               	goto	u1752
  2463  06DD  07B1               	addwf	___flmul@prod+2,f
  2464  06DE                     u1752:
  2465  06DE  087C               	movf	??___flmul+3,w
  2466  06DF  1103               	clrz
  2467  06E0  1803               	skipnc
  2468  06E1  3E01               	addlw	1
  2469  06E2  1903               	skipnz
  2470  06E3  2EE5               	goto	u1753
  2471  06E4  07B2               	addwf	___flmul@prod+3,f
  2472  06E5                     u1753:
  2473  06E5                     l1444:
  2474  06E5  0829               	movf	___flmul@grs,w
  2475  06E6  00F9               	movwf	??___flmul
  2476  06E7  082A               	movf	___flmul@grs+1,w
  2477  06E8  00FA               	movwf	??___flmul+1
  2478  06E9  082B               	movf	___flmul@grs+2,w
  2479  06EA  00FB               	movwf	??___flmul+2
  2480  06EB  082C               	movf	___flmul@grs+3,w
  2481  06EC  00FC               	movwf	??___flmul+3
  2482  06ED  3018               	movlw	24
  2483  06EE                     u1765:
  2484  06EE  1003               	clrc
  2485  06EF  0CFC               	rrf	??___flmul+3,f
  2486  06F0  0CFB               	rrf	??___flmul+2,f
  2487  06F1  0CFA               	rrf	??___flmul+1,f
  2488  06F2  0CF9               	rrf	??___flmul,f
  2489  06F3                     u1760:
  2490  06F3  3EFF               	addlw	-1
  2491  06F4  1D03               	skipz
  2492  06F5  2EEE               	goto	u1765
  2493  06F6  0879               	movf	??___flmul,w
  2494  06F7  07AF               	addwf	___flmul@prod,f
  2495  06F8  087A               	movf	??___flmul+1,w
  2496  06F9  1103               	clrz
  2497  06FA  1803               	skipnc
  2498  06FB  3E01               	addlw	1
  2499  06FC  1903               	skipnz
  2500  06FD  2EFF               	goto	u1771
  2501  06FE  07B0               	addwf	___flmul@prod+1,f
  2502  06FF                     u1771:
  2503  06FF  087B               	movf	??___flmul+2,w
  2504  0700  1103               	clrz
  2505  0701  1803               	skipnc
  2506  0702  3E01               	addlw	1
  2507  0703  1903               	skipnz
  2508  0704  2F06               	goto	u1772
  2509  0705  07B1               	addwf	___flmul@prod+2,f
  2510  0706                     u1772:
  2511  0706  087C               	movf	??___flmul+3,w
  2512  0707  1103               	clrz
  2513  0708  1803               	skipnc
  2514  0709  3E01               	addlw	1
  2515  070A  1903               	skipnz
  2516  070B  2F0D               	goto	u1773
  2517  070C  07B2               	addwf	___flmul@prod+3,f
  2518  070D                     u1773:
  2519  070D                     l1446:
  2520  070D  3008               	movlw	8
  2521  070E  00F9               	movwf	??___flmul
  2522  070F                     u1785:
  2523  070F  1003               	clrc
  2524  0710  0DA9               	rlf	___flmul@grs,f
  2525  0711  0DAA               	rlf	___flmul@grs+1,f
  2526  0712  0DAB               	rlf	___flmul@grs+2,f
  2527  0713  0DAC               	rlf	___flmul@grs+3,f
  2528  0714  0BF9               	decfsz	??___flmul,f
  2529  0715  2F0F               	goto	u1785
  2530  0716                     l1448:
  2531  0716  082E               	movf	___flmul@bexp,w
  2532  0717  072D               	addwf	___flmul@aexp,w
  2533  0718  00F9               	movwf	??___flmul
  2534  0719  01FA               	clrf	??___flmul+1
  2535  071A  0DFA               	rlf	??___flmul+1,f
  2536  071B  0879               	movf	??___flmul,w
  2537  071C  3E82               	addlw	130
  2538  071D  00B3               	movwf	___flmul@temp
  2539  071E  087A               	movf	??___flmul+1,w
  2540  071F  1803               	skipnc
  2541  0720  3E01               	addlw	1
  2542  0721  3EFF               	addlw	255
  2543  0722  00B4               	movwf	___flmul@temp+1
  2544  0723  2F41               	goto	l1460
  2545  0724                     l1450:
  2546  0724  3001               	movlw	1
  2547  0725  00F9               	movwf	??___flmul
  2548  0726                     u1795:
  2549  0726  1003               	clrc
  2550  0727  0DAF               	rlf	___flmul@prod,f
  2551  0728  0DB0               	rlf	___flmul@prod+1,f
  2552  0729  0DB1               	rlf	___flmul@prod+2,f
  2553  072A  0DB2               	rlf	___flmul@prod+3,f
  2554  072B  0BF9               	decfsz	??___flmul,f
  2555  072C  2F26               	goto	u1795
  2556  072D                     l1452:
  2557  072D  1FAC               	btfss	___flmul@grs+3,7
  2558  072E  2F30               	goto	u1801
  2559  072F  2F31               	goto	u1800
  2560  0730                     u1801:
  2561  0730  2F32               	goto	l1456
  2562  0731                     u1800:
  2563  0731                     l1454:
  2564  0731  142F               	bsf	___flmul@prod,0
  2565  0732                     l1456:
  2566  0732  3001               	movlw	1
  2567  0733  00F9               	movwf	??___flmul
  2568  0734                     u1815:
  2569  0734  1003               	clrc
  2570  0735  0DA9               	rlf	___flmul@grs,f
  2571  0736  0DAA               	rlf	___flmul@grs+1,f
  2572  0737  0DAB               	rlf	___flmul@grs+2,f
  2573  0738  0DAC               	rlf	___flmul@grs+3,f
  2574  0739  0BF9               	decfsz	??___flmul,f
  2575  073A  2F34               	goto	u1815
  2576  073B                     l1458:
  2577  073B  30FF               	movlw	255
  2578  073C  07B3               	addwf	___flmul@temp,f
  2579  073D  1803               	skipnc
  2580  073E  0AB4               	incf	___flmul@temp+1,f
  2581  073F  30FF               	movlw	255
  2582  0740  07B4               	addwf	___flmul@temp+1,f
  2583  0741                     l1460:
  2584  0741  1FB1               	btfss	___flmul@prod+2,7
  2585  0742  2F44               	goto	u1821
  2586  0743  2F45               	goto	u1820
  2587  0744                     u1821:
  2588  0744  2F24               	goto	l1450
  2589  0745                     u1820:
  2590  0745                     l1462:
  2591  0745  01AD               	clrf	___flmul@aexp
  2592  0746                     l1464:
  2593  0746  1FAC               	btfss	___flmul@grs+3,7
  2594  0747  2F49               	goto	u1831
  2595  0748  2F4A               	goto	u1830
  2596  0749                     u1831:
  2597  0749  2F66               	goto	l1472
  2598  074A                     u1830:
  2599  074A                     l1466:
  2600  074A  30FF               	movlw	255
  2601  074B  0529               	andwf	___flmul@grs,w
  2602  074C  00F9               	movwf	??___flmul
  2603  074D  30FF               	movlw	255
  2604  074E  052A               	andwf	___flmul@grs+1,w
  2605  074F  00FA               	movwf	??___flmul+1
  2606  0750  30FF               	movlw	255
  2607  0751  052B               	andwf	___flmul@grs+2,w
  2608  0752  00FB               	movwf	??___flmul+2
  2609  0753  307F               	movlw	127
  2610  0754  052C               	andwf	___flmul@grs+3,w
  2611  0755  00FC               	movwf	??___flmul+3
  2612  0756  087C               	movf	??___flmul+3,w
  2613  0757  047B               	iorwf	??___flmul+2,w
  2614  0758  047A               	iorwf	??___flmul+1,w
  2615  0759  0479               	iorwf	??___flmul,w
  2616  075A  1903               	skipnz
  2617  075B  2F5D               	goto	u1841
  2618  075C  2F5E               	goto	u1840
  2619  075D                     u1841:
  2620  075D  2F61               	goto	l559
  2621  075E                     u1840:
  2622  075E                     l1468:
  2623  075E  01AD               	clrf	___flmul@aexp
  2624  075F  0AAD               	incf	___flmul@aexp,f
  2625  0760  2F66               	goto	l1472
  2626  0761                     l559:
  2627  0761  1C2F               	btfss	___flmul@prod,0
  2628  0762  2F64               	goto	u1851
  2629  0763  2F65               	goto	u1850
  2630  0764                     u1851:
  2631  0764  2F66               	goto	l1472
  2632  0765                     u1850:
  2633  0765  2F5E               	goto	l1468
  2634  0766                     l1472:
  2635  0766  082D               	movf	___flmul@aexp,w
  2636  0767  1903               	btfsc	3,2
  2637  0768  2F6A               	goto	u1861
  2638  0769  2F6B               	goto	u1860
  2639  076A                     u1861:
  2640  076A  2F9C               	goto	l1482
  2641  076B                     u1860:
  2642  076B                     l1474:
  2643  076B  3001               	movlw	1
  2644  076C  07AF               	addwf	___flmul@prod,f
  2645  076D  3000               	movlw	0
  2646  076E  1803               	skipnc
  2647  076F  3001               	movlw	1
  2648  0770  07B0               	addwf	___flmul@prod+1,f
  2649  0771  3000               	movlw	0
  2650  0772  1803               	skipnc
  2651  0773  3001               	movlw	1
  2652  0774  07B1               	addwf	___flmul@prod+2,f
  2653  0775  3000               	movlw	0
  2654  0776  1803               	skipnc
  2655  0777  3001               	movlw	1
  2656  0778  07B2               	addwf	___flmul@prod+3,f
  2657  0779                     l1476:
  2658  0779  1C32               	btfss	___flmul@prod+3,0
  2659  077A  2F7C               	goto	u1871
  2660  077B  2F7D               	goto	u1870
  2661  077C                     u1871:
  2662  077C  2F9C               	goto	l1482
  2663  077D                     u1870:
  2664  077D                     l1478:
  2665  077D  082F               	movf	___flmul@prod,w
  2666  077E  00F9               	movwf	??___flmul
  2667  077F  0830               	movf	___flmul@prod+1,w
  2668  0780  00FA               	movwf	??___flmul+1
  2669  0781  0831               	movf	___flmul@prod+2,w
  2670  0782  00FB               	movwf	??___flmul+2
  2671  0783  0832               	movf	___flmul@prod+3,w
  2672  0784  00FC               	movwf	??___flmul+3
  2673  0785  3001               	movlw	1
  2674  0786  00FD               	movwf	??___flmul+4
  2675  0787                     u1885:
  2676  0787  0D7C               	rlf	??___flmul+3,w
  2677  0788  0CFC               	rrf	??___flmul+3,f
  2678  0789  0CFB               	rrf	??___flmul+2,f
  2679  078A  0CFA               	rrf	??___flmul+1,f
  2680  078B  0CF9               	rrf	??___flmul,f
  2681  078C                     u1880:
  2682  078C  0BFD               	decfsz	??___flmul+4,f
  2683  078D  2F87               	goto	u1885
  2684  078E  087C               	movf	??___flmul+3,w
  2685  078F  00B2               	movwf	___flmul@prod+3
  2686  0790  087B               	movf	??___flmul+2,w
  2687  0791  00B1               	movwf	___flmul@prod+2
  2688  0792  087A               	movf	??___flmul+1,w
  2689  0793  00B0               	movwf	___flmul@prod+1
  2690  0794  0879               	movf	??___flmul,w
  2691  0795  00AF               	movwf	___flmul@prod
  2692  0796                     l1480:
  2693  0796  3001               	movlw	1
  2694  0797  07B3               	addwf	___flmul@temp,f
  2695  0798  1803               	skipnc
  2696  0799  0AB4               	incf	___flmul@temp+1,f
  2697  079A  3000               	movlw	0
  2698  079B  07B4               	addwf	___flmul@temp+1,f
  2699  079C                     l1482:
  2700  079C  0834               	movf	___flmul@temp+1,w
  2701  079D  3A80               	xorlw	128
  2702  079E  00FF               	movwf	btemp+1
  2703  079F  3080               	movlw	128
  2704  07A0  027F               	subwf	btemp+1,w
  2705  07A1  1D03               	skipz
  2706  07A2  2FA5               	goto	u1895
  2707  07A3  30FF               	movlw	255
  2708  07A4  0233               	subwf	___flmul@temp,w
  2709  07A5                     u1895:
  2710  07A5  1C03               	skipc
  2711  07A6  2FA8               	goto	u1891
  2712  07A7  2FA9               	goto	u1890
  2713  07A8                     u1891:
  2714  07A8  2FB4               	goto	l1486
  2715  07A9                     u1890:
  2716  07A9                     l1484:
  2717  07A9  307F               	movlw	127
  2718  07AA  1283               	bcf	3,5	;RP0=0, select bank0
  2719  07AB  1303               	bcf	3,6	;RP1=0, select bank0
  2720  07AC  00B2               	movwf	___flmul@prod+3
  2721  07AD  3080               	movlw	128
  2722  07AE  00B1               	movwf	___flmul@prod+2
  2723  07AF  3000               	movlw	0
  2724  07B0  00B0               	movwf	___flmul@prod+1
  2725  07B1  3000               	movlw	0
  2726  07B2  00AF               	movwf	___flmul@prod
  2727  07B3  2FE9               	goto	l565
  2728  07B4                     l1486:
  2729  07B4  1283               	bcf	3,5	;RP0=0, select bank0
  2730  07B5  1303               	bcf	3,6	;RP1=0, select bank0
  2731  07B6  0834               	movf	___flmul@temp+1,w
  2732  07B7  3A80               	xorlw	128
  2733  07B8  00FF               	movwf	btemp+1
  2734  07B9  3080               	movlw	128
  2735  07BA  027F               	subwf	btemp+1,w
  2736  07BB  1D03               	skipz
  2737  07BC  2FBF               	goto	u1905
  2738  07BD  3001               	movlw	1
  2739  07BE  0233               	subwf	___flmul@temp,w
  2740  07BF                     u1905:
  2741  07BF  1803               	skipnc
  2742  07C0  2FC2               	goto	u1901
  2743  07C1  2FC3               	goto	u1900
  2744  07C2                     u1901:
  2745  07C2  2FCF               	goto	l1492
  2746  07C3                     u1900:
  2747  07C3                     l1488:
  2748  07C3  3000               	movlw	0
  2749  07C4  1283               	bcf	3,5	;RP0=0, select bank0
  2750  07C5  1303               	bcf	3,6	;RP1=0, select bank0
  2751  07C6  00B2               	movwf	___flmul@prod+3
  2752  07C7  3000               	movlw	0
  2753  07C8  00B1               	movwf	___flmul@prod+2
  2754  07C9  3000               	movlw	0
  2755  07CA  00B0               	movwf	___flmul@prod+1
  2756  07CB  3000               	movlw	0
  2757  07CC  00AF               	movwf	___flmul@prod
  2758  07CD                     l1490:
  2759  07CD  01A8               	clrf	___flmul@sign
  2760  07CE  2FE9               	goto	l565
  2761  07CF                     l1492:
  2762  07CF  1283               	bcf	3,5	;RP0=0, select bank0
  2763  07D0  1303               	bcf	3,6	;RP1=0, select bank0
  2764  07D1  0833               	movf	___flmul@temp,w
  2765  07D2  00F9               	movwf	??___flmul
  2766  07D3  0879               	movf	??___flmul,w
  2767  07D4  00AE               	movwf	___flmul@bexp
  2768  07D5  30FF               	movlw	255
  2769  07D6  05AF               	andwf	___flmul@prod,f
  2770  07D7  30FF               	movlw	255
  2771  07D8  05B0               	andwf	___flmul@prod+1,f
  2772  07D9  307F               	movlw	127
  2773  07DA  05B1               	andwf	___flmul@prod+2,f
  2774  07DB  3000               	movlw	0
  2775  07DC  05B2               	andwf	___flmul@prod+3,f
  2776  07DD                     l1494:
  2777  07DD  1C2E               	btfss	___flmul@bexp,0
  2778  07DE  2FE0               	goto	u1911
  2779  07DF  2FE1               	goto	u1910
  2780  07E0                     u1911:
  2781  07E0  2FE2               	goto	l1498
  2782  07E1                     u1910:
  2783  07E1                     l1496:
  2784  07E1  17B1               	bsf	___flmul@prod+2,7
  2785  07E2                     l1498:
  2786  07E2  082E               	movf	___flmul@bexp,w
  2787  07E3  00F9               	movwf	??___flmul
  2788  07E4  1003               	clrc
  2789  07E5  0C79               	rrf	??___flmul,w
  2790  07E6  00FA               	movwf	??___flmul+1
  2791  07E7  087A               	movf	??___flmul+1,w
  2792  07E8  00B2               	movwf	___flmul@prod+3
  2793  07E9                     l565:
  2794  07E9  0828               	movf	___flmul@sign,w
  2795  07EA  00F9               	movwf	??___flmul
  2796  07EB  0879               	movf	??___flmul,w
  2797  07EC  04B2               	iorwf	___flmul@prod+3,f
  2798  07ED                     l1500:
  2799  07ED  0832               	movf	___flmul@prod+3,w
  2800  07EE  00A3               	movwf	?___flmul+3
  2801  07EF  0831               	movf	___flmul@prod+2,w
  2802  07F0  00A2               	movwf	?___flmul+2
  2803  07F1  0830               	movf	___flmul@prod+1,w
  2804  07F2  00A1               	movwf	?___flmul+1
  2805  07F3  082F               	movf	___flmul@prod,w
  2806  07F4  00A0               	movwf	?___flmul
  2807  07F5                     l553:
  2808  07F5  0008               	return
  2809  07F6                     __end_of___flmul:
  2810                           
  2811                           	psect	text7
  2812  000C                     __ptext7:	
  2813 ;; *************** function __Umul8_16 *****************
  2814 ;; Defined at:
  2815 ;;		line 4 in file "C:\Program Files\Microchip\xc8\v2.32\pic\sources\c90\common\Umul8_16.c"
  2816 ;; Parameters:    Size  Location     Type
  2817 ;;  multiplier      1    wreg     unsigned char 
  2818 ;;  multiplicand    1    0[COMMON] unsigned char 
  2819 ;; Auto vars:     Size  Location     Type
  2820 ;;  multiplier      1    8[COMMON] unsigned char 
  2821 ;;  word_mpld       2    6[COMMON] unsigned int 
  2822 ;;  product         2    4[COMMON] unsigned int 
  2823 ;; Return value:  Size  Location     Type
  2824 ;;                  2    0[COMMON] unsigned int 
  2825 ;; Registers used:
  2826 ;;		wreg, status,2, status,0
  2827 ;; Tracked objects:
  2828 ;;		On entry : 0/0
  2829 ;;		On exit  : 0/0
  2830 ;;		Unchanged: 0/0
  2831 ;; Data sizes:     COMMON   BANK0   BANK1   BANK3   BANK2
  2832 ;;      Params:         2       0       0       0       0
  2833 ;;      Locals:         5       0       0       0       0
  2834 ;;      Temps:          2       0       0       0       0
  2835 ;;      Totals:         9       0       0       0       0
  2836 ;;Total ram usage:        9 bytes
  2837 ;; Hardware stack levels used: 1
  2838 ;; This function calls:
  2839 ;;		Nothing
  2840 ;; This function is called by:
  2841 ;;		___flmul
  2842 ;; This function uses a non-reentrant model
  2843 ;;
  2844                           
  2845                           
  2846                           ;psect for function __Umul8_16
  2847  000C                     __Umul8_16:
  2848                           
  2849                           ;incstack = 0
  2850                           ; Regs used in __Umul8_16: [wreg+status,2+status,0]
  2851                           ;__Umul8_16@multiplier stored from wreg
  2852  000C  00F8               	movwf	__Umul8_16@multiplier
  2853  000D                     l1200:
  2854  000D  01F4               	clrf	__Umul8_16@product
  2855  000E  01F5               	clrf	__Umul8_16@product+1
  2856  000F                     l1202:
  2857  000F  0870               	movf	__Umul8_16@multiplicand,w
  2858  0010  00F2               	movwf	??__Umul8_16
  2859  0011  01F3               	clrf	??__Umul8_16+1
  2860  0012  0872               	movf	??__Umul8_16,w
  2861  0013  00F6               	movwf	__Umul8_16@word_mpld
  2862  0014  0873               	movf	??__Umul8_16+1,w
  2863  0015  00F7               	movwf	__Umul8_16@word_mpld+1
  2864  0016                     l1204:
  2865  0016  1C78               	btfss	__Umul8_16@multiplier,0
  2866  0017  2819               	goto	u1171
  2867  0018  281A               	goto	u1170
  2868  0019                     u1171:
  2869  0019  2820               	goto	l572
  2870  001A                     u1170:
  2871  001A                     l1206:
  2872  001A  0876               	movf	__Umul8_16@word_mpld,w
  2873  001B  07F4               	addwf	__Umul8_16@product,f
  2874  001C  1803               	skipnc
  2875  001D  0AF5               	incf	__Umul8_16@product+1,f
  2876  001E  0877               	movf	__Umul8_16@word_mpld+1,w
  2877  001F  07F5               	addwf	__Umul8_16@product+1,f
  2878  0020                     l572:
  2879  0020  3001               	movlw	1
  2880  0021                     u1185:
  2881  0021  1003               	clrc
  2882  0022  0DF6               	rlf	__Umul8_16@word_mpld,f
  2883  0023  0DF7               	rlf	__Umul8_16@word_mpld+1,f
  2884  0024  3EFF               	addlw	-1
  2885  0025  1D03               	skipz
  2886  0026  2821               	goto	u1185
  2887  0027  1003               	clrc
  2888  0028  0CF8               	rrf	__Umul8_16@multiplier,f
  2889  0029                     l1208:
  2890  0029  0878               	movf	__Umul8_16@multiplier,w
  2891  002A  1D03               	btfss	3,2
  2892  002B  282D               	goto	u1191
  2893  002C  282E               	goto	u1190
  2894  002D                     u1191:
  2895  002D  2816               	goto	l1204
  2896  002E                     u1190:
  2897  002E                     l1210:
  2898  002E  0875               	movf	__Umul8_16@product+1,w
  2899  002F  00F1               	movwf	?__Umul8_16+1
  2900  0030  0874               	movf	__Umul8_16@product,w
  2901  0031  00F0               	movwf	?__Umul8_16
  2902  0032                     l574:
  2903  0032  0008               	return
  2904  0033                     __end_of__Umul8_16:
  2905                           
  2906                           	psect	text8
  2907  0F40                     __ptext8:	
  2908 ;; *************** function ___awmod *****************
  2909 ;; Defined at:
  2910 ;;		line 5 in file "C:\Program Files\Microchip\xc8\v2.32\pic\sources\c90\common\awmod.c"
  2911 ;; Parameters:    Size  Location     Type
  2912 ;;  divisor         2    0[COMMON] int 
  2913 ;;  dividend        2    2[COMMON] int 
  2914 ;; Auto vars:     Size  Location     Type
  2915 ;;  sign            1    6[COMMON] unsigned char 
  2916 ;;  counter         1    5[COMMON] unsigned char 
  2917 ;; Return value:  Size  Location     Type
  2918 ;;                  2    0[COMMON] int 
  2919 ;; Registers used:
  2920 ;;		wreg, status,2, status,0
  2921 ;; Tracked objects:
  2922 ;;		On entry : 0/0
  2923 ;;		On exit  : 0/0
  2924 ;;		Unchanged: 0/0
  2925 ;; Data sizes:     COMMON   BANK0   BANK1   BANK3   BANK2
  2926 ;;      Params:         4       0       0       0       0
  2927 ;;      Locals:         2       0       0       0       0
  2928 ;;      Temps:          1       0       0       0       0
  2929 ;;      Totals:         7       0       0       0       0
  2930 ;;Total ram usage:        7 bytes
  2931 ;; Hardware stack levels used: 1
  2932 ;; This function calls:
  2933 ;;		Nothing
  2934 ;; This function is called by:
  2935 ;;		_Led7_addFloatToBuffer
  2936 ;; This function uses a non-reentrant model
  2937 ;;
  2938                           
  2939                           
  2940                           ;psect for function ___awmod
  2941  0F40                     ___awmod:
  2942  0F40                     l1290:	
  2943                           ;incstack = 0
  2944                           ; Regs used in ___awmod: [wreg+status,2+status,0]
  2945                           
  2946  0F40  01F6               	clrf	___awmod@sign
  2947  0F41                     l1292:
  2948  0F41  1FF3               	btfss	___awmod@dividend+1,7
  2949  0F42  2F44               	goto	u1361
  2950  0F43  2F45               	goto	u1360
  2951  0F44                     u1361:
  2952  0F44  2F4C               	goto	l1298
  2953  0F45                     u1360:
  2954  0F45                     l1294:
  2955  0F45  09F2               	comf	___awmod@dividend,f
  2956  0F46  09F3               	comf	___awmod@dividend+1,f
  2957  0F47  0AF2               	incf	___awmod@dividend,f
  2958  0F48  1903               	skipnz
  2959  0F49  0AF3               	incf	___awmod@dividend+1,f
  2960  0F4A                     l1296:
  2961  0F4A  01F6               	clrf	___awmod@sign
  2962  0F4B  0AF6               	incf	___awmod@sign,f
  2963  0F4C                     l1298:
  2964  0F4C  1FF1               	btfss	___awmod@divisor+1,7
  2965  0F4D  2F4F               	goto	u1371
  2966  0F4E  2F50               	goto	u1370
  2967  0F4F                     u1371:
  2968  0F4F  2F55               	goto	l1302
  2969  0F50                     u1370:
  2970  0F50                     l1300:
  2971  0F50  09F0               	comf	___awmod@divisor,f
  2972  0F51  09F1               	comf	___awmod@divisor+1,f
  2973  0F52  0AF0               	incf	___awmod@divisor,f
  2974  0F53  1903               	skipnz
  2975  0F54  0AF1               	incf	___awmod@divisor+1,f
  2976  0F55                     l1302:
  2977  0F55  0870               	movf	___awmod@divisor,w
  2978  0F56  0471               	iorwf	___awmod@divisor+1,w
  2979  0F57  1903               	btfsc	3,2
  2980  0F58  2F5A               	goto	u1381
  2981  0F59  2F5B               	goto	u1380
  2982  0F5A                     u1381:
  2983  0F5A  2F8A               	goto	l1320
  2984  0F5B                     u1380:
  2985  0F5B                     l1304:
  2986  0F5B  01F5               	clrf	___awmod@counter
  2987  0F5C  0AF5               	incf	___awmod@counter,f
  2988  0F5D  2F69               	goto	l1310
  2989  0F5E                     l1306:
  2990  0F5E  3001               	movlw	1
  2991  0F5F                     u1395:
  2992  0F5F  1003               	clrc
  2993  0F60  0DF0               	rlf	___awmod@divisor,f
  2994  0F61  0DF1               	rlf	___awmod@divisor+1,f
  2995  0F62  3EFF               	addlw	-1
  2996  0F63  1D03               	skipz
  2997  0F64  2F5F               	goto	u1395
  2998  0F65                     l1308:
  2999  0F65  3001               	movlw	1
  3000  0F66  00F4               	movwf	??___awmod
  3001  0F67  0874               	movf	??___awmod,w
  3002  0F68  07F5               	addwf	___awmod@counter,f
  3003  0F69                     l1310:
  3004  0F69  1FF1               	btfss	___awmod@divisor+1,7
  3005  0F6A  2F6C               	goto	u1401
  3006  0F6B  2F6D               	goto	u1400
  3007  0F6C                     u1401:
  3008  0F6C  2F5E               	goto	l1306
  3009  0F6D                     u1400:
  3010  0F6D                     l1312:
  3011  0F6D  0871               	movf	___awmod@divisor+1,w
  3012  0F6E  0273               	subwf	___awmod@dividend+1,w
  3013  0F6F  1D03               	skipz
  3014  0F70  2F73               	goto	u1415
  3015  0F71  0870               	movf	___awmod@divisor,w
  3016  0F72  0272               	subwf	___awmod@dividend,w
  3017  0F73                     u1415:
  3018  0F73  1C03               	skipc
  3019  0F74  2F76               	goto	u1411
  3020  0F75  2F77               	goto	u1410
  3021  0F76                     u1411:
  3022  0F76  2F7D               	goto	l1316
  3023  0F77                     u1410:
  3024  0F77                     l1314:
  3025  0F77  0870               	movf	___awmod@divisor,w
  3026  0F78  02F2               	subwf	___awmod@dividend,f
  3027  0F79  0871               	movf	___awmod@divisor+1,w
  3028  0F7A  1C03               	skipc
  3029  0F7B  03F3               	decf	___awmod@dividend+1,f
  3030  0F7C  02F3               	subwf	___awmod@dividend+1,f
  3031  0F7D                     l1316:
  3032  0F7D  3001               	movlw	1
  3033  0F7E                     u1425:
  3034  0F7E  1003               	clrc
  3035  0F7F  0CF1               	rrf	___awmod@divisor+1,f
  3036  0F80  0CF0               	rrf	___awmod@divisor,f
  3037  0F81  3EFF               	addlw	-1
  3038  0F82  1D03               	skipz
  3039  0F83  2F7E               	goto	u1425
  3040  0F84                     l1318:
  3041  0F84  3001               	movlw	1
  3042  0F85  02F5               	subwf	___awmod@counter,f
  3043  0F86  1D03               	btfss	3,2
  3044  0F87  2F89               	goto	u1431
  3045  0F88  2F8A               	goto	u1430
  3046  0F89                     u1431:
  3047  0F89  2F6D               	goto	l1312
  3048  0F8A                     u1430:
  3049  0F8A                     l1320:
  3050  0F8A  0876               	movf	___awmod@sign,w
  3051  0F8B  1903               	btfsc	3,2
  3052  0F8C  2F8E               	goto	u1441
  3053  0F8D  2F8F               	goto	u1440
  3054  0F8E                     u1441:
  3055  0F8E  2F94               	goto	l1324
  3056  0F8F                     u1440:
  3057  0F8F                     l1322:
  3058  0F8F  09F2               	comf	___awmod@dividend,f
  3059  0F90  09F3               	comf	___awmod@dividend+1,f
  3060  0F91  0AF2               	incf	___awmod@dividend,f
  3061  0F92  1903               	skipnz
  3062  0F93  0AF3               	incf	___awmod@dividend+1,f
  3063  0F94                     l1324:
  3064  0F94  0873               	movf	___awmod@dividend+1,w
  3065  0F95  00F1               	movwf	?___awmod+1
  3066  0F96  0872               	movf	___awmod@dividend,w
  3067  0F97  00F0               	movwf	?___awmod
  3068  0F98                     l330:
  3069  0F98  0008               	return
  3070  0F99                     __end_of___awmod:
  3071                           
  3072                           	psect	text9
  3073  0F99                     __ptext9:	
  3074 ;; *************** function ___awdiv *****************
  3075 ;; Defined at:
  3076 ;;		line 5 in file "C:\Program Files\Microchip\xc8\v2.32\pic\sources\c90\common\awdiv.c"
  3077 ;; Parameters:    Size  Location     Type
  3078 ;;  divisor         2    0[COMMON] int 
  3079 ;;  dividend        2    2[COMMON] int 
  3080 ;; Auto vars:     Size  Location     Type
  3081 ;;  quotient        2    7[COMMON] int 
  3082 ;;  sign            1    6[COMMON] unsigned char 
  3083 ;;  counter         1    5[COMMON] unsigned char 
  3084 ;; Return value:  Size  Location     Type
  3085 ;;                  2    0[COMMON] int 
  3086 ;; Registers used:
  3087 ;;		wreg, status,2, status,0
  3088 ;; Tracked objects:
  3089 ;;		On entry : 0/0
  3090 ;;		On exit  : 0/0
  3091 ;;		Unchanged: 0/0
  3092 ;; Data sizes:     COMMON   BANK0   BANK1   BANK3   BANK2
  3093 ;;      Params:         4       0       0       0       0
  3094 ;;      Locals:         4       0       0       0       0
  3095 ;;      Temps:          1       0       0       0       0
  3096 ;;      Totals:         9       0       0       0       0
  3097 ;;Total ram usage:        9 bytes
  3098 ;; Hardware stack levels used: 1
  3099 ;; This function calls:
  3100 ;;		Nothing
  3101 ;; This function is called by:
  3102 ;;		_Led7_addFloatToBuffer
  3103 ;; This function uses a non-reentrant model
  3104 ;;
  3105                           
  3106                           
  3107                           ;psect for function ___awdiv
  3108  0F99                     ___awdiv:
  3109  0F99                     l1246:	
  3110                           ;incstack = 0
  3111                           ; Regs used in ___awdiv: [wreg+status,2+status,0]
  3112                           
  3113  0F99  01F6               	clrf	___awdiv@sign
  3114  0F9A                     l1248:
  3115  0F9A  1FF1               	btfss	___awdiv@divisor+1,7
  3116  0F9B  2F9D               	goto	u1261
  3117  0F9C  2F9E               	goto	u1260
  3118  0F9D                     u1261:
  3119  0F9D  2FA5               	goto	l1254
  3120  0F9E                     u1260:
  3121  0F9E                     l1250:
  3122  0F9E  09F0               	comf	___awdiv@divisor,f
  3123  0F9F  09F1               	comf	___awdiv@divisor+1,f
  3124  0FA0  0AF0               	incf	___awdiv@divisor,f
  3125  0FA1  1903               	skipnz
  3126  0FA2  0AF1               	incf	___awdiv@divisor+1,f
  3127  0FA3                     l1252:
  3128  0FA3  01F6               	clrf	___awdiv@sign
  3129  0FA4  0AF6               	incf	___awdiv@sign,f
  3130  0FA5                     l1254:
  3131  0FA5  1FF3               	btfss	___awdiv@dividend+1,7
  3132  0FA6  2FA8               	goto	u1271
  3133  0FA7  2FA9               	goto	u1270
  3134  0FA8                     u1271:
  3135  0FA8  2FB2               	goto	l1260
  3136  0FA9                     u1270:
  3137  0FA9                     l1256:
  3138  0FA9  09F2               	comf	___awdiv@dividend,f
  3139  0FAA  09F3               	comf	___awdiv@dividend+1,f
  3140  0FAB  0AF2               	incf	___awdiv@dividend,f
  3141  0FAC  1903               	skipnz
  3142  0FAD  0AF3               	incf	___awdiv@dividend+1,f
  3143  0FAE                     l1258:
  3144  0FAE  3001               	movlw	1
  3145  0FAF  00F4               	movwf	??___awdiv
  3146  0FB0  0874               	movf	??___awdiv,w
  3147  0FB1  06F6               	xorwf	___awdiv@sign,f
  3148  0FB2                     l1260:
  3149  0FB2  01F7               	clrf	___awdiv@quotient
  3150  0FB3  01F8               	clrf	___awdiv@quotient+1
  3151  0FB4                     l1262:
  3152  0FB4  0870               	movf	___awdiv@divisor,w
  3153  0FB5  0471               	iorwf	___awdiv@divisor+1,w
  3154  0FB6  1903               	btfsc	3,2
  3155  0FB7  2FB9               	goto	u1281
  3156  0FB8  2FBA               	goto	u1280
  3157  0FB9                     u1281:
  3158  0FB9  2FF1               	goto	l1282
  3159  0FBA                     u1280:
  3160  0FBA                     l1264:
  3161  0FBA  01F5               	clrf	___awdiv@counter
  3162  0FBB  0AF5               	incf	___awdiv@counter,f
  3163  0FBC  2FC8               	goto	l1270
  3164  0FBD                     l1266:
  3165  0FBD  3001               	movlw	1
  3166  0FBE                     u1295:
  3167  0FBE  1003               	clrc
  3168  0FBF  0DF0               	rlf	___awdiv@divisor,f
  3169  0FC0  0DF1               	rlf	___awdiv@divisor+1,f
  3170  0FC1  3EFF               	addlw	-1
  3171  0FC2  1D03               	skipz
  3172  0FC3  2FBE               	goto	u1295
  3173  0FC4                     l1268:
  3174  0FC4  3001               	movlw	1
  3175  0FC5  00F4               	movwf	??___awdiv
  3176  0FC6  0874               	movf	??___awdiv,w
  3177  0FC7  07F5               	addwf	___awdiv@counter,f
  3178  0FC8                     l1270:
  3179  0FC8  1FF1               	btfss	___awdiv@divisor+1,7
  3180  0FC9  2FCB               	goto	u1301
  3181  0FCA  2FCC               	goto	u1300
  3182  0FCB                     u1301:
  3183  0FCB  2FBD               	goto	l1266
  3184  0FCC                     u1300:
  3185  0FCC                     l1272:
  3186  0FCC  3001               	movlw	1
  3187  0FCD                     u1315:
  3188  0FCD  1003               	clrc
  3189  0FCE  0DF7               	rlf	___awdiv@quotient,f
  3190  0FCF  0DF8               	rlf	___awdiv@quotient+1,f
  3191  0FD0  3EFF               	addlw	-1
  3192  0FD1  1D03               	skipz
  3193  0FD2  2FCD               	goto	u1315
  3194  0FD3  0871               	movf	___awdiv@divisor+1,w
  3195  0FD4  0273               	subwf	___awdiv@dividend+1,w
  3196  0FD5  1D03               	skipz
  3197  0FD6  2FD9               	goto	u1325
  3198  0FD7  0870               	movf	___awdiv@divisor,w
  3199  0FD8  0272               	subwf	___awdiv@dividend,w
  3200  0FD9                     u1325:
  3201  0FD9  1C03               	skipc
  3202  0FDA  2FDC               	goto	u1321
  3203  0FDB  2FDD               	goto	u1320
  3204  0FDC                     u1321:
  3205  0FDC  2FE4               	goto	l1278
  3206  0FDD                     u1320:
  3207  0FDD                     l1274:
  3208  0FDD  0870               	movf	___awdiv@divisor,w
  3209  0FDE  02F2               	subwf	___awdiv@dividend,f
  3210  0FDF  0871               	movf	___awdiv@divisor+1,w
  3211  0FE0  1C03               	skipc
  3212  0FE1  03F3               	decf	___awdiv@dividend+1,f
  3213  0FE2  02F3               	subwf	___awdiv@dividend+1,f
  3214  0FE3                     l1276:
  3215  0FE3  1477               	bsf	___awdiv@quotient,0
  3216  0FE4                     l1278:
  3217  0FE4  3001               	movlw	1
  3218  0FE5                     u1335:
  3219  0FE5  1003               	clrc
  3220  0FE6  0CF1               	rrf	___awdiv@divisor+1,f
  3221  0FE7  0CF0               	rrf	___awdiv@divisor,f
  3222  0FE8  3EFF               	addlw	-1
  3223  0FE9  1D03               	skipz
  3224  0FEA  2FE5               	goto	u1335
  3225  0FEB                     l1280:
  3226  0FEB  3001               	movlw	1
  3227  0FEC  02F5               	subwf	___awdiv@counter,f
  3228  0FED  1D03               	btfss	3,2
  3229  0FEE  2FF0               	goto	u1341
  3230  0FEF  2FF1               	goto	u1340
  3231  0FF0                     u1341:
  3232  0FF0  2FCC               	goto	l1272
  3233  0FF1                     u1340:
  3234  0FF1                     l1282:
  3235  0FF1  0876               	movf	___awdiv@sign,w
  3236  0FF2  1903               	btfsc	3,2
  3237  0FF3  2FF5               	goto	u1351
  3238  0FF4  2FF6               	goto	u1350
  3239  0FF5                     u1351:
  3240  0FF5  2FFB               	goto	l1286
  3241  0FF6                     u1350:
  3242  0FF6                     l1284:
  3243  0FF6  09F7               	comf	___awdiv@quotient,f
  3244  0FF7  09F8               	comf	___awdiv@quotient+1,f
  3245  0FF8  0AF7               	incf	___awdiv@quotient,f
  3246  0FF9  1903               	skipnz
  3247  0FFA  0AF8               	incf	___awdiv@quotient+1,f
  3248  0FFB                     l1286:
  3249  0FFB  0878               	movf	___awdiv@quotient+1,w
  3250  0FFC  00F1               	movwf	?___awdiv+1
  3251  0FFD  0877               	movf	___awdiv@quotient,w
  3252  0FFE  00F0               	movwf	?___awdiv
  3253  0FFF                     l317:
  3254  0FFF  0008               	return
  3255  1000                     __end_of___awdiv:
  3256                           
  3257                           	psect	text10
  3258  0226                     __ptext10:	
  3259 ;; *************** function _Led7_pointIndex *****************
  3260 ;; Defined at:
  3261 ;;		line 29 in file "led_7seg.c"
  3262 ;; Parameters:    Size  Location     Type
  3263 ;;  num             4    0[BANK0 ] int 
  3264 ;; Auto vars:     Size  Location     Type
  3265 ;;		None
  3266 ;; Return value:  Size  Location     Type
  3267 ;;                  1    wreg      unsigned char 
  3268 ;; Registers used:
  3269 ;;		wreg, status,2, status,0, pclath, cstack
  3270 ;; Tracked objects:
  3271 ;;		On entry : 0/0
  3272 ;;		On exit  : 0/0
  3273 ;;		Unchanged: 0/0
  3274 ;; Data sizes:     COMMON   BANK0   BANK1   BANK3   BANK2
  3275 ;;      Params:         0       4       0       0       0
  3276 ;;      Locals:         0       0       0       0       0
  3277 ;;      Temps:          0       0       0       0       0
  3278 ;;      Totals:         0       4       0       0       0
  3279 ;;Total ram usage:        4 bytes
  3280 ;; Hardware stack levels used: 1
  3281 ;; Hardware stack levels required when called: 1
  3282 ;; This function calls:
  3283 ;;		___flge
  3284 ;; This function is called by:
  3285 ;;		_Led7_addFloatToBuffer
  3286 ;; This function uses a non-reentrant model
  3287 ;;
  3288                           
  3289                           
  3290                           ;psect for function _Led7_pointIndex
  3291  0226                     _Led7_pointIndex:
  3292  0226                     l1214:	
  3293                           ;incstack = 0
  3294                           ; Regs used in _Led7_pointIndex: [wreg+status,2+status,0+pclath+cstack]
  3295                           
  3296                           
  3297                           ;led_7seg.c: 29: char Led7_pointIndex(double num);led_7seg.c: 30: {;led_7seg.c: 31:     
      +                          if (num > 99.9 && num <= 999.9)
  3298  0226  3042               	movlw	66
  3299  0227  00F3               	movwf	___flge@ff1+3
  3300  0228  30C7               	movlw	199
  3301  0229  00F2               	movwf	___flge@ff1+2
  3302  022A  30CC               	movlw	204
  3303  022B  00F1               	movwf	___flge@ff1+1
  3304  022C  30CD               	movlw	205
  3305  022D  00F0               	movwf	___flge@ff1
  3306  022E  1283               	bcf	3,5	;RP0=0, select bank0
  3307  022F  1303               	bcf	3,6	;RP1=0, select bank0
  3308  0230  0823               	movf	Led7_pointIndex@num+3,w
  3309  0231  00F7               	movwf	___flge@ff2+3
  3310  0232  0822               	movf	Led7_pointIndex@num+2,w
  3311  0233  00F6               	movwf	___flge@ff2+2
  3312  0234  0821               	movf	Led7_pointIndex@num+1,w
  3313  0235  00F5               	movwf	___flge@ff2+1
  3314  0236  0820               	movf	Led7_pointIndex@num,w
  3315  0237  00F4               	movwf	___flge@ff2
  3316  0238  120A  118A  2184  120A  118A  	fcall	___flge
  3317  023D  1803               	btfsc	3,0
  3318  023E  2A40               	goto	u1201
  3319  023F  2A41               	goto	u1200
  3320  0240                     u1201:
  3321  0240  2A5E               	goto	l1224
  3322  0241                     u1200:
  3323  0241                     l1216:
  3324  0241  3044               	movlw	68
  3325  0242  00F3               	movwf	___flge@ff1+3
  3326  0243  3079               	movlw	121
  3327  0244  00F2               	movwf	___flge@ff1+2
  3328  0245  30F9               	movlw	249
  3329  0246  00F1               	movwf	___flge@ff1+1
  3330  0247  309A               	movlw	154
  3331  0248  00F0               	movwf	___flge@ff1
  3332  0249  1283               	bcf	3,5	;RP0=0, select bank0
  3333  024A  1303               	bcf	3,6	;RP1=0, select bank0
  3334  024B  0823               	movf	Led7_pointIndex@num+3,w
  3335  024C  00F7               	movwf	___flge@ff2+3
  3336  024D  0822               	movf	Led7_pointIndex@num+2,w
  3337  024E  00F6               	movwf	___flge@ff2+2
  3338  024F  0821               	movf	Led7_pointIndex@num+1,w
  3339  0250  00F5               	movwf	___flge@ff2+1
  3340  0251  0820               	movf	Led7_pointIndex@num,w
  3341  0252  00F4               	movwf	___flge@ff2
  3342  0253  120A  118A  2184  120A  118A  	fcall	___flge
  3343  0258  1C03               	btfss	3,0
  3344  0259  2A5B               	goto	u1211
  3345  025A  2A5C               	goto	u1210
  3346  025B                     u1211:
  3347  025B  2A5E               	goto	l1224
  3348  025C                     u1210:
  3349  025C                     l1218:
  3350                           
  3351                           ;led_7seg.c: 32:   return 1;
  3352  025C  3001               	movlw	1
  3353  025D  2ACF               	goto	l56
  3354  025E                     l1224:
  3355  025E  3041               	movlw	65
  3356  025F  00F3               	movwf	___flge@ff1+3
  3357  0260  301E               	movlw	30
  3358  0261  00F2               	movwf	___flge@ff1+2
  3359  0262  3066               	movlw	102
  3360  0263  00F1               	movwf	___flge@ff1+1
  3361  0264  3066               	movlw	102
  3362  0265  00F0               	movwf	___flge@ff1
  3363  0266  1283               	bcf	3,5	;RP0=0, select bank0
  3364  0267  1303               	bcf	3,6	;RP1=0, select bank0
  3365  0268  0823               	movf	Led7_pointIndex@num+3,w
  3366  0269  00F7               	movwf	___flge@ff2+3
  3367  026A  0822               	movf	Led7_pointIndex@num+2,w
  3368  026B  00F6               	movwf	___flge@ff2+2
  3369  026C  0821               	movf	Led7_pointIndex@num+1,w
  3370  026D  00F5               	movwf	___flge@ff2+1
  3371  026E  0820               	movf	Led7_pointIndex@num,w
  3372  026F  00F4               	movwf	___flge@ff2
  3373  0270  120A  118A  2184  120A  118A  	fcall	___flge
  3374  0275  1803               	btfsc	3,0
  3375  0276  2A78               	goto	u1221
  3376  0277  2A79               	goto	u1220
  3377  0278                     u1221:
  3378  0278  2A96               	goto	l1234
  3379  0279                     u1220:
  3380  0279                     l1226:
  3381  0279  3042               	movlw	66
  3382  027A  00F3               	movwf	___flge@ff1+3
  3383  027B  30C7               	movlw	199
  3384  027C  00F2               	movwf	___flge@ff1+2
  3385  027D  30CC               	movlw	204
  3386  027E  00F1               	movwf	___flge@ff1+1
  3387  027F  30CD               	movlw	205
  3388  0280  00F0               	movwf	___flge@ff1
  3389  0281  1283               	bcf	3,5	;RP0=0, select bank0
  3390  0282  1303               	bcf	3,6	;RP1=0, select bank0
  3391  0283  0823               	movf	Led7_pointIndex@num+3,w
  3392  0284  00F7               	movwf	___flge@ff2+3
  3393  0285  0822               	movf	Led7_pointIndex@num+2,w
  3394  0286  00F6               	movwf	___flge@ff2+2
  3395  0287  0821               	movf	Led7_pointIndex@num+1,w
  3396  0288  00F5               	movwf	___flge@ff2+1
  3397  0289  0820               	movf	Led7_pointIndex@num,w
  3398  028A  00F4               	movwf	___flge@ff2
  3399  028B  120A  118A  2184  120A  118A  	fcall	___flge
  3400  0290  1C03               	btfss	3,0
  3401  0291  2A93               	goto	u1231
  3402  0292  2A94               	goto	u1230
  3403  0293                     u1231:
  3404  0293  2A96               	goto	l1234
  3405  0294                     u1230:
  3406  0294                     l1228:
  3407                           
  3408                           ;led_7seg.c: 34:   return 2;
  3409  0294  3002               	movlw	2
  3410  0295  2ACF               	goto	l56
  3411  0296                     l1234:
  3412  0296  1283               	bcf	3,5	;RP0=0, select bank0
  3413  0297  1303               	bcf	3,6	;RP1=0, select bank0
  3414  0298  0823               	movf	Led7_pointIndex@num+3,w
  3415  0299  00F3               	movwf	___flge@ff1+3
  3416  029A  0822               	movf	Led7_pointIndex@num+2,w
  3417  029B  00F2               	movwf	___flge@ff1+2
  3418  029C  0821               	movf	Led7_pointIndex@num+1,w
  3419  029D  00F1               	movwf	___flge@ff1+1
  3420  029E  0820               	movf	Led7_pointIndex@num,w
  3421  029F  00F0               	movwf	___flge@ff1
  3422  02A0  3000               	movlw	0
  3423  02A1  00F7               	movwf	___flge@ff2+3
  3424  02A2  3000               	movlw	0
  3425  02A3  00F6               	movwf	___flge@ff2+2
  3426  02A4  3000               	movlw	0
  3427  02A5  00F5               	movwf	___flge@ff2+1
  3428  02A6  3000               	movlw	0
  3429  02A7  00F4               	movwf	___flge@ff2
  3430  02A8  120A  118A  2184  120A  118A  	fcall	___flge
  3431  02AD  1C03               	btfss	3,0
  3432  02AE  2AB0               	goto	u1241
  3433  02AF  2AB1               	goto	u1240
  3434  02B0                     u1241:
  3435  02B0  2ACE               	goto	l1242
  3436  02B1                     u1240:
  3437  02B1                     l1236:
  3438  02B1  3041               	movlw	65
  3439  02B2  00F3               	movwf	___flge@ff1+3
  3440  02B3  301E               	movlw	30
  3441  02B4  00F2               	movwf	___flge@ff1+2
  3442  02B5  3066               	movlw	102
  3443  02B6  00F1               	movwf	___flge@ff1+1
  3444  02B7  3066               	movlw	102
  3445  02B8  00F0               	movwf	___flge@ff1
  3446  02B9  1283               	bcf	3,5	;RP0=0, select bank0
  3447  02BA  1303               	bcf	3,6	;RP1=0, select bank0
  3448  02BB  0823               	movf	Led7_pointIndex@num+3,w
  3449  02BC  00F7               	movwf	___flge@ff2+3
  3450  02BD  0822               	movf	Led7_pointIndex@num+2,w
  3451  02BE  00F6               	movwf	___flge@ff2+2
  3452  02BF  0821               	movf	Led7_pointIndex@num+1,w
  3453  02C0  00F5               	movwf	___flge@ff2+1
  3454  02C1  0820               	movf	Led7_pointIndex@num,w
  3455  02C2  00F4               	movwf	___flge@ff2
  3456  02C3  120A  118A  2184  120A  118A  	fcall	___flge
  3457  02C8  1C03               	btfss	3,0
  3458  02C9  2ACB               	goto	u1251
  3459  02CA  2ACC               	goto	u1250
  3460  02CB                     u1251:
  3461  02CB  2ACE               	goto	l1242
  3462  02CC                     u1250:
  3463  02CC                     l1238:
  3464                           
  3465                           ;led_7seg.c: 36:   return 3;
  3466  02CC  3003               	movlw	3
  3467  02CD  2ACF               	goto	l56
  3468  02CE                     l1242:
  3469                           
  3470                           ;led_7seg.c: 38:     return 0;
  3471  02CE  3000               	movlw	0
  3472  02CF                     l56:
  3473  02CF  0008               	return
  3474  02D0                     __end_of_Led7_pointIndex:
  3475                           
  3476                           	psect	text11
  3477  0184                     __ptext11:	
  3478 ;; *************** function ___flge *****************
  3479 ;; Defined at:
  3480 ;;		line 4 in file "C:\Program Files\Microchip\xc8\v2.32\pic\sources\c90\common\flge.c"
  3481 ;; Parameters:    Size  Location     Type
  3482 ;;  ff1             4    0[COMMON] unsigned char 
  3483 ;;  ff2             4    4[COMMON] unsigned char 
  3484 ;; Auto vars:     Size  Location     Type
  3485 ;;		None
  3486 ;; Return value:  Size  Location     Type
  3487 ;;		None               void
  3488 ;; Registers used:
  3489 ;;		wreg, status,2, status,0
  3490 ;; Tracked objects:
  3491 ;;		On entry : 0/0
  3492 ;;		On exit  : 0/0
  3493 ;;		Unchanged: 0/0
  3494 ;; Data sizes:     COMMON   BANK0   BANK1   BANK3   BANK2
  3495 ;;      Params:         8       0       0       0       0
  3496 ;;      Locals:         0       0       0       0       0
  3497 ;;      Temps:          4       0       0       0       0
  3498 ;;      Totals:        12       0       0       0       0
  3499 ;;Total ram usage:       12 bytes
  3500 ;; Hardware stack levels used: 1
  3501 ;; This function calls:
  3502 ;;		Nothing
  3503 ;; This function is called by:
  3504 ;;		_Led7_pointIndex
  3505 ;; This function uses a non-reentrant model
  3506 ;;
  3507                           
  3508                           
  3509                           ;psect for function ___flge
  3510  0184                     ___flge:
  3511  0184                     l1180:	
  3512                           ;incstack = 0
  3513                           ; Regs used in ___flge: [wreg+status,2+status,0]
  3514                           
  3515  0184  3000               	movlw	0
  3516  0185  0570               	andwf	___flge@ff1,w
  3517  0186  00F8               	movwf	??___flge
  3518  0187  3000               	movlw	0
  3519  0188  0571               	andwf	___flge@ff1+1,w
  3520  0189  00F9               	movwf	??___flge+1
  3521  018A  3080               	movlw	128
  3522  018B  0572               	andwf	___flge@ff1+2,w
  3523  018C  00FA               	movwf	??___flge+2
  3524  018D  307F               	movlw	127
  3525  018E  0573               	andwf	___flge@ff1+3,w
  3526  018F  00FB               	movwf	??___flge+3
  3527  0190  087B               	movf	??___flge+3,w
  3528  0191  047A               	iorwf	??___flge+2,w
  3529  0192  0479               	iorwf	??___flge+1,w
  3530  0193  0478               	iorwf	??___flge,w
  3531  0194  1D03               	skipz
  3532  0195  2997               	goto	u1101
  3533  0196  2998               	goto	u1100
  3534  0197                     u1101:
  3535  0197  29A0               	goto	l338
  3536  0198                     u1100:
  3537  0198                     l1182:
  3538  0198  3000               	movlw	0
  3539  0199  00F3               	movwf	___flge@ff1+3
  3540  019A  3000               	movlw	0
  3541  019B  00F2               	movwf	___flge@ff1+2
  3542  019C  3000               	movlw	0
  3543  019D  00F1               	movwf	___flge@ff1+1
  3544  019E  3000               	movlw	0
  3545  019F  00F0               	movwf	___flge@ff1
  3546  01A0                     l338:
  3547  01A0  3000               	movlw	0
  3548  01A1  0574               	andwf	___flge@ff2,w
  3549  01A2  00F8               	movwf	??___flge
  3550  01A3  3000               	movlw	0
  3551  01A4  0575               	andwf	___flge@ff2+1,w
  3552  01A5  00F9               	movwf	??___flge+1
  3553  01A6  3080               	movlw	128
  3554  01A7  0576               	andwf	___flge@ff2+2,w
  3555  01A8  00FA               	movwf	??___flge+2
  3556  01A9  307F               	movlw	127
  3557  01AA  0577               	andwf	___flge@ff2+3,w
  3558  01AB  00FB               	movwf	??___flge+3
  3559  01AC  087B               	movf	??___flge+3,w
  3560  01AD  047A               	iorwf	??___flge+2,w
  3561  01AE  0479               	iorwf	??___flge+1,w
  3562  01AF  0478               	iorwf	??___flge,w
  3563  01B0  1D03               	skipz
  3564  01B1  29B3               	goto	u1111
  3565  01B2  29B4               	goto	u1110
  3566  01B3                     u1111:
  3567  01B3  29BC               	goto	l1186
  3568  01B4                     u1110:
  3569  01B4                     l1184:
  3570  01B4  3000               	movlw	0
  3571  01B5  00F7               	movwf	___flge@ff2+3
  3572  01B6  3000               	movlw	0
  3573  01B7  00F6               	movwf	___flge@ff2+2
  3574  01B8  3000               	movlw	0
  3575  01B9  00F5               	movwf	___flge@ff2+1
  3576  01BA  3000               	movlw	0
  3577  01BB  00F4               	movwf	___flge@ff2
  3578  01BC                     l1186:
  3579  01BC  1FF3               	btfss	___flge@ff1+3,7
  3580  01BD  29BF               	goto	u1121
  3581  01BE  29C0               	goto	u1120
  3582  01BF                     u1121:
  3583  01BF  29E4               	goto	l1190
  3584  01C0                     u1120:
  3585  01C0                     l1188:
  3586  01C0  3000               	movlw	0
  3587  01C1  00F8               	movwf	??___flge
  3588  01C2  3000               	movlw	0
  3589  01C3  00F9               	movwf	??___flge+1
  3590  01C4  3000               	movlw	0
  3591  01C5  00FA               	movwf	??___flge+2
  3592  01C6  3080               	movlw	128
  3593  01C7  00FB               	movwf	??___flge+3
  3594  01C8  0870               	movf	___flge@ff1,w
  3595  01C9  02F8               	subwf	??___flge,f
  3596  01CA  0871               	movf	___flge@ff1+1,w
  3597  01CB  1C03               	skipc
  3598  01CC  0F71               	incfsz	___flge@ff1+1,w
  3599  01CD  29CF               	goto	u1131
  3600  01CE  29D0               	goto	u1132
  3601  01CF                     u1131:
  3602  01CF  02F9               	subwf	??___flge+1,f
  3603  01D0                     u1132:
  3604  01D0  0872               	movf	___flge@ff1+2,w
  3605  01D1  1C03               	skipc
  3606  01D2  0F72               	incfsz	___flge@ff1+2,w
  3607  01D3  29D5               	goto	u1133
  3608  01D4  29D6               	goto	u1134
  3609  01D5                     u1133:
  3610  01D5  02FA               	subwf	??___flge+2,f
  3611  01D6                     u1134:
  3612  01D6  0873               	movf	___flge@ff1+3,w
  3613  01D7  1C03               	skipc
  3614  01D8  0F73               	incfsz	___flge@ff1+3,w
  3615  01D9  29DB               	goto	u1135
  3616  01DA  29DC               	goto	u1136
  3617  01DB                     u1135:
  3618  01DB  02FB               	subwf	??___flge+3,f
  3619  01DC                     u1136:
  3620  01DC  087B               	movf	??___flge+3,w
  3621  01DD  00F3               	movwf	___flge@ff1+3
  3622  01DE  087A               	movf	??___flge+2,w
  3623  01DF  00F2               	movwf	___flge@ff1+2
  3624  01E0  0879               	movf	??___flge+1,w
  3625  01E1  00F1               	movwf	___flge@ff1+1
  3626  01E2  0878               	movf	??___flge,w
  3627  01E3  00F0               	movwf	___flge@ff1
  3628  01E4                     l1190:
  3629  01E4  1FF7               	btfss	___flge@ff2+3,7
  3630  01E5  29E7               	goto	u1141
  3631  01E6  29E8               	goto	u1140
  3632  01E7                     u1141:
  3633  01E7  2A0C               	goto	l341
  3634  01E8                     u1140:
  3635  01E8                     l1192:
  3636  01E8  3000               	movlw	0
  3637  01E9  00F8               	movwf	??___flge
  3638  01EA  3000               	movlw	0
  3639  01EB  00F9               	movwf	??___flge+1
  3640  01EC  3000               	movlw	0
  3641  01ED  00FA               	movwf	??___flge+2
  3642  01EE  3080               	movlw	128
  3643  01EF  00FB               	movwf	??___flge+3
  3644  01F0  0874               	movf	___flge@ff2,w
  3645  01F1  02F8               	subwf	??___flge,f
  3646  01F2  0875               	movf	___flge@ff2+1,w
  3647  01F3  1C03               	skipc
  3648  01F4  0F75               	incfsz	___flge@ff2+1,w
  3649  01F5  29F7               	goto	u1151
  3650  01F6  29F8               	goto	u1152
  3651  01F7                     u1151:
  3652  01F7  02F9               	subwf	??___flge+1,f
  3653  01F8                     u1152:
  3654  01F8  0876               	movf	___flge@ff2+2,w
  3655  01F9  1C03               	skipc
  3656  01FA  0F76               	incfsz	___flge@ff2+2,w
  3657  01FB  29FD               	goto	u1153
  3658  01FC  29FE               	goto	u1154
  3659  01FD                     u1153:
  3660  01FD  02FA               	subwf	??___flge+2,f
  3661  01FE                     u1154:
  3662  01FE  0877               	movf	___flge@ff2+3,w
  3663  01FF  1C03               	skipc
  3664  0200  0F77               	incfsz	___flge@ff2+3,w
  3665  0201  2A03               	goto	u1155
  3666  0202  2A04               	goto	u1156
  3667  0203                     u1155:
  3668  0203  02FB               	subwf	??___flge+3,f
  3669  0204                     u1156:
  3670  0204  087B               	movf	??___flge+3,w
  3671  0205  00F7               	movwf	___flge@ff2+3
  3672  0206  087A               	movf	??___flge+2,w
  3673  0207  00F6               	movwf	___flge@ff2+2
  3674  0208  0879               	movf	??___flge+1,w
  3675  0209  00F5               	movwf	___flge@ff2+1
  3676  020A  0878               	movf	??___flge,w
  3677  020B  00F4               	movwf	___flge@ff2
  3678  020C                     l341:
  3679  020C  3080               	movlw	128
  3680  020D  06F3               	xorwf	___flge@ff1+3,f
  3681  020E  3080               	movlw	128
  3682  020F  06F7               	xorwf	___flge@ff2+3,f
  3683  0210  0877               	movf	___flge@ff2+3,w
  3684  0211  0273               	subwf	___flge@ff1+3,w
  3685  0212  1D03               	skipz
  3686  0213  2A1E               	goto	u1165
  3687  0214  0876               	movf	___flge@ff2+2,w
  3688  0215  0272               	subwf	___flge@ff1+2,w
  3689  0216  1D03               	skipz
  3690  0217  2A1E               	goto	u1165
  3691  0218  0875               	movf	___flge@ff2+1,w
  3692  0219  0271               	subwf	___flge@ff1+1,w
  3693  021A  1D03               	skipz
  3694  021B  2A1E               	goto	u1165
  3695  021C  0874               	movf	___flge@ff2,w
  3696  021D  0270               	subwf	___flge@ff1,w
  3697  021E                     u1165:
  3698  021E  1803               	skipnc
  3699  021F  2A21               	goto	u1161
  3700  0220  2A22               	goto	u1160
  3701  0221                     u1161:
  3702  0221  2A24               	goto	l1196
  3703  0222                     u1160:
  3704  0222                     l1194:
  3705  0222  1003               	clrc
  3706  0223  2A25               	goto	l342
  3707  0224                     l1196:
  3708  0224  1403               	setc
  3709  0225                     l342:
  3710  0225  0008               	return
  3711  0226                     __end_of___flge:
  3712                           
  3713                           	psect	text12
  3714  0F2B                     __ptext12:	
  3715 ;; *************** function _Config_Init *****************
  3716 ;; Defined at:
  3717 ;;		line 47 in file "main_led_7seg.c"
  3718 ;; Parameters:    Size  Location     Type
  3719 ;;		None
  3720 ;; Auto vars:     Size  Location     Type
  3721 ;;		None
  3722 ;; Return value:  Size  Location     Type
  3723 ;;                  1    wreg      void 
  3724 ;; Registers used:
  3725 ;;		wreg, status,2, status,0, pclath, cstack
  3726 ;; Tracked objects:
  3727 ;;		On entry : 0/0
  3728 ;;		On exit  : 0/0
  3729 ;;		Unchanged: 0/0
  3730 ;; Data sizes:     COMMON   BANK0   BANK1   BANK3   BANK2
  3731 ;;      Params:         0       0       0       0       0
  3732 ;;      Locals:         0       0       0       0       0
  3733 ;;      Temps:          0       0       0       0       0
  3734 ;;      Totals:         0       0       0       0       0
  3735 ;;Total ram usage:        0 bytes
  3736 ;; Hardware stack levels used: 1
  3737 ;; Hardware stack levels required when called: 1
  3738 ;; This function calls:
  3739 ;;		_Led_7seg_Init
  3740 ;; This function is called by:
  3741 ;;		_main
  3742 ;; This function uses a non-reentrant model
  3743 ;;
  3744                           
  3745                           
  3746                           ;psect for function _Config_Init
  3747  0F2B                     _Config_Init:
  3748  0F2B                     l1560:	
  3749                           ;incstack = 0
  3750                           ; Regs used in _Config_Init: [wreg+status,2+status,0+pclath+cstack]
  3751                           
  3752                           
  3753                           ;main_led_7seg.c: 48:     ADCON1 = 0x06;
  3754  0F2B  3006               	movlw	6
  3755  0F2C  1683               	bsf	3,5	;RP0=1, select bank1
  3756  0F2D  1303               	bcf	3,6	;RP1=0, select bank1
  3757  0F2E  009F               	movwf	31	;volatile
  3758  0F2F                     l1562:
  3759                           
  3760                           ;main_led_7seg.c: 50:     TRISBbits.TRISB4 = TRISBbits.TRISB5 = 1;
  3761  0F2F  1686               	bsf	6,5	;volatile
  3762  0F30  1A86               	btfsc	6,5	;volatile
  3763  0F31  2F33               	goto	u1971
  3764  0F32  2F37               	goto	u1970
  3765  0F33                     u1971:
  3766  0F33  1683               	bsf	3,5	;RP0=1, select bank1
  3767  0F34  1303               	bcf	3,6	;RP1=0, select bank1
  3768  0F35  1606               	bsf	6,4	;volatile
  3769  0F36  2F3A               	goto	u1984
  3770  0F37                     u1970:
  3771  0F37  1683               	bsf	3,5	;RP0=1, select bank1
  3772  0F38  1303               	bcf	3,6	;RP1=0, select bank1
  3773  0F39  1206               	bcf	6,4	;volatile
  3774  0F3A                     u1984:
  3775  0F3A                     l1564:
  3776                           
  3777                           ;main_led_7seg.c: 51:     Led_7seg_Init();
  3778  0F3A  120A  158A  2718  120A  158A  	fcall	_Led_7seg_Init
  3779  0F3F                     l33:
  3780  0F3F  0008               	return
  3781  0F40                     __end_of_Config_Init:
  3782                           
  3783                           	psect	text13
  3784  0F18                     __ptext13:	
  3785 ;; *************** function _Led_7seg_Init *****************
  3786 ;; Defined at:
  3787 ;;		line 13 in file "led_7seg.c"
  3788 ;; Parameters:    Size  Location     Type
  3789 ;;		None
  3790 ;; Auto vars:     Size  Location     Type
  3791 ;;		None
  3792 ;; Return value:  Size  Location     Type
  3793 ;;                  1    wreg      void 
  3794 ;; Registers used:
  3795 ;;		status,2
  3796 ;; Tracked objects:
  3797 ;;		On entry : 0/0
  3798 ;;		On exit  : 0/0
  3799 ;;		Unchanged: 0/0
  3800 ;; Data sizes:     COMMON   BANK0   BANK1   BANK3   BANK2
  3801 ;;      Params:         0       0       0       0       0
  3802 ;;      Locals:         0       0       0       0       0
  3803 ;;      Temps:          0       0       0       0       0
  3804 ;;      Totals:         0       0       0       0       0
  3805 ;;Total ram usage:        0 bytes
  3806 ;; Hardware stack levels used: 1
  3807 ;; This function calls:
  3808 ;;		Nothing
  3809 ;; This function is called by:
  3810 ;;		_Config_Init
  3811 ;; This function uses a non-reentrant model
  3812 ;;
  3813                           
  3814                           
  3815                           ;psect for function _Led_7seg_Init
  3816  0F18                     _Led_7seg_Init:
  3817  0F18                     l1504:	
  3818                           ;incstack = 0
  3819                           ; Regs used in _Led_7seg_Init: [status,2]
  3820                           
  3821                           
  3822                           ;led_7seg.c: 15:  TRISD =0x00;
  3823  0F18  1683               	bsf	3,5	;RP0=1, select bank1
  3824  0F19  1303               	bcf	3,6	;RP1=0, select bank1
  3825  0F1A  0188               	clrf	8	;volatile
  3826                           
  3827                           ;led_7seg.c: 16:  PORTD = 0x00;
  3828  0F1B  1283               	bcf	3,5	;RP0=0, select bank0
  3829  0F1C  1303               	bcf	3,6	;RP1=0, select bank0
  3830  0F1D  0188               	clrf	8	;volatile
  3831  0F1E                     l1506:
  3832                           
  3833                           ;led_7seg.c: 18:  TRISCbits.TRISC4 = 0;
  3834  0F1E  1683               	bsf	3,5	;RP0=1, select bank1
  3835  0F1F  1303               	bcf	3,6	;RP1=0, select bank1
  3836  0F20  1207               	bcf	7,4	;volatile
  3837  0F21                     l1508:
  3838                           
  3839                           ;led_7seg.c: 19:  TRISCbits.TRISC5 = 0;
  3840  0F21  1287               	bcf	7,5	;volatile
  3841  0F22                     l1510:
  3842                           
  3843                           ;led_7seg.c: 20:  TRISCbits.TRISC6 = 0;
  3844  0F22  1307               	bcf	7,6	;volatile
  3845  0F23                     l1512:
  3846                           
  3847                           ;led_7seg.c: 21:  TRISCbits.TRISC7 = 0;
  3848  0F23  1387               	bcf	7,7	;volatile
  3849  0F24                     l1514:
  3850                           
  3851                           ;led_7seg.c: 23:  PORTCbits.RC4 = 1;
  3852  0F24  1283               	bcf	3,5	;RP0=0, select bank0
  3853  0F25  1303               	bcf	3,6	;RP1=0, select bank0
  3854  0F26  1607               	bsf	7,4	;volatile
  3855  0F27                     l1516:
  3856                           
  3857                           ;led_7seg.c: 24:  PORTCbits.RC5 = 1;
  3858  0F27  1687               	bsf	7,5	;volatile
  3859  0F28                     l1518:
  3860                           
  3861                           ;led_7seg.c: 25:  PORTCbits.RC6 = 1;
  3862  0F28  1707               	bsf	7,6	;volatile
  3863  0F29                     l1520:
  3864                           
  3865                           ;led_7seg.c: 26:  PORTCbits.RC7 = 1;
  3866  0F29  1787               	bsf	7,7	;volatile
  3867  0F2A                     l52:
  3868  0F2A  0008               	return
  3869  0F2B                     __end_of_Led_7seg_Init:
  3870  007E                     btemp	set	126	;btemp
  3871  007E                     wtemp0	set	126
  3872                           
  3873                           	psect	config
  3874                           
  3875                           ;Config register CONFIG @ 0x2007
  3876                           ;	Oscillator Selection bits
  3877                           ;	FOSC = HS, HS oscillator
  3878                           ;	Watchdog Timer Enable bit
  3879                           ;	WDTE = OFF, WDT disabled
  3880                           ;	Power-up Timer Enable bit
  3881                           ;	PWRTE = ON, PWRT enabled
  3882                           ;	Brown-out Reset Enable bit
  3883                           ;	BOREN = ON, BOR enabled
  3884                           ;	Low-Voltage (Single-Supply) In-Circuit Serial Programming Enable bit
  3885                           ;	LVP = ON, RB3/PGM pin has PGM function; low-voltage programming enabled
  3886                           ;	Data EEPROM Memory Code Protection bit
  3887                           ;	CPD = OFF, Data EEPROM code protection off
  3888                           ;	Flash Program Memory Write Enable bits
  3889                           ;	WRT = OFF, Write protection off; all program memory may be written to by EECON control
  3890                           ;	In-Circuit Debugger Mode bit
  3891                           ;	DEBUG = 0x1, unprogrammed default
  3892                           ;	Flash Program Memory Code Protection bit
  3893                           ;	CP = OFF, Code protection off
  3894  2007                     	org	8199
  3895  2007  3FF2               	dw	16370

Data Sizes:
    Strings     0
    Constant    20
    Data        0
    BSS         4
    Persistent  0
    Stack       0

Auto Spaces:
    Space          Size  Autos    Used
    COMMON           14     14      14
    BANK0            80     52      56
    BANK1            80      0       0
    BANK3            96      0       0
    BANK2            96      0       0

Pointer List with Targets:

    None.

Critical Paths under _main in COMMON

    _main->___xxtofl
    _Led_7seg_Display->___xxtofl
    _Led7_addFloatToBuffer->___flmul
    ___fltol->___flmul
    ___flmul->__Umul8_16
    _Led7_pointIndex->___flge

Critical Paths under _main in BANK0

    _main->_Led_7seg_Display
    _Led_7seg_Display->_Led7_addFloatToBuffer
    _Led7_addFloatToBuffer->___fltol
    ___fltol->___flmul

Critical Paths under _main in BANK1

    None.

Critical Paths under _main in BANK3

    None.

Critical Paths under _main in BANK2

    None.

Call Graph Tables:

 ---------------------------------------------------------------------------------
 (Depth) Function   	        Calls       Base Space   Used Autos Params    Refs
 ---------------------------------------------------------------------------------
 (0) _main                                                 4     4      0    6460
                                             48 BANK0      4     4      0
                        _Config_Init
                   _Led_7seg_Display
                           ___xxtofl
 ---------------------------------------------------------------------------------
 (1) ___xxtofl                                            14    10      4     398
                                              0 COMMON    14    10      4
 ---------------------------------------------------------------------------------
 (1) _Led_7seg_Display                                     6     2      4    5990
                                             42 BANK0      6     2      4
              _Led7_addFloatToBuffer
                   _Led7_displayUnit
                           ___xxtofl (ARG)
 ---------------------------------------------------------------------------------
 (3) _Led7_displayUnit                                     1     1      0      22
                                              0 COMMON     1     1      0
 ---------------------------------------------------------------------------------
 (2) _Led7_addFloatToBuffer                               10     6      4    5870
                                             32 BANK0     10     6      4
                    _Led7_pointIndex
                            ___awdiv
                            ___awmod
                            ___flmul
                            ___fltol
 ---------------------------------------------------------------------------------
 (3) ___fltol                                             11     7      4     533
                                             21 BANK0     11     7      4
                            ___flmul (ARG)
 ---------------------------------------------------------------------------------
 (3) ___flmul                                             26    18      8    2721
                                              9 COMMON     5     5      0
                                              0 BANK0     21    13      8
                          __Umul8_16
 ---------------------------------------------------------------------------------
 (4) __Umul8_16                                            9     7      2     799
                                              0 COMMON     9     7      2
 ---------------------------------------------------------------------------------
 (3) ___awmod                                              7     3      4     448
                                              0 COMMON     7     3      4
 ---------------------------------------------------------------------------------
 (3) ___awdiv                                              9     5      4     452
                                              0 COMMON     9     5      4
 ---------------------------------------------------------------------------------
 (3) _Led7_pointIndex                                      4     0      4    1302
                                              0 BANK0      4     0      4
                             ___flge
 ---------------------------------------------------------------------------------
 (4) ___flge                                              12     4      8    1094
                                              0 COMMON    12     4      8
 ---------------------------------------------------------------------------------
 (1) _Config_Init                                          0     0      0       0
                      _Led_7seg_Init
 ---------------------------------------------------------------------------------
 (2) _Led_7seg_Init                                        0     0      0       0
 ---------------------------------------------------------------------------------
 Estimated maximum stack depth 4
 ---------------------------------------------------------------------------------

 Call Graph Graphs:

 _main (ROOT)
   _Config_Init
     _Led_7seg_Init
   _Led_7seg_Display
     _Led7_addFloatToBuffer
       _Led7_pointIndex
         ___flge
       ___awdiv
       ___awmod
       ___flmul
         __Umul8_16
       ___fltol
         ___flmul (ARG)
     _Led7_displayUnit
     ___xxtofl (ARG)
   ___xxtofl

 Address spaces:
Name               Size   Autos  Total    Cost      Usage
BITCOMMON            E      0       0       0        0.0%
EEDATA             100      0       0       0        0.0%
NULL                 0      0       0       0        0.0%
CODE                 0      0       0       0        0.0%
COMMON               E      E       E       1      100.0%
BITSFR0              0      0       0       1        0.0%
SFR0                 0      0       0       1        0.0%
BITSFR1              0      0       0       2        0.0%
SFR1                 0      0       0       2        0.0%
STACK                0      0       0       2        0.0%
ABS                  0      0      46       3        0.0%
BITBANK0            50      0       0       4        0.0%
BITSFR3              0      0       0       4        0.0%
SFR3                 0      0       0       4        0.0%
BANK0               50     34      38       5       70.0%
BITSFR2              0      0       0       5        0.0%
SFR2                 0      0       0       5        0.0%
BITBANK1            50      0       0       6        0.0%
BANK1               50      0       0       7        0.0%
BITBANK3            60      0       0       8        0.0%
BANK3               60      0       0       9        0.0%
BITBANK2            60      0       0      10        0.0%
BANK2               60      0       0      11        0.0%
DATA                 0      0      46      12        0.0%


Microchip Technology PIC Macro Assembler V2.32 build 20210201212658 
Symbol Table                                                                                   Tue Jan 25 05:45:09 2022

                             pc 0002                              l23 00BC                              l33 0F3F  
                            l19 00AE                              l52 0F2A                              l63 0F17  
                            l56 02CF                              l75 0494                              l69 0449  
                            l78 009A                    ___awdiv@sign 0076                              fsr 0004  
           __Umul8_16@word_mpld 0076                             l330 0F98                             l341 020C  
                           l317 0FFF                             l342 0225                             l350 0183  
                           l360 0183                             l338 01A0                             l610 0353  
                           l611 035F                             l603 0337                             l357 016E  
                           l553 07F5                             l572 0020                             l565 07E9  
                           l574 0032                             l559 0761                             l597 02F2  
                           l599 0389                             fsr0 0004                             indf 0000  
                  ___awmod@sign 0076                    ___flmul@aexp 002D                    ___flmul@bexp 002E  
                  ___flmul@sign 0028                    ___flmul@temp 0033                    ___flmul@prod 002F  
                  ___fltol@exp1 003F                            l1200 000D                            l1210 002E  
                          l1202 000F                            l1300 0F50                            l1204 0016  
                          l1214 0226                            l1310 0F69                            l1302 0F55  
                          l1206 001A                            l1216 0241                            l1224 025E  
                          l1312 0F6D                            l1304 0F5B                            l1320 0F8A  
                          l1208 0029                            l1400 04EF                            l1242 02CE  
                          l1226 0279                            l1234 0296                            l1218 025C  
                          l1250 0F9E                            l1322 0F8F                            l1314 0F77  
                          l1306 0F5E                            l1410 0512                            l1402 04F4  
                          l1330 0115                            l1180 0184                            l1236 02B1  
                          l1228 0294                            l1260 0FB2                            l1252 0FA3  
                          l1324 0F94                            l1316 0F7D                            l1308 0F65  
                          l1500 07ED                            l1420 05A0                            l1412 051F  
                          l1404 04F9                            l1340 013C                            l1510 0F22  
                          l1190 01E4                            l1182 0198                            l1238 02CC  
                          l1270 0FC8                            l1262 0FB4                            l1254 0FA5  
                          l1246 0F99                            l1318 0F84                            l1430 0602  
                          l1422 05BC                            l1414 053C                            l1350 014A  
                          l1342 013E                            l1334 011E                            l1520 0F29  
                          l1512 0F23                            l1504 0F18                            l1192 01E8  
                          l1184 01B4                            l1280 0FEB                            l1272 0FCC  
                          l1264 0FBA                            l1256 0FA9                            l1248 0F9A  
                          l1440 0692                            l1432 061F                            l1424 05C5  
                          l1416 0558                            l1408 0502                            l1360 0173  
                          l1344 0142                            l1352 015C                            l1336 0133  
                          l1328 0108                            l1600 0097                            l1514 0F24  
                          l1506 0F1E                            l1194 0222                            l1186 01BC  
                          l1274 0FDD                            l1266 0FBD                            l1282 0FF1  
                          l1258 0FAE                            l1290 0F40                            l1450 0724  
                          l1442 06BF                            l1434 0638                            l1426 05D5  
                          l1418 0584                            l1370 04A6                            l1362 0178  
                          l1338 0134                            l1530 03A3                            l1522 0F0A  
                          l1610 02FA                            l1602 02D1                            l1516 0F27  
                          l1508 0F21                            l1196 0224                            l1188 01C0  
                          l1284 0FF6                            l1276 0FE3                            l1268 0FC4  
                          l1292 0F41                            l1452 072D                            l1460 0741  
                          l1444 06E5                            l1436 0655                            l1428 05F2  
                          l1380 04BB                            l1372 04A7                            l1364 0495  
                          l1540 0418                            l1532 03B7                            l1524 0F0E  
                          l1620 031C                            l1604 02D6                            l1518 0F28  
                          l1286 0FFB                            l1278 0FE4                            l1294 0F45  
                          l1462 0745                            l1454 0731                            l1446 070D  
                          l1438 0682                            l1390 04D3                            l1382 04C3  
                          l1374 04AC                            l1366 049C                            l1358 0163  
                          l1550 044B                            l1542 041E                            l1534 03BC  
                          l1526 038A                            l1630 034D                            l1622 0320  
                          l1614 0303                            l1606 02DA                            l1560 0F2B  
                          l1296 0F4A                            l1480 0796                            l1472 0766  
                          l1464 0746                            l1456 0732                            l1448 0716  
                          l1392 04D8                            l1384 04C8                            l1376 04B1  
                          l1368 04A2                            l1552 0464                            l1536 03E7  
                          l1544 0449                            l1528 039E                            l1640 0380  
                          l1632 0357                            l1624 032E                            l1616 0308  
                          l1608 02EA                            l1562 0F2F                            l1298 0F4C  
                          l1490 07CD                            l1474 076B                            l1482 079C  
                          l1466 074A                            l1458 073B                            l1394 04DD  
                          l1386 04CE                            l1378 04B9                            l1554 0477  
                          l1538 03ED                            l1570 0046                            l1642 0381  
                          l1634 0361                            l1626 033E                            l1618 0315  
                          l1650 00A3                            l1564 0F3A                            l1492 07CF  
                          l1484 07A9                            l1476 0779                            l1468 075E  
                          l1396 04E5                            l1388 04D2                            l1556 047D  
                          l1580 005C                            l1572 0047                            l1636 0377  
                          l1628 0349                            l1652 00A8                            l1494 07DD  
                          l1486 07B4                            l1478 077D                            l1398 04E7  
                          l1558 048A                            l1590 0077                            l1582 0062  
                          l1574 004D                            l1566 0033                            l1638 037C  
                          l1670 00F3                            l1662 00C0                            l1646 009B  
                          l1496 07E1                            l1488 07C3                            l1592 0082  
                          l1584 006D                            l1576 0058                            l1568 0042  
                          l1672 0100                            l1664 00C6                            l1656 00B2  
                          l1648 00A1                            l1498 07E2                            l1594 0085  
                          l1586 0070                            l1578 005B                            l1666 00CD  
                          l1658 00B8                            l1596 0086                            l1588 0071  
                          l1668 00EB                            l1598 008C                            u1100 0198  
                          u1101 0197                            u1110 01B4                            u1111 01B3  
                          u1120 01C0                            u1200 0241                            u2000 02DA  
                          u1121 01BF                            u1201 0240                            u2001 02D9  
                          u1210 025C                            u2010 02FA                            u1131 01CF  
                          u1211 025B                            u2011 02F9                            u1140 01E8  
                          u1132 01D0                            u1220 0279                            u1300 0FCC  
                          u2100 036C                            u1141 01E7                            u1133 01D5  
                          u1221 0278                            u1301 0FCB                            u1134 01D6  
                          u1230 0294                            u2110 037C                            u2030 031B  
                          u1151 01F7                            u1135 01DB                            u1231 0293  
                          u2111 037B                            u2031 031A                            u1160 0222  
                          u1152 01F8                            u1136 01DC                            u1240 02B1  
                          u1320 0FDD                            u1400 0F6D                            u2120 0380  
                          u1161 0221                            u1153 01FD                            u1241 02B0  
                          u1321 0FDC                            u1401 0F6C                            u2121 037F  
                          u2105 0367                            u2025 030D                            u1154 01FE  
                          u1250 02CC                            u1410 0F77                            u1170 001A  
                          u2050 033D                            u2130 00AE                            u1155 0203  
                          u1251 02CB                            u1315 0FCD                            u1411 0F76  
                          u1171 0019                            u2051 033C                            u2131 00AD  
                          u1156 0204                            u1340 0FF1                            u1260 0F9E  
                          u1500 015B                            u2140 00B2                            u1165 021E  
                          u1341 0FF0                            u1325 0FD9                            u1261 0F9D  
                          u1501 015A                            u2045 032F                            u2141 00B1  
                          u1350 0FF6                            u1270 0FA9                            u1430 0F8A  
                          u1190 002E                            u1510 0162                            u2070 034D  
                          u2150 00BC                            u1351 0FF5                            u1335 0FE5  
                          u1271 0FA8                            u1431 0F89                            u1415 0F73  
                          u1191 002D                            u1511 0161                            u2207 0068  
                          u2071 034C                            u2151 00BB                            u1280 0FBA  
                          u1440 0F8F                            u1360 0F45                            u1600 04DD  
                          u2080 0353                            u2160 00C0                            u1281 0FB9  
                          u1441 0F8E                            u1425 0F7E                            u1361 0F44  
                          u1185 0021                            u1601 04DC                            u2217 007D  
                          u2081 0352                            u2065 0342                            u2161 00BF  
                          u1370 0F50                            u1610 04F4                            u1530 0173  
                          u1450 0115                            u2090 0357                            u2170 00CD  
                          u1371 0F4F                            u1611 04F3                            u1531 0172  
                          u1451 0114                            u2227 0092                            u2091 0356  
                          u2171 00CC                            u1380 0F5B                            u1620 04F9  
                          u1540 0178                            u1460 012C                            u2180 0100  
                          u1381 0F5A                            u1621 04F8                            u1541 0177  
                          u1525 0165                            u2181 00FF                            u1550 04A6  
                          u1470 0142                            u1295 0FBE                            u1711 0647  
                          u1631 054A                            u1551 04A5                            u1471 0141  
                          u1800 0731                            u1712 064E                            u1632 0551  
                          u1560 04AC                            u1480 0149                            u1801 0730  
                          u1721 0674                            u1713 0655                            u1705 0621  
                          u1641 0566                            u1633 0558                            u1561 04AB  
                          u1481 0148                            u1465 0127                            u2185 00FC  
                          u1722 067B                            u1642 056D                            u1570 04B1  
                          u1395 0F5F                            u1731 06A1                            u1723 0682  
                          u1651 0592                            u1643 0574                            u1571 04B0  
                          u1900 07C3                            u1820 0745                            u1740 06CB  
                          u1732 06A8                            u1652 0599                            u1580 04D2  
                          u1901 07C2                            u1821 0744                            u1733 06AF  
                          u1661 05AE                            u1653 05A0                            u1581 04D1  
                          u2197 0053                            u1910 07E1                            u1830 074A  
                          u1662 05B5                            u1590 04D8                            u1911 07E0  
                          u1831 0749                            u1815 0734                            u1751 06D7  
                          u1663 05BC                            u1591 04D7                            u1495 014B  
                          u1840 075E                            u1760 06F3                            u1752 06DE  
                          u1920 03A3                            u1905 07BF                            u1841 075D  
                          u1753 06E5                            u1745 06C6                            u1681 05E4  
                          u1921 03A2                            u1850 0765                            u1682 05EB  
                          u1930 03BC                            u1851 0764                            u1771 06FF  
                          u1691 0611                            u1683 05F2                            u1675 05BE  
                          u1931 03BB                            u1860 076B                            u1772 0706  
                          u1692 0618                            u1940 03ED                            u1861 076A  
                          u1773 070D                            u1765 06EE                            u1693 061F  
                          u1941 03EC                            u1870 077D                            u1950 041E  
                          u1871 077C                            u1951 041D                            u1880 078C  
                          u1960 048A                            u1785 070F                            u1961 0489  
                          u1970 0F37                            u1890 07A9                            u1971 0F33  
                          u1891 07A8                            u1795 0726                            u1885 0787  
                          u1965 0486                            u1990 02D6                            u1895 07A5  
                          u1991 02D5                            u1984 0F3A                            _main 009B  
                          btemp 007E                            start 0000             __end_of_Config_Init 0F40  
              __end_of_LED7_HEX 081A                ?_Led7_pointIndex 0020                   ___fltol@sign1 003E  
                         ?_main 0070                 __end_of___awdiv 1000                 __end_of___awmod 0F99  
               __end_of___flmul 07F6                 __end_of___fltol 0184                 ___awdiv@divisor 0070  
               ___awdiv@counter 0075                           _PORTC 0007                           _PORTD 0008  
                         _TRISD 0088                           main@i 0052                           pclath 000A  
                         status 0003                           wtemp0 007E         ??_Led7_addFloatToBuffer 0044  
               __initialization 07F6                    __end_of_main 0108        __end_of_Led_7seg_Display 009B  
         __end_of_Led_7seg_Init 0F2B                          ??_main 007E                          _ADCON1 009F  
              ___awdiv@dividend 0072                     _Config_Init 0F2B                __end_of___xxtofl 038A  
                        ___flge 0184                       ??___awdiv 0074                       ??___awmod 0074  
                     ??___flmul 0079                       ??___fltol 0039                          _buffer 0054  
              ___awdiv@quotient 0077                 ___awmod@divisor 0070                 ___awmod@counter 0075  
            __size_of__Umul8_16 0027          Led7_addFloatToBuffer@i 0047          Led7_addFloatToBuffer@p 0049  
                    ___flge@ff1 0070                      ___flge@ff2 0074                    ___xxtofl@arg 007A  
                  ___xxtofl@exp 0079                    ___xxtofl@val 0070         __end_of__initialization 07FC  
     __size_of_Led7_displayUnit 000F          Led7_displayUnit@number 0070                      ___fltol@f1 0035  
                __pcstackCOMMON 0070                      __pbssBANK0 0054               __end_of__Umul8_16 0033  
                    __pmaintext 009B                         ?___flge 0070                       ?___xxtofl 0070  
                    __stringtab 0800  __size_of_Led7_addFloatToBuffer 010B   __end_of_Led7_addFloatToBuffer 0495  
               __size_of___flge 00A2                         ___awdiv 0F99                         ___awmod 0F40  
                       ___flmul 0495                         ___fltol 0108               ?_Led_7seg_Display 004A  
            ??_Led_7seg_Display 004E                         __ptext1 02D0                         __ptext2 0033  
                       __ptext3 0F09                         __ptext4 038A                         __ptext5 0108  
                       __ptext6 0495                         __ptext7 000C                         __ptext8 0F40  
                       __ptext9 0F99                      ??___xxtofl 0074                ___awmod@dividend 0072  
      __size_of_Led7_pointIndex 00AA            end_of_initialization 07FC                    ?_Config_Init 0070  
              _Led7_displayUnit 0F09                       _PORTBbits 0006                       _PORTCbits 0007  
                 ___xxtofl@sign 0078                       _TRISBbits 0086                       _TRISCbits 0087  
        __size_of_Led_7seg_Init 0013                     ___flmul@grs 0029                  __end_of___flge 0226  
           start_initialization 07F6               ??_Led7_pointIndex 007C                        ??___flge 0078  
                     __Umul8_16 000C                   _Led_7seg_Init 0F18                       ___flmul@a 0024  
                     ___flmul@b 0020                       ___latbits 0002                   __pcstackBANK0 0020  
             __size_of___xxtofl 00BA            __size_of_Config_Init 0015                        ?___awdiv 0070  
                      ?___awmod 0070                        ?___flmul 0020                        ?___fltol 0035  
                    ?__Umul8_16 0070                  ?_Led_7seg_Init 0070                       __pstrings 0800  
      __end_of_Led7_displayUnit 0F18       __size_of_Led_7seg_Display 0068                        _LED7_HEX 0806  
   Led7_addFloatToBuffer@newNum 0045           _Led7_addFloatToBuffer 038A             Led_7seg_Display@num 004A  
                   __stringbase 0805                       main@value 0050                 ??_Led_7seg_Init 0070  
                   ??__Umul8_16 0072                __size_of___awdiv 0067                __size_of___awmod 0059  
              __size_of___flmul 0361                __size_of___fltol 007C              __end_of__stringtab 0806  
               _Led7_pointIndex 0226                        ___xxtofl 02D0                        __ptext10 0226  
                      __ptext11 0184                        __ptext12 0F2B                        __ptext13 0F18  
                 __size_of_main 006D          ?_Led7_addFloatToBuffer 0040              Led7_pointIndex@num 0020  
              _Led_7seg_Display 0033                       stringcode 0800         __end_of_Led7_pointIndex 02D0  
        __Umul8_16@multiplicand 0070               ?_Led7_displayUnit 0070                        stringdir 0800  
            ??_Led7_displayUnit 0070                        stringtab 0800        Led7_addFloatToBuffer@num 0040  
                 ??_Config_Init 0070            __Umul8_16@multiplier 0078               __Umul8_16@product 0074  
