

Microchip MPLAB XC8 Assembler V2.20 build 20200408173844 
                                                                                               Thu Nov 25 05:23:49 2021

Microchip MPLAB XC8 C Compiler v2.20 (Free license) build 20200408173844 Og1 
     1                           	processor	16F877A
     2                           	pagewidth 120
     3                           	opt	flic
     4                           	psect	nvBANK1,global,class=BANK1,space=1,delta=1,noexec
     5                           	psect	cinit,global,class=CODE,merge=1,delta=2
     6                           	psect	cstackBANK1,global,class=BANK1,space=1,delta=1,noexec
     7                           	psect	cstackCOMMON,global,class=COMMON,space=1,delta=1,noexec
     8                           	psect	cstackBANK0,global,class=BANK0,space=1,delta=1,noexec
     9                           	psect	maintext,global,class=CODE,split=1,delta=2
    10                           	psect	text1,local,class=CODE,merge=1,delta=2
    11                           	psect	text2,local,class=CODE,merge=1,delta=2
    12                           	psect	text3,local,class=CODE,merge=1,delta=2
    13                           	psect	text4,local,class=CODE,merge=1,delta=2
    14                           	psect	text5,local,class=CODE,merge=1,delta=2
    15                           	psect	text6,local,class=CODE,merge=1,delta=2,group=1
    16                           	psect	text7,local,class=CODE,merge=1,delta=2,group=1
    17                           	psect	text8,local,class=CODE,merge=1,delta=2,group=1
    18                           	psect	text9,local,class=CODE,merge=1,delta=2,group=1
    19                           	psect	text10,local,class=CODE,merge=1,delta=2,group=1
    20                           	psect	text11,local,class=CODE,merge=1,delta=2
    21                           	psect	text12,local,class=CODE,merge=1,delta=2,group=1
    22                           	psect	text13,local,class=CODE,merge=1,delta=2
    23                           	psect	config,global,abs,ovrld,class=CONFIG,space=4,delta=2,noexec
    24                           	dabs	1,0x7E,2
    25  0000                     
    26                           ; Version 2.20
    27                           ; Generated 12/02/2020 GMT
    28                           ; 
    29                           ; Copyright © 2020, Microchip Technology Inc. and its subsidiaries ("Microchip")
    30                           ; All rights reserved.
    31                           ; 
    32                           ; This software is developed by Microchip Technology Inc. and its subsidiaries ("Microch
      +                          ip").
    33                           ; 
    34                           ; Redistribution and use in source and binary forms, with or without modification, are
    35                           ; permitted provided that the following conditions are met:
    36                           ; 
    37                           ;     1. Redistributions of source code must retain the above copyright notice, this lis
      +                          t of
    38                           ;        conditions and the following disclaimer.
    39                           ; 
    40                           ;     2. Redistributions in binary form must reproduce the above copyright notice, this 
      +                          list
    41                           ;        of conditions and the following disclaimer in the documentation and/or other
    42                           ;        materials provided with the distribution.
    43                           ; 
    44                           ;     3. Microchip's name may not be used to endorse or promote products derived from th
      +                          is
    45                           ;        software without specific prior written permission.
    46                           ; 
    47                           ; THIS SOFTWARE IS PROVIDED BY MICROCHIP "AS IS" AND ANY EXPRESS OR IMPLIED WARRANTIES,
    48                           ; INCLUDING, BUT NOT LIMITED TO, THE IMPLIED WARRANTIES OF MERCHANTABILITY AND FITNESS F
      +                          OR
    49                           ; PURPOSE ARE DISCLAIMED.  IN NO EVENT SHALL MICROCHIP BE LIABLE FOR ANY DIRECT, INDIREC
      +                          T,
    50                           ; INCIDENTAL, SPECIAL, EXEMPLARY, OR CONSEQUENTIAL DAMAGES (INCLUDING BUT NOT LIMITED TO
    51                           ; PROCUREMENT OF SUBSTITUTE GOODS OR SERVICES; LOSS OF USE, DATA OR PROFITS; OR BUSINESS
    52                           ; INTERRUPTION) HOWSOEVER CAUSED AND ON ANY THEORY OF LIABILITY, WHETHER IN CONTRACT, ST
      +                          RICT
    53                           ; LIABILITY, OR TORT (INCLUDING NEGLIGENCE OR OTHERWISE) ARISING IN ANY WAY OUT OF THE U
      +                          SE OF
    54                           ; THIS SOFTWARE, EVEN IF ADVISED OF THE POSSIBILITY OF SUCH DAMAGE.
    55                           ; 
    56                           ; 
    57                           ; Code-generator required, PIC16F877A Definitions
    58                           ; 
    59                           ; SFR Addresses
    60  0000                     	;# 
    61  0001                     	;# 
    62  0002                     	;# 
    63  0003                     	;# 
    64  0004                     	;# 
    65  0005                     	;# 
    66  0006                     	;# 
    67  0007                     	;# 
    68  0008                     	;# 
    69  0009                     	;# 
    70  000A                     	;# 
    71  000B                     	;# 
    72  000C                     	;# 
    73  000D                     	;# 
    74  000E                     	;# 
    75  000E                     	;# 
    76  000F                     	;# 
    77  0010                     	;# 
    78  0011                     	;# 
    79  0012                     	;# 
    80  0013                     	;# 
    81  0014                     	;# 
    82  0015                     	;# 
    83  0015                     	;# 
    84  0016                     	;# 
    85  0017                     	;# 
    86  0018                     	;# 
    87  0019                     	;# 
    88  001A                     	;# 
    89  001B                     	;# 
    90  001B                     	;# 
    91  001C                     	;# 
    92  001D                     	;# 
    93  001E                     	;# 
    94  001F                     	;# 
    95  0081                     	;# 
    96  0085                     	;# 
    97  0086                     	;# 
    98  0087                     	;# 
    99  0088                     	;# 
   100  0089                     	;# 
   101  008C                     	;# 
   102  008D                     	;# 
   103  008E                     	;# 
   104  0091                     	;# 
   105  0092                     	;# 
   106  0093                     	;# 
   107  0094                     	;# 
   108  0098                     	;# 
   109  0099                     	;# 
   110  009C                     	;# 
   111  009D                     	;# 
   112  009E                     	;# 
   113  009F                     	;# 
   114  010C                     	;# 
   115  010D                     	;# 
   116  010E                     	;# 
   117  010F                     	;# 
   118  018C                     	;# 
   119  018D                     	;# 
   120  0000                     	;# 
   121  0001                     	;# 
   122  0002                     	;# 
   123  0003                     	;# 
   124  0004                     	;# 
   125  0005                     	;# 
   126  0006                     	;# 
   127  0007                     	;# 
   128  0008                     	;# 
   129  0009                     	;# 
   130  000A                     	;# 
   131  000B                     	;# 
   132  000C                     	;# 
   133  000D                     	;# 
   134  000E                     	;# 
   135  000E                     	;# 
   136  000F                     	;# 
   137  0010                     	;# 
   138  0011                     	;# 
   139  0012                     	;# 
   140  0013                     	;# 
   141  0014                     	;# 
   142  0015                     	;# 
   143  0015                     	;# 
   144  0016                     	;# 
   145  0017                     	;# 
   146  0018                     	;# 
   147  0019                     	;# 
   148  001A                     	;# 
   149  001B                     	;# 
   150  001B                     	;# 
   151  001C                     	;# 
   152  001D                     	;# 
   153  001E                     	;# 
   154  001F                     	;# 
   155  0081                     	;# 
   156  0085                     	;# 
   157  0086                     	;# 
   158  0087                     	;# 
   159  0088                     	;# 
   160  0089                     	;# 
   161  008C                     	;# 
   162  008D                     	;# 
   163  008E                     	;# 
   164  0091                     	;# 
   165  0092                     	;# 
   166  0093                     	;# 
   167  0094                     	;# 
   168  0098                     	;# 
   169  0099                     	;# 
   170  009C                     	;# 
   171  009D                     	;# 
   172  009E                     	;# 
   173  009F                     	;# 
   174  010C                     	;# 
   175  010D                     	;# 
   176  010E                     	;# 
   177  010F                     	;# 
   178  018C                     	;# 
   179  018D                     	;# 
   180                           
   181                           	psect	nvBANK1
   182  00A0                     __pnvBANK1:
   183  00A0                     _duty:
   184  00A0                     	ds	2
   185  00A2                     _ADCvalue:
   186  00A2                     	ds	2
   187  00A4                     _freq:
   188  00A4                     	ds	4
   189  001E                     _ADRESH	set	30
   190  001F                     _ADCON0bits	set	31
   191  001D                     _CCP2CONbits	set	29
   192  0012                     _T2CONbits	set	18
   193  0017                     _CCP1CONbits	set	23
   194  001B                     _CCPR2L	set	27
   195  0015                     _CCPR1L	set	21
   196  00EC                     _CCP2Y	set	236
   197  00ED                     _CCP2X	set	237
   198  00BC                     _CCP1Y	set	188
   199  00BD                     _CCP1X	set	189
   200  009E                     _ADRESL	set	158
   201  009F                     _ADCON1bits	set	159
   202  0087                     _TRISCbits	set	135
   203  0092                     _PR2	set	146
   204                           
   205                           	psect	cinit
   206  07FC                     start_initialization:	
   207                           ; #config settings
   208                           
   209  07FC                     __initialization:
   210  07FC                     end_of_initialization:	
   211                           ;End of C runtime variable initialization code
   212                           
   213  07FC                     __end_of__initialization:
   214  07FC  0183               	clrf	3
   215  07FD  120A  158A  2F83   	ljmp	_main	;jump to C main() function
   216                           
   217                           	psect	cstackBANK1
   218  00A8                     __pcstackBANK1:
   219  00A8                     ??___fltol:
   220                           
   221                           ; 1 bytes @ 0x0
   222  00A8                     	ds	4
   223  00AC                     ?_PWM1_Duty:
   224  00AC                     PWM1_Duty@duty:	
   225                           ; 2 bytes @ 0x4
   226                           
   227                           
   228                           ; 2 bytes @ 0x4
   229  00AC                     	ds	2
   230  00AE                     ??_PWM1_Duty:
   231                           
   232                           ; 1 bytes @ 0x6
   233  00AE                     	ds	2
   234                           
   235                           	psect	cstackCOMMON
   236  0070                     __pcstackCOMMON:
   237  0070                     ?_ADCinit:
   238  0070                     ??_ADCinit:	
   239                           ; 1 bytes @ 0x0
   240                           
   241  0070                     ?_PWM:	
   242                           ; 1 bytes @ 0x0
   243                           
   244  0070                     ?_PWM1_Start:	
   245                           ; 1 bytes @ 0x0
   246                           
   247  0070                     ??_PWM1_Start:	
   248                           ; 1 bytes @ 0x0
   249                           
   250  0070                     ?_main:	
   251                           ; 1 bytes @ 0x0
   252                           
   253  0070                     ?_ReadADC:	
   254                           ; 1 bytes @ 0x0
   255                           
   256  0070                     ?__Umul8_16:	
   257                           ; 2 bytes @ 0x0
   258                           
   259  0070                     ?___aldiv:	
   260                           ; 2 bytes @ 0x0
   261                           
   262  0070                     __Umul8_16@multiplicand:	
   263                           ; 4 bytes @ 0x0
   264                           
   265  0070                     ___aldiv@divisor:	
   266                           ; 1 bytes @ 0x0
   267                           
   268                           
   269                           ; 4 bytes @ 0x0
   270  0070                     	ds	2
   271  0072                     ??_ReadADC:
   272  0072                     ??__Umul8_16:	
   273                           ; 1 bytes @ 0x2
   274                           
   275  0072                     ReadADC@TempValue:	
   276                           ; 1 bytes @ 0x2
   277                           
   278                           
   279                           ; 2 bytes @ 0x2
   280  0072                     	ds	2
   281  0074                     __Umul8_16@product:
   282  0074                     ___aldiv@dividend:	
   283                           ; 2 bytes @ 0x4
   284                           
   285                           
   286                           ; 4 bytes @ 0x4
   287  0074                     	ds	2
   288  0076                     __Umul8_16@word_mpld:
   289                           
   290                           ; 2 bytes @ 0x6
   291  0076                     	ds	2
   292  0078                     ??___aldiv:
   293  0078                     __Umul8_16@multiplier:	
   294                           ; 1 bytes @ 0x8
   295                           
   296                           
   297                           ; 1 bytes @ 0x8
   298  0078                     	ds	1
   299  0079                     ??_PWM_Max_Duty:
   300  0079                     ??_PWM1_Init_Fre:	
   301                           ; 1 bytes @ 0x9
   302                           
   303                           
   304                           ; 1 bytes @ 0x9
   305  0079                     	ds	4
   306  007D                     ??_PWM:
   307  007D                     ??_main:	
   308                           ; 1 bytes @ 0xD
   309                           
   310                           
   311                           	psect	cstackBANK0
   312  0020                     __pcstackBANK0:	
   313                           ; 1 bytes @ 0xD
   314                           
   315  0020                     ___aldiv@counter:
   316                           
   317                           ; 1 bytes @ 0x0
   318  0020                     	ds	1
   319  0021                     ___aldiv@sign:
   320                           
   321                           ; 1 bytes @ 0x1
   322  0021                     	ds	1
   323  0022                     ___aldiv@quotient:
   324                           
   325                           ; 4 bytes @ 0x2
   326  0022                     	ds	4
   327  0026                     ?_PWM_Max_Duty:
   328  0026                     ?_PWM1_Init_Fre:	
   329                           ; 2 bytes @ 0x6
   330                           
   331  0026                     PWM1_Init_Fre@fre:	
   332                           ; 2 bytes @ 0x6
   333                           
   334                           
   335                           ; 4 bytes @ 0x6
   336  0026                     	ds	2
   337  0028                     ?___xxtofl:
   338  0028                     ___xxtofl@val:	
   339                           ; 4 bytes @ 0x8
   340                           
   341                           
   342                           ; 4 bytes @ 0x8
   343  0028                     	ds	4
   344  002C                     ??___xxtofl:
   345                           
   346                           ; 1 bytes @ 0xC
   347  002C                     	ds	4
   348  0030                     ___xxtofl@sign:
   349                           
   350                           ; 1 bytes @ 0x10
   351  0030                     	ds	1
   352  0031                     ___xxtofl@exp:
   353                           
   354                           ; 1 bytes @ 0x11
   355  0031                     	ds	1
   356  0032                     ___xxtofl@arg:
   357                           
   358                           ; 4 bytes @ 0x12
   359  0032                     	ds	4
   360  0036                     ?___fldiv:
   361  0036                     ___fldiv@a:	
   362                           ; 4 bytes @ 0x16
   363                           
   364                           
   365                           ; 4 bytes @ 0x16
   366  0036                     	ds	4
   367  003A                     ___fldiv@b:
   368                           
   369                           ; 4 bytes @ 0x1A
   370  003A                     	ds	4
   371  003E                     ??___fldiv:
   372                           
   373                           ; 1 bytes @ 0x1E
   374  003E                     	ds	5
   375  0043                     ___fldiv@rem:
   376                           
   377                           ; 4 bytes @ 0x23
   378  0043                     	ds	4
   379  0047                     ___fldiv@sign:
   380                           
   381                           ; 1 bytes @ 0x27
   382  0047                     	ds	1
   383  0048                     ___fldiv@new_exp:
   384                           
   385                           ; 2 bytes @ 0x28
   386  0048                     	ds	2
   387  004A                     ___fldiv@grs:
   388                           
   389                           ; 4 bytes @ 0x2A
   390  004A                     	ds	4
   391  004E                     ___fldiv@bexp:
   392                           
   393                           ; 1 bytes @ 0x2E
   394  004E                     	ds	1
   395  004F                     ___fldiv@aexp:
   396                           
   397                           ; 1 bytes @ 0x2F
   398  004F                     	ds	1
   399  0050                     ?___flmul:
   400  0050                     ___flmul@b:	
   401                           ; 4 bytes @ 0x30
   402                           
   403                           
   404                           ; 4 bytes @ 0x30
   405  0050                     	ds	4
   406  0054                     ___flmul@a:
   407                           
   408                           ; 4 bytes @ 0x34
   409  0054                     	ds	4
   410  0058                     ??___flmul:
   411                           
   412                           ; 1 bytes @ 0x38
   413  0058                     	ds	5
   414  005D                     ___flmul@sign:
   415                           
   416                           ; 1 bytes @ 0x3D
   417  005D                     	ds	1
   418  005E                     ___flmul@grs:
   419                           
   420                           ; 4 bytes @ 0x3E
   421  005E                     	ds	4
   422  0062                     ___flmul@aexp:
   423                           
   424                           ; 1 bytes @ 0x42
   425  0062                     	ds	1
   426  0063                     ___flmul@bexp:
   427                           
   428                           ; 1 bytes @ 0x43
   429  0063                     	ds	1
   430  0064                     ___flmul@prod:
   431                           
   432                           ; 4 bytes @ 0x44
   433  0064                     	ds	4
   434  0068                     ___flmul@temp:
   435                           
   436                           ; 2 bytes @ 0x48
   437  0068                     	ds	2
   438  006A                     ?___fltol:
   439  006A                     ___fltol@f1:	
   440                           ; 4 bytes @ 0x4A
   441                           
   442                           
   443                           ; 4 bytes @ 0x4A
   444  006A                     	ds	4
   445  006E                     ___fltol@sign1:
   446                           
   447                           ; 1 bytes @ 0x4E
   448  006E                     	ds	1
   449  006F                     ___fltol@exp1:
   450                           
   451                           ; 1 bytes @ 0x4F
   452  006F                     	ds	1
   453                           
   454                           	psect	maintext
   455  0F83                     __pmaintext:	
   456 ;;
   457 ;;Main: autosize = 0, tempsize = 0, incstack = 0, save=0
   458 ;;
   459 ;; *************** function _main *****************
   460 ;; Defined at:
   461 ;;		line 27 in file "PWM_POT_HG.c"
   462 ;; Parameters:    Size  Location     Type
   463 ;;		None
   464 ;; Auto vars:     Size  Location     Type
   465 ;;		None
   466 ;; Return value:  Size  Location     Type
   467 ;;                  1    wreg      void 
   468 ;; Registers used:
   469 ;;		wreg, status,2, status,0, btemp+1, pclath, cstack
   470 ;; Tracked objects:
   471 ;;		On entry : B00/0
   472 ;;		On exit  : 0/0
   473 ;;		Unchanged: 0/0
   474 ;; Data sizes:     COMMON   BANK0   BANK1   BANK3   BANK2
   475 ;;      Params:         0       0       0       0       0
   476 ;;      Locals:         0       0       0       0       0
   477 ;;      Temps:          0       0       0       0       0
   478 ;;      Totals:         0       0       0       0       0
   479 ;;Total ram usage:        0 bytes
   480 ;; Hardware stack levels required when called:    4
   481 ;; This function calls:
   482 ;;		_ADCinit
   483 ;;		_PWM
   484 ;;		_PWM1_Duty
   485 ;;		_ReadADC
   486 ;;		___fldiv
   487 ;;		___flmul
   488 ;;		___fltol
   489 ;;		___xxtofl
   490 ;; This function is called by:
   491 ;;		Startup code after reset
   492 ;; This function uses a non-reentrant model
   493 ;;
   494                           
   495                           
   496                           ;psect for function _main
   497  0F83                     _main:
   498  0F83                     l1641:	
   499                           ;incstack = 0
   500                           ; Regs used in _main: [wreg+status,2+status,0+btemp+1+pclath+cstack]
   501                           
   502                           
   503                           ;PWM_POT_HG.c: 29: 
   504  0F83  120A  158A  26D8  120A  158A  	fcall	_ADCinit
   505  0F88                     l1643:
   506                           
   507                           ;PWM_POT_HG.c: 30:     ADCON1bits.PCFG3 = 1, ADCON1bits.PCFG2 = 1, ADCON1bits.PCFG1 = 1,
      +                           ADCON1bits.PCFG0 = 0;
   508  0F88  120A  158A  26ED  120A  158A  	fcall	_PWM
   509  0F8D                     l1645:
   510                           
   511                           ;PWM_POT_HG.c: 32:     ADCON0bits.ADON = 1;;PWM_POT_HG.c: 33: }
   512  0F8D  120A  158A  26C6  120A  158A  	fcall	_ReadADC
   513  0F92  0871               	movf	?_ReadADC+1,w
   514  0F93  1683               	bsf	3,5	;RP0=1, select bank1
   515  0F94  1303               	bcf	3,6	;RP1=0, select bank1
   516  0F95  00A3               	movwf	(_ADCvalue+1)^(0+128)
   517  0F96  0870               	movf	?_ReadADC,w
   518  0F97  00A2               	movwf	_ADCvalue^(0+128)
   519  0F98                     l1647:
   520                           
   521                           ;PWM_POT_HG.c: 34: unsigned int ReadADC (void)
   522  0F98  0822               	movf	_ADCvalue^(0+128),w
   523  0F99  1283               	bcf	3,5	;RP0=0, select bank0
   524  0F9A  1303               	bcf	3,6	;RP1=0, select bank0
   525  0F9B  00A8               	movwf	___xxtofl@val
   526  0F9C  1683               	bsf	3,5	;RP0=1, select bank1
   527  0F9D  1303               	bcf	3,6	;RP1=0, select bank1
   528  0F9E  0823               	movf	(_ADCvalue+1)^(0+128),w
   529  0F9F  1283               	bcf	3,5	;RP0=0, select bank0
   530  0FA0  1303               	bcf	3,6	;RP1=0, select bank0
   531  0FA1  00A9               	movwf	___xxtofl@val+1
   532  0FA2  01AA               	clrf	___xxtofl@val+2
   533  0FA3  01AB               	clrf	___xxtofl@val+3
   534  0FA4  3000               	movlw	0
   535  0FA5  120A  118A  2202  120A  158A  	fcall	___xxtofl
   536  0FAA  1283               	bcf	3,5	;RP0=0, select bank0
   537  0FAB  1303               	bcf	3,6	;RP1=0, select bank0
   538  0FAC  082B               	movf	?___xxtofl+3,w
   539  0FAD  00BD               	movwf	___fldiv@b+3
   540  0FAE  082A               	movf	?___xxtofl+2,w
   541  0FAF  00BC               	movwf	___fldiv@b+2
   542  0FB0  0829               	movf	?___xxtofl+1,w
   543  0FB1  00BB               	movwf	___fldiv@b+1
   544  0FB2  0828               	movf	?___xxtofl,w
   545  0FB3  00BA               	movwf	___fldiv@b
   546  0FB4  3044               	movlw	68
   547  0FB5  00B9               	movwf	___fldiv@a+3
   548  0FB6  307F               	movlw	127
   549  0FB7  00B8               	movwf	___fldiv@a+2
   550  0FB8  30C0               	movlw	192
   551  0FB9  00B7               	movwf	___fldiv@a+1
   552  0FBA  3000               	movlw	0
   553  0FBB  00B6               	movwf	___fldiv@a
   554  0FBC  120A  118A  22BE  120A  158A  	fcall	___fldiv
   555  0FC1  1283               	bcf	3,5	;RP0=0, select bank0
   556  0FC2  1303               	bcf	3,6	;RP1=0, select bank0
   557  0FC3  0839               	movf	?___fldiv+3,w
   558  0FC4  00D7               	movwf	___flmul@a+3
   559  0FC5  0838               	movf	?___fldiv+2,w
   560  0FC6  00D6               	movwf	___flmul@a+2
   561  0FC7  0837               	movf	?___fldiv+1,w
   562  0FC8  00D5               	movwf	___flmul@a+1
   563  0FC9  0836               	movf	?___fldiv,w
   564  0FCA  00D4               	movwf	___flmul@a
   565  0FCB  3042               	movlw	66
   566  0FCC  00D3               	movwf	___flmul@b+3
   567  0FCD  30C8               	movlw	200
   568  0FCE  00D2               	movwf	___flmul@b+2
   569  0FCF  3000               	movlw	0
   570  0FD0  00D1               	movwf	___flmul@b+1
   571  0FD1  3000               	movlw	0
   572  0FD2  00D0               	movwf	___flmul@b
   573  0FD3  120A  118A  249B  120A  158A  	fcall	___flmul
   574  0FD8  1283               	bcf	3,5	;RP0=0, select bank0
   575  0FD9  1303               	bcf	3,6	;RP1=0, select bank0
   576  0FDA  0853               	movf	?___flmul+3,w
   577  0FDB  00ED               	movwf	___fltol@f1+3
   578  0FDC  0852               	movf	?___flmul+2,w
   579  0FDD  00EC               	movwf	___fltol@f1+2
   580  0FDE  0851               	movf	?___flmul+1,w
   581  0FDF  00EB               	movwf	___fltol@f1+1
   582  0FE0  0850               	movf	?___flmul,w
   583  0FE1  00EA               	movwf	___fltol@f1
   584  0FE2  120A  118A  203C  120A  158A  	fcall	___fltol
   585  0FE7  1283               	bcf	3,5	;RP0=0, select bank0
   586  0FE8  1303               	bcf	3,6	;RP1=0, select bank0
   587  0FE9  086B               	movf	?___fltol+1,w
   588  0FEA  1683               	bsf	3,5	;RP0=1, select bank1
   589  0FEB  1303               	bcf	3,6	;RP1=0, select bank1
   590  0FEC  00A1               	movwf	(_duty+1)^(0+128)
   591  0FED  1283               	bcf	3,5	;RP0=0, select bank0
   592  0FEE  1303               	bcf	3,6	;RP1=0, select bank0
   593  0FEF  086A               	movf	?___fltol,w
   594  0FF0  1683               	bsf	3,5	;RP0=1, select bank1
   595  0FF1  1303               	bcf	3,6	;RP1=0, select bank1
   596  0FF2  00A0               	movwf	_duty^(0+128)
   597  0FF3                     l1649:
   598                           
   599                           ;PWM_POT_HG.c: 35: {
   600  0FF3  0821               	movf	(_duty+1)^(0+128),w
   601  0FF4  00AD               	movwf	(PWM1_Duty@duty+1)^(0+128)
   602  0FF5  0820               	movf	_duty^(0+128),w
   603  0FF6  00AC               	movwf	PWM1_Duty@duty^(0+128)
   604  0FF7  120A  118A  20D0  120A  158A  	fcall	_PWM1_Duty
   605  0FFC  2F8D               	goto	l1645
   606  0FFD  120A  118A  2800   	ljmp	start
   607  1000                     __end_of_main:
   608                           
   609                           	psect	text1
   610  0EC6                     __ptext1:	
   611 ;; *************** function _ReadADC *****************
   612 ;; Defined at:
   613 ;;		line 57 in file "PWM_POT_HG.c"
   614 ;; Parameters:    Size  Location     Type
   615 ;;		None
   616 ;; Auto vars:     Size  Location     Type
   617 ;;  TempValue       2    2[COMMON] unsigned int 
   618 ;; Return value:  Size  Location     Type
   619 ;;                  2    0[COMMON] unsigned int 
   620 ;; Registers used:
   621 ;;		wreg, status,2
   622 ;; Tracked objects:
   623 ;;		On entry : 0/0
   624 ;;		On exit  : 0/0
   625 ;;		Unchanged: 0/0
   626 ;; Data sizes:     COMMON   BANK0   BANK1   BANK3   BANK2
   627 ;;      Params:         2       0       0       0       0
   628 ;;      Locals:         2       0       0       0       0
   629 ;;      Temps:          0       0       0       0       0
   630 ;;      Totals:         4       0       0       0       0
   631 ;;Total ram usage:        4 bytes
   632 ;; Hardware stack levels used:    1
   633 ;; This function calls:
   634 ;;		Nothing
   635 ;; This function is called by:
   636 ;;		_main
   637 ;; This function uses a non-reentrant model
   638 ;;
   639                           
   640                           
   641                           ;psect for function _ReadADC
   642  0EC6                     _ReadADC:
   643  0EC6                     l1621:	
   644                           ;incstack = 0
   645                           ; Regs used in _ReadADC: [wreg+status,2]
   646                           
   647  0EC6                     l1623:
   648  0EC6  1283               	bcf	3,5	;RP0=0, select bank0
   649  0EC7  1303               	bcf	3,6	;RP1=0, select bank0
   650  0EC8  151F               	bsf	31,2	;volatile
   651  0EC9                     l86:
   652  0EC9  191F               	btfsc	31,2	;volatile
   653  0ECA  2ECC               	goto	u2221
   654  0ECB  2ECD               	goto	u2220
   655  0ECC                     u2221:
   656  0ECC  2EC9               	goto	l86
   657  0ECD                     u2220:
   658  0ECD                     l1625:
   659  0ECD  081E               	movf	30,w	;volatile
   660  0ECE  00F3               	movwf	ReadADC@TempValue+1
   661  0ECF  1683               	bsf	3,5	;RP0=1, select bank1
   662  0ED0  1303               	bcf	3,6	;RP1=0, select bank1
   663  0ED1  081E               	movf	30,w	;volatile
   664  0ED2  00F2               	movwf	ReadADC@TempValue
   665  0ED3  0873               	movf	ReadADC@TempValue+1,w
   666  0ED4  00F1               	movwf	?_ReadADC+1
   667  0ED5  0872               	movf	ReadADC@TempValue,w
   668  0ED6  00F0               	movwf	?_ReadADC
   669  0ED7                     l89:
   670  0ED7  0008               	return
   671  0ED8                     __end_of_ReadADC:
   672                           
   673                           	psect	text2
   674  0EED                     __ptext2:	
   675 ;; *************** function _PWM *****************
   676 ;; Defined at:
   677 ;;		line 38 in file "PWM_POT_HG.c"
   678 ;; Parameters:    Size  Location     Type
   679 ;;		None
   680 ;; Auto vars:     Size  Location     Type
   681 ;;		None
   682 ;; Return value:  Size  Location     Type
   683 ;;                  1    wreg      void 
   684 ;; Registers used:
   685 ;;		wreg, status,2, status,0, btemp+1, pclath, cstack
   686 ;; Tracked objects:
   687 ;;		On entry : 0/0
   688 ;;		On exit  : 0/0
   689 ;;		Unchanged: 0/0
   690 ;; Data sizes:     COMMON   BANK0   BANK1   BANK3   BANK2
   691 ;;      Params:         0       0       0       0       0
   692 ;;      Locals:         0       0       0       0       0
   693 ;;      Temps:          0       0       0       0       0
   694 ;;      Totals:         0       0       0       0       0
   695 ;;Total ram usage:        0 bytes
   696 ;; Hardware stack levels used:    1
   697 ;; Hardware stack levels required when called:    3
   698 ;; This function calls:
   699 ;;		_PWM1_Duty
   700 ;;		_PWM1_Init_Fre
   701 ;;		_PWM1_Start
   702 ;; This function is called by:
   703 ;;		_main
   704 ;; This function uses a non-reentrant model
   705 ;;
   706                           
   707                           
   708                           ;psect for function _PWM
   709  0EED                     _PWM:
   710  0EED                     l1617:	
   711                           ;incstack = 0
   712                           ; Regs used in _PWM: [wreg+status,2+status,0+btemp+1+pclath+cstack]
   713                           
   714                           
   715                           ;PWM_POT_HG.c: 40:     return (TempValue);
   716  0EED  3000               	movlw	0
   717  0EEE  1283               	bcf	3,5	;RP0=0, select bank0
   718  0EEF  1303               	bcf	3,6	;RP1=0, select bank0
   719  0EF0  00A9               	movwf	PWM1_Init_Fre@fre+3
   720  0EF1  3000               	movlw	0
   721  0EF2  00A8               	movwf	PWM1_Init_Fre@fre+2
   722  0EF3  3003               	movlw	3
   723  0EF4  00A7               	movwf	PWM1_Init_Fre@fre+1
   724  0EF5  30E8               	movlw	232
   725  0EF6  00A6               	movwf	PWM1_Init_Fre@fre
   726  0EF7  120A  158A  2734  120A  158A  	fcall	_PWM1_Init_Fre
   727                           
   728                           ;PWM_POT_HG.c: 41: }
   729  0EFC  1683               	bsf	3,5	;RP0=1, select bank1
   730  0EFD  1303               	bcf	3,6	;RP1=0, select bank1
   731  0EFE  0821               	movf	(_duty+1)^(0+128),w
   732  0EFF  00AD               	movwf	(PWM1_Duty@duty+1)^(0+128)
   733  0F00  0820               	movf	_duty^(0+128),w
   734  0F01  00AC               	movwf	PWM1_Duty@duty^(0+128)
   735  0F02  120A  118A  20D0  120A  158A  	fcall	_PWM1_Duty
   736  0F07                     l1619:
   737  0F07  120A  158A  26BB  120A  158A  	fcall	_PWM1_Start
   738  0F0C                     l80:
   739  0F0C  0008               	return
   740  0F0D                     __end_of_PWM:
   741                           
   742                           	psect	text3
   743  0EBB                     __ptext3:	
   744 ;; *************** function _PWM1_Start *****************
   745 ;; Defined at:
   746 ;;		line 38 in file "./PWM.h"
   747 ;; Parameters:    Size  Location     Type
   748 ;;		None
   749 ;; Auto vars:     Size  Location     Type
   750 ;;		None
   751 ;; Return value:  Size  Location     Type
   752 ;;                  1    wreg      void 
   753 ;; Registers used:
   754 ;;		None
   755 ;; Tracked objects:
   756 ;;		On entry : 0/0
   757 ;;		On exit  : 0/0
   758 ;;		Unchanged: 0/0
   759 ;; Data sizes:     COMMON   BANK0   BANK1   BANK3   BANK2
   760 ;;      Params:         0       0       0       0       0
   761 ;;      Locals:         0       0       0       0       0
   762 ;;      Temps:          0       0       0       0       0
   763 ;;      Totals:         0       0       0       0       0
   764 ;;Total ram usage:        0 bytes
   765 ;; Hardware stack levels used:    1
   766 ;; This function calls:
   767 ;;		Nothing
   768 ;; This function is called by:
   769 ;;		_PWM
   770 ;; This function uses a non-reentrant model
   771 ;;
   772                           
   773                           
   774                           ;psect for function _PWM1_Start
   775  0EBB                     _PWM1_Start:
   776  0EBB                     l1613:	
   777                           ;incstack = 0
   778                           ; Regs used in _PWM1_Start: []
   779                           
   780                           
   781                           ;./PWM.h: 40:   CCP1CONbits.CCP1M3 = 1;
   782  0EBB  1283               	bcf	3,5	;RP0=0, select bank0
   783  0EBC  1303               	bcf	3,6	;RP1=0, select bank0
   784  0EBD  1597               	bsf	23,3	;volatile
   785                           
   786                           ;./PWM.h: 41:   CCP1CONbits.CCP1M2 = 1;
   787  0EBE  1517               	bsf	23,2	;volatile
   788                           
   789                           ;./PWM.h: 46:     T2CONbits.T2CKPS0 = 1;
   790  0EBF  1412               	bsf	18,0	;volatile
   791                           
   792                           ;./PWM.h: 47:     T2CONbits.T2CKPS1 = 0;
   793  0EC0  1092               	bcf	18,1	;volatile
   794                           
   795                           ;./PWM.h: 52:   T2CONbits.TMR2ON = 1;
   796  0EC1  1512               	bsf	18,2	;volatile
   797                           
   798                           ;./PWM.h: 53:   TRISCbits.TRISC2 = 0;
   799  0EC2  1683               	bsf	3,5	;RP0=1, select bank1
   800  0EC3  1303               	bcf	3,6	;RP1=0, select bank1
   801  0EC4  1107               	bcf	7,2	;volatile
   802  0EC5                     l56:
   803  0EC5  0008               	return
   804  0EC6                     __end_of_PWM1_Start:
   805                           
   806                           	psect	text4
   807  0F34                     __ptext4:	
   808 ;; *************** function _PWM1_Init_Fre *****************
   809 ;; Defined at:
   810 ;;		line 12 in file "./PWM.h"
   811 ;; Parameters:    Size  Location     Type
   812 ;;  fre             4    6[BANK0 ] long 
   813 ;; Auto vars:     Size  Location     Type
   814 ;;		None
   815 ;; Return value:  Size  Location     Type
   816 ;;                  2    6[BANK0 ] int 
   817 ;; Registers used:
   818 ;;		wreg, status,2, status,0, btemp+1, pclath, cstack
   819 ;; Tracked objects:
   820 ;;		On entry : 0/0
   821 ;;		On exit  : 0/0
   822 ;;		Unchanged: 0/0
   823 ;; Data sizes:     COMMON   BANK0   BANK1   BANK3   BANK2
   824 ;;      Params:         0       4       0       0       0
   825 ;;      Locals:         0       0       0       0       0
   826 ;;      Temps:          4       0       0       0       0
   827 ;;      Totals:         4       4       0       0       0
   828 ;;Total ram usage:        8 bytes
   829 ;; Hardware stack levels used:    1
   830 ;; Hardware stack levels required when called:    1
   831 ;; This function calls:
   832 ;;		___aldiv
   833 ;; This function is called by:
   834 ;;		_PWM
   835 ;; This function uses a non-reentrant model
   836 ;;
   837                           
   838                           
   839                           ;psect for function _PWM1_Init_Fre
   840  0F34                     _PWM1_Init_Fre:
   841  0F34                     l1601:	
   842                           ;incstack = 0
   843                           ; Regs used in _PWM1_Init_Fre: [wreg+status,2+status,0+btemp+1+pclath+cstack]
   844                           
   845                           
   846                           ;./PWM.h: 12: int PWM1_Init_Fre(long fre);./PWM.h: 13: {;./PWM.h: 14:   PR2 = (4000000/(
      +                          freq*4*4)) - 1;
   847  0F34  1683               	bsf	3,5	;RP0=1, select bank1
   848  0F35  1303               	bcf	3,6	;RP1=0, select bank1
   849  0F36  0824               	movf	_freq^(0+128),w
   850  0F37  00F9               	movwf	??_PWM1_Init_Fre
   851  0F38  0825               	movf	(_freq+1)^(0+128),w
   852  0F39  00FA               	movwf	??_PWM1_Init_Fre+1
   853  0F3A  0826               	movf	(_freq+2)^(0+128),w
   854  0F3B  00FB               	movwf	??_PWM1_Init_Fre+2
   855  0F3C  0827               	movf	(_freq+3)^(0+128),w
   856  0F3D  00FC               	movwf	??_PWM1_Init_Fre+3
   857  0F3E  3002               	movlw	2
   858  0F3F                     u2185:
   859  0F3F  1003               	clrc
   860  0F40  0DF9               	rlf	??_PWM1_Init_Fre,f
   861  0F41  0DFA               	rlf	??_PWM1_Init_Fre+1,f
   862  0F42  0DFB               	rlf	??_PWM1_Init_Fre+2,f
   863  0F43  0DFC               	rlf	??_PWM1_Init_Fre+3,f
   864  0F44                     u2180:
   865  0F44  3EFF               	addlw	-1
   866  0F45  1D03               	skipz
   867  0F46  2F3F               	goto	u2185
   868  0F47  3002               	movlw	2
   869  0F48                     u2195:
   870  0F48  1003               	clrc
   871  0F49  0DF9               	rlf	??_PWM1_Init_Fre,f
   872  0F4A  0DFA               	rlf	??_PWM1_Init_Fre+1,f
   873  0F4B  0DFB               	rlf	??_PWM1_Init_Fre+2,f
   874  0F4C  0DFC               	rlf	??_PWM1_Init_Fre+3,f
   875  0F4D                     u2190:
   876  0F4D  3EFF               	addlw	-1
   877  0F4E  1D03               	skipz
   878  0F4F  2F48               	goto	u2195
   879  0F50  087C               	movf	??_PWM1_Init_Fre+3,w
   880  0F51  00F3               	movwf	___aldiv@divisor+3
   881  0F52  087B               	movf	??_PWM1_Init_Fre+2,w
   882  0F53  00F2               	movwf	___aldiv@divisor+2
   883  0F54  087A               	movf	??_PWM1_Init_Fre+1,w
   884  0F55  00F1               	movwf	___aldiv@divisor+1
   885  0F56  0879               	movf	??_PWM1_Init_Fre,w
   886  0F57  00F0               	movwf	___aldiv@divisor
   887  0F58  3000               	movlw	0
   888  0F59  00F7               	movwf	___aldiv@dividend+3
   889  0F5A  303D               	movlw	61
   890  0F5B  00F6               	movwf	___aldiv@dividend+2
   891  0F5C  3009               	movlw	9
   892  0F5D  00F5               	movwf	___aldiv@dividend+1
   893  0F5E  3000               	movlw	0
   894  0F5F  00F4               	movwf	___aldiv@dividend
   895  0F60  120A  118A  2165  120A  158A  	fcall	___aldiv
   896  0F65  0870               	movf	?___aldiv,w
   897  0F66  3EFF               	addlw	255
   898  0F67  1683               	bsf	3,5	;RP0=1, select bank1
   899  0F68  1303               	bcf	3,6	;RP1=0, select bank1
   900  0F69  0092               	movwf	18	;volatile
   901  0F6A                     l1603:
   902                           
   903                           ;./PWM.h: 15:   freq = fre;
   904  0F6A  1283               	bcf	3,5	;RP0=0, select bank0
   905  0F6B  1303               	bcf	3,6	;RP1=0, select bank0
   906  0F6C  0829               	movf	PWM1_Init_Fre@fre+3,w
   907  0F6D  1683               	bsf	3,5	;RP0=1, select bank1
   908  0F6E  1303               	bcf	3,6	;RP1=0, select bank1
   909  0F6F  00A7               	movwf	(_freq+3)^(0+128)
   910  0F70  1283               	bcf	3,5	;RP0=0, select bank0
   911  0F71  1303               	bcf	3,6	;RP1=0, select bank0
   912  0F72  0828               	movf	PWM1_Init_Fre@fre+2,w
   913  0F73  1683               	bsf	3,5	;RP0=1, select bank1
   914  0F74  1303               	bcf	3,6	;RP1=0, select bank1
   915  0F75  00A6               	movwf	(_freq+2)^(0+128)
   916  0F76  1283               	bcf	3,5	;RP0=0, select bank0
   917  0F77  1303               	bcf	3,6	;RP1=0, select bank0
   918  0F78  0827               	movf	PWM1_Init_Fre@fre+1,w
   919  0F79  1683               	bsf	3,5	;RP0=1, select bank1
   920  0F7A  1303               	bcf	3,6	;RP1=0, select bank1
   921  0F7B  00A5               	movwf	(_freq+1)^(0+128)
   922  0F7C  1283               	bcf	3,5	;RP0=0, select bank0
   923  0F7D  1303               	bcf	3,6	;RP1=0, select bank0
   924  0F7E  0826               	movf	PWM1_Init_Fre@fre,w
   925  0F7F  1683               	bsf	3,5	;RP0=1, select bank1
   926  0F80  1303               	bcf	3,6	;RP1=0, select bank1
   927  0F81  00A4               	movwf	_freq^(0+128)
   928  0F82                     l44:
   929  0F82  0008               	return
   930  0F83                     __end_of_PWM1_Init_Fre:
   931                           
   932                           	psect	text5
   933  00D0                     __ptext5:	
   934 ;; *************** function _PWM1_Duty *****************
   935 ;; Defined at:
   936 ;;		line 23 in file "./PWM.h"
   937 ;; Parameters:    Size  Location     Type
   938 ;;  duty            2    4[BANK1 ] unsigned int 
   939 ;; Auto vars:     Size  Location     Type
   940 ;;		None
   941 ;; Return value:  Size  Location     Type
   942 ;;                  2    4[BANK1 ] int 
   943 ;; Registers used:
   944 ;;		wreg, status,2, status,0, btemp+1, pclath, cstack
   945 ;; Tracked objects:
   946 ;;		On entry : 0/0
   947 ;;		On exit  : 0/0
   948 ;;		Unchanged: 0/0
   949 ;; Data sizes:     COMMON   BANK0   BANK1   BANK3   BANK2
   950 ;;      Params:         0       0       2       0       0
   951 ;;      Locals:         0       0       0       0       0
   952 ;;      Temps:          0       0       2       0       0
   953 ;;      Totals:         0       0       4       0       0
   954 ;;Total ram usage:        4 bytes
   955 ;; Hardware stack levels used:    1
   956 ;; Hardware stack levels required when called:    2
   957 ;; This function calls:
   958 ;;		_PWM_Max_Duty
   959 ;;		___fldiv
   960 ;;		___flmul
   961 ;;		___fltol
   962 ;;		___xxtofl
   963 ;; This function is called by:
   964 ;;		_main
   965 ;;		_PWM
   966 ;; This function uses a non-reentrant model
   967 ;;
   968                           
   969                           
   970                           ;psect for function _PWM1_Duty
   971  00D0                     _PWM1_Duty:
   972  00D0                     l1605:	
   973                           ;incstack = 0
   974                           ; Regs used in _PWM1_Duty: [wreg+status,2+status,0+btemp+1+pclath+cstack]
   975                           
   976                           
   977                           ;./PWM.h: 23: int PWM1_Duty(unsigned int duty);./PWM.h: 24: {;./PWM.h: 25:     duty = ((
      +                          float)duty/100.0)*PWM_Max_Duty();
   978  00D0  1683               	bsf	3,5	;RP0=1, select bank1
   979  00D1  1303               	bcf	3,6	;RP1=0, select bank1
   980  00D2  082C               	movf	PWM1_Duty@duty^(0+128),w
   981  00D3  1283               	bcf	3,5	;RP0=0, select bank0
   982  00D4  1303               	bcf	3,6	;RP1=0, select bank0
   983  00D5  00A8               	movwf	___xxtofl@val
   984  00D6  1683               	bsf	3,5	;RP0=1, select bank1
   985  00D7  1303               	bcf	3,6	;RP1=0, select bank1
   986  00D8  082D               	movf	(PWM1_Duty@duty+1)^(0+128),w
   987  00D9  1283               	bcf	3,5	;RP0=0, select bank0
   988  00DA  1303               	bcf	3,6	;RP1=0, select bank0
   989  00DB  00A9               	movwf	___xxtofl@val+1
   990  00DC  01AA               	clrf	___xxtofl@val+2
   991  00DD  01AB               	clrf	___xxtofl@val+3
   992  00DE  3000               	movlw	0
   993  00DF  120A  118A  2202  120A  118A  	fcall	___xxtofl
   994  00E4  1283               	bcf	3,5	;RP0=0, select bank0
   995  00E5  1303               	bcf	3,6	;RP1=0, select bank0
   996  00E6  082B               	movf	?___xxtofl+3,w
   997  00E7  00BD               	movwf	___fldiv@b+3
   998  00E8  082A               	movf	?___xxtofl+2,w
   999  00E9  00BC               	movwf	___fldiv@b+2
  1000  00EA  0829               	movf	?___xxtofl+1,w
  1001  00EB  00BB               	movwf	___fldiv@b+1
  1002  00EC  0828               	movf	?___xxtofl,w
  1003  00ED  00BA               	movwf	___fldiv@b
  1004  00EE  3042               	movlw	66
  1005  00EF  00B9               	movwf	___fldiv@a+3
  1006  00F0  30C8               	movlw	200
  1007  00F1  00B8               	movwf	___fldiv@a+2
  1008  00F2  3000               	movlw	0
  1009  00F3  00B7               	movwf	___fldiv@a+1
  1010  00F4  3000               	movlw	0
  1011  00F5  00B6               	movwf	___fldiv@a
  1012  00F6  120A  118A  22BE  120A  118A  	fcall	___fldiv
  1013  00FB  1283               	bcf	3,5	;RP0=0, select bank0
  1014  00FC  1303               	bcf	3,6	;RP1=0, select bank0
  1015  00FD  0839               	movf	?___fldiv+3,w
  1016  00FE  00D7               	movwf	___flmul@a+3
  1017  00FF  0838               	movf	?___fldiv+2,w
  1018  0100  00D6               	movwf	___flmul@a+2
  1019  0101  0837               	movf	?___fldiv+1,w
  1020  0102  00D5               	movwf	___flmul@a+1
  1021  0103  0836               	movf	?___fldiv,w
  1022  0104  00D4               	movwf	___flmul@a
  1023  0105  120A  118A  200D  120A  118A  	fcall	_PWM_Max_Duty
  1024  010A  1283               	bcf	3,5	;RP0=0, select bank0
  1025  010B  1303               	bcf	3,6	;RP1=0, select bank0
  1026  010C  0826               	movf	?_PWM_Max_Duty,w
  1027  010D  00A8               	movwf	___xxtofl@val
  1028  010E  0827               	movf	?_PWM_Max_Duty+1,w
  1029  010F  00A9               	movwf	___xxtofl@val+1
  1030  0110  3000               	movlw	0
  1031  0111  1BA9               	btfsc	___xxtofl@val+1,7
  1032  0112  30FF               	movlw	255
  1033  0113  00AA               	movwf	___xxtofl@val+2
  1034  0114  00AB               	movwf	___xxtofl@val+3
  1035  0115  3001               	movlw	1
  1036  0116  120A  118A  2202  120A  118A  	fcall	___xxtofl
  1037  011B  1283               	bcf	3,5	;RP0=0, select bank0
  1038  011C  1303               	bcf	3,6	;RP1=0, select bank0
  1039  011D  082B               	movf	?___xxtofl+3,w
  1040  011E  00D3               	movwf	___flmul@b+3
  1041  011F  082A               	movf	?___xxtofl+2,w
  1042  0120  00D2               	movwf	___flmul@b+2
  1043  0121  0829               	movf	?___xxtofl+1,w
  1044  0122  00D1               	movwf	___flmul@b+1
  1045  0123  0828               	movf	?___xxtofl,w
  1046  0124  00D0               	movwf	___flmul@b
  1047  0125  120A  118A  249B  120A  118A  	fcall	___flmul
  1048  012A  1283               	bcf	3,5	;RP0=0, select bank0
  1049  012B  1303               	bcf	3,6	;RP1=0, select bank0
  1050  012C  0853               	movf	?___flmul+3,w
  1051  012D  00ED               	movwf	___fltol@f1+3
  1052  012E  0852               	movf	?___flmul+2,w
  1053  012F  00EC               	movwf	___fltol@f1+2
  1054  0130  0851               	movf	?___flmul+1,w
  1055  0131  00EB               	movwf	___fltol@f1+1
  1056  0132  0850               	movf	?___flmul,w
  1057  0133  00EA               	movwf	___fltol@f1
  1058  0134  120A  118A  203C  120A  118A  	fcall	___fltol
  1059  0139  1283               	bcf	3,5	;RP0=0, select bank0
  1060  013A  1303               	bcf	3,6	;RP1=0, select bank0
  1061  013B  086B               	movf	?___fltol+1,w
  1062  013C  1683               	bsf	3,5	;RP0=1, select bank1
  1063  013D  1303               	bcf	3,6	;RP1=0, select bank1
  1064  013E  00AD               	movwf	(PWM1_Duty@duty+1)^(0+128)
  1065  013F  1283               	bcf	3,5	;RP0=0, select bank0
  1066  0140  1303               	bcf	3,6	;RP1=0, select bank0
  1067  0141  086A               	movf	?___fltol,w
  1068  0142  1683               	bsf	3,5	;RP0=1, select bank1
  1069  0143  1303               	bcf	3,6	;RP1=0, select bank1
  1070  0144  00AC               	movwf	PWM1_Duty@duty^(0+128)
  1071  0145                     l1607:
  1072                           
  1073                           ;./PWM.h: 26:     CCP1X = duty & 2;
  1074  0145  1283               	bcf	3,5	;RP0=0, select bank0
  1075  0146  1303               	bcf	3,6	;RP1=0, select bank0
  1076  0147  1297               	bcf	23,5	;volatile
  1077  0148                     l1609:
  1078                           
  1079                           ;./PWM.h: 27:     CCP1Y = duty & 1;
  1080  0148  1683               	bsf	3,5	;RP0=1, select bank1
  1081  0149  1303               	bcf	3,6	;RP1=0, select bank1
  1082  014A  182C               	btfsc	PWM1_Duty@duty^(0+128),0
  1083  014B  294D               	goto	u2201
  1084  014C  2951               	goto	u2200
  1085  014D                     u2201:
  1086  014D  1283               	bcf	3,5	;RP0=0, select bank0
  1087  014E  1303               	bcf	3,6	;RP1=0, select bank0
  1088  014F  1617               	bsf	23,4	;volatile
  1089  0150  2954               	goto	u2214
  1090  0151                     u2200:
  1091  0151  1283               	bcf	3,5	;RP0=0, select bank0
  1092  0152  1303               	bcf	3,6	;RP1=0, select bank0
  1093  0153  1217               	bcf	23,4	;volatile
  1094  0154                     u2214:
  1095  0154                     l1611:
  1096                           
  1097                           ;./PWM.h: 28:     CCPR1L = duty>>2;
  1098  0154  1683               	bsf	3,5	;RP0=1, select bank1
  1099  0155  1303               	bcf	3,6	;RP1=0, select bank1
  1100  0156  082D               	movf	(PWM1_Duty@duty+1)^(0+128),w
  1101  0157  00AF               	movwf	(??_PWM1_Duty^(0+128)+1)
  1102  0158  082C               	movf	PWM1_Duty@duty^(0+128),w
  1103  0159  00AE               	movwf	??_PWM1_Duty^(0+128)
  1104  015A  1003               	clrc
  1105  015B  0CAF               	rrf	(??_PWM1_Duty^(0+128)+1),f
  1106  015C  0CAE               	rrf	??_PWM1_Duty^(0+128),f
  1107  015D  1003               	clrc
  1108  015E  0CAF               	rrf	(??_PWM1_Duty^(0+128)+1),f
  1109  015F  0CAE               	rrf	??_PWM1_Duty^(0+128),f
  1110  0160  082E               	movf	??_PWM1_Duty^(0+128),w
  1111  0161  1283               	bcf	3,5	;RP0=0, select bank0
  1112  0162  1303               	bcf	3,6	;RP1=0, select bank0
  1113  0163  0095               	movwf	21	;volatile
  1114  0164                     l50:
  1115  0164  0008               	return
  1116  0165                     __end_of_PWM1_Duty:
  1117                           
  1118                           	psect	text6
  1119  0202                     __ptext6:	
  1120 ;; *************** function ___xxtofl *****************
  1121 ;; Defined at:
  1122 ;;		line 10 in file "C:\Program Files\Microchip\xc8\v2.20\pic\sources\c90\common\xxtofl.c"
  1123 ;; Parameters:    Size  Location     Type
  1124 ;;  sign            1    wreg     unsigned char 
  1125 ;;  val             4    8[BANK0 ] long 
  1126 ;; Auto vars:     Size  Location     Type
  1127 ;;  sign            1   16[BANK0 ] unsigned char 
  1128 ;;  arg             4   18[BANK0 ] unsigned long 
  1129 ;;  exp             1   17[BANK0 ] unsigned char 
  1130 ;; Return value:  Size  Location     Type
  1131 ;;                  4    8[BANK0 ] unsigned char 
  1132 ;; Registers used:
  1133 ;;		wreg, status,2, status,0, btemp+1
  1134 ;; Tracked objects:
  1135 ;;		On entry : 0/0
  1136 ;;		On exit  : 0/0
  1137 ;;		Unchanged: 0/0
  1138 ;; Data sizes:     COMMON   BANK0   BANK1   BANK3   BANK2
  1139 ;;      Params:         0       4       0       0       0
  1140 ;;      Locals:         0       6       0       0       0
  1141 ;;      Temps:          0       4       0       0       0
  1142 ;;      Totals:         0      14       0       0       0
  1143 ;;Total ram usage:       14 bytes
  1144 ;; Hardware stack levels used:    1
  1145 ;; This function calls:
  1146 ;;		Nothing
  1147 ;; This function is called by:
  1148 ;;		_PWM1_Duty
  1149 ;;		_main
  1150 ;;		_PWM2_Duty
  1151 ;; This function uses a non-reentrant model
  1152 ;;
  1153                           
  1154                           
  1155                           ;psect for function ___xxtofl
  1156  0202                     ___xxtofl:
  1157                           
  1158                           ;incstack = 0
  1159                           ; Regs used in ___xxtofl: [wreg+status,2+status,0+btemp+1]
  1160                           ;___xxtofl@sign stored from wreg
  1161  0202  1283               	bcf	3,5	;RP0=0, select bank0
  1162  0203  1303               	bcf	3,6	;RP1=0, select bank0
  1163  0204  00B0               	movwf	___xxtofl@sign
  1164  0205                     l1553:
  1165  0205  0830               	movf	___xxtofl@sign,w
  1166  0206  1903               	btfsc	3,2
  1167  0207  2A09               	goto	u2041
  1168  0208  2A0A               	goto	u2040
  1169  0209                     u2041:
  1170  0209  2A1E               	goto	l1559
  1171  020A                     u2040:
  1172  020A                     l1555:
  1173  020A  1FAB               	btfss	___xxtofl@val+3,7
  1174  020B  2A0D               	goto	u2051
  1175  020C  2A0E               	goto	u2050
  1176  020D                     u2051:
  1177  020D  2A1E               	goto	l1559
  1178  020E                     u2050:
  1179  020E                     l1557:
  1180  020E  0928               	comf	___xxtofl@val,w
  1181  020F  00B2               	movwf	___xxtofl@arg
  1182  0210  0929               	comf	___xxtofl@val+1,w
  1183  0211  00B3               	movwf	___xxtofl@arg+1
  1184  0212  092A               	comf	___xxtofl@val+2,w
  1185  0213  00B4               	movwf	___xxtofl@arg+2
  1186  0214  092B               	comf	___xxtofl@val+3,w
  1187  0215  00B5               	movwf	___xxtofl@arg+3
  1188  0216  0AB2               	incf	___xxtofl@arg,f
  1189  0217  1903               	skipnz
  1190  0218  0AB3               	incf	___xxtofl@arg+1,f
  1191  0219  1903               	skipnz
  1192  021A  0AB4               	incf	___xxtofl@arg+2,f
  1193  021B  1903               	skipnz
  1194  021C  0AB5               	incf	___xxtofl@arg+3,f
  1195  021D  2A26               	goto	l608
  1196  021E                     l1559:
  1197  021E  082B               	movf	___xxtofl@val+3,w
  1198  021F  00B5               	movwf	___xxtofl@arg+3
  1199  0220  082A               	movf	___xxtofl@val+2,w
  1200  0221  00B4               	movwf	___xxtofl@arg+2
  1201  0222  0829               	movf	___xxtofl@val+1,w
  1202  0223  00B3               	movwf	___xxtofl@arg+1
  1203  0224  0828               	movf	___xxtofl@val,w
  1204  0225  00B2               	movwf	___xxtofl@arg
  1205  0226                     l608:
  1206  0226  082B               	movf	___xxtofl@val+3,w
  1207  0227  042A               	iorwf	___xxtofl@val+2,w
  1208  0228  0429               	iorwf	___xxtofl@val+1,w
  1209  0229  0428               	iorwf	___xxtofl@val,w
  1210  022A  1D03               	skipz
  1211  022B  2A2D               	goto	u2061
  1212  022C  2A2E               	goto	u2060
  1213  022D                     u2061:
  1214  022D  2A37               	goto	l1565
  1215  022E                     u2060:
  1216  022E                     l1561:
  1217  022E  3000               	movlw	0
  1218  022F  00AB               	movwf	?___xxtofl+3
  1219  0230  3000               	movlw	0
  1220  0231  00AA               	movwf	?___xxtofl+2
  1221  0232  3000               	movlw	0
  1222  0233  00A9               	movwf	?___xxtofl+1
  1223  0234  3000               	movlw	0
  1224  0235  00A8               	movwf	?___xxtofl
  1225  0236  2ABD               	goto	l610
  1226  0237                     l1565:
  1227  0237  3096               	movlw	150
  1228  0238  00FF               	movwf	btemp+1
  1229  0239  087F               	movf	btemp+1,w
  1230  023A  00B1               	movwf	___xxtofl@exp
  1231  023B  2A49               	goto	l1571
  1232  023C                     l1567:
  1233  023C  3001               	movlw	1
  1234  023D  00FF               	movwf	btemp+1
  1235  023E  087F               	movf	btemp+1,w
  1236  023F  07B1               	addwf	___xxtofl@exp,f
  1237  0240                     l1569:
  1238  0240  3001               	movlw	1
  1239  0241                     u2075:
  1240  0241  1003               	clrc
  1241  0242  0CB5               	rrf	___xxtofl@arg+3,f
  1242  0243  0CB4               	rrf	___xxtofl@arg+2,f
  1243  0244  0CB3               	rrf	___xxtofl@arg+1,f
  1244  0245  0CB2               	rrf	___xxtofl@arg,f
  1245  0246  3EFF               	addlw	-1
  1246  0247  1D03               	skipz
  1247  0248  2A41               	goto	u2075
  1248  0249                     l1571:
  1249  0249  30FE               	movlw	254
  1250  024A  0535               	andwf	___xxtofl@arg+3,w
  1251  024B  1D03               	btfss	3,2
  1252  024C  2A4E               	goto	u2081
  1253  024D  2A4F               	goto	u2080
  1254  024E                     u2081:
  1255  024E  2A3C               	goto	l1567
  1256  024F                     u2080:
  1257  024F  2A6B               	goto	l1579
  1258  0250                     l1573:
  1259  0250  3001               	movlw	1
  1260  0251  00FF               	movwf	btemp+1
  1261  0252  087F               	movf	btemp+1,w
  1262  0253  07B1               	addwf	___xxtofl@exp,f
  1263  0254                     l1575:
  1264  0254  3001               	movlw	1
  1265  0255  07B2               	addwf	___xxtofl@arg,f
  1266  0256  3000               	movlw	0
  1267  0257  1803               	skipnc
  1268  0258  3001               	movlw	1
  1269  0259  07B3               	addwf	___xxtofl@arg+1,f
  1270  025A  3000               	movlw	0
  1271  025B  1803               	skipnc
  1272  025C  3001               	movlw	1
  1273  025D  07B4               	addwf	___xxtofl@arg+2,f
  1274  025E  3000               	movlw	0
  1275  025F  1803               	skipnc
  1276  0260  3001               	movlw	1
  1277  0261  07B5               	addwf	___xxtofl@arg+3,f
  1278  0262                     l1577:
  1279  0262  3001               	movlw	1
  1280  0263                     u2095:
  1281  0263  1003               	clrc
  1282  0264  0CB5               	rrf	___xxtofl@arg+3,f
  1283  0265  0CB4               	rrf	___xxtofl@arg+2,f
  1284  0266  0CB3               	rrf	___xxtofl@arg+1,f
  1285  0267  0CB2               	rrf	___xxtofl@arg,f
  1286  0268  3EFF               	addlw	-1
  1287  0269  1D03               	skipz
  1288  026A  2A63               	goto	u2095
  1289  026B                     l1579:
  1290  026B  30FF               	movlw	255
  1291  026C  0535               	andwf	___xxtofl@arg+3,w
  1292  026D  1D03               	btfss	3,2
  1293  026E  2A70               	goto	u2101
  1294  026F  2A71               	goto	u2100
  1295  0270                     u2101:
  1296  0270  2A50               	goto	l1573
  1297  0271                     u2100:
  1298  0271  2A7D               	goto	l1583
  1299  0272                     l1581:
  1300  0272  3001               	movlw	1
  1301  0273  02B1               	subwf	___xxtofl@exp,f
  1302  0274  3001               	movlw	1
  1303  0275  00AC               	movwf	??___xxtofl
  1304  0276                     u2115:
  1305  0276  1003               	clrc
  1306  0277  0DB2               	rlf	___xxtofl@arg,f
  1307  0278  0DB3               	rlf	___xxtofl@arg+1,f
  1308  0279  0DB4               	rlf	___xxtofl@arg+2,f
  1309  027A  0DB5               	rlf	___xxtofl@arg+3,f
  1310  027B  0BAC               	decfsz	??___xxtofl,f
  1311  027C  2A76               	goto	u2115
  1312  027D                     l1583:
  1313  027D  1BB4               	btfsc	___xxtofl@arg+2,7
  1314  027E  2A80               	goto	u2121
  1315  027F  2A81               	goto	u2120
  1316  0280                     u2121:
  1317  0280  2A87               	goto	l621
  1318  0281                     u2120:
  1319  0281                     l1585:
  1320  0281  3002               	movlw	2
  1321  0282  0231               	subwf	___xxtofl@exp,w
  1322  0283  1803               	skipnc
  1323  0284  2A86               	goto	u2131
  1324  0285  2A87               	goto	u2130
  1325  0286                     u2131:
  1326  0286  2A72               	goto	l1581
  1327  0287                     u2130:
  1328  0287                     l621:
  1329  0287  1831               	btfsc	___xxtofl@exp,0
  1330  0288  2A8A               	goto	u2141
  1331  0289  2A8B               	goto	u2140
  1332  028A                     u2141:
  1333  028A  2A93               	goto	l622
  1334  028B                     u2140:
  1335  028B                     l1587:
  1336  028B  30FF               	movlw	255
  1337  028C  05B2               	andwf	___xxtofl@arg,f
  1338  028D  30FF               	movlw	255
  1339  028E  05B3               	andwf	___xxtofl@arg+1,f
  1340  028F  307F               	movlw	127
  1341  0290  05B4               	andwf	___xxtofl@arg+2,f
  1342  0291  30FF               	movlw	255
  1343  0292  05B5               	andwf	___xxtofl@arg+3,f
  1344  0293                     l622:
  1345  0293  1003               	clrc
  1346  0294  0CB1               	rrf	___xxtofl@exp,f
  1347  0295                     l1589:
  1348  0295  0831               	movf	___xxtofl@exp,w
  1349  0296  00AC               	movwf	??___xxtofl
  1350  0297  01AD               	clrf	??___xxtofl+1
  1351  0298  01AE               	clrf	??___xxtofl+2
  1352  0299  01AF               	clrf	??___xxtofl+3
  1353  029A  3018               	movlw	24
  1354  029B                     u2155:
  1355  029B  1003               	clrc
  1356  029C  0DAC               	rlf	??___xxtofl,f
  1357  029D  0DAD               	rlf	??___xxtofl+1,f
  1358  029E  0DAE               	rlf	??___xxtofl+2,f
  1359  029F  0DAF               	rlf	??___xxtofl+3,f
  1360  02A0                     u2150:
  1361  02A0  3EFF               	addlw	-1
  1362  02A1  1D03               	skipz
  1363  02A2  2A9B               	goto	u2155
  1364  02A3  082C               	movf	??___xxtofl,w
  1365  02A4  04B2               	iorwf	___xxtofl@arg,f
  1366  02A5  082D               	movf	??___xxtofl+1,w
  1367  02A6  04B3               	iorwf	___xxtofl@arg+1,f
  1368  02A7  082E               	movf	??___xxtofl+2,w
  1369  02A8  04B4               	iorwf	___xxtofl@arg+2,f
  1370  02A9  082F               	movf	??___xxtofl+3,w
  1371  02AA  04B5               	iorwf	___xxtofl@arg+3,f
  1372  02AB                     l1591:
  1373  02AB  0830               	movf	___xxtofl@sign,w
  1374  02AC  1903               	btfsc	3,2
  1375  02AD  2AAF               	goto	u2161
  1376  02AE  2AB0               	goto	u2160
  1377  02AF                     u2161:
  1378  02AF  2AB5               	goto	l1597
  1379  02B0                     u2160:
  1380  02B0                     l1593:
  1381  02B0  1FAB               	btfss	___xxtofl@val+3,7
  1382  02B1  2AB3               	goto	u2171
  1383  02B2  2AB4               	goto	u2170
  1384  02B3                     u2171:
  1385  02B3  2AB5               	goto	l1597
  1386  02B4                     u2170:
  1387  02B4                     l1595:
  1388  02B4  17B5               	bsf	___xxtofl@arg+3,7
  1389  02B5                     l1597:
  1390  02B5  0835               	movf	___xxtofl@arg+3,w
  1391  02B6  00AB               	movwf	?___xxtofl+3
  1392  02B7  0834               	movf	___xxtofl@arg+2,w
  1393  02B8  00AA               	movwf	?___xxtofl+2
  1394  02B9  0833               	movf	___xxtofl@arg+1,w
  1395  02BA  00A9               	movwf	?___xxtofl+1
  1396  02BB  0832               	movf	___xxtofl@arg,w
  1397  02BC  00A8               	movwf	?___xxtofl
  1398  02BD                     l610:
  1399  02BD  0008               	return
  1400  02BE                     __end_of___xxtofl:
  1401                           
  1402                           	psect	text7
  1403  003C                     __ptext7:	
  1404 ;; *************** function ___fltol *****************
  1405 ;; Defined at:
  1406 ;;		line 43 in file "C:\Program Files\Microchip\xc8\v2.20\pic\sources\c90\common\fltol.c"
  1407 ;; Parameters:    Size  Location     Type
  1408 ;;  f1              4   74[BANK0 ] unsigned char 
  1409 ;; Auto vars:     Size  Location     Type
  1410 ;;  exp1            1   79[BANK0 ] unsigned char 
  1411 ;;  sign1           1   78[BANK0 ] unsigned char 
  1412 ;; Return value:  Size  Location     Type
  1413 ;;                  4   74[BANK0 ] long 
  1414 ;; Registers used:
  1415 ;;		wreg, status,2, status,0, btemp+1
  1416 ;; Tracked objects:
  1417 ;;		On entry : 0/0
  1418 ;;		On exit  : 0/0
  1419 ;;		Unchanged: 0/0
  1420 ;; Data sizes:     COMMON   BANK0   BANK1   BANK3   BANK2
  1421 ;;      Params:         0       4       0       0       0
  1422 ;;      Locals:         0       2       0       0       0
  1423 ;;      Temps:          0       0       4       0       0
  1424 ;;      Totals:         0       6       4       0       0
  1425 ;;Total ram usage:       10 bytes
  1426 ;; Hardware stack levels used:    1
  1427 ;; This function calls:
  1428 ;;		Nothing
  1429 ;; This function is called by:
  1430 ;;		_PWM1_Duty
  1431 ;;		_main
  1432 ;;		_PWM2_Duty
  1433 ;; This function uses a non-reentrant model
  1434 ;;
  1435                           
  1436                           
  1437                           ;psect for function ___fltol
  1438  003C                     ___fltol:
  1439  003C                     l1229:	
  1440                           ;incstack = 0
  1441                           ; Regs used in ___fltol: [wreg+status,2+status,0+btemp+1]
  1442                           
  1443  003C  1003               	clrc
  1444  003D  1283               	bcf	3,5	;RP0=0, select bank0
  1445  003E  1303               	bcf	3,6	;RP1=0, select bank0
  1446  003F  0D6C               	rlf	___fltol@f1+2,w
  1447  0040  0D6D               	rlf	___fltol@f1+3,w
  1448  0041  00FF               	movwf	btemp+1
  1449  0042  087F               	movf	btemp+1,w
  1450  0043  00EF               	movwf	___fltol@exp1
  1451  0044  086F               	movf	___fltol@exp1,w
  1452  0045  1D03               	btfss	3,2
  1453  0046  2848               	goto	u1281
  1454  0047  2849               	goto	u1280
  1455  0048                     u1281:
  1456  0048  2852               	goto	l1235
  1457  0049                     u1280:
  1458  0049                     l1231:
  1459  0049  3000               	movlw	0
  1460  004A  00ED               	movwf	?___fltol+3
  1461  004B  3000               	movlw	0
  1462  004C  00EC               	movwf	?___fltol+2
  1463  004D  3000               	movlw	0
  1464  004E  00EB               	movwf	?___fltol+1
  1465  004F  3000               	movlw	0
  1466  0050  00EA               	movwf	?___fltol
  1467  0051  28CF               	goto	l361
  1468  0052                     l1235:
  1469  0052  086A               	movf	___fltol@f1,w
  1470  0053  1683               	bsf	3,5	;RP0=1, select bank1
  1471  0054  1303               	bcf	3,6	;RP1=0, select bank1
  1472  0055  00A8               	movwf	??___fltol^(0+128)
  1473  0056  1283               	bcf	3,5	;RP0=0, select bank0
  1474  0057  1303               	bcf	3,6	;RP1=0, select bank0
  1475  0058  086B               	movf	___fltol@f1+1,w
  1476  0059  1683               	bsf	3,5	;RP0=1, select bank1
  1477  005A  1303               	bcf	3,6	;RP1=0, select bank1
  1478  005B  00A9               	movwf	(??___fltol^(0+128)+1)
  1479  005C  1283               	bcf	3,5	;RP0=0, select bank0
  1480  005D  1303               	bcf	3,6	;RP1=0, select bank0
  1481  005E  086C               	movf	___fltol@f1+2,w
  1482  005F  1683               	bsf	3,5	;RP0=1, select bank1
  1483  0060  1303               	bcf	3,6	;RP1=0, select bank1
  1484  0061  00AA               	movwf	(??___fltol^(0+128)+2)
  1485  0062  1283               	bcf	3,5	;RP0=0, select bank0
  1486  0063  1303               	bcf	3,6	;RP1=0, select bank0
  1487  0064  086D               	movf	___fltol@f1+3,w
  1488  0065  1683               	bsf	3,5	;RP0=1, select bank1
  1489  0066  1303               	bcf	3,6	;RP1=0, select bank1
  1490  0067  00AB               	movwf	(??___fltol^(0+128)+3)
  1491  0068  301F               	movlw	31
  1492  0069                     u1295:
  1493  0069  1003               	clrc
  1494  006A  0CAB               	rrf	(??___fltol^(0+128)+3),f
  1495  006B  0CAA               	rrf	(??___fltol^(0+128)+2),f
  1496  006C  0CA9               	rrf	(??___fltol^(0+128)+1),f
  1497  006D  0CA8               	rrf	??___fltol^(0+128),f
  1498  006E                     u1290:
  1499  006E  3EFF               	addlw	-1
  1500  006F  1D03               	skipz
  1501  0070  2869               	goto	u1295
  1502  0071  0828               	movf	??___fltol^(0+128),w
  1503  0072  00FF               	movwf	btemp+1
  1504  0073  087F               	movf	btemp+1,w
  1505  0074  1283               	bcf	3,5	;RP0=0, select bank0
  1506  0075  1303               	bcf	3,6	;RP1=0, select bank0
  1507  0076  00EE               	movwf	___fltol@sign1
  1508  0077                     l1237:
  1509  0077  17EC               	bsf	___fltol@f1+2,7
  1510  0078                     l1239:
  1511  0078  30FF               	movlw	255
  1512  0079  05EA               	andwf	___fltol@f1,f
  1513  007A  30FF               	movlw	255
  1514  007B  05EB               	andwf	___fltol@f1+1,f
  1515  007C  30FF               	movlw	255
  1516  007D  05EC               	andwf	___fltol@f1+2,f
  1517  007E  3000               	movlw	0
  1518  007F  05ED               	andwf	___fltol@f1+3,f
  1519  0080                     l1241:
  1520  0080  3096               	movlw	150
  1521  0081  02EF               	subwf	___fltol@exp1,f
  1522  0082                     l1243:
  1523  0082  1FEF               	btfss	___fltol@exp1,7
  1524  0083  2885               	goto	u1301
  1525  0084  2886               	goto	u1300
  1526  0085                     u1301:
  1527  0085  28A0               	goto	l1255
  1528  0086                     u1300:
  1529  0086                     l1245:
  1530  0086  086F               	movf	___fltol@exp1,w
  1531  0087  3A80               	xorlw	128
  1532  0088  3E97               	addlw	151
  1533  0089  1803               	skipnc
  1534  008A  288C               	goto	u1311
  1535  008B  288D               	goto	u1310
  1536  008C                     u1311:
  1537  008C  288E               	goto	l1251
  1538  008D                     u1310:
  1539  008D  2849               	goto	l1231
  1540  008E                     l1251:
  1541  008E  3001               	movlw	1
  1542  008F                     u1325:
  1543  008F  1003               	clrc
  1544  0090  0CED               	rrf	___fltol@f1+3,f
  1545  0091  0CEC               	rrf	___fltol@f1+2,f
  1546  0092  0CEB               	rrf	___fltol@f1+1,f
  1547  0093  0CEA               	rrf	___fltol@f1,f
  1548  0094  3EFF               	addlw	-1
  1549  0095  1D03               	skipz
  1550  0096  288F               	goto	u1325
  1551  0097                     l1253:
  1552  0097  3001               	movlw	1
  1553  0098  00FF               	movwf	btemp+1
  1554  0099  087F               	movf	btemp+1,w
  1555  009A  07EF               	addwf	___fltol@exp1,f
  1556  009B  1D03               	btfss	3,2
  1557  009C  289E               	goto	u1331
  1558  009D  289F               	goto	u1330
  1559  009E                     u1331:
  1560  009E  288E               	goto	l1251
  1561  009F                     u1330:
  1562  009F  28BF               	goto	l1263
  1563  00A0                     l1255:
  1564  00A0  3020               	movlw	32
  1565  00A1  026F               	subwf	___fltol@exp1,w
  1566  00A2  1C03               	skipc
  1567  00A3  28A5               	goto	u1341
  1568  00A4  28A6               	goto	u1340
  1569  00A5                     u1341:
  1570  00A5  28BA               	goto	l368
  1571  00A6                     u1340:
  1572  00A6  2849               	goto	l1231
  1573  00A7                     l1261:
  1574  00A7  3001               	movlw	1
  1575  00A8  1683               	bsf	3,5	;RP0=1, select bank1
  1576  00A9  1303               	bcf	3,6	;RP1=0, select bank1
  1577  00AA  00A8               	movwf	??___fltol^(0+128)
  1578  00AB                     u1355:
  1579  00AB  1003               	clrc
  1580  00AC  1283               	bcf	3,5	;RP0=0, select bank0
  1581  00AD  1303               	bcf	3,6	;RP1=0, select bank0
  1582  00AE  0DEA               	rlf	___fltol@f1,f
  1583  00AF  0DEB               	rlf	___fltol@f1+1,f
  1584  00B0  0DEC               	rlf	___fltol@f1+2,f
  1585  00B1  0DED               	rlf	___fltol@f1+3,f
  1586  00B2  1683               	bsf	3,5	;RP0=1, select bank1
  1587  00B3  1303               	bcf	3,6	;RP1=0, select bank1
  1588  00B4  0BA8               	decfsz	??___fltol^(0+128),f
  1589  00B5  28AB               	goto	u1355
  1590  00B6  3001               	movlw	1
  1591  00B7  1283               	bcf	3,5	;RP0=0, select bank0
  1592  00B8  1303               	bcf	3,6	;RP1=0, select bank0
  1593  00B9  02EF               	subwf	___fltol@exp1,f
  1594  00BA                     l368:
  1595  00BA  086F               	movf	___fltol@exp1,w
  1596  00BB  1D03               	btfss	3,2
  1597  00BC  28BE               	goto	u1361
  1598  00BD  28BF               	goto	u1360
  1599  00BE                     u1361:
  1600  00BE  28A7               	goto	l1261
  1601  00BF                     u1360:
  1602  00BF                     l1263:
  1603  00BF  086E               	movf	___fltol@sign1,w
  1604  00C0  1903               	btfsc	3,2
  1605  00C1  28C3               	goto	u1371
  1606  00C2  28C4               	goto	u1370
  1607  00C3                     u1371:
  1608  00C3  28CF               	goto	l371
  1609  00C4                     u1370:
  1610  00C4                     l1265:
  1611  00C4  09EA               	comf	___fltol@f1,f
  1612  00C5  09EB               	comf	___fltol@f1+1,f
  1613  00C6  09EC               	comf	___fltol@f1+2,f
  1614  00C7  09ED               	comf	___fltol@f1+3,f
  1615  00C8  0AEA               	incf	___fltol@f1,f
  1616  00C9  1903               	skipnz
  1617  00CA  0AEB               	incf	___fltol@f1+1,f
  1618  00CB  1903               	skipnz
  1619  00CC  0AEC               	incf	___fltol@f1+2,f
  1620  00CD  1903               	skipnz
  1621  00CE  0AED               	incf	___fltol@f1+3,f
  1622  00CF                     l371:
  1623  00CF                     l361:
  1624  00CF  0008               	return
  1625  00D0                     __end_of___fltol:
  1626                           
  1627                           	psect	text8
  1628  049B                     __ptext8:	
  1629 ;; *************** function ___flmul *****************
  1630 ;; Defined at:
  1631 ;;		line 8 in file "C:\Program Files\Microchip\xc8\v2.20\pic\sources\c90\common\sprcmul.c"
  1632 ;; Parameters:    Size  Location     Type
  1633 ;;  b               4   48[BANK0 ] long 
  1634 ;;  a               4   52[BANK0 ] long 
  1635 ;; Auto vars:     Size  Location     Type
  1636 ;;  prod            4   68[BANK0 ] struct .
  1637 ;;  grs             4   62[BANK0 ] unsigned long 
  1638 ;;  temp            2   72[BANK0 ] struct .
  1639 ;;  bexp            1   67[BANK0 ] unsigned char 
  1640 ;;  aexp            1   66[BANK0 ] unsigned char 
  1641 ;;  sign            1   61[BANK0 ] unsigned char 
  1642 ;; Return value:  Size  Location     Type
  1643 ;;                  4   48[BANK0 ] unsigned char 
  1644 ;; Registers used:
  1645 ;;		wreg, status,2, status,0, btemp+1, pclath, cstack
  1646 ;; Tracked objects:
  1647 ;;		On entry : 0/0
  1648 ;;		On exit  : 0/0
  1649 ;;		Unchanged: 0/0
  1650 ;; Data sizes:     COMMON   BANK0   BANK1   BANK3   BANK2
  1651 ;;      Params:         0       8       0       0       0
  1652 ;;      Locals:         0      13       0       0       0
  1653 ;;      Temps:          0       5       0       0       0
  1654 ;;      Totals:         0      26       0       0       0
  1655 ;;Total ram usage:       26 bytes
  1656 ;; Hardware stack levels used:    1
  1657 ;; Hardware stack levels required when called:    1
  1658 ;; This function calls:
  1659 ;;		__Umul8_16
  1660 ;; This function is called by:
  1661 ;;		_PWM1_Duty
  1662 ;;		_main
  1663 ;;		_PWM2_Duty
  1664 ;; This function uses a non-reentrant model
  1665 ;;
  1666                           
  1667                           
  1668                           ;psect for function ___flmul
  1669  049B                     ___flmul:
  1670  049B                     l1411:	
  1671                           ;incstack = 0
  1672                           ; Regs used in ___flmul: [wreg+status,2+status,0+btemp+1+pclath+cstack]
  1673                           
  1674  049B  1283               	bcf	3,5	;RP0=0, select bank0
  1675  049C  1303               	bcf	3,6	;RP1=0, select bank0
  1676  049D  0853               	movf	___flmul@b+3,w
  1677  049E  3980               	andlw	128
  1678  049F  00FF               	movwf	btemp+1
  1679  04A0  087F               	movf	btemp+1,w
  1680  04A1  00DD               	movwf	___flmul@sign
  1681  04A2                     l1413:
  1682  04A2  0853               	movf	___flmul@b+3,w
  1683  04A3  00D8               	movwf	??___flmul
  1684  04A4  0758               	addwf	??___flmul,w
  1685  04A5  00FF               	movwf	btemp+1
  1686  04A6  087F               	movf	btemp+1,w
  1687  04A7  00E3               	movwf	___flmul@bexp
  1688  04A8                     l1415:
  1689  04A8  1FD2               	btfss	___flmul@b+2,7
  1690  04A9  2CAB               	goto	u1671
  1691  04AA  2CAC               	goto	u1670
  1692  04AB                     u1671:
  1693  04AB  2CAD               	goto	l1419
  1694  04AC                     u1670:
  1695  04AC                     l1417:
  1696  04AC  1463               	bsf	___flmul@bexp,0
  1697  04AD                     l1419:
  1698  04AD  0863               	movf	___flmul@bexp,w
  1699  04AE  1903               	btfsc	3,2
  1700  04AF  2CB1               	goto	u1681
  1701  04B0  2CB2               	goto	u1680
  1702  04B1                     u1681:
  1703  04B1  2CC1               	goto	l1427
  1704  04B2                     u1680:
  1705  04B2                     l1421:
  1706  04B2  0A63               	incf	___flmul@bexp,w
  1707  04B3  1D03               	btfss	3,2
  1708  04B4  2CB6               	goto	u1691
  1709  04B5  2CB7               	goto	u1690
  1710  04B6                     u1691:
  1711  04B6  2CBF               	goto	l1425
  1712  04B7                     u1690:
  1713  04B7                     l1423:
  1714  04B7  3000               	movlw	0
  1715  04B8  00D3               	movwf	___flmul@b+3
  1716  04B9  3000               	movlw	0
  1717  04BA  00D2               	movwf	___flmul@b+2
  1718  04BB  3000               	movlw	0
  1719  04BC  00D1               	movwf	___flmul@b+1
  1720  04BD  3000               	movlw	0
  1721  04BE  00D0               	movwf	___flmul@b
  1722  04BF                     l1425:
  1723  04BF  17D2               	bsf	___flmul@b+2,7
  1724  04C0  2CC9               	goto	l1429
  1725  04C1                     l1427:
  1726  04C1  3000               	movlw	0
  1727  04C2  00D3               	movwf	___flmul@b+3
  1728  04C3  3000               	movlw	0
  1729  04C4  00D2               	movwf	___flmul@b+2
  1730  04C5  3000               	movlw	0
  1731  04C6  00D1               	movwf	___flmul@b+1
  1732  04C7  3000               	movlw	0
  1733  04C8  00D0               	movwf	___flmul@b
  1734  04C9                     l1429:
  1735  04C9  0857               	movf	___flmul@a+3,w
  1736  04CA  3980               	andlw	128
  1737  04CB  00FF               	movwf	btemp+1
  1738  04CC  087F               	movf	btemp+1,w
  1739  04CD  06DD               	xorwf	___flmul@sign,f
  1740  04CE                     l1431:
  1741  04CE  0857               	movf	___flmul@a+3,w
  1742  04CF  00D8               	movwf	??___flmul
  1743  04D0  0758               	addwf	??___flmul,w
  1744  04D1  00FF               	movwf	btemp+1
  1745  04D2  087F               	movf	btemp+1,w
  1746  04D3  00E2               	movwf	___flmul@aexp
  1747  04D4                     l1433:
  1748  04D4  1FD6               	btfss	___flmul@a+2,7
  1749  04D5  2CD7               	goto	u1701
  1750  04D6  2CD8               	goto	u1700
  1751  04D7                     u1701:
  1752  04D7  2CD9               	goto	l1437
  1753  04D8                     u1700:
  1754  04D8                     l1435:
  1755  04D8  1462               	bsf	___flmul@aexp,0
  1756  04D9                     l1437:
  1757  04D9  0862               	movf	___flmul@aexp,w
  1758  04DA  1903               	btfsc	3,2
  1759  04DB  2CDD               	goto	u1711
  1760  04DC  2CDE               	goto	u1710
  1761  04DD                     u1711:
  1762  04DD  2CED               	goto	l1445
  1763  04DE                     u1710:
  1764  04DE                     l1439:
  1765  04DE  0A62               	incf	___flmul@aexp,w
  1766  04DF  1D03               	btfss	3,2
  1767  04E0  2CE2               	goto	u1721
  1768  04E1  2CE3               	goto	u1720
  1769  04E2                     u1721:
  1770  04E2  2CEB               	goto	l1443
  1771  04E3                     u1720:
  1772  04E3                     l1441:
  1773  04E3  3000               	movlw	0
  1774  04E4  00D7               	movwf	___flmul@a+3
  1775  04E5  3000               	movlw	0
  1776  04E6  00D6               	movwf	___flmul@a+2
  1777  04E7  3000               	movlw	0
  1778  04E8  00D5               	movwf	___flmul@a+1
  1779  04E9  3000               	movlw	0
  1780  04EA  00D4               	movwf	___flmul@a
  1781  04EB                     l1443:
  1782  04EB  17D6               	bsf	___flmul@a+2,7
  1783  04EC  2CF5               	goto	l1447
  1784  04ED                     l1445:
  1785  04ED  3000               	movlw	0
  1786  04EE  00D7               	movwf	___flmul@a+3
  1787  04EF  3000               	movlw	0
  1788  04F0  00D6               	movwf	___flmul@a+2
  1789  04F1  3000               	movlw	0
  1790  04F2  00D5               	movwf	___flmul@a+1
  1791  04F3  3000               	movlw	0
  1792  04F4  00D4               	movwf	___flmul@a
  1793  04F5                     l1447:
  1794  04F5  0862               	movf	___flmul@aexp,w
  1795  04F6  1903               	btfsc	3,2
  1796  04F7  2CF9               	goto	u1731
  1797  04F8  2CFA               	goto	u1730
  1798  04F9                     u1731:
  1799  04F9  2CFF               	goto	l1451
  1800  04FA                     u1730:
  1801  04FA                     l1449:
  1802  04FA  0863               	movf	___flmul@bexp,w
  1803  04FB  1D03               	btfss	3,2
  1804  04FC  2CFE               	goto	u1741
  1805  04FD  2CFF               	goto	u1740
  1806  04FE                     u1741:
  1807  04FE  2D08               	goto	l1455
  1808  04FF                     u1740:
  1809  04FF                     l1451:
  1810  04FF  3000               	movlw	0
  1811  0500  00D3               	movwf	?___flmul+3
  1812  0501  3000               	movlw	0
  1813  0502  00D2               	movwf	?___flmul+2
  1814  0503  3000               	movlw	0
  1815  0504  00D1               	movwf	?___flmul+1
  1816  0505  3000               	movlw	0
  1817  0506  00D0               	movwf	?___flmul
  1818  0507  2FFB               	goto	l564
  1819  0508                     l1455:
  1820  0508  0850               	movf	___flmul@b,w
  1821  0509  00FF               	movwf	btemp+1
  1822  050A  087F               	movf	btemp+1,w
  1823  050B  00F0               	movwf	__Umul8_16@multiplicand
  1824  050C  0856               	movf	___flmul@a+2,w
  1825  050D  120A  158A  270D  120A  118A  	fcall	__Umul8_16
  1826  0512  0871               	movf	?__Umul8_16+1,w
  1827  0513  1283               	bcf	3,5	;RP0=0, select bank0
  1828  0514  1303               	bcf	3,6	;RP1=0, select bank0
  1829  0515  00E9               	movwf	___flmul@temp+1
  1830  0516  0870               	movf	?__Umul8_16,w
  1831  0517  00E8               	movwf	___flmul@temp
  1832  0518                     l1457:
  1833  0518  0868               	movf	___flmul@temp,w
  1834  0519  00D8               	movwf	??___flmul
  1835  051A  01D9               	clrf	??___flmul+1
  1836  051B  01DA               	clrf	??___flmul+2
  1837  051C  01DB               	clrf	??___flmul+3
  1838  051D  085B               	movf	??___flmul+3,w
  1839  051E  00E1               	movwf	___flmul@grs+3
  1840  051F  085A               	movf	??___flmul+2,w
  1841  0520  00E0               	movwf	___flmul@grs+2
  1842  0521  0859               	movf	??___flmul+1,w
  1843  0522  00DF               	movwf	___flmul@grs+1
  1844  0523  0858               	movf	??___flmul,w
  1845  0524  00DE               	movwf	___flmul@grs
  1846  0525                     l1459:
  1847  0525  0869               	movf	___flmul@temp+1,w
  1848  0526  00D8               	movwf	??___flmul
  1849  0527  01D9               	clrf	??___flmul+1
  1850  0528  01DA               	clrf	??___flmul+2
  1851  0529  01DB               	clrf	??___flmul+3
  1852  052A  085B               	movf	??___flmul+3,w
  1853  052B  00E7               	movwf	___flmul@prod+3
  1854  052C  085A               	movf	??___flmul+2,w
  1855  052D  00E6               	movwf	___flmul@prod+2
  1856  052E  0859               	movf	??___flmul+1,w
  1857  052F  00E5               	movwf	___flmul@prod+1
  1858  0530  0858               	movf	??___flmul,w
  1859  0531  00E4               	movwf	___flmul@prod
  1860  0532  0851               	movf	___flmul@b+1,w
  1861  0533  00FF               	movwf	btemp+1
  1862  0534  087F               	movf	btemp+1,w
  1863  0535  00F0               	movwf	__Umul8_16@multiplicand
  1864  0536  0855               	movf	___flmul@a+1,w
  1865  0537  120A  158A  270D  120A  118A  	fcall	__Umul8_16
  1866  053C  0871               	movf	?__Umul8_16+1,w
  1867  053D  1283               	bcf	3,5	;RP0=0, select bank0
  1868  053E  1303               	bcf	3,6	;RP1=0, select bank0
  1869  053F  00E9               	movwf	___flmul@temp+1
  1870  0540  0870               	movf	?__Umul8_16,w
  1871  0541  00E8               	movwf	___flmul@temp
  1872  0542                     l1461:
  1873  0542  0868               	movf	___flmul@temp,w
  1874  0543  00D8               	movwf	??___flmul
  1875  0544  01D9               	clrf	??___flmul+1
  1876  0545  01DA               	clrf	??___flmul+2
  1877  0546  01DB               	clrf	??___flmul+3
  1878  0547  0858               	movf	??___flmul,w
  1879  0548  07DE               	addwf	___flmul@grs,f
  1880  0549  0859               	movf	??___flmul+1,w
  1881  054A  1103               	clrz
  1882  054B  1803               	skipnc
  1883  054C  3E01               	addlw	1
  1884  054D  1903               	skipnz
  1885  054E  2D50               	goto	u1751
  1886  054F  07DF               	addwf	___flmul@grs+1,f
  1887  0550                     u1751:
  1888  0550  085A               	movf	??___flmul+2,w
  1889  0551  1103               	clrz
  1890  0552  1803               	skipnc
  1891  0553  3E01               	addlw	1
  1892  0554  1903               	skipnz
  1893  0555  2D57               	goto	u1752
  1894  0556  07E0               	addwf	___flmul@grs+2,f
  1895  0557                     u1752:
  1896  0557  085B               	movf	??___flmul+3,w
  1897  0558  1103               	clrz
  1898  0559  1803               	skipnc
  1899  055A  3E01               	addlw	1
  1900  055B  1903               	skipnz
  1901  055C  2D5E               	goto	u1753
  1902  055D  07E1               	addwf	___flmul@grs+3,f
  1903  055E                     u1753:
  1904  055E                     l1463:
  1905  055E  0869               	movf	___flmul@temp+1,w
  1906  055F  00D8               	movwf	??___flmul
  1907  0560  01D9               	clrf	??___flmul+1
  1908  0561  01DA               	clrf	??___flmul+2
  1909  0562  01DB               	clrf	??___flmul+3
  1910  0563  0858               	movf	??___flmul,w
  1911  0564  07E4               	addwf	___flmul@prod,f
  1912  0565  0859               	movf	??___flmul+1,w
  1913  0566  1103               	clrz
  1914  0567  1803               	skipnc
  1915  0568  3E01               	addlw	1
  1916  0569  1903               	skipnz
  1917  056A  2D6C               	goto	u1761
  1918  056B  07E5               	addwf	___flmul@prod+1,f
  1919  056C                     u1761:
  1920  056C  085A               	movf	??___flmul+2,w
  1921  056D  1103               	clrz
  1922  056E  1803               	skipnc
  1923  056F  3E01               	addlw	1
  1924  0570  1903               	skipnz
  1925  0571  2D73               	goto	u1762
  1926  0572  07E6               	addwf	___flmul@prod+2,f
  1927  0573                     u1762:
  1928  0573  085B               	movf	??___flmul+3,w
  1929  0574  1103               	clrz
  1930  0575  1803               	skipnc
  1931  0576  3E01               	addlw	1
  1932  0577  1903               	skipnz
  1933  0578  2D7A               	goto	u1763
  1934  0579  07E7               	addwf	___flmul@prod+3,f
  1935  057A                     u1763:
  1936  057A  0852               	movf	___flmul@b+2,w
  1937  057B  00FF               	movwf	btemp+1
  1938  057C  087F               	movf	btemp+1,w
  1939  057D  00F0               	movwf	__Umul8_16@multiplicand
  1940  057E  0854               	movf	___flmul@a,w
  1941  057F  120A  158A  270D  120A  118A  	fcall	__Umul8_16
  1942  0584  0871               	movf	?__Umul8_16+1,w
  1943  0585  1283               	bcf	3,5	;RP0=0, select bank0
  1944  0586  1303               	bcf	3,6	;RP1=0, select bank0
  1945  0587  00E9               	movwf	___flmul@temp+1
  1946  0588  0870               	movf	?__Umul8_16,w
  1947  0589  00E8               	movwf	___flmul@temp
  1948  058A                     l1465:
  1949  058A  0868               	movf	___flmul@temp,w
  1950  058B  00D8               	movwf	??___flmul
  1951  058C  01D9               	clrf	??___flmul+1
  1952  058D  01DA               	clrf	??___flmul+2
  1953  058E  01DB               	clrf	??___flmul+3
  1954  058F  0858               	movf	??___flmul,w
  1955  0590  07DE               	addwf	___flmul@grs,f
  1956  0591  0859               	movf	??___flmul+1,w
  1957  0592  1103               	clrz
  1958  0593  1803               	skipnc
  1959  0594  3E01               	addlw	1
  1960  0595  1903               	skipnz
  1961  0596  2D98               	goto	u1771
  1962  0597  07DF               	addwf	___flmul@grs+1,f
  1963  0598                     u1771:
  1964  0598  085A               	movf	??___flmul+2,w
  1965  0599  1103               	clrz
  1966  059A  1803               	skipnc
  1967  059B  3E01               	addlw	1
  1968  059C  1903               	skipnz
  1969  059D  2D9F               	goto	u1772
  1970  059E  07E0               	addwf	___flmul@grs+2,f
  1971  059F                     u1772:
  1972  059F  085B               	movf	??___flmul+3,w
  1973  05A0  1103               	clrz
  1974  05A1  1803               	skipnc
  1975  05A2  3E01               	addlw	1
  1976  05A3  1903               	skipnz
  1977  05A4  2DA6               	goto	u1773
  1978  05A5  07E1               	addwf	___flmul@grs+3,f
  1979  05A6                     u1773:
  1980  05A6                     l1467:
  1981  05A6  0869               	movf	___flmul@temp+1,w
  1982  05A7  00D8               	movwf	??___flmul
  1983  05A8  01D9               	clrf	??___flmul+1
  1984  05A9  01DA               	clrf	??___flmul+2
  1985  05AA  01DB               	clrf	??___flmul+3
  1986  05AB  0858               	movf	??___flmul,w
  1987  05AC  07E4               	addwf	___flmul@prod,f
  1988  05AD  0859               	movf	??___flmul+1,w
  1989  05AE  1103               	clrz
  1990  05AF  1803               	skipnc
  1991  05B0  3E01               	addlw	1
  1992  05B1  1903               	skipnz
  1993  05B2  2DB4               	goto	u1781
  1994  05B3  07E5               	addwf	___flmul@prod+1,f
  1995  05B4                     u1781:
  1996  05B4  085A               	movf	??___flmul+2,w
  1997  05B5  1103               	clrz
  1998  05B6  1803               	skipnc
  1999  05B7  3E01               	addlw	1
  2000  05B8  1903               	skipnz
  2001  05B9  2DBB               	goto	u1782
  2002  05BA  07E6               	addwf	___flmul@prod+2,f
  2003  05BB                     u1782:
  2004  05BB  085B               	movf	??___flmul+3,w
  2005  05BC  1103               	clrz
  2006  05BD  1803               	skipnc
  2007  05BE  3E01               	addlw	1
  2008  05BF  1903               	skipnz
  2009  05C0  2DC2               	goto	u1783
  2010  05C1  07E7               	addwf	___flmul@prod+3,f
  2011  05C2                     u1783:
  2012  05C2                     l1469:
  2013  05C2  3008               	movlw	8
  2014  05C3  00D8               	movwf	??___flmul
  2015  05C4                     u1795:
  2016  05C4  1003               	clrc
  2017  05C5  0DDE               	rlf	___flmul@grs,f
  2018  05C6  0DDF               	rlf	___flmul@grs+1,f
  2019  05C7  0DE0               	rlf	___flmul@grs+2,f
  2020  05C8  0DE1               	rlf	___flmul@grs+3,f
  2021  05C9  0BD8               	decfsz	??___flmul,f
  2022  05CA  2DC4               	goto	u1795
  2023  05CB                     l1471:
  2024  05CB  0851               	movf	___flmul@b+1,w
  2025  05CC  00FF               	movwf	btemp+1
  2026  05CD  087F               	movf	btemp+1,w
  2027  05CE  00F0               	movwf	__Umul8_16@multiplicand
  2028  05CF  0854               	movf	___flmul@a,w
  2029  05D0  120A  158A  270D  120A  118A  	fcall	__Umul8_16
  2030  05D5  0871               	movf	?__Umul8_16+1,w
  2031  05D6  1283               	bcf	3,5	;RP0=0, select bank0
  2032  05D7  1303               	bcf	3,6	;RP1=0, select bank0
  2033  05D8  00E9               	movwf	___flmul@temp+1
  2034  05D9  0870               	movf	?__Umul8_16,w
  2035  05DA  00E8               	movwf	___flmul@temp
  2036  05DB                     l1473:
  2037  05DB  0868               	movf	___flmul@temp,w
  2038  05DC  00D8               	movwf	??___flmul
  2039  05DD  0869               	movf	___flmul@temp+1,w
  2040  05DE  00D9               	movwf	??___flmul+1
  2041  05DF  01DA               	clrf	??___flmul+2
  2042  05E0  01DB               	clrf	??___flmul+3
  2043  05E1  0858               	movf	??___flmul,w
  2044  05E2  07DE               	addwf	___flmul@grs,f
  2045  05E3  0859               	movf	??___flmul+1,w
  2046  05E4  1103               	clrz
  2047  05E5  1803               	skipnc
  2048  05E6  3E01               	addlw	1
  2049  05E7  1903               	skipnz
  2050  05E8  2DEA               	goto	u1801
  2051  05E9  07DF               	addwf	___flmul@grs+1,f
  2052  05EA                     u1801:
  2053  05EA  085A               	movf	??___flmul+2,w
  2054  05EB  1103               	clrz
  2055  05EC  1803               	skipnc
  2056  05ED  3E01               	addlw	1
  2057  05EE  1903               	skipnz
  2058  05EF  2DF1               	goto	u1802
  2059  05F0  07E0               	addwf	___flmul@grs+2,f
  2060  05F1                     u1802:
  2061  05F1  085B               	movf	??___flmul+3,w
  2062  05F2  1103               	clrz
  2063  05F3  1803               	skipnc
  2064  05F4  3E01               	addlw	1
  2065  05F5  1903               	skipnz
  2066  05F6  2DF8               	goto	u1803
  2067  05F7  07E1               	addwf	___flmul@grs+3,f
  2068  05F8                     u1803:
  2069  05F8                     l1475:
  2070  05F8  0850               	movf	___flmul@b,w
  2071  05F9  00FF               	movwf	btemp+1
  2072  05FA  087F               	movf	btemp+1,w
  2073  05FB  00F0               	movwf	__Umul8_16@multiplicand
  2074  05FC  0855               	movf	___flmul@a+1,w
  2075  05FD  120A  158A  270D  120A  118A  	fcall	__Umul8_16
  2076  0602  0871               	movf	?__Umul8_16+1,w
  2077  0603  1283               	bcf	3,5	;RP0=0, select bank0
  2078  0604  1303               	bcf	3,6	;RP1=0, select bank0
  2079  0605  00E9               	movwf	___flmul@temp+1
  2080  0606  0870               	movf	?__Umul8_16,w
  2081  0607  00E8               	movwf	___flmul@temp
  2082  0608                     l1477:
  2083  0608  0868               	movf	___flmul@temp,w
  2084  0609  00D8               	movwf	??___flmul
  2085  060A  0869               	movf	___flmul@temp+1,w
  2086  060B  00D9               	movwf	??___flmul+1
  2087  060C  01DA               	clrf	??___flmul+2
  2088  060D  01DB               	clrf	??___flmul+3
  2089  060E  0858               	movf	??___flmul,w
  2090  060F  07DE               	addwf	___flmul@grs,f
  2091  0610  0859               	movf	??___flmul+1,w
  2092  0611  1103               	clrz
  2093  0612  1803               	skipnc
  2094  0613  3E01               	addlw	1
  2095  0614  1903               	skipnz
  2096  0615  2E17               	goto	u1811
  2097  0616  07DF               	addwf	___flmul@grs+1,f
  2098  0617                     u1811:
  2099  0617  085A               	movf	??___flmul+2,w
  2100  0618  1103               	clrz
  2101  0619  1803               	skipnc
  2102  061A  3E01               	addlw	1
  2103  061B  1903               	skipnz
  2104  061C  2E1E               	goto	u1812
  2105  061D  07E0               	addwf	___flmul@grs+2,f
  2106  061E                     u1812:
  2107  061E  085B               	movf	??___flmul+3,w
  2108  061F  1103               	clrz
  2109  0620  1803               	skipnc
  2110  0621  3E01               	addlw	1
  2111  0622  1903               	skipnz
  2112  0623  2E25               	goto	u1813
  2113  0624  07E1               	addwf	___flmul@grs+3,f
  2114  0625                     u1813:
  2115  0625                     l1479:
  2116  0625  3008               	movlw	8
  2117  0626  00D8               	movwf	??___flmul
  2118  0627                     u1825:
  2119  0627  1003               	clrc
  2120  0628  0DDE               	rlf	___flmul@grs,f
  2121  0629  0DDF               	rlf	___flmul@grs+1,f
  2122  062A  0DE0               	rlf	___flmul@grs+2,f
  2123  062B  0DE1               	rlf	___flmul@grs+3,f
  2124  062C  0BD8               	decfsz	??___flmul,f
  2125  062D  2E27               	goto	u1825
  2126  062E  0850               	movf	___flmul@b,w
  2127  062F  00FF               	movwf	btemp+1
  2128  0630  087F               	movf	btemp+1,w
  2129  0631  00F0               	movwf	__Umul8_16@multiplicand
  2130  0632  0854               	movf	___flmul@a,w
  2131  0633  120A  158A  270D  120A  118A  	fcall	__Umul8_16
  2132  0638  0871               	movf	?__Umul8_16+1,w
  2133  0639  1283               	bcf	3,5	;RP0=0, select bank0
  2134  063A  1303               	bcf	3,6	;RP1=0, select bank0
  2135  063B  00E9               	movwf	___flmul@temp+1
  2136  063C  0870               	movf	?__Umul8_16,w
  2137  063D  00E8               	movwf	___flmul@temp
  2138  063E                     l1481:
  2139  063E  0868               	movf	___flmul@temp,w
  2140  063F  00D8               	movwf	??___flmul
  2141  0640  0869               	movf	___flmul@temp+1,w
  2142  0641  00D9               	movwf	??___flmul+1
  2143  0642  01DA               	clrf	??___flmul+2
  2144  0643  01DB               	clrf	??___flmul+3
  2145  0644  0858               	movf	??___flmul,w
  2146  0645  07DE               	addwf	___flmul@grs,f
  2147  0646  0859               	movf	??___flmul+1,w
  2148  0647  1103               	clrz
  2149  0648  1803               	skipnc
  2150  0649  3E01               	addlw	1
  2151  064A  1903               	skipnz
  2152  064B  2E4D               	goto	u1831
  2153  064C  07DF               	addwf	___flmul@grs+1,f
  2154  064D                     u1831:
  2155  064D  085A               	movf	??___flmul+2,w
  2156  064E  1103               	clrz
  2157  064F  1803               	skipnc
  2158  0650  3E01               	addlw	1
  2159  0651  1903               	skipnz
  2160  0652  2E54               	goto	u1832
  2161  0653  07E0               	addwf	___flmul@grs+2,f
  2162  0654                     u1832:
  2163  0654  085B               	movf	??___flmul+3,w
  2164  0655  1103               	clrz
  2165  0656  1803               	skipnc
  2166  0657  3E01               	addlw	1
  2167  0658  1903               	skipnz
  2168  0659  2E5B               	goto	u1833
  2169  065A  07E1               	addwf	___flmul@grs+3,f
  2170  065B                     u1833:
  2171  065B                     l1483:
  2172  065B  0851               	movf	___flmul@b+1,w
  2173  065C  00FF               	movwf	btemp+1
  2174  065D  087F               	movf	btemp+1,w
  2175  065E  00F0               	movwf	__Umul8_16@multiplicand
  2176  065F  0856               	movf	___flmul@a+2,w
  2177  0660  120A  158A  270D  120A  118A  	fcall	__Umul8_16
  2178  0665  0871               	movf	?__Umul8_16+1,w
  2179  0666  1283               	bcf	3,5	;RP0=0, select bank0
  2180  0667  1303               	bcf	3,6	;RP1=0, select bank0
  2181  0668  00E9               	movwf	___flmul@temp+1
  2182  0669  0870               	movf	?__Umul8_16,w
  2183  066A  00E8               	movwf	___flmul@temp
  2184  066B  0868               	movf	___flmul@temp,w
  2185  066C  00D8               	movwf	??___flmul
  2186  066D  0869               	movf	___flmul@temp+1,w
  2187  066E  00D9               	movwf	??___flmul+1
  2188  066F  01DA               	clrf	??___flmul+2
  2189  0670  01DB               	clrf	??___flmul+3
  2190  0671  0858               	movf	??___flmul,w
  2191  0672  07E4               	addwf	___flmul@prod,f
  2192  0673  0859               	movf	??___flmul+1,w
  2193  0674  1103               	clrz
  2194  0675  1803               	skipnc
  2195  0676  3E01               	addlw	1
  2196  0677  1903               	skipnz
  2197  0678  2E7A               	goto	u1841
  2198  0679  07E5               	addwf	___flmul@prod+1,f
  2199  067A                     u1841:
  2200  067A  085A               	movf	??___flmul+2,w
  2201  067B  1103               	clrz
  2202  067C  1803               	skipnc
  2203  067D  3E01               	addlw	1
  2204  067E  1903               	skipnz
  2205  067F  2E81               	goto	u1842
  2206  0680  07E6               	addwf	___flmul@prod+2,f
  2207  0681                     u1842:
  2208  0681  085B               	movf	??___flmul+3,w
  2209  0682  1103               	clrz
  2210  0683  1803               	skipnc
  2211  0684  3E01               	addlw	1
  2212  0685  1903               	skipnz
  2213  0686  2E88               	goto	u1843
  2214  0687  07E7               	addwf	___flmul@prod+3,f
  2215  0688                     u1843:
  2216  0688                     l1485:
  2217  0688  0852               	movf	___flmul@b+2,w
  2218  0689  00FF               	movwf	btemp+1
  2219  068A  087F               	movf	btemp+1,w
  2220  068B  00F0               	movwf	__Umul8_16@multiplicand
  2221  068C  0855               	movf	___flmul@a+1,w
  2222  068D  120A  158A  270D  120A  118A  	fcall	__Umul8_16
  2223  0692  0871               	movf	?__Umul8_16+1,w
  2224  0693  1283               	bcf	3,5	;RP0=0, select bank0
  2225  0694  1303               	bcf	3,6	;RP1=0, select bank0
  2226  0695  00E9               	movwf	___flmul@temp+1
  2227  0696  0870               	movf	?__Umul8_16,w
  2228  0697  00E8               	movwf	___flmul@temp
  2229  0698                     l1487:
  2230  0698  0868               	movf	___flmul@temp,w
  2231  0699  00D8               	movwf	??___flmul
  2232  069A  0869               	movf	___flmul@temp+1,w
  2233  069B  00D9               	movwf	??___flmul+1
  2234  069C  01DA               	clrf	??___flmul+2
  2235  069D  01DB               	clrf	??___flmul+3
  2236  069E  0858               	movf	??___flmul,w
  2237  069F  07E4               	addwf	___flmul@prod,f
  2238  06A0  0859               	movf	??___flmul+1,w
  2239  06A1  1103               	clrz
  2240  06A2  1803               	skipnc
  2241  06A3  3E01               	addlw	1
  2242  06A4  1903               	skipnz
  2243  06A5  2EA7               	goto	u1851
  2244  06A6  07E5               	addwf	___flmul@prod+1,f
  2245  06A7                     u1851:
  2246  06A7  085A               	movf	??___flmul+2,w
  2247  06A8  1103               	clrz
  2248  06A9  1803               	skipnc
  2249  06AA  3E01               	addlw	1
  2250  06AB  1903               	skipnz
  2251  06AC  2EAE               	goto	u1852
  2252  06AD  07E6               	addwf	___flmul@prod+2,f
  2253  06AE                     u1852:
  2254  06AE  085B               	movf	??___flmul+3,w
  2255  06AF  1103               	clrz
  2256  06B0  1803               	skipnc
  2257  06B1  3E01               	addlw	1
  2258  06B2  1903               	skipnz
  2259  06B3  2EB5               	goto	u1853
  2260  06B4  07E7               	addwf	___flmul@prod+3,f
  2261  06B5                     u1853:
  2262  06B5  0852               	movf	___flmul@b+2,w
  2263  06B6  00FF               	movwf	btemp+1
  2264  06B7  087F               	movf	btemp+1,w
  2265  06B8  00F0               	movwf	__Umul8_16@multiplicand
  2266  06B9  0856               	movf	___flmul@a+2,w
  2267  06BA  120A  158A  270D  120A  118A  	fcall	__Umul8_16
  2268  06BF  0871               	movf	?__Umul8_16+1,w
  2269  06C0  1283               	bcf	3,5	;RP0=0, select bank0
  2270  06C1  1303               	bcf	3,6	;RP1=0, select bank0
  2271  06C2  00E9               	movwf	___flmul@temp+1
  2272  06C3  0870               	movf	?__Umul8_16,w
  2273  06C4  00E8               	movwf	___flmul@temp
  2274  06C5                     l1489:
  2275  06C5  0868               	movf	___flmul@temp,w
  2276  06C6  00D8               	movwf	??___flmul
  2277  06C7  0869               	movf	___flmul@temp+1,w
  2278  06C8  00D9               	movwf	??___flmul+1
  2279  06C9  01DA               	clrf	??___flmul+2
  2280  06CA  01DB               	clrf	??___flmul+3
  2281  06CB  3008               	movlw	8
  2282  06CC                     u1865:
  2283  06CC  1003               	clrc
  2284  06CD  0DD8               	rlf	??___flmul,f
  2285  06CE  0DD9               	rlf	??___flmul+1,f
  2286  06CF  0DDA               	rlf	??___flmul+2,f
  2287  06D0  0DDB               	rlf	??___flmul+3,f
  2288  06D1                     u1860:
  2289  06D1  3EFF               	addlw	-1
  2290  06D2  1D03               	skipz
  2291  06D3  2ECC               	goto	u1865
  2292  06D4  0858               	movf	??___flmul,w
  2293  06D5  07E4               	addwf	___flmul@prod,f
  2294  06D6  0859               	movf	??___flmul+1,w
  2295  06D7  1103               	clrz
  2296  06D8  1803               	skipnc
  2297  06D9  3E01               	addlw	1
  2298  06DA  1903               	skipnz
  2299  06DB  2EDD               	goto	u1871
  2300  06DC  07E5               	addwf	___flmul@prod+1,f
  2301  06DD                     u1871:
  2302  06DD  085A               	movf	??___flmul+2,w
  2303  06DE  1103               	clrz
  2304  06DF  1803               	skipnc
  2305  06E0  3E01               	addlw	1
  2306  06E1  1903               	skipnz
  2307  06E2  2EE4               	goto	u1872
  2308  06E3  07E6               	addwf	___flmul@prod+2,f
  2309  06E4                     u1872:
  2310  06E4  085B               	movf	??___flmul+3,w
  2311  06E5  1103               	clrz
  2312  06E6  1803               	skipnc
  2313  06E7  3E01               	addlw	1
  2314  06E8  1903               	skipnz
  2315  06E9  2EEB               	goto	u1873
  2316  06EA  07E7               	addwf	___flmul@prod+3,f
  2317  06EB                     u1873:
  2318  06EB                     l1491:
  2319  06EB  085E               	movf	___flmul@grs,w
  2320  06EC  00D8               	movwf	??___flmul
  2321  06ED  085F               	movf	___flmul@grs+1,w
  2322  06EE  00D9               	movwf	??___flmul+1
  2323  06EF  0860               	movf	___flmul@grs+2,w
  2324  06F0  00DA               	movwf	??___flmul+2
  2325  06F1  0861               	movf	___flmul@grs+3,w
  2326  06F2  00DB               	movwf	??___flmul+3
  2327  06F3  3018               	movlw	24
  2328  06F4                     u1885:
  2329  06F4  1003               	clrc
  2330  06F5  0CDB               	rrf	??___flmul+3,f
  2331  06F6  0CDA               	rrf	??___flmul+2,f
  2332  06F7  0CD9               	rrf	??___flmul+1,f
  2333  06F8  0CD8               	rrf	??___flmul,f
  2334  06F9                     u1880:
  2335  06F9  3EFF               	addlw	-1
  2336  06FA  1D03               	skipz
  2337  06FB  2EF4               	goto	u1885
  2338  06FC  0858               	movf	??___flmul,w
  2339  06FD  07E4               	addwf	___flmul@prod,f
  2340  06FE  0859               	movf	??___flmul+1,w
  2341  06FF  1103               	clrz
  2342  0700  1803               	skipnc
  2343  0701  3E01               	addlw	1
  2344  0702  1903               	skipnz
  2345  0703  2F05               	goto	u1891
  2346  0704  07E5               	addwf	___flmul@prod+1,f
  2347  0705                     u1891:
  2348  0705  085A               	movf	??___flmul+2,w
  2349  0706  1103               	clrz
  2350  0707  1803               	skipnc
  2351  0708  3E01               	addlw	1
  2352  0709  1903               	skipnz
  2353  070A  2F0C               	goto	u1892
  2354  070B  07E6               	addwf	___flmul@prod+2,f
  2355  070C                     u1892:
  2356  070C  085B               	movf	??___flmul+3,w
  2357  070D  1103               	clrz
  2358  070E  1803               	skipnc
  2359  070F  3E01               	addlw	1
  2360  0710  1903               	skipnz
  2361  0711  2F13               	goto	u1893
  2362  0712  07E7               	addwf	___flmul@prod+3,f
  2363  0713                     u1893:
  2364  0713                     l1493:
  2365  0713  3008               	movlw	8
  2366  0714  00D8               	movwf	??___flmul
  2367  0715                     u1905:
  2368  0715  1003               	clrc
  2369  0716  0DDE               	rlf	___flmul@grs,f
  2370  0717  0DDF               	rlf	___flmul@grs+1,f
  2371  0718  0DE0               	rlf	___flmul@grs+2,f
  2372  0719  0DE1               	rlf	___flmul@grs+3,f
  2373  071A  0BD8               	decfsz	??___flmul,f
  2374  071B  2F15               	goto	u1905
  2375  071C                     l1495:
  2376  071C  0863               	movf	___flmul@bexp,w
  2377  071D  0762               	addwf	___flmul@aexp,w
  2378  071E  00D8               	movwf	??___flmul
  2379  071F  01D9               	clrf	??___flmul+1
  2380  0720  0DD9               	rlf	??___flmul+1,f
  2381  0721  0858               	movf	??___flmul,w
  2382  0722  3E82               	addlw	130
  2383  0723  00E8               	movwf	___flmul@temp
  2384  0724  0859               	movf	??___flmul+1,w
  2385  0725  1803               	skipnc
  2386  0726  3E01               	addlw	1
  2387  0727  3EFF               	addlw	255
  2388  0728  00E9               	movwf	___flmul@temp+1
  2389  0729  2F47               	goto	l1507
  2390  072A                     l1497:
  2391  072A  3001               	movlw	1
  2392  072B  00D8               	movwf	??___flmul
  2393  072C                     u1915:
  2394  072C  1003               	clrc
  2395  072D  0DE4               	rlf	___flmul@prod,f
  2396  072E  0DE5               	rlf	___flmul@prod+1,f
  2397  072F  0DE6               	rlf	___flmul@prod+2,f
  2398  0730  0DE7               	rlf	___flmul@prod+3,f
  2399  0731  0BD8               	decfsz	??___flmul,f
  2400  0732  2F2C               	goto	u1915
  2401  0733                     l1499:
  2402  0733  1FE1               	btfss	___flmul@grs+3,7
  2403  0734  2F36               	goto	u1921
  2404  0735  2F37               	goto	u1920
  2405  0736                     u1921:
  2406  0736  2F38               	goto	l1503
  2407  0737                     u1920:
  2408  0737                     l1501:
  2409  0737  1464               	bsf	___flmul@prod,0
  2410  0738                     l1503:
  2411  0738  3001               	movlw	1
  2412  0739  00D8               	movwf	??___flmul
  2413  073A                     u1935:
  2414  073A  1003               	clrc
  2415  073B  0DDE               	rlf	___flmul@grs,f
  2416  073C  0DDF               	rlf	___flmul@grs+1,f
  2417  073D  0DE0               	rlf	___flmul@grs+2,f
  2418  073E  0DE1               	rlf	___flmul@grs+3,f
  2419  073F  0BD8               	decfsz	??___flmul,f
  2420  0740  2F3A               	goto	u1935
  2421  0741                     l1505:
  2422  0741  30FF               	movlw	255
  2423  0742  07E8               	addwf	___flmul@temp,f
  2424  0743  1803               	skipnc
  2425  0744  0AE9               	incf	___flmul@temp+1,f
  2426  0745  30FF               	movlw	255
  2427  0746  07E9               	addwf	___flmul@temp+1,f
  2428  0747                     l1507:
  2429  0747  1FE6               	btfss	___flmul@prod+2,7
  2430  0748  2F4A               	goto	u1941
  2431  0749  2F4B               	goto	u1940
  2432  074A                     u1941:
  2433  074A  2F2A               	goto	l1497
  2434  074B                     u1940:
  2435  074B                     l1509:
  2436  074B  01E2               	clrf	___flmul@aexp
  2437  074C                     l1511:
  2438  074C  1FE1               	btfss	___flmul@grs+3,7
  2439  074D  2F4F               	goto	u1951
  2440  074E  2F50               	goto	u1950
  2441  074F                     u1951:
  2442  074F  2F6C               	goto	l1519
  2443  0750                     u1950:
  2444  0750                     l1513:
  2445  0750  30FF               	movlw	255
  2446  0751  055E               	andwf	___flmul@grs,w
  2447  0752  00D8               	movwf	??___flmul
  2448  0753  30FF               	movlw	255
  2449  0754  055F               	andwf	___flmul@grs+1,w
  2450  0755  00D9               	movwf	??___flmul+1
  2451  0756  30FF               	movlw	255
  2452  0757  0560               	andwf	___flmul@grs+2,w
  2453  0758  00DA               	movwf	??___flmul+2
  2454  0759  307F               	movlw	127
  2455  075A  0561               	andwf	___flmul@grs+3,w
  2456  075B  00DB               	movwf	??___flmul+3
  2457  075C  085B               	movf	??___flmul+3,w
  2458  075D  045A               	iorwf	??___flmul+2,w
  2459  075E  0459               	iorwf	??___flmul+1,w
  2460  075F  0458               	iorwf	??___flmul,w
  2461  0760  1903               	skipnz
  2462  0761  2F63               	goto	u1961
  2463  0762  2F64               	goto	u1960
  2464  0763                     u1961:
  2465  0763  2F67               	goto	l570
  2466  0764                     u1960:
  2467  0764                     l1515:
  2468  0764  01E2               	clrf	___flmul@aexp
  2469  0765  0AE2               	incf	___flmul@aexp,f
  2470  0766  2F6C               	goto	l1519
  2471  0767                     l570:
  2472  0767  1C64               	btfss	___flmul@prod,0
  2473  0768  2F6A               	goto	u1971
  2474  0769  2F6B               	goto	u1970
  2475  076A                     u1971:
  2476  076A  2F6C               	goto	l1519
  2477  076B                     u1970:
  2478  076B  2F64               	goto	l1515
  2479  076C                     l1519:
  2480  076C  0862               	movf	___flmul@aexp,w
  2481  076D  1903               	btfsc	3,2
  2482  076E  2F70               	goto	u1981
  2483  076F  2F71               	goto	u1980
  2484  0770                     u1981:
  2485  0770  2FA2               	goto	l1529
  2486  0771                     u1980:
  2487  0771                     l1521:
  2488  0771  3001               	movlw	1
  2489  0772  07E4               	addwf	___flmul@prod,f
  2490  0773  3000               	movlw	0
  2491  0774  1803               	skipnc
  2492  0775  3001               	movlw	1
  2493  0776  07E5               	addwf	___flmul@prod+1,f
  2494  0777  3000               	movlw	0
  2495  0778  1803               	skipnc
  2496  0779  3001               	movlw	1
  2497  077A  07E6               	addwf	___flmul@prod+2,f
  2498  077B  3000               	movlw	0
  2499  077C  1803               	skipnc
  2500  077D  3001               	movlw	1
  2501  077E  07E7               	addwf	___flmul@prod+3,f
  2502  077F                     l1523:
  2503  077F  1C67               	btfss	___flmul@prod+3,0
  2504  0780  2F82               	goto	u1991
  2505  0781  2F83               	goto	u1990
  2506  0782                     u1991:
  2507  0782  2FA2               	goto	l1529
  2508  0783                     u1990:
  2509  0783                     l1525:
  2510  0783  0864               	movf	___flmul@prod,w
  2511  0784  00D8               	movwf	??___flmul
  2512  0785  0865               	movf	___flmul@prod+1,w
  2513  0786  00D9               	movwf	??___flmul+1
  2514  0787  0866               	movf	___flmul@prod+2,w
  2515  0788  00DA               	movwf	??___flmul+2
  2516  0789  0867               	movf	___flmul@prod+3,w
  2517  078A  00DB               	movwf	??___flmul+3
  2518  078B  3001               	movlw	1
  2519  078C  00DC               	movwf	??___flmul+4
  2520  078D                     u2005:
  2521  078D  0D5B               	rlf	??___flmul+3,w
  2522  078E  0CDB               	rrf	??___flmul+3,f
  2523  078F  0CDA               	rrf	??___flmul+2,f
  2524  0790  0CD9               	rrf	??___flmul+1,f
  2525  0791  0CD8               	rrf	??___flmul,f
  2526  0792                     u2000:
  2527  0792  0BDC               	decfsz	??___flmul+4,f
  2528  0793  2F8D               	goto	u2005
  2529  0794  085B               	movf	??___flmul+3,w
  2530  0795  00E7               	movwf	___flmul@prod+3
  2531  0796  085A               	movf	??___flmul+2,w
  2532  0797  00E6               	movwf	___flmul@prod+2
  2533  0798  0859               	movf	??___flmul+1,w
  2534  0799  00E5               	movwf	___flmul@prod+1
  2535  079A  0858               	movf	??___flmul,w
  2536  079B  00E4               	movwf	___flmul@prod
  2537  079C                     l1527:
  2538  079C  3001               	movlw	1
  2539  079D  07E8               	addwf	___flmul@temp,f
  2540  079E  1803               	skipnc
  2541  079F  0AE9               	incf	___flmul@temp+1,f
  2542  07A0  3000               	movlw	0
  2543  07A1  07E9               	addwf	___flmul@temp+1,f
  2544  07A2                     l1529:
  2545  07A2  0869               	movf	___flmul@temp+1,w
  2546  07A3  3A80               	xorlw	128
  2547  07A4  00FF               	movwf	btemp+1
  2548  07A5  3080               	movlw	128
  2549  07A6  027F               	subwf	btemp+1,w
  2550  07A7  1D03               	skipz
  2551  07A8  2FAB               	goto	u2015
  2552  07A9  30FF               	movlw	255
  2553  07AA  0268               	subwf	___flmul@temp,w
  2554  07AB                     u2015:
  2555  07AB  1C03               	skipc
  2556  07AC  2FAE               	goto	u2011
  2557  07AD  2FAF               	goto	u2010
  2558  07AE                     u2011:
  2559  07AE  2FBA               	goto	l1533
  2560  07AF                     u2010:
  2561  07AF                     l1531:
  2562  07AF  307F               	movlw	127
  2563  07B0  1283               	bcf	3,5	;RP0=0, select bank0
  2564  07B1  1303               	bcf	3,6	;RP1=0, select bank0
  2565  07B2  00E7               	movwf	___flmul@prod+3
  2566  07B3  3080               	movlw	128
  2567  07B4  00E6               	movwf	___flmul@prod+2
  2568  07B5  3000               	movlw	0
  2569  07B6  00E5               	movwf	___flmul@prod+1
  2570  07B7  3000               	movlw	0
  2571  07B8  00E4               	movwf	___flmul@prod
  2572  07B9  2FEF               	goto	l576
  2573  07BA                     l1533:
  2574  07BA  1283               	bcf	3,5	;RP0=0, select bank0
  2575  07BB  1303               	bcf	3,6	;RP1=0, select bank0
  2576  07BC  0869               	movf	___flmul@temp+1,w
  2577  07BD  3A80               	xorlw	128
  2578  07BE  00FF               	movwf	btemp+1
  2579  07BF  3080               	movlw	128
  2580  07C0  027F               	subwf	btemp+1,w
  2581  07C1  1D03               	skipz
  2582  07C2  2FC5               	goto	u2025
  2583  07C3  3001               	movlw	1
  2584  07C4  0268               	subwf	___flmul@temp,w
  2585  07C5                     u2025:
  2586  07C5  1803               	skipnc
  2587  07C6  2FC8               	goto	u2021
  2588  07C7  2FC9               	goto	u2020
  2589  07C8                     u2021:
  2590  07C8  2FD5               	goto	l1539
  2591  07C9                     u2020:
  2592  07C9                     l1535:
  2593  07C9  3000               	movlw	0
  2594  07CA  1283               	bcf	3,5	;RP0=0, select bank0
  2595  07CB  1303               	bcf	3,6	;RP1=0, select bank0
  2596  07CC  00E7               	movwf	___flmul@prod+3
  2597  07CD  3000               	movlw	0
  2598  07CE  00E6               	movwf	___flmul@prod+2
  2599  07CF  3000               	movlw	0
  2600  07D0  00E5               	movwf	___flmul@prod+1
  2601  07D1  3000               	movlw	0
  2602  07D2  00E4               	movwf	___flmul@prod
  2603  07D3                     l1537:
  2604  07D3  01DD               	clrf	___flmul@sign
  2605  07D4  2FEF               	goto	l576
  2606  07D5                     l1539:
  2607  07D5  1283               	bcf	3,5	;RP0=0, select bank0
  2608  07D6  1303               	bcf	3,6	;RP1=0, select bank0
  2609  07D7  0868               	movf	___flmul@temp,w
  2610  07D8  00FF               	movwf	btemp+1
  2611  07D9  087F               	movf	btemp+1,w
  2612  07DA  00E3               	movwf	___flmul@bexp
  2613  07DB                     l1541:
  2614  07DB  30FF               	movlw	255
  2615  07DC  05E4               	andwf	___flmul@prod,f
  2616  07DD  30FF               	movlw	255
  2617  07DE  05E5               	andwf	___flmul@prod+1,f
  2618  07DF  307F               	movlw	127
  2619  07E0  05E6               	andwf	___flmul@prod+2,f
  2620  07E1  3000               	movlw	0
  2621  07E2  05E7               	andwf	___flmul@prod+3,f
  2622  07E3                     l1543:
  2623  07E3  1C63               	btfss	___flmul@bexp,0
  2624  07E4  2FE6               	goto	u2031
  2625  07E5  2FE7               	goto	u2030
  2626  07E6                     u2031:
  2627  07E6  2FE8               	goto	l1547
  2628  07E7                     u2030:
  2629  07E7                     l1545:
  2630  07E7  17E6               	bsf	___flmul@prod+2,7
  2631  07E8                     l1547:
  2632  07E8  0863               	movf	___flmul@bexp,w
  2633  07E9  00D8               	movwf	??___flmul
  2634  07EA  1003               	clrc
  2635  07EB  0C58               	rrf	??___flmul,w
  2636  07EC  00FF               	movwf	btemp+1
  2637  07ED  087F               	movf	btemp+1,w
  2638  07EE  00E7               	movwf	___flmul@prod+3
  2639  07EF                     l576:
  2640  07EF  085D               	movf	___flmul@sign,w
  2641  07F0  00FF               	movwf	btemp+1
  2642  07F1  087F               	movf	btemp+1,w
  2643  07F2  04E7               	iorwf	___flmul@prod+3,f
  2644  07F3                     l1549:
  2645  07F3  0867               	movf	___flmul@prod+3,w
  2646  07F4  00D3               	movwf	?___flmul+3
  2647  07F5  0866               	movf	___flmul@prod+2,w
  2648  07F6  00D2               	movwf	?___flmul+2
  2649  07F7  0865               	movf	___flmul@prod+1,w
  2650  07F8  00D1               	movwf	?___flmul+1
  2651  07F9  0864               	movf	___flmul@prod,w
  2652  07FA  00D0               	movwf	?___flmul
  2653  07FB                     l564:
  2654  07FB  0008               	return
  2655  07FC                     __end_of___flmul:
  2656                           
  2657                           	psect	text9
  2658  0F0D                     __ptext9:	
  2659 ;; *************** function __Umul8_16 *****************
  2660 ;; Defined at:
  2661 ;;		line 4 in file "C:\Program Files\Microchip\xc8\v2.20\pic\sources\c90\common\Umul8_16.c"
  2662 ;; Parameters:    Size  Location     Type
  2663 ;;  multiplier      1    wreg     unsigned char 
  2664 ;;  multiplicand    1    0[COMMON] unsigned char 
  2665 ;; Auto vars:     Size  Location     Type
  2666 ;;  multiplier      1    8[COMMON] unsigned char 
  2667 ;;  word_mpld       2    6[COMMON] unsigned int 
  2668 ;;  product         2    4[COMMON] unsigned int 
  2669 ;; Return value:  Size  Location     Type
  2670 ;;                  2    0[COMMON] unsigned int 
  2671 ;; Registers used:
  2672 ;;		wreg, status,2, status,0
  2673 ;; Tracked objects:
  2674 ;;		On entry : 0/0
  2675 ;;		On exit  : 0/0
  2676 ;;		Unchanged: 0/0
  2677 ;; Data sizes:     COMMON   BANK0   BANK1   BANK3   BANK2
  2678 ;;      Params:         2       0       0       0       0
  2679 ;;      Locals:         5       0       0       0       0
  2680 ;;      Temps:          2       0       0       0       0
  2681 ;;      Totals:         9       0       0       0       0
  2682 ;;Total ram usage:        9 bytes
  2683 ;; Hardware stack levels used:    1
  2684 ;; This function calls:
  2685 ;;		Nothing
  2686 ;; This function is called by:
  2687 ;;		___flmul
  2688 ;; This function uses a non-reentrant model
  2689 ;;
  2690                           
  2691                           
  2692                           ;psect for function __Umul8_16
  2693  0F0D                     __Umul8_16:
  2694                           
  2695                           ;incstack = 0
  2696                           ; Regs used in __Umul8_16: [wreg+status,2+status,0]
  2697                           ;__Umul8_16@multiplier stored from wreg
  2698  0F0D  00F8               	movwf	__Umul8_16@multiplier
  2699  0F0E                     l1211:
  2700  0F0E  01F4               	clrf	__Umul8_16@product
  2701  0F0F  01F5               	clrf	__Umul8_16@product+1
  2702  0F10                     l1213:
  2703  0F10  0870               	movf	__Umul8_16@multiplicand,w
  2704  0F11  00F2               	movwf	??__Umul8_16
  2705  0F12  01F3               	clrf	??__Umul8_16+1
  2706  0F13  0872               	movf	??__Umul8_16,w
  2707  0F14  00F6               	movwf	__Umul8_16@word_mpld
  2708  0F15  0873               	movf	??__Umul8_16+1,w
  2709  0F16  00F7               	movwf	__Umul8_16@word_mpld+1
  2710  0F17                     l1215:
  2711  0F17  1C78               	btfss	__Umul8_16@multiplier,0
  2712  0F18  2F1A               	goto	u1241
  2713  0F19  2F1B               	goto	u1240
  2714  0F1A                     u1241:
  2715  0F1A  2F21               	goto	l583
  2716  0F1B                     u1240:
  2717  0F1B                     l1217:
  2718  0F1B  0876               	movf	__Umul8_16@word_mpld,w
  2719  0F1C  07F4               	addwf	__Umul8_16@product,f
  2720  0F1D  1803               	skipnc
  2721  0F1E  0AF5               	incf	__Umul8_16@product+1,f
  2722  0F1F  0877               	movf	__Umul8_16@word_mpld+1,w
  2723  0F20  07F5               	addwf	__Umul8_16@product+1,f
  2724  0F21                     l583:
  2725  0F21  3001               	movlw	1
  2726  0F22                     u1255:
  2727  0F22  1003               	clrc
  2728  0F23  0DF6               	rlf	__Umul8_16@word_mpld,f
  2729  0F24  0DF7               	rlf	__Umul8_16@word_mpld+1,f
  2730  0F25  3EFF               	addlw	-1
  2731  0F26  1D03               	skipz
  2732  0F27  2F22               	goto	u1255
  2733  0F28  1003               	clrc
  2734  0F29  0CF8               	rrf	__Umul8_16@multiplier,f
  2735  0F2A                     l1219:
  2736  0F2A  0878               	movf	__Umul8_16@multiplier,w
  2737  0F2B  1D03               	btfss	3,2
  2738  0F2C  2F2E               	goto	u1261
  2739  0F2D  2F2F               	goto	u1260
  2740  0F2E                     u1261:
  2741  0F2E  2F17               	goto	l1215
  2742  0F2F                     u1260:
  2743  0F2F                     l1221:
  2744  0F2F  0875               	movf	__Umul8_16@product+1,w
  2745  0F30  00F1               	movwf	?__Umul8_16+1
  2746  0F31  0874               	movf	__Umul8_16@product,w
  2747  0F32  00F0               	movwf	?__Umul8_16
  2748  0F33                     l585:
  2749  0F33  0008               	return
  2750  0F34                     __end_of__Umul8_16:
  2751                           
  2752                           	psect	text10
  2753  02BE                     __ptext10:	
  2754 ;; *************** function ___fldiv *****************
  2755 ;; Defined at:
  2756 ;;		line 8 in file "C:\Program Files\Microchip\xc8\v2.20\pic\sources\c90\common\sprcdiv.c"
  2757 ;; Parameters:    Size  Location     Type
  2758 ;;  a               4   22[BANK0 ] unsigned int 
  2759 ;;  b               4   26[BANK0 ] unsigned int 
  2760 ;; Auto vars:     Size  Location     Type
  2761 ;;  grs             4   42[BANK0 ] unsigned long 
  2762 ;;  rem             4   35[BANK0 ] unsigned long 
  2763 ;;  new_exp         2   40[BANK0 ] int 
  2764 ;;  aexp            1   47[BANK0 ] unsigned char 
  2765 ;;  bexp            1   46[BANK0 ] unsigned char 
  2766 ;;  sign            1   39[BANK0 ] unsigned char 
  2767 ;; Return value:  Size  Location     Type
  2768 ;;                  4   22[BANK0 ] unsigned char 
  2769 ;; Registers used:
  2770 ;;		wreg, status,2, status,0, btemp+1
  2771 ;; Tracked objects:
  2772 ;;		On entry : 0/0
  2773 ;;		On exit  : 0/0
  2774 ;;		Unchanged: 0/0
  2775 ;; Data sizes:     COMMON   BANK0   BANK1   BANK3   BANK2
  2776 ;;      Params:         0       8       0       0       0
  2777 ;;      Locals:         0      13       0       0       0
  2778 ;;      Temps:          0       5       0       0       0
  2779 ;;      Totals:         0      26       0       0       0
  2780 ;;Total ram usage:       26 bytes
  2781 ;; Hardware stack levels used:    1
  2782 ;; This function calls:
  2783 ;;		Nothing
  2784 ;; This function is called by:
  2785 ;;		_PWM1_Duty
  2786 ;;		_main
  2787 ;;		_PWM2_Duty
  2788 ;; This function uses a non-reentrant model
  2789 ;;
  2790                           
  2791                           
  2792                           ;psect for function ___fldiv
  2793  02BE                     ___fldiv:
  2794  02BE                     l1267:	
  2795                           ;incstack = 0
  2796                           ; Regs used in ___fldiv: [wreg+status,2+status,0+btemp+1]
  2797                           
  2798  02BE  1283               	bcf	3,5	;RP0=0, select bank0
  2799  02BF  1303               	bcf	3,6	;RP1=0, select bank0
  2800  02C0  083D               	movf	___fldiv@b+3,w
  2801  02C1  3980               	andlw	128
  2802  02C2  00FF               	movwf	btemp+1
  2803  02C3  087F               	movf	btemp+1,w
  2804  02C4  00C7               	movwf	___fldiv@sign
  2805  02C5                     l1269:
  2806  02C5  083D               	movf	___fldiv@b+3,w
  2807  02C6  00BE               	movwf	??___fldiv
  2808  02C7  073E               	addwf	??___fldiv,w
  2809  02C8  00FF               	movwf	btemp+1
  2810  02C9  087F               	movf	btemp+1,w
  2811  02CA  00CE               	movwf	___fldiv@bexp
  2812  02CB                     l1271:
  2813  02CB  1FBC               	btfss	___fldiv@b+2,7
  2814  02CC  2ACE               	goto	u1381
  2815  02CD  2ACF               	goto	u1380
  2816  02CE                     u1381:
  2817  02CE  2AD0               	goto	l1275
  2818  02CF                     u1380:
  2819  02CF                     l1273:
  2820  02CF  144E               	bsf	___fldiv@bexp,0
  2821  02D0                     l1275:
  2822  02D0  084E               	movf	___fldiv@bexp,w
  2823  02D1  1903               	btfsc	3,2
  2824  02D2  2AD4               	goto	u1391
  2825  02D3  2AD5               	goto	u1390
  2826  02D4                     u1391:
  2827  02D4  2AE5               	goto	l1285
  2828  02D5                     u1390:
  2829  02D5                     l1277:
  2830  02D5  0A4E               	incf	___fldiv@bexp,w
  2831  02D6  1D03               	btfss	3,2
  2832  02D7  2AD9               	goto	u1401
  2833  02D8  2ADA               	goto	u1400
  2834  02D9                     u1401:
  2835  02D9  2AE2               	goto	l1281
  2836  02DA                     u1400:
  2837  02DA                     l1279:
  2838  02DA  3000               	movlw	0
  2839  02DB  00BD               	movwf	___fldiv@b+3
  2840  02DC  3000               	movlw	0
  2841  02DD  00BC               	movwf	___fldiv@b+2
  2842  02DE  3000               	movlw	0
  2843  02DF  00BB               	movwf	___fldiv@b+1
  2844  02E0  3000               	movlw	0
  2845  02E1  00BA               	movwf	___fldiv@b
  2846  02E2                     l1281:
  2847  02E2  17BC               	bsf	___fldiv@b+2,7
  2848  02E3                     l1283:
  2849  02E3  01BD               	clrf	___fldiv@b+3
  2850  02E4  2AED               	goto	l1287
  2851  02E5                     l1285:
  2852  02E5  3000               	movlw	0
  2853  02E6  00BD               	movwf	___fldiv@b+3
  2854  02E7  3000               	movlw	0
  2855  02E8  00BC               	movwf	___fldiv@b+2
  2856  02E9  3000               	movlw	0
  2857  02EA  00BB               	movwf	___fldiv@b+1
  2858  02EB  3000               	movlw	0
  2859  02EC  00BA               	movwf	___fldiv@b
  2860  02ED                     l1287:
  2861  02ED  0839               	movf	___fldiv@a+3,w
  2862  02EE  3980               	andlw	128
  2863  02EF  00FF               	movwf	btemp+1
  2864  02F0  087F               	movf	btemp+1,w
  2865  02F1  06C7               	xorwf	___fldiv@sign,f
  2866  02F2                     l1289:
  2867  02F2  0839               	movf	___fldiv@a+3,w
  2868  02F3  00BE               	movwf	??___fldiv
  2869  02F4  073E               	addwf	??___fldiv,w
  2870  02F5  00FF               	movwf	btemp+1
  2871  02F6  087F               	movf	btemp+1,w
  2872  02F7  00CF               	movwf	___fldiv@aexp
  2873  02F8                     l1291:
  2874  02F8  1FB8               	btfss	___fldiv@a+2,7
  2875  02F9  2AFB               	goto	u1411
  2876  02FA  2AFC               	goto	u1410
  2877  02FB                     u1411:
  2878  02FB  2AFD               	goto	l1295
  2879  02FC                     u1410:
  2880  02FC                     l1293:
  2881  02FC  144F               	bsf	___fldiv@aexp,0
  2882  02FD                     l1295:
  2883  02FD  084F               	movf	___fldiv@aexp,w
  2884  02FE  1903               	btfsc	3,2
  2885  02FF  2B01               	goto	u1421
  2886  0300  2B02               	goto	u1420
  2887  0301                     u1421:
  2888  0301  2B12               	goto	l1305
  2889  0302                     u1420:
  2890  0302                     l1297:
  2891  0302  0A4F               	incf	___fldiv@aexp,w
  2892  0303  1D03               	btfss	3,2
  2893  0304  2B06               	goto	u1431
  2894  0305  2B07               	goto	u1430
  2895  0306                     u1431:
  2896  0306  2B0F               	goto	l1301
  2897  0307                     u1430:
  2898  0307                     l1299:
  2899  0307  3000               	movlw	0
  2900  0308  00B9               	movwf	___fldiv@a+3
  2901  0309  3000               	movlw	0
  2902  030A  00B8               	movwf	___fldiv@a+2
  2903  030B  3000               	movlw	0
  2904  030C  00B7               	movwf	___fldiv@a+1
  2905  030D  3000               	movlw	0
  2906  030E  00B6               	movwf	___fldiv@a
  2907  030F                     l1301:
  2908  030F  17B8               	bsf	___fldiv@a+2,7
  2909  0310                     l1303:
  2910  0310  01B9               	clrf	___fldiv@a+3
  2911  0311  2B1A               	goto	l524
  2912  0312                     l1305:
  2913  0312  3000               	movlw	0
  2914  0313  00B9               	movwf	___fldiv@a+3
  2915  0314  3000               	movlw	0
  2916  0315  00B8               	movwf	___fldiv@a+2
  2917  0316  3000               	movlw	0
  2918  0317  00B7               	movwf	___fldiv@a+1
  2919  0318  3000               	movlw	0
  2920  0319  00B6               	movwf	___fldiv@a
  2921  031A                     l524:
  2922  031A  0839               	movf	___fldiv@a+3,w
  2923  031B  0438               	iorwf	___fldiv@a+2,w
  2924  031C  0437               	iorwf	___fldiv@a+1,w
  2925  031D  0436               	iorwf	___fldiv@a,w
  2926  031E  1D03               	skipz
  2927  031F  2B21               	goto	u1441
  2928  0320  2B22               	goto	u1440
  2929  0321                     u1441:
  2930  0321  2B3B               	goto	l1315
  2931  0322                     u1440:
  2932  0322                     l1307:
  2933  0322  3000               	movlw	0
  2934  0323  00BD               	movwf	___fldiv@b+3
  2935  0324  3000               	movlw	0
  2936  0325  00BC               	movwf	___fldiv@b+2
  2937  0326  3000               	movlw	0
  2938  0327  00BB               	movwf	___fldiv@b+1
  2939  0328  3000               	movlw	0
  2940  0329  00BA               	movwf	___fldiv@b
  2941  032A  3080               	movlw	128
  2942  032B  04BC               	iorwf	___fldiv@b+2,f
  2943  032C  307F               	movlw	127
  2944  032D  04BD               	iorwf	___fldiv@b+3,f
  2945  032E                     l1309:
  2946  032E  0847               	movf	___fldiv@sign,w
  2947  032F  00FF               	movwf	btemp+1
  2948  0330  087F               	movf	btemp+1,w
  2949  0331  04BD               	iorwf	___fldiv@b+3,f
  2950  0332                     l1311:
  2951  0332  083D               	movf	___fldiv@b+3,w
  2952  0333  00B9               	movwf	?___fldiv+3
  2953  0334  083C               	movf	___fldiv@b+2,w
  2954  0335  00B8               	movwf	?___fldiv+2
  2955  0336  083B               	movf	___fldiv@b+1,w
  2956  0337  00B7               	movwf	?___fldiv+1
  2957  0338  083A               	movf	___fldiv@b,w
  2958  0339  00B6               	movwf	?___fldiv
  2959  033A  2C9A               	goto	l526
  2960  033B                     l1315:
  2961  033B  084E               	movf	___fldiv@bexp,w
  2962  033C  1D03               	btfss	3,2
  2963  033D  2B3F               	goto	u1451
  2964  033E  2B40               	goto	u1450
  2965  033F                     u1451:
  2966  033F  2B49               	goto	l1321
  2967  0340                     u1450:
  2968  0340                     l1317:
  2969  0340  3000               	movlw	0
  2970  0341  00B9               	movwf	?___fldiv+3
  2971  0342  3000               	movlw	0
  2972  0343  00B8               	movwf	?___fldiv+2
  2973  0344  3000               	movlw	0
  2974  0345  00B7               	movwf	?___fldiv+1
  2975  0346  3000               	movlw	0
  2976  0347  00B6               	movwf	?___fldiv
  2977  0348  2C9A               	goto	l526
  2978  0349                     l1321:
  2979  0349  084E               	movf	___fldiv@bexp,w
  2980  034A  00BE               	movwf	??___fldiv
  2981  034B  01BF               	clrf	??___fldiv+1
  2982  034C  083F               	movf	??___fldiv+1,w
  2983  034D  00C1               	movwf	??___fldiv+3
  2984  034E  084F               	movf	___fldiv@aexp,w
  2985  034F  023E               	subwf	??___fldiv,w
  2986  0350  00C0               	movwf	??___fldiv+2
  2987  0351  1C03               	skipc
  2988  0352  03C1               	decf	??___fldiv+3,f
  2989  0353  0840               	movf	??___fldiv+2,w
  2990  0354  3E7F               	addlw	127
  2991  0355  00C8               	movwf	___fldiv@new_exp
  2992  0356  0841               	movf	??___fldiv+3,w
  2993  0357  1803               	skipnc
  2994  0358  3E01               	addlw	1
  2995  0359  3E00               	addlw	0
  2996  035A  00C9               	movwf	___fldiv@new_exp+1
  2997  035B                     l1323:
  2998  035B  083D               	movf	___fldiv@b+3,w
  2999  035C  00C6               	movwf	___fldiv@rem+3
  3000  035D  083C               	movf	___fldiv@b+2,w
  3001  035E  00C5               	movwf	___fldiv@rem+2
  3002  035F  083B               	movf	___fldiv@b+1,w
  3003  0360  00C4               	movwf	___fldiv@rem+1
  3004  0361  083A               	movf	___fldiv@b,w
  3005  0362  00C3               	movwf	___fldiv@rem
  3006  0363                     l1325:
  3007  0363  3000               	movlw	0
  3008  0364  00BD               	movwf	___fldiv@b+3
  3009  0365  3000               	movlw	0
  3010  0366  00BC               	movwf	___fldiv@b+2
  3011  0367  3000               	movlw	0
  3012  0368  00BB               	movwf	___fldiv@b+1
  3013  0369  3000               	movlw	0
  3014  036A  00BA               	movwf	___fldiv@b
  3015  036B                     l1327:
  3016  036B  3000               	movlw	0
  3017  036C  00CD               	movwf	___fldiv@grs+3
  3018  036D  3000               	movlw	0
  3019  036E  00CC               	movwf	___fldiv@grs+2
  3020  036F  3000               	movlw	0
  3021  0370  00CB               	movwf	___fldiv@grs+1
  3022  0371  3000               	movlw	0
  3023  0372  00CA               	movwf	___fldiv@grs
  3024  0373                     l1329:
  3025  0373  01CF               	clrf	___fldiv@aexp
  3026  0374  2BBF               	goto	l1349
  3027  0375                     l1331:
  3028  0375  084F               	movf	___fldiv@aexp,w
  3029  0376  1903               	btfsc	3,2
  3030  0377  2B79               	goto	u1461
  3031  0378  2B7A               	goto	u1460
  3032  0379                     u1461:
  3033  0379  2B9A               	goto	l1341
  3034  037A                     u1460:
  3035  037A                     l1333:
  3036  037A  3001               	movlw	1
  3037  037B  00BE               	movwf	??___fldiv
  3038  037C                     u1475:
  3039  037C  1003               	clrc
  3040  037D  0DC3               	rlf	___fldiv@rem,f
  3041  037E  0DC4               	rlf	___fldiv@rem+1,f
  3042  037F  0DC5               	rlf	___fldiv@rem+2,f
  3043  0380  0DC6               	rlf	___fldiv@rem+3,f
  3044  0381  0BBE               	decfsz	??___fldiv,f
  3045  0382  2B7C               	goto	u1475
  3046  0383  3001               	movlw	1
  3047  0384  00BE               	movwf	??___fldiv
  3048  0385                     u1485:
  3049  0385  1003               	clrc
  3050  0386  0DBA               	rlf	___fldiv@b,f
  3051  0387  0DBB               	rlf	___fldiv@b+1,f
  3052  0388  0DBC               	rlf	___fldiv@b+2,f
  3053  0389  0DBD               	rlf	___fldiv@b+3,f
  3054  038A  0BBE               	decfsz	??___fldiv,f
  3055  038B  2B85               	goto	u1485
  3056  038C                     l1335:
  3057  038C  1FCD               	btfss	___fldiv@grs+3,7
  3058  038D  2B8F               	goto	u1491
  3059  038E  2B90               	goto	u1490
  3060  038F                     u1491:
  3061  038F  2B91               	goto	l1339
  3062  0390                     u1490:
  3063  0390                     l1337:
  3064  0390  143A               	bsf	___fldiv@b,0
  3065  0391                     l1339:
  3066  0391  3001               	movlw	1
  3067  0392  00BE               	movwf	??___fldiv
  3068  0393                     u1505:
  3069  0393  1003               	clrc
  3070  0394  0DCA               	rlf	___fldiv@grs,f
  3071  0395  0DCB               	rlf	___fldiv@grs+1,f
  3072  0396  0DCC               	rlf	___fldiv@grs+2,f
  3073  0397  0DCD               	rlf	___fldiv@grs+3,f
  3074  0398  0BBE               	decfsz	??___fldiv,f
  3075  0399  2B93               	goto	u1505
  3076  039A                     l1341:
  3077  039A  0839               	movf	___fldiv@a+3,w
  3078  039B  0246               	subwf	___fldiv@rem+3,w
  3079  039C  1D03               	skipz
  3080  039D  2BA8               	goto	u1515
  3081  039E  0838               	movf	___fldiv@a+2,w
  3082  039F  0245               	subwf	___fldiv@rem+2,w
  3083  03A0  1D03               	skipz
  3084  03A1  2BA8               	goto	u1515
  3085  03A2  0837               	movf	___fldiv@a+1,w
  3086  03A3  0244               	subwf	___fldiv@rem+1,w
  3087  03A4  1D03               	skipz
  3088  03A5  2BA8               	goto	u1515
  3089  03A6  0836               	movf	___fldiv@a,w
  3090  03A7  0243               	subwf	___fldiv@rem,w
  3091  03A8                     u1515:
  3092  03A8  1C03               	skipc
  3093  03A9  2BAB               	goto	u1511
  3094  03AA  2BAC               	goto	u1510
  3095  03AB                     u1511:
  3096  03AB  2BBB               	goto	l1347
  3097  03AC                     u1510:
  3098  03AC                     l1343:
  3099  03AC  174D               	bsf	___fldiv@grs+3,6
  3100  03AD                     l1345:
  3101  03AD  0836               	movf	___fldiv@a,w
  3102  03AE  02C3               	subwf	___fldiv@rem,f
  3103  03AF  0837               	movf	___fldiv@a+1,w
  3104  03B0  1C03               	skipc
  3105  03B1  0F37               	incfsz	___fldiv@a+1,w
  3106  03B2  02C4               	subwf	___fldiv@rem+1,f
  3107  03B3  0838               	movf	___fldiv@a+2,w
  3108  03B4  1C03               	skipc
  3109  03B5  0F38               	incfsz	___fldiv@a+2,w
  3110  03B6  02C5               	subwf	___fldiv@rem+2,f
  3111  03B7  0839               	movf	___fldiv@a+3,w
  3112  03B8  1C03               	skipc
  3113  03B9  0F39               	incfsz	___fldiv@a+3,w
  3114  03BA  02C6               	subwf	___fldiv@rem+3,f
  3115  03BB                     l1347:
  3116  03BB  3001               	movlw	1
  3117  03BC  00FF               	movwf	btemp+1
  3118  03BD  087F               	movf	btemp+1,w
  3119  03BE  07CF               	addwf	___fldiv@aexp,f
  3120  03BF                     l1349:
  3121  03BF  301A               	movlw	26
  3122  03C0  024F               	subwf	___fldiv@aexp,w
  3123  03C1  1C03               	skipc
  3124  03C2  2BC4               	goto	u1521
  3125  03C3  2BC5               	goto	u1520
  3126  03C4                     u1521:
  3127  03C4  2B75               	goto	l1331
  3128  03C5                     u1520:
  3129  03C5                     l1351:
  3130  03C5  0846               	movf	___fldiv@rem+3,w
  3131  03C6  0445               	iorwf	___fldiv@rem+2,w
  3132  03C7  0444               	iorwf	___fldiv@rem+1,w
  3133  03C8  0443               	iorwf	___fldiv@rem,w
  3134  03C9  1903               	skipnz
  3135  03CA  2BCC               	goto	u1531
  3136  03CB  2BCD               	goto	u1530
  3137  03CC                     u1531:
  3138  03CC  2BEC               	goto	l1365
  3139  03CD                     u1530:
  3140  03CD                     l1353:
  3141  03CD  144A               	bsf	___fldiv@grs,0
  3142  03CE  2BEC               	goto	l1365
  3143  03CF                     l1355:
  3144  03CF  3001               	movlw	1
  3145  03D0  00BE               	movwf	??___fldiv
  3146  03D1                     u1545:
  3147  03D1  1003               	clrc
  3148  03D2  0DBA               	rlf	___fldiv@b,f
  3149  03D3  0DBB               	rlf	___fldiv@b+1,f
  3150  03D4  0DBC               	rlf	___fldiv@b+2,f
  3151  03D5  0DBD               	rlf	___fldiv@b+3,f
  3152  03D6  0BBE               	decfsz	??___fldiv,f
  3153  03D7  2BD1               	goto	u1545
  3154  03D8                     l1357:
  3155  03D8  1FCD               	btfss	___fldiv@grs+3,7
  3156  03D9  2BDB               	goto	u1551
  3157  03DA  2BDC               	goto	u1550
  3158  03DB                     u1551:
  3159  03DB  2BDD               	goto	l1361
  3160  03DC                     u1550:
  3161  03DC                     l1359:
  3162  03DC  143A               	bsf	___fldiv@b,0
  3163  03DD                     l1361:
  3164  03DD  3001               	movlw	1
  3165  03DE  00BE               	movwf	??___fldiv
  3166  03DF                     u1565:
  3167  03DF  1003               	clrc
  3168  03E0  0DCA               	rlf	___fldiv@grs,f
  3169  03E1  0DCB               	rlf	___fldiv@grs+1,f
  3170  03E2  0DCC               	rlf	___fldiv@grs+2,f
  3171  03E3  0DCD               	rlf	___fldiv@grs+3,f
  3172  03E4  0BBE               	decfsz	??___fldiv,f
  3173  03E5  2BDF               	goto	u1565
  3174  03E6                     l1363:
  3175  03E6  30FF               	movlw	255
  3176  03E7  07C8               	addwf	___fldiv@new_exp,f
  3177  03E8  1803               	skipnc
  3178  03E9  0AC9               	incf	___fldiv@new_exp+1,f
  3179  03EA  30FF               	movlw	255
  3180  03EB  07C9               	addwf	___fldiv@new_exp+1,f
  3181  03EC                     l1365:
  3182  03EC  1FBC               	btfss	___fldiv@b+2,7
  3183  03ED  2BEF               	goto	u1571
  3184  03EE  2BF0               	goto	u1570
  3185  03EF                     u1571:
  3186  03EF  2BCF               	goto	l1355
  3187  03F0                     u1570:
  3188  03F0                     l1367:
  3189  03F0  01CF               	clrf	___fldiv@aexp
  3190  03F1                     l1369:
  3191  03F1  1FCD               	btfss	___fldiv@grs+3,7
  3192  03F2  2BF4               	goto	u1581
  3193  03F3  2BF5               	goto	u1580
  3194  03F4                     u1581:
  3195  03F4  2C11               	goto	l1377
  3196  03F5                     u1580:
  3197  03F5                     l1371:
  3198  03F5  30FF               	movlw	255
  3199  03F6  054A               	andwf	___fldiv@grs,w
  3200  03F7  00BE               	movwf	??___fldiv
  3201  03F8  30FF               	movlw	255
  3202  03F9  054B               	andwf	___fldiv@grs+1,w
  3203  03FA  00BF               	movwf	??___fldiv+1
  3204  03FB  30FF               	movlw	255
  3205  03FC  054C               	andwf	___fldiv@grs+2,w
  3206  03FD  00C0               	movwf	??___fldiv+2
  3207  03FE  307F               	movlw	127
  3208  03FF  054D               	andwf	___fldiv@grs+3,w
  3209  0400  00C1               	movwf	??___fldiv+3
  3210  0401  0841               	movf	??___fldiv+3,w
  3211  0402  0440               	iorwf	??___fldiv+2,w
  3212  0403  043F               	iorwf	??___fldiv+1,w
  3213  0404  043E               	iorwf	??___fldiv,w
  3214  0405  1903               	skipnz
  3215  0406  2C08               	goto	u1591
  3216  0407  2C09               	goto	u1590
  3217  0408                     u1591:
  3218  0408  2C0C               	goto	l540
  3219  0409                     u1590:
  3220  0409                     l1373:
  3221  0409  01CF               	clrf	___fldiv@aexp
  3222  040A  0ACF               	incf	___fldiv@aexp,f
  3223  040B  2C11               	goto	l1377
  3224  040C                     l540:
  3225  040C  1C3A               	btfss	___fldiv@b,0
  3226  040D  2C0F               	goto	u1601
  3227  040E  2C10               	goto	u1600
  3228  040F                     u1601:
  3229  040F  2C11               	goto	l1377
  3230  0410                     u1600:
  3231  0410  2C09               	goto	l1373
  3232  0411                     l1377:
  3233  0411  084F               	movf	___fldiv@aexp,w
  3234  0412  1903               	btfsc	3,2
  3235  0413  2C15               	goto	u1611
  3236  0414  2C16               	goto	u1610
  3237  0415                     u1611:
  3238  0415  2C47               	goto	l1387
  3239  0416                     u1610:
  3240  0416                     l1379:
  3241  0416  3001               	movlw	1
  3242  0417  07BA               	addwf	___fldiv@b,f
  3243  0418  3000               	movlw	0
  3244  0419  1803               	skipnc
  3245  041A  3001               	movlw	1
  3246  041B  07BB               	addwf	___fldiv@b+1,f
  3247  041C  3000               	movlw	0
  3248  041D  1803               	skipnc
  3249  041E  3001               	movlw	1
  3250  041F  07BC               	addwf	___fldiv@b+2,f
  3251  0420  3000               	movlw	0
  3252  0421  1803               	skipnc
  3253  0422  3001               	movlw	1
  3254  0423  07BD               	addwf	___fldiv@b+3,f
  3255  0424                     l1381:
  3256  0424  1C3D               	btfss	___fldiv@b+3,0
  3257  0425  2C27               	goto	u1621
  3258  0426  2C28               	goto	u1620
  3259  0427                     u1621:
  3260  0427  2C47               	goto	l1387
  3261  0428                     u1620:
  3262  0428                     l1383:
  3263  0428  083A               	movf	___fldiv@b,w
  3264  0429  00BE               	movwf	??___fldiv
  3265  042A  083B               	movf	___fldiv@b+1,w
  3266  042B  00BF               	movwf	??___fldiv+1
  3267  042C  083C               	movf	___fldiv@b+2,w
  3268  042D  00C0               	movwf	??___fldiv+2
  3269  042E  083D               	movf	___fldiv@b+3,w
  3270  042F  00C1               	movwf	??___fldiv+3
  3271  0430  3001               	movlw	1
  3272  0431  00C2               	movwf	??___fldiv+4
  3273  0432                     u1635:
  3274  0432  0D41               	rlf	??___fldiv+3,w
  3275  0433  0CC1               	rrf	??___fldiv+3,f
  3276  0434  0CC0               	rrf	??___fldiv+2,f
  3277  0435  0CBF               	rrf	??___fldiv+1,f
  3278  0436  0CBE               	rrf	??___fldiv,f
  3279  0437                     u1630:
  3280  0437  0BC2               	decfsz	??___fldiv+4,f
  3281  0438  2C32               	goto	u1635
  3282  0439  0841               	movf	??___fldiv+3,w
  3283  043A  00BD               	movwf	___fldiv@b+3
  3284  043B  0840               	movf	??___fldiv+2,w
  3285  043C  00BC               	movwf	___fldiv@b+2
  3286  043D  083F               	movf	??___fldiv+1,w
  3287  043E  00BB               	movwf	___fldiv@b+1
  3288  043F  083E               	movf	??___fldiv,w
  3289  0440  00BA               	movwf	___fldiv@b
  3290  0441                     l1385:
  3291  0441  3001               	movlw	1
  3292  0442  07C8               	addwf	___fldiv@new_exp,f
  3293  0443  1803               	skipnc
  3294  0444  0AC9               	incf	___fldiv@new_exp+1,f
  3295  0445  3000               	movlw	0
  3296  0446  07C9               	addwf	___fldiv@new_exp+1,f
  3297  0447                     l1387:
  3298  0447  0849               	movf	___fldiv@new_exp+1,w
  3299  0448  3A80               	xorlw	128
  3300  0449  00FF               	movwf	btemp+1
  3301  044A  3080               	movlw	128
  3302  044B  027F               	subwf	btemp+1,w
  3303  044C  1D03               	skipz
  3304  044D  2C50               	goto	u1645
  3305  044E  30FF               	movlw	255
  3306  044F  0248               	subwf	___fldiv@new_exp,w
  3307  0450                     u1645:
  3308  0450  1C03               	skipc
  3309  0451  2C53               	goto	u1641
  3310  0452  2C54               	goto	u1640
  3311  0453                     u1641:
  3312  0453  2C62               	goto	l1391
  3313  0454                     u1640:
  3314  0454                     l1389:
  3315  0454  30FF               	movlw	255
  3316  0455  1283               	bcf	3,5	;RP0=0, select bank0
  3317  0456  1303               	bcf	3,6	;RP1=0, select bank0
  3318  0457  00C8               	movwf	___fldiv@new_exp
  3319  0458  3000               	movlw	0
  3320  0459  00C9               	movwf	___fldiv@new_exp+1
  3321  045A  3000               	movlw	0
  3322  045B  00BD               	movwf	___fldiv@b+3
  3323  045C  3000               	movlw	0
  3324  045D  00BC               	movwf	___fldiv@b+2
  3325  045E  3000               	movlw	0
  3326  045F  00BB               	movwf	___fldiv@b+1
  3327  0460  3000               	movlw	0
  3328  0461  00BA               	movwf	___fldiv@b
  3329  0462                     l1391:
  3330  0462  1283               	bcf	3,5	;RP0=0, select bank0
  3331  0463  1303               	bcf	3,6	;RP1=0, select bank0
  3332  0464  0849               	movf	___fldiv@new_exp+1,w
  3333  0465  3A80               	xorlw	128
  3334  0466  00FF               	movwf	btemp+1
  3335  0467  3080               	movlw	128
  3336  0468  027F               	subwf	btemp+1,w
  3337  0469  1D03               	skipz
  3338  046A  2C6D               	goto	u1655
  3339  046B  3001               	movlw	1
  3340  046C  0248               	subwf	___fldiv@new_exp,w
  3341  046D                     u1655:
  3342  046D  1803               	skipnc
  3343  046E  2C70               	goto	u1651
  3344  046F  2C71               	goto	u1650
  3345  0470                     u1651:
  3346  0470  2C7E               	goto	l1399
  3347  0471                     u1650:
  3348  0471                     l1393:
  3349  0471  1283               	bcf	3,5	;RP0=0, select bank0
  3350  0472  1303               	bcf	3,6	;RP1=0, select bank0
  3351  0473  01C8               	clrf	___fldiv@new_exp
  3352  0474  01C9               	clrf	___fldiv@new_exp+1
  3353  0475                     l1395:
  3354  0475  3000               	movlw	0
  3355  0476  00BD               	movwf	___fldiv@b+3
  3356  0477  3000               	movlw	0
  3357  0478  00BC               	movwf	___fldiv@b+2
  3358  0479  3000               	movlw	0
  3359  047A  00BB               	movwf	___fldiv@b+1
  3360  047B  3000               	movlw	0
  3361  047C  00BA               	movwf	___fldiv@b
  3362  047D                     l1397:
  3363  047D  01C7               	clrf	___fldiv@sign
  3364  047E                     l1399:
  3365  047E  1283               	bcf	3,5	;RP0=0, select bank0
  3366  047F  1303               	bcf	3,6	;RP1=0, select bank0
  3367  0480  0848               	movf	___fldiv@new_exp,w
  3368  0481  00FF               	movwf	btemp+1
  3369  0482  087F               	movf	btemp+1,w
  3370  0483  00CE               	movwf	___fldiv@bexp
  3371  0484                     l1401:
  3372  0484  1C4E               	btfss	___fldiv@bexp,0
  3373  0485  2C87               	goto	u1661
  3374  0486  2C88               	goto	u1660
  3375  0487                     u1661:
  3376  0487  2C8A               	goto	l1405
  3377  0488                     u1660:
  3378  0488                     l1403:
  3379  0488  17BC               	bsf	___fldiv@b+2,7
  3380  0489  2C8E               	goto	l548
  3381  048A                     l1405:
  3382  048A  307F               	movlw	127
  3383  048B  00FF               	movwf	btemp+1
  3384  048C  087F               	movf	btemp+1,w
  3385  048D  05BC               	andwf	___fldiv@b+2,f
  3386  048E                     l548:
  3387  048E  084E               	movf	___fldiv@bexp,w
  3388  048F  00BE               	movwf	??___fldiv
  3389  0490  1003               	clrc
  3390  0491  0C3E               	rrf	??___fldiv,w
  3391  0492  00FF               	movwf	btemp+1
  3392  0493  087F               	movf	btemp+1,w
  3393  0494  00BD               	movwf	___fldiv@b+3
  3394  0495  0847               	movf	___fldiv@sign,w
  3395  0496  00FF               	movwf	btemp+1
  3396  0497  087F               	movf	btemp+1,w
  3397  0498  04BD               	iorwf	___fldiv@b+3,f
  3398  0499  2B32               	goto	l1311
  3399  049A                     l526:
  3400  049A  0008               	return
  3401  049B                     __end_of___fldiv:
  3402                           
  3403                           	psect	text11
  3404  000D                     __ptext11:	
  3405 ;; *************** function _PWM_Max_Duty *****************
  3406 ;; Defined at:
  3407 ;;		line 7 in file "./PWM.h"
  3408 ;; Parameters:    Size  Location     Type
  3409 ;;		None
  3410 ;; Auto vars:     Size  Location     Type
  3411 ;;		None
  3412 ;; Return value:  Size  Location     Type
  3413 ;;                  2    6[BANK0 ] int 
  3414 ;; Registers used:
  3415 ;;		wreg, status,2, status,0, btemp+1, pclath, cstack
  3416 ;; Tracked objects:
  3417 ;;		On entry : 0/0
  3418 ;;		On exit  : 0/0
  3419 ;;		Unchanged: 0/0
  3420 ;; Data sizes:     COMMON   BANK0   BANK1   BANK3   BANK2
  3421 ;;      Params:         0       2       0       0       0
  3422 ;;      Locals:         0       0       0       0       0
  3423 ;;      Temps:          4       0       0       0       0
  3424 ;;      Totals:         4       2       0       0       0
  3425 ;;Total ram usage:        6 bytes
  3426 ;; Hardware stack levels used:    1
  3427 ;; Hardware stack levels required when called:    1
  3428 ;; This function calls:
  3429 ;;		___aldiv
  3430 ;; This function is called by:
  3431 ;;		_PWM1_Duty
  3432 ;;		_PWM2_Duty
  3433 ;; This function uses a non-reentrant model
  3434 ;;
  3435                           
  3436                           
  3437                           ;psect for function _PWM_Max_Duty
  3438  000D                     _PWM_Max_Duty:
  3439  000D                     l1225:	
  3440                           ;incstack = 0
  3441                           ; Regs used in _PWM_Max_Duty: [wreg+status,2+status,0+btemp+1+pclath+cstack]
  3442                           
  3443                           
  3444                           ;./PWM.h: 9:   return(4000000/(freq*4));
  3445  000D  1683               	bsf	3,5	;RP0=1, select bank1
  3446  000E  1303               	bcf	3,6	;RP1=0, select bank1
  3447  000F  0824               	movf	_freq^(0+128),w
  3448  0010  00F9               	movwf	??_PWM_Max_Duty
  3449  0011  0825               	movf	(_freq+1)^(0+128),w
  3450  0012  00FA               	movwf	??_PWM_Max_Duty+1
  3451  0013  0826               	movf	(_freq+2)^(0+128),w
  3452  0014  00FB               	movwf	??_PWM_Max_Duty+2
  3453  0015  0827               	movf	(_freq+3)^(0+128),w
  3454  0016  00FC               	movwf	??_PWM_Max_Duty+3
  3455  0017  3002               	movlw	2
  3456  0018                     u1275:
  3457  0018  1003               	clrc
  3458  0019  0DF9               	rlf	??_PWM_Max_Duty,f
  3459  001A  0DFA               	rlf	??_PWM_Max_Duty+1,f
  3460  001B  0DFB               	rlf	??_PWM_Max_Duty+2,f
  3461  001C  0DFC               	rlf	??_PWM_Max_Duty+3,f
  3462  001D                     u1270:
  3463  001D  3EFF               	addlw	-1
  3464  001E  1D03               	skipz
  3465  001F  2818               	goto	u1275
  3466  0020  087C               	movf	??_PWM_Max_Duty+3,w
  3467  0021  00F3               	movwf	___aldiv@divisor+3
  3468  0022  087B               	movf	??_PWM_Max_Duty+2,w
  3469  0023  00F2               	movwf	___aldiv@divisor+2
  3470  0024  087A               	movf	??_PWM_Max_Duty+1,w
  3471  0025  00F1               	movwf	___aldiv@divisor+1
  3472  0026  0879               	movf	??_PWM_Max_Duty,w
  3473  0027  00F0               	movwf	___aldiv@divisor
  3474  0028  3000               	movlw	0
  3475  0029  00F7               	movwf	___aldiv@dividend+3
  3476  002A  303D               	movlw	61
  3477  002B  00F6               	movwf	___aldiv@dividend+2
  3478  002C  3009               	movlw	9
  3479  002D  00F5               	movwf	___aldiv@dividend+1
  3480  002E  3000               	movlw	0
  3481  002F  00F4               	movwf	___aldiv@dividend
  3482  0030  120A  118A  2165  120A  118A  	fcall	___aldiv
  3483  0035  0871               	movf	?___aldiv+1,w
  3484  0036  1283               	bcf	3,5	;RP0=0, select bank0
  3485  0037  1303               	bcf	3,6	;RP1=0, select bank0
  3486  0038  00A7               	movwf	?_PWM_Max_Duty+1
  3487  0039  0870               	movf	?___aldiv,w
  3488  003A  00A6               	movwf	?_PWM_Max_Duty
  3489  003B                     l41:
  3490  003B  0008               	return
  3491  003C                     __end_of_PWM_Max_Duty:
  3492                           
  3493                           	psect	text12
  3494  0165                     __ptext12:	
  3495 ;; *************** function ___aldiv *****************
  3496 ;; Defined at:
  3497 ;;		line 5 in file "C:\Program Files\Microchip\xc8\v2.20\pic\sources\c90\common\aldiv.c"
  3498 ;; Parameters:    Size  Location     Type
  3499 ;;  divisor         4    0[COMMON] long 
  3500 ;;  dividend        4    4[COMMON] long 
  3501 ;; Auto vars:     Size  Location     Type
  3502 ;;  quotient        4    2[BANK0 ] long 
  3503 ;;  sign            1    1[BANK0 ] unsigned char 
  3504 ;;  counter         1    0[BANK0 ] unsigned char 
  3505 ;; Return value:  Size  Location     Type
  3506 ;;                  4    0[COMMON] long 
  3507 ;; Registers used:
  3508 ;;		wreg, status,2, status,0, btemp+1
  3509 ;; Tracked objects:
  3510 ;;		On entry : 0/0
  3511 ;;		On exit  : 0/0
  3512 ;;		Unchanged: 0/0
  3513 ;; Data sizes:     COMMON   BANK0   BANK1   BANK3   BANK2
  3514 ;;      Params:         8       0       0       0       0
  3515 ;;      Locals:         0       6       0       0       0
  3516 ;;      Temps:          1       0       0       0       0
  3517 ;;      Totals:         9       6       0       0       0
  3518 ;;Total ram usage:       15 bytes
  3519 ;; Hardware stack levels used:    1
  3520 ;; This function calls:
  3521 ;;		Nothing
  3522 ;; This function is called by:
  3523 ;;		_PWM_Max_Duty
  3524 ;;		_PWM1_Init_Fre
  3525 ;;		_PWM2_Init_Fre
  3526 ;; This function uses a non-reentrant model
  3527 ;;
  3528                           
  3529                           
  3530                           ;psect for function ___aldiv
  3531  0165                     ___aldiv:
  3532  0165                     l1169:	
  3533                           ;incstack = 0
  3534                           ; Regs used in ___aldiv: [wreg+status,2+status,0+btemp+1]
  3535                           
  3536  0165  1283               	bcf	3,5	;RP0=0, select bank0
  3537  0166  1303               	bcf	3,6	;RP1=0, select bank0
  3538  0167  01A1               	clrf	___aldiv@sign
  3539  0168                     l1171:
  3540  0168  1FF3               	btfss	___aldiv@divisor+3,7
  3541  0169  296B               	goto	u1141
  3542  016A  296C               	goto	u1140
  3543  016B                     u1141:
  3544  016B  2979               	goto	l240
  3545  016C                     u1140:
  3546  016C                     l1173:
  3547  016C  09F0               	comf	___aldiv@divisor,f
  3548  016D  09F1               	comf	___aldiv@divisor+1,f
  3549  016E  09F2               	comf	___aldiv@divisor+2,f
  3550  016F  09F3               	comf	___aldiv@divisor+3,f
  3551  0170  0AF0               	incf	___aldiv@divisor,f
  3552  0171  1903               	skipnz
  3553  0172  0AF1               	incf	___aldiv@divisor+1,f
  3554  0173  1903               	skipnz
  3555  0174  0AF2               	incf	___aldiv@divisor+2,f
  3556  0175  1903               	skipnz
  3557  0176  0AF3               	incf	___aldiv@divisor+3,f
  3558  0177  01A1               	clrf	___aldiv@sign
  3559  0178  0AA1               	incf	___aldiv@sign,f
  3560  0179                     l240:
  3561  0179  1FF7               	btfss	___aldiv@dividend+3,7
  3562  017A  297C               	goto	u1151
  3563  017B  297D               	goto	u1150
  3564  017C                     u1151:
  3565  017C  298C               	goto	l1179
  3566  017D                     u1150:
  3567  017D                     l1175:
  3568  017D  09F4               	comf	___aldiv@dividend,f
  3569  017E  09F5               	comf	___aldiv@dividend+1,f
  3570  017F  09F6               	comf	___aldiv@dividend+2,f
  3571  0180  09F7               	comf	___aldiv@dividend+3,f
  3572  0181  0AF4               	incf	___aldiv@dividend,f
  3573  0182  1903               	skipnz
  3574  0183  0AF5               	incf	___aldiv@dividend+1,f
  3575  0184  1903               	skipnz
  3576  0185  0AF6               	incf	___aldiv@dividend+2,f
  3577  0186  1903               	skipnz
  3578  0187  0AF7               	incf	___aldiv@dividend+3,f
  3579  0188                     l1177:
  3580  0188  3001               	movlw	1
  3581  0189  00FF               	movwf	btemp+1
  3582  018A  087F               	movf	btemp+1,w
  3583  018B  06A1               	xorwf	___aldiv@sign,f
  3584  018C                     l1179:
  3585  018C  3000               	movlw	0
  3586  018D  00A5               	movwf	___aldiv@quotient+3
  3587  018E  3000               	movlw	0
  3588  018F  00A4               	movwf	___aldiv@quotient+2
  3589  0190  3000               	movlw	0
  3590  0191  00A3               	movwf	___aldiv@quotient+1
  3591  0192  3000               	movlw	0
  3592  0193  00A2               	movwf	___aldiv@quotient
  3593  0194                     l1181:
  3594  0194  0873               	movf	___aldiv@divisor+3,w
  3595  0195  0472               	iorwf	___aldiv@divisor+2,w
  3596  0196  0471               	iorwf	___aldiv@divisor+1,w
  3597  0197  0470               	iorwf	___aldiv@divisor,w
  3598  0198  1903               	skipnz
  3599  0199  299B               	goto	u1161
  3600  019A  299C               	goto	u1160
  3601  019B                     u1161:
  3602  019B  29E9               	goto	l1203
  3603  019C                     u1160:
  3604  019C                     l1183:
  3605  019C  01A0               	clrf	___aldiv@counter
  3606  019D  0AA0               	incf	___aldiv@counter,f
  3607  019E  29AC               	goto	l1189
  3608  019F                     l1185:
  3609  019F  3001               	movlw	1
  3610  01A0  00F8               	movwf	??___aldiv
  3611  01A1                     u1175:
  3612  01A1  1003               	clrc
  3613  01A2  0DF0               	rlf	___aldiv@divisor,f
  3614  01A3  0DF1               	rlf	___aldiv@divisor+1,f
  3615  01A4  0DF2               	rlf	___aldiv@divisor+2,f
  3616  01A5  0DF3               	rlf	___aldiv@divisor+3,f
  3617  01A6  0BF8               	decfsz	??___aldiv,f
  3618  01A7  29A1               	goto	u1175
  3619  01A8                     l1187:
  3620  01A8  3001               	movlw	1
  3621  01A9  00FF               	movwf	btemp+1
  3622  01AA  087F               	movf	btemp+1,w
  3623  01AB  07A0               	addwf	___aldiv@counter,f
  3624  01AC                     l1189:
  3625  01AC  1FF3               	btfss	___aldiv@divisor+3,7
  3626  01AD  29AF               	goto	u1181
  3627  01AE  29B0               	goto	u1180
  3628  01AF                     u1181:
  3629  01AF  299F               	goto	l1185
  3630  01B0                     u1180:
  3631  01B0                     l1191:
  3632  01B0  3001               	movlw	1
  3633  01B1  00F8               	movwf	??___aldiv
  3634  01B2                     u1195:
  3635  01B2  1003               	clrc
  3636  01B3  0DA2               	rlf	___aldiv@quotient,f
  3637  01B4  0DA3               	rlf	___aldiv@quotient+1,f
  3638  01B5  0DA4               	rlf	___aldiv@quotient+2,f
  3639  01B6  0DA5               	rlf	___aldiv@quotient+3,f
  3640  01B7  0BF8               	decfsz	??___aldiv,f
  3641  01B8  29B2               	goto	u1195
  3642  01B9                     l1193:
  3643  01B9  0873               	movf	___aldiv@divisor+3,w
  3644  01BA  0277               	subwf	___aldiv@dividend+3,w
  3645  01BB  1D03               	skipz
  3646  01BC  29C7               	goto	u1205
  3647  01BD  0872               	movf	___aldiv@divisor+2,w
  3648  01BE  0276               	subwf	___aldiv@dividend+2,w
  3649  01BF  1D03               	skipz
  3650  01C0  29C7               	goto	u1205
  3651  01C1  0871               	movf	___aldiv@divisor+1,w
  3652  01C2  0275               	subwf	___aldiv@dividend+1,w
  3653  01C3  1D03               	skipz
  3654  01C4  29C7               	goto	u1205
  3655  01C5  0870               	movf	___aldiv@divisor,w
  3656  01C6  0274               	subwf	___aldiv@dividend,w
  3657  01C7                     u1205:
  3658  01C7  1C03               	skipc
  3659  01C8  29CA               	goto	u1201
  3660  01C9  29CB               	goto	u1200
  3661  01CA                     u1201:
  3662  01CA  29DA               	goto	l1199
  3663  01CB                     u1200:
  3664  01CB                     l1195:
  3665  01CB  0870               	movf	___aldiv@divisor,w
  3666  01CC  02F4               	subwf	___aldiv@dividend,f
  3667  01CD  0871               	movf	___aldiv@divisor+1,w
  3668  01CE  1C03               	skipc
  3669  01CF  0F71               	incfsz	___aldiv@divisor+1,w
  3670  01D0  02F5               	subwf	___aldiv@dividend+1,f
  3671  01D1  0872               	movf	___aldiv@divisor+2,w
  3672  01D2  1C03               	skipc
  3673  01D3  0F72               	incfsz	___aldiv@divisor+2,w
  3674  01D4  02F6               	subwf	___aldiv@dividend+2,f
  3675  01D5  0873               	movf	___aldiv@divisor+3,w
  3676  01D6  1C03               	skipc
  3677  01D7  0F73               	incfsz	___aldiv@divisor+3,w
  3678  01D8  02F7               	subwf	___aldiv@dividend+3,f
  3679  01D9                     l1197:
  3680  01D9  1422               	bsf	___aldiv@quotient,0
  3681  01DA                     l1199:
  3682  01DA  3001               	movlw	1
  3683  01DB                     u1215:
  3684  01DB  1003               	clrc
  3685  01DC  0CF3               	rrf	___aldiv@divisor+3,f
  3686  01DD  0CF2               	rrf	___aldiv@divisor+2,f
  3687  01DE  0CF1               	rrf	___aldiv@divisor+1,f
  3688  01DF  0CF0               	rrf	___aldiv@divisor,f
  3689  01E0  3EFF               	addlw	-1
  3690  01E1  1D03               	skipz
  3691  01E2  29DB               	goto	u1215
  3692  01E3                     l1201:
  3693  01E3  3001               	movlw	1
  3694  01E4  02A0               	subwf	___aldiv@counter,f
  3695  01E5  1D03               	btfss	3,2
  3696  01E6  29E8               	goto	u1221
  3697  01E7  29E9               	goto	u1220
  3698  01E8                     u1221:
  3699  01E8  29B0               	goto	l1191
  3700  01E9                     u1220:
  3701  01E9                     l1203:
  3702  01E9  0821               	movf	___aldiv@sign,w
  3703  01EA  1903               	btfsc	3,2
  3704  01EB  29ED               	goto	u1231
  3705  01EC  29EE               	goto	u1230
  3706  01ED                     u1231:
  3707  01ED  29F9               	goto	l1207
  3708  01EE                     u1230:
  3709  01EE                     l1205:
  3710  01EE  09A2               	comf	___aldiv@quotient,f
  3711  01EF  09A3               	comf	___aldiv@quotient+1,f
  3712  01F0  09A4               	comf	___aldiv@quotient+2,f
  3713  01F1  09A5               	comf	___aldiv@quotient+3,f
  3714  01F2  0AA2               	incf	___aldiv@quotient,f
  3715  01F3  1903               	skipnz
  3716  01F4  0AA3               	incf	___aldiv@quotient+1,f
  3717  01F5  1903               	skipnz
  3718  01F6  0AA4               	incf	___aldiv@quotient+2,f
  3719  01F7  1903               	skipnz
  3720  01F8  0AA5               	incf	___aldiv@quotient+3,f
  3721  01F9                     l1207:
  3722  01F9  0825               	movf	___aldiv@quotient+3,w
  3723  01FA  00F3               	movwf	?___aldiv+3
  3724  01FB  0824               	movf	___aldiv@quotient+2,w
  3725  01FC  00F2               	movwf	?___aldiv+2
  3726  01FD  0823               	movf	___aldiv@quotient+1,w
  3727  01FE  00F1               	movwf	?___aldiv+1
  3728  01FF  0822               	movf	___aldiv@quotient,w
  3729  0200  00F0               	movwf	?___aldiv
  3730  0201                     l250:
  3731  0201  0008               	return
  3732  0202                     __end_of___aldiv:
  3733                           
  3734                           	psect	text13
  3735  0ED8                     __ptext13:	
  3736 ;; *************** function _ADCinit *****************
  3737 ;; Defined at:
  3738 ;;		line 44 in file "PWM_POT_HG.c"
  3739 ;; Parameters:    Size  Location     Type
  3740 ;;		None
  3741 ;; Auto vars:     Size  Location     Type
  3742 ;;		None
  3743 ;; Return value:  Size  Location     Type
  3744 ;;                  1    wreg      void 
  3745 ;; Registers used:
  3746 ;;		None
  3747 ;; Tracked objects:
  3748 ;;		On entry : 0/0
  3749 ;;		On exit  : 0/0
  3750 ;;		Unchanged: 0/0
  3751 ;; Data sizes:     COMMON   BANK0   BANK1   BANK3   BANK2
  3752 ;;      Params:         0       0       0       0       0
  3753 ;;      Locals:         0       0       0       0       0
  3754 ;;      Temps:          0       0       0       0       0
  3755 ;;      Totals:         0       0       0       0       0
  3756 ;;Total ram usage:        0 bytes
  3757 ;; Hardware stack levels used:    1
  3758 ;; This function calls:
  3759 ;;		Nothing
  3760 ;; This function is called by:
  3761 ;;		_main
  3762 ;; This function uses a non-reentrant model
  3763 ;;
  3764                           
  3765                           
  3766                           ;psect for function _ADCinit
  3767  0ED8                     _ADCinit:
  3768  0ED8                     l1615:	
  3769                           ;incstack = 0
  3770                           ; Regs used in _ADCinit: []
  3771                           
  3772  0ED8  1683               	bsf	3,5	;RP0=1, select bank1
  3773  0ED9  1303               	bcf	3,6	;RP1=0, select bank1
  3774  0EDA  131F               	bcf	31,6	;volatile
  3775  0EDB  1283               	bcf	3,5	;RP0=0, select bank0
  3776  0EDC  1303               	bcf	3,6	;RP1=0, select bank0
  3777  0EDD  139F               	bcf	31,7	;volatile
  3778  0EDE  171F               	bsf	31,6	;volatile
  3779  0EDF  129F               	bcf	31,5	;volatile
  3780  0EE0  121F               	bcf	31,4	;volatile
  3781  0EE1  119F               	bcf	31,3	;volatile
  3782  0EE2  1683               	bsf	3,5	;RP0=1, select bank1
  3783  0EE3  1303               	bcf	3,6	;RP1=0, select bank1
  3784  0EE4  179F               	bsf	31,7	;volatile
  3785  0EE5  159F               	bsf	31,3	;volatile
  3786  0EE6  151F               	bsf	31,2	;volatile
  3787  0EE7  149F               	bsf	31,1	;volatile
  3788  0EE8  101F               	bcf	31,0	;volatile
  3789  0EE9  1283               	bcf	3,5	;RP0=0, select bank0
  3790  0EEA  1303               	bcf	3,6	;RP1=0, select bank0
  3791  0EEB  141F               	bsf	31,0	;volatile
  3792  0EEC                     l83:
  3793  0EEC  0008               	return
  3794  0EED                     __end_of_ADCinit:
  3795  007E                     btemp	set	126	;btemp
  3796  007E                     wtemp0	set	126
  3797                           
  3798                           	psect	config
  3799                           
  3800                           ;Config register CONFIG @ 0x2007
  3801                           ;	Oscillator Selection bits
  3802                           ;	FOSC = HS, HS oscillator
  3803                           ;	Watchdog Timer Enable bit
  3804                           ;	WDTE = OFF, WDT disabled
  3805                           ;	Power-up Timer Enable bit
  3806                           ;	PWRTE = OFF, PWRT disabled
  3807                           ;	Brown-out Reset Enable bit
  3808                           ;	BOREN = OFF, BOR disabled
  3809                           ;	Low-Voltage (Single-Supply) In-Circuit Serial Programming Enable bit
  3810                           ;	LVP = OFF, RB3 is digital I/O, HV on MCLR must be used for programming
  3811                           ;	Data EEPROM Memory Code Protection bit
  3812                           ;	CPD = OFF, Data EEPROM code protection off
  3813                           ;	Flash Program Memory Write Enable bits
  3814                           ;	WRT = OFF, Write protection off; all program memory may be written to by EECON control
  3815                           ;	In-Circuit Debugger Mode bit
  3816                           ;	DEBUG = 0x1, unprogrammed default
  3817                           ;	Flash Program Memory Code Protection bit
  3818                           ;	CP = OFF, Code protection off
  3819  2007                     	org	8199
  3820  2007  3F3A               	dw	16186

Data Sizes:
    Strings     0
    Constant    0
    Data        0
    BSS         0
    Persistent  8
    Stack       0

Auto Spaces:
    Space          Size  Autos    Used
    COMMON           14     13      13
    BANK0            80     80      80
    BANK1            80      8      16
    BANK3            96      0       0
    BANK2            96      0       0

Pointer List with Targets:

    None.

Critical Paths under _main in COMMON

    _PWM->_PWM1_Init_Fre
    _PWM1_Init_Fre->___aldiv
    _PWM1_Duty->_PWM_Max_Duty
    ___xxtofl->_PWM_Max_Duty
    ___fltol->_PWM_Max_Duty
    ___flmul->_PWM_Max_Duty
    _PWM_Max_Duty->___aldiv

Critical Paths under _main in BANK0

    _main->___fltol
    _PWM1_Init_Fre->___aldiv
    _PWM1_Duty->___fltol
    ___xxtofl->_PWM_Max_Duty
    ___fltol->___flmul
    ___flmul->___fldiv
    ___fldiv->___xxtofl
    _PWM_Max_Duty->___aldiv

Critical Paths under _main in BANK1

    _main->_PWM1_Duty
    _PWM->_PWM1_Duty
    _PWM1_Duty->___fltol

Critical Paths under _main in BANK3

    None.

Critical Paths under _main in BANK2

    None.

Call Graph Tables:

 ---------------------------------------------------------------------------------
 (Depth) Function   	        Calls       Base Space   Used Autos Params    Refs
 ---------------------------------------------------------------------------------
 (0) _main                                                 0     0      0   19199
                            _ADCinit
                                _PWM
                          _PWM1_Duty
                            _ReadADC
                            ___fldiv
                            ___flmul
                            ___fltol
                           ___xxtofl
 ---------------------------------------------------------------------------------
 (1) _ReadADC                                              4     2      2      24
                                              0 COMMON     4     2      2
 ---------------------------------------------------------------------------------
 (1) _PWM                                                  0     0      0    7286
                          _PWM1_Duty
                      _PWM1_Init_Fre
                         _PWM1_Start
 ---------------------------------------------------------------------------------
 (2) _PWM1_Start                                           0     0      0       0
 ---------------------------------------------------------------------------------
 (2) _PWM1_Init_Fre                                        8     4      4     854
                                              9 COMMON     4     4      0
                                              6 BANK0      4     0      4
                            ___aldiv
 ---------------------------------------------------------------------------------
 (1) _PWM1_Duty                                            4     2      2    6432
                                              4 BANK1      4     2      2
                       _PWM_Max_Duty
                            ___fldiv
                            ___flmul
                            ___fltol
                           ___xxtofl
 ---------------------------------------------------------------------------------
 (1) ___xxtofl                                            14    10      4     702
                                              8 BANK0     14    10      4
                       _PWM_Max_Duty (ARG)
 ---------------------------------------------------------------------------------
 (1) ___fltol                                             10     6      4     457
                                             74 BANK0      6     2      4
                                              0 BANK1      4     4      0
                       _PWM_Max_Duty (ARG)
                            ___fldiv (ARG)
                            ___flmul (ARG)
                           ___xxtofl (ARG)
 ---------------------------------------------------------------------------------
 (1) ___flmul                                             26    18      8    2721
                                             48 BANK0     26    18      8
                       _PWM_Max_Duty (ARG)
                          __Umul8_16
                            ___fldiv (ARG)
                           ___xxtofl (ARG)
 ---------------------------------------------------------------------------------
 (2) __Umul8_16                                            9     7      2     799
                                              0 COMMON     9     7      2
 ---------------------------------------------------------------------------------
 (1) ___fldiv                                             26    18      8    1577
                                             22 BANK0     26    18      8
                           ___xxtofl (ARG)
 ---------------------------------------------------------------------------------
 (2) _PWM_Max_Duty                                         6     4      2     756
                                              9 COMMON     4     4      0
                                              6 BANK0      2     0      2
                            ___aldiv
 ---------------------------------------------------------------------------------
 (3) ___aldiv                                             15     7      8     756
                                              0 COMMON     9     1      8
                                              0 BANK0      6     6      0
 ---------------------------------------------------------------------------------
 (1) _ADCinit                                              0     0      0       0
 ---------------------------------------------------------------------------------
 Estimated maximum stack depth 3
 ---------------------------------------------------------------------------------

 Call Graph Graphs:

 _main (ROOT)
   _ADCinit
   _PWM
     _PWM1_Duty
       _PWM_Max_Duty
         ___aldiv
       ___fldiv
         ___xxtofl (ARG)
           _PWM_Max_Duty (ARG)
             ___aldiv
       ___flmul
         _PWM_Max_Duty (ARG)
           ___aldiv
         __Umul8_16 (ARG)
         ___fldiv (ARG)
           ___xxtofl (ARG)
             _PWM_Max_Duty (ARG)
               ___aldiv
         ___xxtofl (ARG)
           _PWM_Max_Duty (ARG)
             ___aldiv
       ___fltol
         _PWM_Max_Duty (ARG)
           ___aldiv
         ___fldiv (ARG)
           ___xxtofl (ARG)
             _PWM_Max_Duty (ARG)
               ___aldiv
         ___flmul (ARG)
           _PWM_Max_Duty (ARG)
             ___aldiv
           __Umul8_16 (ARG)
           ___fldiv (ARG)
             ___xxtofl (ARG)
               _PWM_Max_Duty (ARG)
                 ___aldiv
           ___xxtofl (ARG)
             _PWM_Max_Duty (ARG)
               ___aldiv
         ___xxtofl (ARG)
           _PWM_Max_Duty (ARG)
             ___aldiv
       ___xxtofl
         _PWM_Max_Duty (ARG)
           ___aldiv
     _PWM1_Init_Fre
       ___aldiv
     _PWM1_Start
   _PWM1_Duty
     _PWM_Max_Duty
       ___aldiv
     ___fldiv
       ___xxtofl (ARG)
         _PWM_Max_Duty (ARG)
           ___aldiv
     ___flmul
       _PWM_Max_Duty (ARG)
         ___aldiv
       __Umul8_16 (ARG)
       ___fldiv (ARG)
         ___xxtofl (ARG)
           _PWM_Max_Duty (ARG)
             ___aldiv
       ___xxtofl (ARG)
         _PWM_Max_Duty (ARG)
           ___aldiv
     ___fltol
       _PWM_Max_Duty (ARG)
         ___aldiv
       ___fldiv (ARG)
         ___xxtofl (ARG)
           _PWM_Max_Duty (ARG)
             ___aldiv
       ___flmul (ARG)
         _PWM_Max_Duty (ARG)
           ___aldiv
         __Umul8_16 (ARG)
         ___fldiv (ARG)
           ___xxtofl (ARG)
             _PWM_Max_Duty (ARG)
               ___aldiv
         ___xxtofl (ARG)
           _PWM_Max_Duty (ARG)
             ___aldiv
       ___xxtofl (ARG)
         _PWM_Max_Duty (ARG)
           ___aldiv
     ___xxtofl
       _PWM_Max_Duty (ARG)
         ___aldiv
   _ReadADC
   ___fldiv
     ___xxtofl (ARG)
       _PWM_Max_Duty (ARG)
         ___aldiv
   ___flmul
     _PWM_Max_Duty (ARG)
       ___aldiv
     __Umul8_16 (ARG)
     ___fldiv (ARG)
       ___xxtofl (ARG)
         _PWM_Max_Duty (ARG)
           ___aldiv
     ___xxtofl (ARG)
       _PWM_Max_Duty (ARG)
         ___aldiv
   ___fltol
     _PWM_Max_Duty (ARG)
       ___aldiv
     ___fldiv (ARG)
       ___xxtofl (ARG)
         _PWM_Max_Duty (ARG)
           ___aldiv
     ___flmul (ARG)
       _PWM_Max_Duty (ARG)
         ___aldiv
       __Umul8_16 (ARG)
       ___fldiv (ARG)
         ___xxtofl (ARG)
           _PWM_Max_Duty (ARG)
             ___aldiv
       ___xxtofl (ARG)
         _PWM_Max_Duty (ARG)
           ___aldiv
     ___xxtofl (ARG)
       _PWM_Max_Duty (ARG)
         ___aldiv
   ___xxtofl
     _PWM_Max_Duty (ARG)
       ___aldiv

 Address spaces:
Name               Size   Autos  Total    Cost      Usage
BITCOMMON            E      0       0       0        0.0%
EEDATA             100      0       0       0        0.0%
NULL                 0      0       0       0        0.0%
CODE                 0      0       0       0        0.0%
COMMON               E      D       D       1       92.9%
BITSFR0              0      0       0       1        0.0%
SFR0                 0      0       0       1        0.0%
BITSFR1              0      0       0       2        0.0%
SFR1                 0      0       0       2        0.0%
STACK                0      0       0       2        0.0%
ABS                  0      0      6D       3        0.0%
BITBANK0            50      0       0       4        0.0%
BITSFR3              0      0       0       4        0.0%
SFR3                 0      0       0       4        0.0%
BANK0               50     50      50       5      100.0%
BITSFR2              0      0       0       5        0.0%
SFR2                 0      0       0       5        0.0%
BITBANK1            50      0       0       6        0.0%
BANK1               50      8      10       7       20.0%
BITBANK3            60      0       0       8        0.0%
BANK3               60      0       0       9        0.0%
BITBANK2            60      0       0      10        0.0%
BANK2               60      0       0      11        0.0%
DATA                 0      0      6D      12        0.0%


Microchip Technology PIC Macro Assembler V2.20 build 20200408173844 
Symbol Table                                                                                   Thu Nov 25 05:23:49 2021

           ___fldiv@aexp 004F             ___fldiv@bexp 004E             ___fldiv@sign 0047  
                     l41 003B                       l50 0164                       l44 0F82  
                     l56 0EC5                       l80 0F0C                       l83 0EEC  
                     l86 0EC9                       l89 0ED7      __Umul8_16@word_mpld 0076  
                    l240 0179                      l250 0201                      l361 00CF  
                    l610 02BD                      l371 00CF                      l540 040C  
                    l524 031A                      l621 0287                      l526 049A  
                    l622 0293                      l368 00BA                      l608 0226  
                    l570 0767                      l548 048E                      l564 07FB  
                    l583 0F21                      l576 07EF                      l585 0F33  
                    _PR2 0092                      _PWM 0EED          __end_of_ADCinit 0EED  
           ___flmul@aexp 0062             ___flmul@bexp 0063             ___flmul@sign 005D  
           ___flmul@temp 0068             ___flmul@prod 0064                     ?_PWM 0070  
           ___fltol@exp1 006F                     l1201 01E3                     l1203 01E9  
                   l1211 0F0E                     l1205 01EE                     l1301 030F  
                   l1221 0F2F                     l1213 0F10                     l1207 01F9  
                   l1311 0332                     l1303 0310                     l1215 0F17  
                   l1231 0049                     l1225 000D                     l1401 0484  
                   l1321 0349                     l1305 0312                     l1217 0F1B  
                   l1241 0080                     l1171 0168                     l1403 0488  
                   l1331 0375                     l1323 035B                     l1307 0322  
                   l1315 033B                     l1219 0F2A                     l1411 049B  
                   l1251 008E                     l1243 0082                     l1235 0052  
                   l1181 0194                     l1173 016C                     l1405 048A  
                   l1333 037A                     l1341 039A                     l1325 0363  
                   l1317 0340                     l1309 032E                     l1501 0737  
                   l1421 04B2                     l1413 04A2                     l1261 00A7  
                   l1253 0097                     l1245 0086                     l1237 0077  
                   l1229 003C                     l1191 01B0                     l1183 019C  
                   l1175 017D                     l1351 03C5                     l1343 03AC  
                   l1335 038C                     l1327 036B                     l1271 02CB  
                   l1511 074C                     l1503 0738                     l1431 04CE  
                   l1423 04B7                     l1415 04A8                     l1263 00BF  
                   l1255 00A0                     l1239 0078                     l1193 01B9  
                   l1185 019F                     l1177 0188                     l1169 0165  
                   l1361 03DD                     l1353 03CD                     l1345 03AD  
                   l1337 0390                     l1329 0373                     l1281 02E2  
                   l1273 02CF                     l1521 0771                     l1513 0750  
                   l1505 0741                     l1441 04E3                     l1433 04D4  
                   l1425 04BF                     l1417 04AC                     l1265 00C4  
                   l1601 0F34                     l1195 01CB                     l1187 01A8  
                   l1179 018C                     l1371 03F5                     l1363 03E6  
                   l1355 03CF                     l1347 03BB                     l1339 0391  
                   l1291 02F8                     l1283 02E3                     l1275 02D0  
                   l1267 02BE                     l1531 07AF                     l1523 077F  
                   l1515 0764                     l1507 0747                     l1451 04FF  
                   l1443 04EB                     l1435 04D8                     l1427 04C1  
                   l1419 04AD                     l1611 0154                     l1603 0F6A  
                   l1197 01D9                     l1189 01AC                     l1381 0424  
                   l1373 0409                     l1357 03D8                     l1365 03EC  
                   l1349 03BF                     l1293 02FC                     l1277 02D5  
                   l1285 02E5                     l1269 02C5                     l1541 07DB  
                   l1533 07BA                     l1525 0783                     l1509 074B  
                   l1461 0542                     l1445 04ED                     l1437 04D9  
                   l1429 04C9                     l1605 00D0                     l1613 0EBB  
                   l1621 0EC6                     l1615 0ED8                     l1199 01DA  
                   l1391 0462                     l1383 0428                     l1367 03F0  
                   l1359 03DC                     l1295 02FD                     l1287 02ED  
                   l1279 02DA                     l1543 07E3                     l1535 07C9  
                   l1527 079C                     l1519 076C                     l1471 05CB  
                   l1463 055E                     l1455 0508                     l1447 04F5  
                   l1439 04DE                     l1607 0145                     l1623 0EC6  
                   l1393 0471                     l1385 0441                     l1377 0411  
                   l1369 03F1                     l1297 0302                     l1289 02F2  
                   l1545 07E7                     l1537 07D3                     l1529 07A2  
                   l1481 063E                     l1473 05DB                     l1465 058A  
                   l1457 0518                     l1449 04FA                     l1561 022E  
                   l1553 0205                     l1609 0148                     l1617 0EED  
                   l1625 0ECD                     l1641 0F83                     l1395 0475  
                   l1379 0416                     l1387 0447                     l1299 0307  
                   l1547 07E8                     l1539 07D5                     l1491 06EB  
                   l1483 065B                     l1475 05F8                     l1467 05A6  
                   l1459 0525                     l1571 0249                     l1555 020A  
                   l1619 0F07                     l1643 0F88                     l1397 047D  
                   l1389 0454                     l1549 07F3                     l1493 0713  
                   l1485 0688                     l1477 0608                     l1469 05C2  
                   l1581 0272                     l1573 0250                     l1565 0237  
                   l1557 020E                     l1645 0F8D                     l1399 047E  
                   l1495 071C                     l1487 0698                     l1479 0625  
                   l1591 02AB                     l1583 027D                     l1575 0254  
                   l1567 023C                     l1559 021E                     l1647 0F98  
                   l1497 072A                     l1489 06C5                     l1593 02B0  
                   l1585 0281                     l1577 0262                     l1569 0240  
                   l1649 0FF3                     l1499 0733                     l1595 02B4  
                   l1587 028B                     l1579 026B                     l1597 02B5  
                   l1589 0295                     u1200 01CB                     u2000 0792  
                   u1201 01CA                     u2010 07AF                     u2011 07AE  
                   u1220 01E9                     u1140 016C                     u2020 07C9  
                   u1300 0086                     u2100 0271                     u1221 01E8  
                   u1205 01C7                     u1141 016B                     u2021 07C8  
                   u2005 078D                     u1301 0085                     u2101 0270  
                   u1230 01EE                     u1150 017D                     u2030 07E7  
                   u1310 008D                     u1231 01ED                     u1215 01DB  
                   u1151 017C                     u2031 07E6                     u2015 07AB  
                   u1311 008C                     u1160 019C                     u1400 02DA  
                   u1240 0F1B                     u2120 0281                     u2040 020A  
                   u2200 0151                     u1161 019B                     u1401 02D9  
                   u1241 0F1A                     u2025 07C5                     u2121 0280  
                   u2041 0209                     u2201 014D                     u1410 02FC  
                   u1330 009F                     u2130 0287                     u2050 020E  
                   u1411 02FB                     u1331 009E                     u2131 0286  
                   u2115 0276                     u2051 020D                     u1180 01B0  
                   u1420 0302                     u1260 0F2F                     u1340 00A6  
                   u2140 028B                     u2060 022E                     u2220 0ECD  
                   u1181 01AF                     u1421 0301                     u1261 0F2E  
                   u1341 00A5                     u1325 008F                     u2141 028A  
                   u2061 022D                     u2221 0ECC                     u1270 001D  
                   u1510 03AC                     u1430 0307                     u2150 02A0  
                   u2214 0154                     u1175 01A1                     u1511 03AB  
                   u1431 0306                     u1255 0F22                     u1600 0410  
                   u1520 03C5                     u1440 0322                     u1360 00BF  
                   u1280 0049                     u2160 02B0                     u2080 024F  
                   u1601 040F                     u1521 03C4                     u1505 0393  
                   u1441 0321                     u1361 00BE                     u1281 0048  
                   u2161 02AF                     u2081 024E                     u1610 0416  
                   u1530 03CD                     u1450 0340                     u1370 00C4  
                   u1290 006E                     u2170 02B4                     u1195 01B2  
                   u1275 0018                     u1611 0415                     u1531 03CC  
                   u1515 03A8                     u1451 033F                     u1371 00C3  
                   u1355 00AB                     u2171 02B3                     u2155 029B  
                   u2075 0241                     u1620 0428                     u1460 037A  
                   u1380 02CF                     u1700 04D8                     u2180 0F44  
                   u1621 0427                     u1461 0379                     u1381 02CE  
                   u1701 04D7                     u1630 0437                     u1550 03DC  
                   u1390 02D5                     u1710 04DE                     u2190 0F4D  
                   u1551 03DB                     u1391 02D4                     u1711 04DD  
                   u1295 0069                     u2095 0263                     u1640 0454  
                   u1720 04E3                     u1641 0453                     u1545 03D1  
                   u1801 05EA                     u1721 04E2                     u2185 0F3F  
                   u1650 0471                     u1570 03F0                     u1490 0390  
                   u1802 05F1                     u1730 04FA                     u1651 0470  
                   u1635 0432                     u1571 03EF                     u1491 038F  
                   u1475 037C                     u1811 0617                     u1803 05F8  
                   u1731 04F9                     u2195 0F48                     u1660 0488  
                   u1580 03F5                     u1812 061E                     u1740 04FF  
                   u1661 0487                     u1645 0450                     u1581 03F4  
                   u1565 03DF                     u1485 0385                     u1813 0625  
                   u1741 04FE                     u1590 0409                     u1670 04AC  
                   u1655 046D                     u1591 0408                     u1831 064D  
                   u1751 0550                     u1671 04AB                     u1920 0737  
                   u1832 0654                     u1752 0557                     u1680 04B2  
                   u1921 0736                     u1905 0715                     u1841 067A  
                   u1833 065B                     u1825 0627                     u1761 056C  
                   u1753 055E                     u1681 04B1                     u1842 0681  
                   u1762 0573                     u1690 04B7                     u1915 072C  
                   u1851 06A7                     u1843 0688                     u1771 0598  
                   u1763 057A                     u1691 04B6                     u1940 074B  
                   u1860 06D1                     u1852 06AE                     u1772 059F  
                   u1941 074A                     u1853 06B5                     u1781 05B4  
                   u1773 05A6                     u1950 0750                     u1782 05BB  
                   u1951 074F                     u1935 073A                     u1871 06DD  
                   u1783 05C2                     u1960 0764                     u1880 06F9  
                   u1872 06E4                     u1961 0763                     u1873 06EB  
                   u1865 06CC                     u1970 076B                     u1971 076A  
                   u1891 0705                     u1795 05C4                     u1980 0771  
                   u1892 070C                     u1981 0770                     u1893 0713  
                   u1885 06F4                     u1990 0783                     u1991 0782  
           _PWM_Max_Duty 000D                     _main 0F83                     _freq 00A4  
                   _duty 00A0                     btemp 007E                     start 0000  
        ___fldiv@new_exp 0048          __end_of_ReadADC 0ED8                    ??_PWM 007D  
          ___fltol@sign1 006E          __end_of___aldiv 0202                    ?_main 0070  
                  _CCP1X 00BD          __end_of___fldiv 049B                    _CCP1Y 00BC  
                  _CCP2X 00ED                    _CCP2Y 00EC          __end_of___flmul 07FC  
        __end_of___fltol 00D0       __size_of_PWM1_Duty 0095              ?_PWM1_Start 0070  
                  status 0003                    wtemp0 007E          __initialization 07FC  
           __end_of_main 1000                ??_ADCinit 0070                   ??_main 007D  
                 _ADRESH 001E                   _ADRESL 009E                   _CCPR1L 0015  
                 _CCPR2L 001B         __end_of___xxtofl 02BE                ??_ReadADC 0072  
      __end_of_PWM1_Duty 0165                ??___aldiv 0078                ??___fldiv 003E  
    __size_of_PWM1_Start 000B                ??___flmul 0058                ??___fltol 00A8  
     __size_of__Umul8_16 0027             ___xxtofl@arg 0032             ___xxtofl@exp 0031  
           ___xxtofl@val 0028  __end_of__initialization 07FC    __end_of_PWM1_Init_Fre 0F83  
             ___fltol@f1 006A           __pcstackCOMMON 0070        __end_of__Umul8_16 0F34  
             __pmaintext 0F83                  _ADCinit 0ED8                ?___xxtofl 0028  
           ??_PWM1_Start 0070                  _ReadADC 0EC6                  ___aldiv 0165  
                ___fldiv 02BE                  ___flmul 049B                  ___fltol 003C  
     __end_of_PWM1_Start 0EC6                  __ptext1 0EC6                  __ptext2 0EED  
                __ptext3 0EBB                  __ptext4 0F34                  __ptext5 00D0  
                __ptext6 0202                  __ptext7 003C                  __ptext8 049B  
                __ptext9 0F0D             __size_of_PWM 0020                _T2CONbits 0012  
             ??___xxtofl 002C         ___aldiv@dividend 0074     end_of_initialization 07FC  
       ___aldiv@quotient 0022                _PWM1_Duty 00D0            ___xxtofl@sign 0030  
              _TRISCbits 0087              ___fldiv@grs 004A              ___fldiv@rem 0043  
            ___flmul@grs 005E              _CCP1CONbits 0017              _CCP2CONbits 001D  
       ReadADC@TempValue 0072               ?_PWM1_Duty 00AC      start_initialization 07FC  
            __end_of_PWM 0F0D            ?_PWM_Max_Duty 0026                __Umul8_16 0F0D  
               ?_ADCinit 0070                ___fldiv@a 0036                ___fldiv@b 003A  
              ___flmul@a 0054                ___flmul@b 0050   __size_of_PWM1_Init_Fre 004F  
              ___latbits 0002            __pcstackBANK0 0020            __pcstackBANK1 00A8  
      __size_of___xxtofl 00BC           ??_PWM_Max_Duty 0079                 ?_ReadADC 0070  
              __pnvBANK1 00A0                 ?___aldiv 0070                 ?___fldiv 0036  
               ?___flmul 0050                 ?___fltol 006A               ?__Umul8_16 0070  
            ??_PWM1_Duty 00AE                 _ADCvalue 00A2          ___aldiv@divisor 0070  
        ___aldiv@counter 0020            _PWM1_Init_Fre 0F34            PWM1_Duty@duty 00AC  
             _ADCON0bits 001F               _ADCON1bits 009F         __size_of_ADCinit 0015  
         ?_PWM1_Init_Fre 0026         __size_of_ReadADC 0012              ??__Umul8_16 0072  
       __size_of___aldiv 009D     __end_of_PWM_Max_Duty 003C         __size_of___fldiv 01DD  
       __size_of___flmul 0361         __size_of___fltol 0094         PWM1_Init_Fre@fre 0026  
               ___xxtofl 0202                 __ptext10 02BE                 __ptext11 000D  
               __ptext12 0165                 __ptext13 0ED8            __size_of_main 007D  
        ??_PWM1_Init_Fre 0079   __Umul8_16@multiplicand 0070             ___aldiv@sign 0021  
             _PWM1_Start 0EBB     __Umul8_16@multiplier 0078    __size_of_PWM_Max_Duty 002F  
      __Umul8_16@product 0074  
