

Microchip MPLAB XC8 Assembler V2.20 build 20200408173844 
                                                                                               Wed Dec 01 21:02:17 2021

Microchip MPLAB XC8 C Compiler v2.20 (Free license) build 20200408173844 Og1 
     1                           	processor	16F877A
     2                           	pagewidth 120
     3                           	opt	flic
     4                           	psect	idataBANK3,global,class=CODE,delta=2,noexec
     5                           	psect	strings,global,class=STRING,delta=2,noexec
     6                           	psect	cinit,global,class=CODE,merge=1,delta=2
     7                           	psect	bssBANK0,global,class=BANK0,space=1,delta=1,noexec
     8                           	psect	bssBANK1,global,class=BANK1,space=1,delta=1,noexec
     9                           	psect	bssBANK3,global,class=BANK3,space=1,delta=1,noexec
    10                           	psect	dataBANK3,global,class=BANK3,space=1,delta=1,noexec
    11                           	psect	inittext,global,class=CODE,delta=2
    12                           	psect	clrtext,global,class=CODE,delta=2
    13                           	psect	cstackBANK3,global,class=BANK3,space=1,delta=1,noexec
    14                           	psect	cstackBANK2,global,class=BANK2,space=1,delta=1,noexec
    15                           	psect	cstackBANK1,global,class=BANK1,space=1,delta=1,noexec
    16                           	psect	cstackCOMMON,global,class=COMMON,space=1,delta=1,noexec
    17                           	psect	cstackBANK0,global,class=BANK0,space=1,delta=1,noexec
    18                           	psect	maintext,global,class=CODE,split=1,delta=2
    19                           	psect	text1,local,class=CODE,merge=1,delta=2,group=1
    20                           	psect	text2,local,class=CODE,merge=1,delta=2,group=1
    21                           	psect	text3,local,class=CODE,merge=1,delta=2,group=1
    22                           	psect	text4,local,class=CODE,merge=1,delta=2,group=1
    23                           	psect	text5,local,class=CODE,merge=1,delta=2,group=1
    24                           	psect	text6,local,class=CODE,merge=1,delta=2,group=1
    25                           	psect	text7,local,class=CODE,merge=1,delta=2
    26                           	psect	text8,local,class=CODE,merge=1,delta=2
    27                           	psect	text9,local,class=CODE,merge=1,delta=2,group=1
    28                           	psect	text10,local,class=CODE,merge=1,delta=2,group=1
    29                           	psect	text11,local,class=CODE,merge=1,delta=2,group=1
    30                           	psect	text12,local,class=CODE,merge=1,delta=2
    31                           	psect	text13,local,class=CODE,merge=1,delta=2
    32                           	psect	text14,local,class=CODE,merge=1,delta=2,group=1
    33                           	psect	text15,local,class=CODE,merge=1,delta=2,group=1
    34                           	psect	text16,local,class=CODE,merge=1,delta=2
    35                           	psect	text17,local,class=CODE,merge=1,delta=2
    36                           	psect	text18,local,class=CODE,merge=1,delta=2
    37                           	psect	text19,local,class=CODE,merge=1,delta=2
    38                           	psect	text20,local,class=CODE,merge=1,delta=2
    39                           	psect	text21,local,class=CODE,merge=1,delta=2
    40                           	psect	text22,local,class=CODE,merge=1,delta=2
    41                           	psect	intentry,global,class=CODE,delta=2
    42                           	psect	text23,local,class=CODE,merge=1,delta=2
    43                           	psect	text24,local,class=CODE,merge=1,delta=2
    44                           	psect	text25,local,class=CODE,merge=1,delta=2,group=1
    45                           	psect	text26,local,class=CODE,merge=1,delta=2
    46                           	psect	config,global,abs,ovrld,class=CONFIG,space=4,delta=2,noexec
    47                           	dabs	1,0x7E,2
    48  0000                     
    49                           ; Version 2.20
    50                           ; Generated 12/02/2020 GMT
    51                           ; 
    52                           ; Copyright © 2020, Microchip Technology Inc. and its subsidiaries ("Microchip")
    53                           ; All rights reserved.
    54                           ; 
    55                           ; This software is developed by Microchip Technology Inc. and its subsidiaries ("Microch
      +                          ip").
    56                           ; 
    57                           ; Redistribution and use in source and binary forms, with or without modification, are
    58                           ; permitted provided that the following conditions are met:
    59                           ; 
    60                           ;     1. Redistributions of source code must retain the above copyright notice, this lis
      +                          t of
    61                           ;        conditions and the following disclaimer.
    62                           ; 
    63                           ;     2. Redistributions in binary form must reproduce the above copyright notice, this 
      +                          list
    64                           ;        of conditions and the following disclaimer in the documentation and/or other
    65                           ;        materials provided with the distribution.
    66                           ; 
    67                           ;     3. Microchip's name may not be used to endorse or promote products derived from th
      +                          is
    68                           ;        software without specific prior written permission.
    69                           ; 
    70                           ; THIS SOFTWARE IS PROVIDED BY MICROCHIP "AS IS" AND ANY EXPRESS OR IMPLIED WARRANTIES,
    71                           ; INCLUDING, BUT NOT LIMITED TO, THE IMPLIED WARRANTIES OF MERCHANTABILITY AND FITNESS F
      +                          OR
    72                           ; PURPOSE ARE DISCLAIMED.  IN NO EVENT SHALL MICROCHIP BE LIABLE FOR ANY DIRECT, INDIREC
      +                          T,
    73                           ; INCIDENTAL, SPECIAL, EXEMPLARY, OR CONSEQUENTIAL DAMAGES (INCLUDING BUT NOT LIMITED TO
    74                           ; PROCUREMENT OF SUBSTITUTE GOODS OR SERVICES; LOSS OF USE, DATA OR PROFITS; OR BUSINESS
    75                           ; INTERRUPTION) HOWSOEVER CAUSED AND ON ANY THEORY OF LIABILITY, WHETHER IN CONTRACT, ST
      +                          RICT
    76                           ; LIABILITY, OR TORT (INCLUDING NEGLIGENCE OR OTHERWISE) ARISING IN ANY WAY OUT OF THE U
      +                          SE OF
    77                           ; THIS SOFTWARE, EVEN IF ADVISED OF THE POSSIBILITY OF SUCH DAMAGE.
    78                           ; 
    79                           ; 
    80                           ; Code-generator required, PIC16F877A Definitions
    81                           ; 
    82                           ; SFR Addresses
    83  0000                     	;# 
    84  0001                     	;# 
    85  0002                     	;# 
    86  0003                     	;# 
    87  0004                     	;# 
    88  0005                     	;# 
    89  0006                     	;# 
    90  0007                     	;# 
    91  0008                     	;# 
    92  0009                     	;# 
    93  000A                     	;# 
    94  000B                     	;# 
    95  000C                     	;# 
    96  000D                     	;# 
    97  000E                     	;# 
    98  000E                     	;# 
    99  000F                     	;# 
   100  0010                     	;# 
   101  0011                     	;# 
   102  0012                     	;# 
   103  0013                     	;# 
   104  0014                     	;# 
   105  0015                     	;# 
   106  0015                     	;# 
   107  0016                     	;# 
   108  0017                     	;# 
   109  0018                     	;# 
   110  0019                     	;# 
   111  001A                     	;# 
   112  001B                     	;# 
   113  001B                     	;# 
   114  001C                     	;# 
   115  001D                     	;# 
   116  001E                     	;# 
   117  001F                     	;# 
   118  0081                     	;# 
   119  0085                     	;# 
   120  0086                     	;# 
   121  0087                     	;# 
   122  0088                     	;# 
   123  0089                     	;# 
   124  008C                     	;# 
   125  008D                     	;# 
   126  008E                     	;# 
   127  0091                     	;# 
   128  0092                     	;# 
   129  0093                     	;# 
   130  0094                     	;# 
   131  0098                     	;# 
   132  0099                     	;# 
   133  009C                     	;# 
   134  009D                     	;# 
   135  009E                     	;# 
   136  009F                     	;# 
   137  010C                     	;# 
   138  010D                     	;# 
   139  010E                     	;# 
   140  010F                     	;# 
   141  018C                     	;# 
   142  018D                     	;# 
   143  0000                     	;# 
   144  0001                     	;# 
   145  0002                     	;# 
   146  0003                     	;# 
   147  0004                     	;# 
   148  0005                     	;# 
   149  0006                     	;# 
   150  0007                     	;# 
   151  0008                     	;# 
   152  0009                     	;# 
   153  000A                     	;# 
   154  000B                     	;# 
   155  000C                     	;# 
   156  000D                     	;# 
   157  000E                     	;# 
   158  000E                     	;# 
   159  000F                     	;# 
   160  0010                     	;# 
   161  0011                     	;# 
   162  0012                     	;# 
   163  0013                     	;# 
   164  0014                     	;# 
   165  0015                     	;# 
   166  0015                     	;# 
   167  0016                     	;# 
   168  0017                     	;# 
   169  0018                     	;# 
   170  0019                     	;# 
   171  001A                     	;# 
   172  001B                     	;# 
   173  001B                     	;# 
   174  001C                     	;# 
   175  001D                     	;# 
   176  001E                     	;# 
   177  001F                     	;# 
   178  0081                     	;# 
   179  0085                     	;# 
   180  0086                     	;# 
   181  0087                     	;# 
   182  0088                     	;# 
   183  0089                     	;# 
   184  008C                     	;# 
   185  008D                     	;# 
   186  008E                     	;# 
   187  0091                     	;# 
   188  0092                     	;# 
   189  0093                     	;# 
   190  0094                     	;# 
   191  0098                     	;# 
   192  0099                     	;# 
   193  009C                     	;# 
   194  009D                     	;# 
   195  009E                     	;# 
   196  009F                     	;# 
   197  010C                     	;# 
   198  010D                     	;# 
   199  010E                     	;# 
   200  010F                     	;# 
   201  018C                     	;# 
   202  018D                     	;# 
   203  0000                     	;# 
   204  0001                     	;# 
   205  0002                     	;# 
   206  0003                     	;# 
   207  0004                     	;# 
   208  0005                     	;# 
   209  0006                     	;# 
   210  0007                     	;# 
   211  0008                     	;# 
   212  0009                     	;# 
   213  000A                     	;# 
   214  000B                     	;# 
   215  000C                     	;# 
   216  000D                     	;# 
   217  000E                     	;# 
   218  000E                     	;# 
   219  000F                     	;# 
   220  0010                     	;# 
   221  0011                     	;# 
   222  0012                     	;# 
   223  0013                     	;# 
   224  0014                     	;# 
   225  0015                     	;# 
   226  0015                     	;# 
   227  0016                     	;# 
   228  0017                     	;# 
   229  0018                     	;# 
   230  0019                     	;# 
   231  001A                     	;# 
   232  001B                     	;# 
   233  001B                     	;# 
   234  001C                     	;# 
   235  001D                     	;# 
   236  001E                     	;# 
   237  001F                     	;# 
   238  0081                     	;# 
   239  0085                     	;# 
   240  0086                     	;# 
   241  0087                     	;# 
   242  0088                     	;# 
   243  0089                     	;# 
   244  008C                     	;# 
   245  008D                     	;# 
   246  008E                     	;# 
   247  0091                     	;# 
   248  0092                     	;# 
   249  0093                     	;# 
   250  0094                     	;# 
   251  0098                     	;# 
   252  0099                     	;# 
   253  009C                     	;# 
   254  009D                     	;# 
   255  009E                     	;# 
   256  009F                     	;# 
   257  010C                     	;# 
   258  010D                     	;# 
   259  010E                     	;# 
   260  010F                     	;# 
   261  018C                     	;# 
   262  018D                     	;# 
   263  0000                     	;# 
   264  0001                     	;# 
   265  0002                     	;# 
   266  0003                     	;# 
   267  0004                     	;# 
   268  0005                     	;# 
   269  0006                     	;# 
   270  0007                     	;# 
   271  0008                     	;# 
   272  0009                     	;# 
   273  000A                     	;# 
   274  000B                     	;# 
   275  000C                     	;# 
   276  000D                     	;# 
   277  000E                     	;# 
   278  000E                     	;# 
   279  000F                     	;# 
   280  0010                     	;# 
   281  0011                     	;# 
   282  0012                     	;# 
   283  0013                     	;# 
   284  0014                     	;# 
   285  0015                     	;# 
   286  0015                     	;# 
   287  0016                     	;# 
   288  0017                     	;# 
   289  0018                     	;# 
   290  0019                     	;# 
   291  001A                     	;# 
   292  001B                     	;# 
   293  001B                     	;# 
   294  001C                     	;# 
   295  001D                     	;# 
   296  001E                     	;# 
   297  001F                     	;# 
   298  0081                     	;# 
   299  0085                     	;# 
   300  0086                     	;# 
   301  0087                     	;# 
   302  0088                     	;# 
   303  0089                     	;# 
   304  008C                     	;# 
   305  008D                     	;# 
   306  008E                     	;# 
   307  0091                     	;# 
   308  0092                     	;# 
   309  0093                     	;# 
   310  0094                     	;# 
   311  0098                     	;# 
   312  0099                     	;# 
   313  009C                     	;# 
   314  009D                     	;# 
   315  009E                     	;# 
   316  009F                     	;# 
   317  010C                     	;# 
   318  010D                     	;# 
   319  010E                     	;# 
   320  010F                     	;# 
   321  018C                     	;# 
   322  018D                     	;# 
   323                           
   324                           	psect	idataBANK3
   325  1328                     __pidataBANK3:
   326                           
   327                           ;initializer for ___cgram
   328  1328  340C               	retlw	12
   329  1329  3412               	retlw	18
   330  132A  3412               	retlw	18
   331  132B  340C               	retlw	12
   332  132C  3400               	retlw	0
   333  132D  3400               	retlw	0
   334  132E  3400               	retlw	0
   335  132F  3400               	retlw	0
   336  1330  3400               	retlw	0
   337  1331  3404               	retlw	4
   338  1332  340E               	retlw	14
   339  1333  341F               	retlw	31
   340  1334  340E               	retlw	14
   341  1335  3404               	retlw	4
   342  1336  3400               	retlw	0
   343  1337  3400               	retlw	0
   344  1338  3404               	retlw	4
   345  1339  3404               	retlw	4
   346  133A  3404               	retlw	4
   347  133B  3404               	retlw	4
   348  133C  341F               	retlw	31
   349  133D  340E               	retlw	14
   350  133E  3404               	retlw	4
   351  133F  3400               	retlw	0
   352  1340  340A               	retlw	10
   353  1341  3415               	retlw	21
   354  1342  3411               	retlw	17
   355  1343  340A               	retlw	10
   356  1344  3404               	retlw	4
   357  1345  3400               	retlw	0
   358  1346  3400               	retlw	0
   359  1347  3400               	retlw	0
   360  1348  340A               	retlw	10
   361  1349  341F               	retlw	31
   362  134A  341F               	retlw	31
   363  134B  340E               	retlw	14
   364  134C  3404               	retlw	4
   365  134D  3400               	retlw	0
   366  134E  3400               	retlw	0
   367  134F  3400               	retlw	0
   368  1350  3400               	retlw	0
   369  1351  3400               	retlw	0
   370  1352  3400               	retlw	0
   371  1353  3400               	retlw	0
   372  1354  3400               	retlw	0
   373  1355  3400               	retlw	0
   374  1356  3400               	retlw	0
   375  1357  3400               	retlw	0
   376  1358  3400               	retlw	0
   377  1359  3400               	retlw	0
   378  135A  3400               	retlw	0
   379  135B  3400               	retlw	0
   380  135C  3400               	retlw	0
   381  135D  3400               	retlw	0
   382  135E  3400               	retlw	0
   383  135F  3400               	retlw	0
   384  1360  3400               	retlw	0
   385  1361  3400               	retlw	0
   386  1362  3400               	retlw	0
   387  1363  3400               	retlw	0
   388  1364  3400               	retlw	0
   389  1365  3400               	retlw	0
   390  1366  3400               	retlw	0
   391  1367  3400               	retlw	0
   392  000E                     _TMR1	set	14
   393  0019                     _TXREG	set	25
   394  0018                     _RCSTA	set	24
   395  0008                     _PORTD	set	8
   396  0006                     _PORTBbits	set	6
   397  001E                     _ADRESH	set	30
   398  001F                     _ADCON0	set	31
   399  0046                     _RD6	set	70
   400  0044                     _RD4	set	68
   401  0045                     _RD5	set	69
   402  005F                     _GIE	set	95
   403  005E                     _PEIE	set	94
   404  0060                     _TMR1IF	set	96
   405  0084                     _T1CKPS0	set	132
   406  0085                     _T1CKPS1	set	133
   407  0083                     _T1OSCEN	set	131
   408  0082                     _T1SYNC	set	130
   409  0081                     _TMR1CS	set	129
   410  0080                     _TMR1ON	set	128
   411  00FA                     _GO_DONE	set	250
   412  00F8                     _ADON	set	248
   413  00FD                     _CHS2	set	253
   414  00FC                     _CHS1	set	252
   415  00FB                     _CHS0	set	251
   416  0099                     _SPBRG	set	153
   417  0098                     _TXSTA	set	152
   418  0088                     _TRISDbits	set	136
   419  0088                     _TRISD	set	136
   420  0086                     _TRISBbits	set	134
   421  009E                     _ADRESL	set	158
   422  009F                     _ADCON1	set	159
   423  04C1                     _TRMT	set	1217
   424  0465                     _RCIE	set	1125
   425  0460                     _TMR1IE	set	1120
   426                           
   427                           	psect	strings
   428  1000                     __pstrings:
   429  1000                     stringtab:
   430  1000                     __stringtab:
   431  1000                     stringcode:	
   432                           ;	String table - string pointers are 1 byte each
   433                           
   434  1000                     stringdir:
   435  1000  3010               	movlw	high stringdir
   436  1001  008A               	movwf	10
   437  1002  0804               	movf	4,w
   438  1003  0A84               	incf	4,f
   439  1004  0782               	addwf	2,f
   440  1005                     __stringbase:
   441  1005  3400               	retlw	0
   442  1006                     __end_of__stringtab:
   443  1006                     STR_1:
   444  1006  346C               	retlw	108	;'l'
   445  1007  346F               	retlw	111	;'o'
   446  1008  3461               	retlw	97	;'a'
   447  1009  3464               	retlw	100	;'d'
   448  100A  3420               	retlw	32	;' '
   449  100B  3472               	retlw	114	;'r'
   450  100C  3465               	retlw	101	;'e'
   451  100D  3473               	retlw	115	;'s'
   452  100E  3469               	retlw	105	;'i'
   453  100F  3473               	retlw	115	;'s'
   454  1010  3474               	retlw	116	;'t'
   455  1011  3465               	retlw	101	;'e'
   456  1012  3472               	retlw	114	;'r'
   457  1013  342E               	retlw	46	;'.'
   458  1014  342E               	retlw	46	;'.'
   459  1015  342E               	retlw	46	;'.'
   460  1016  3400               	retlw	0
   461  1017                     STR_2:
   462  1017  3447               	retlw	71	;'G'
   463  1018  3420               	retlw	32	;' '
   464  1019  3474               	retlw	116	;'t'
   465  101A  3472               	retlw	114	;'r'
   466  101B  3469               	retlw	105	;'i'
   467  101C  3420               	retlw	32	;' '
   468  101D  3455               	retlw	85	;'U'
   469  101E  343D               	retlw	61	;'='
   470  101F  3420               	retlw	32	;' '
   471  1020  3400               	retlw	0
   472                           
   473                           	psect	cinit
   474  0015                     start_initialization:	
   475                           ; #config settings
   476                           
   477  0015                     __initialization:
   478                           
   479                           ; Initialize objects allocated to BANK3
   480  0015  1783               	bsf	3,7	;select IRP bank2
   481  0016  30D0               	movlw	low (__pdataBANK3+64)
   482  0017  00FD               	movwf	btemp+-1
   483  0018  3013               	movlw	high __pidataBANK3
   484  0019  00FE               	movwf	btemp
   485  001A  3028               	movlw	low __pidataBANK3
   486  001B  00FF               	movwf	btemp+1
   487  001C  3090               	movlw	low __pdataBANK3
   488  001D  0084               	movwf	4
   489  001E  160A  118A  2220  120A  118A  	fcall	init_ram0
   490                           
   491                           ; Clear objects allocated to BANK3
   492  0023  30D0               	movlw	low __pbssBANK3
   493  0024  0084               	movwf	4
   494  0025  30E4               	movlw	low (__pbssBANK3+20)
   495  0026  120A  118A  27F8  120A  118A  	fcall	clear_ram0
   496                           
   497                           ; Clear objects allocated to BANK1
   498  002B  1683               	bsf	3,5	;RP0=1, select bank1
   499  002C  1303               	bcf	3,6	;RP1=0, select bank1
   500  002D  01EB               	clrf	__pbssBANK1& (0+127)
   501  002E  01EC               	clrf	(__pbssBANK1+1)& (0+127)
   502  002F  01ED               	clrf	(__pbssBANK1+2)& (0+127)
   503  0030  01EE               	clrf	(__pbssBANK1+3)& (0+127)
   504                           
   505                           ; Clear objects allocated to BANK0
   506  0031  1383               	bcf	3,7	;select IRP bank0
   507  0032  303E               	movlw	low __pbssBANK0
   508  0033  0084               	movwf	4
   509  0034  3053               	movlw	low (__pbssBANK0+21)
   510  0035  120A  118A  27F8  120A  118A  	fcall	clear_ram0
   511  003A                     end_of_initialization:	
   512                           ;End of C runtime variable initialization code
   513                           
   514  003A                     __end_of__initialization:
   515  003A  0183               	clrf	3
   516  003B  120A  158A  2B31   	ljmp	_main	;jump to C main() function
   517                           
   518                           	psect	bssBANK0
   519  003E                     __pbssBANK0:
   520  003E                     LCDWriteInt@F912:
   521  003E                     	ds	10
   522  0048                     main@F911:
   523  0048                     	ds	4
   524  004C                     _value_adc:
   525  004C                     	ds	2
   526  004E                     _count:
   527  004E                     	ds	1
   528  004F                     _dienap:
   529  004F                     	ds	4
   530                           
   531                           	psect	bssBANK1
   532  00EB                     __pbssBANK1:
   533  00EB                     _resister:
   534  00EB                     	ds	2
   535  00ED                     _adc_ok:
   536  00ED                     	ds	1
   537  00EE                     _count1:
   538  00EE                     	ds	1
   539                           
   540                           	psect	bssBANK3
   541  01D0                     __pbssBANK3:
   542  01D0                     _commbuffer:
   543  01D0                     	ds	20
   544                           
   545                           	psect	dataBANK3
   546  0190                     __pdataBANK3:
   547  0190                     ___cgram:
   548  0190                     	ds	64
   549                           
   550                           	psect	inittext
   551  121C                     init_fetch0:	
   552                           ;	Called with low address in FSR and high address in W
   553                           
   554  121C  087E               	movf	btemp,w
   555  121D  008A               	movwf	10
   556  121E  087F               	movf	btemp+1,w
   557  121F  0082               	movwf	2
   558  1220                     init_ram0:	
   559                           ;Called with:
   560                           ;	high address of idata address in btemp 
   561                           ;	low address of idata address in btemp+1 
   562                           ;	low address of data in FSR
   563                           ;	high address + 1 of data in btemp-1
   564                           
   565  1220  160A  118A  221C  160A  118A  	fcall	init_fetch0
   566  1225  0080               	movwf	0
   567  1226  0A84               	incf	4,f
   568  1227  0804               	movf	4,w
   569  1228  067D               	xorwf	btemp+-1,w
   570  1229  1903               	btfsc	3,2
   571  122A  3400               	retlw	0
   572  122B  0AFF               	incf	btemp+1,f
   573  122C  1903               	btfsc	3,2
   574  122D  0AFE               	incf	btemp,f
   575  122E  2A20               	goto	init_ram0
   576                           
   577                           	psect	clrtext
   578  07F8                     clear_ram0:	
   579                           ;	Called with FSR containing the base address, and
   580                           ;	W with the last address+1
   581                           
   582  07F8  0064               	clrwdt	;clear the watchdog before getting into this loop
   583  07F9                     clrloop0:
   584  07F9  0180               	clrf	0	;clear RAM location pointed to by FSR
   585  07FA  0A84               	incf	4,f	;increment pointer
   586  07FB  0604               	xorwf	4,w	;XOR with final address
   587  07FC  1903               	btfsc	3,2	;have we reached the end yet?
   588  07FD  3400               	retlw	0	;all done for this memory range, return
   589  07FE  0604               	xorwf	4,w	;XOR again to restore value
   590  07FF  2FF9               	goto	clrloop0	;do the next byte
   591                           
   592                           	psect	cstackBANK3
   593  01E4                     __pcstackBANK3:
   594  01E4                     ??___fltol:
   595                           
   596                           ; 1 bytes @ 0x0
   597  01E4                     	ds	4
   598  01E8                     ??_main:
   599                           
   600                           ; 1 bytes @ 0x4
   601  01E8                     	ds	3
   602                           
   603                           	psect	cstackBANK2
   604  0110                     __pcstackBANK2:
   605  0110                     _main$860:
   606                           
   607                           ; 4 bytes @ 0x0
   608  0110                     	ds	4
   609  0114                     _main$861:
   610                           
   611                           ; 4 bytes @ 0x4
   612  0114                     	ds	4
   613  0118                     main@digit:
   614                           
   615                           ; 4 bytes @ 0x8
   616  0118                     	ds	4
   617  011C                     main@value:
   618                           
   619                           ; 2 bytes @ 0xC
   620  011C                     	ds	2
   621                           
   622                           	psect	cstackBANK1
   623  00A0                     __pcstackBANK1:
   624  00A0                     ?__Umul8_16:
   625  00A0                     ?___awdiv:	
   626                           ; 2 bytes @ 0x0
   627                           
   628  00A0                     ?___awmod:	
   629                           ; 2 bytes @ 0x0
   630                           
   631  00A0                     ?___lwmod:	
   632                           ; 2 bytes @ 0x0
   633                           
   634  00A0                     ?___almod:	
   635                           ; 2 bytes @ 0x0
   636                           
   637  00A0                     ?___fladd:	
   638                           ; 4 bytes @ 0x0
   639                           
   640  00A0                     LCDBusyLoop@busy:	
   641                           ; 4 bytes @ 0x0
   642                           
   643  00A0                     __Umul8_16@multiplicand:	
   644                           ; 1 bytes @ 0x0
   645                           
   646  00A0                     ___awdiv@divisor:	
   647                           ; 1 bytes @ 0x0
   648                           
   649  00A0                     ___awmod@divisor:	
   650                           ; 2 bytes @ 0x0
   651                           
   652  00A0                     ___lwmod@divisor:	
   653                           ; 2 bytes @ 0x0
   654                           
   655  00A0                     ___almod@divisor:	
   656                           ; 2 bytes @ 0x0
   657                           
   658  00A0                     ___fladd@b:	
   659                           ; 4 bytes @ 0x0
   660                           
   661                           
   662                           ; 4 bytes @ 0x0
   663  00A0                     	ds	1
   664  00A1                     LCDBusyLoop@temp:
   665                           
   666                           ; 1 bytes @ 0x1
   667  00A1                     	ds	1
   668  00A2                     ??__Umul8_16:
   669  00A2                     LCDBusyLoop@status:	
   670                           ; 1 bytes @ 0x2
   671                           
   672  00A2                     ___awdiv@dividend:	
   673                           ; 1 bytes @ 0x2
   674                           
   675  00A2                     ___awmod@dividend:	
   676                           ; 2 bytes @ 0x2
   677                           
   678  00A2                     ___lwmod@dividend:	
   679                           ; 2 bytes @ 0x2
   680                           
   681                           
   682                           ; 2 bytes @ 0x2
   683  00A2                     	ds	1
   684  00A3                     ?_LCDByte:
   685  00A3                     LCDByte@isdata:	
   686                           ; 1 bytes @ 0x3
   687                           
   688                           
   689                           ; 1 bytes @ 0x3
   690  00A3                     	ds	1
   691  00A4                     ??_LCDByte:
   692  00A4                     ?___lwdiv:	
   693                           ; 1 bytes @ 0x4
   694                           
   695  00A4                     ___awdiv@counter:	
   696                           ; 2 bytes @ 0x4
   697                           
   698  00A4                     ___awmod@counter:	
   699                           ; 1 bytes @ 0x4
   700                           
   701  00A4                     ___lwdiv@divisor:	
   702                           ; 1 bytes @ 0x4
   703                           
   704  00A4                     __Umul8_16@product:	
   705                           ; 2 bytes @ 0x4
   706                           
   707  00A4                     ___almod@dividend:	
   708                           ; 2 bytes @ 0x4
   709                           
   710  00A4                     ___fladd@a:	
   711                           ; 4 bytes @ 0x4
   712                           
   713                           
   714                           ; 4 bytes @ 0x4
   715  00A4                     	ds	1
   716  00A5                     LCDByte@hn:
   717  00A5                     ___awdiv@sign:	
   718                           ; 1 bytes @ 0x5
   719                           
   720  00A5                     ___awmod@sign:	
   721                           ; 1 bytes @ 0x5
   722                           
   723                           
   724                           ; 1 bytes @ 0x5
   725  00A5                     	ds	1
   726  00A6                     LCDByte@ln:
   727  00A6                     ___awdiv@quotient:	
   728                           ; 1 bytes @ 0x6
   729                           
   730  00A6                     ___lwdiv@dividend:	
   731                           ; 2 bytes @ 0x6
   732                           
   733  00A6                     __Umul8_16@word_mpld:	
   734                           ; 2 bytes @ 0x6
   735                           
   736                           
   737                           ; 2 bytes @ 0x6
   738  00A6                     	ds	1
   739  00A7                     LCDByte@c:
   740                           
   741                           ; 1 bytes @ 0x7
   742  00A7                     	ds	1
   743  00A8                     ??___fladd:
   744  00A8                     LCDByte@temp:	
   745                           ; 1 bytes @ 0x8
   746                           
   747  00A8                     ___almod@counter:	
   748                           ; 1 bytes @ 0x8
   749                           
   750  00A8                     ___lwdiv@counter:	
   751                           ; 1 bytes @ 0x8
   752                           
   753  00A8                     __Umul8_16@multiplier:	
   754                           ; 1 bytes @ 0x8
   755                           
   756                           
   757                           ; 1 bytes @ 0x8
   758  00A8                     	ds	1
   759  00A9                     ??_LCDInit:
   760  00A9                     ?_LCDGotoXY:	
   761                           ; 1 bytes @ 0x9
   762                           
   763  00A9                     ?_LCDWriteInt:	
   764                           ; 1 bytes @ 0x9
   765                           
   766  00A9                     ?___flmul:	
   767                           ; 1 bytes @ 0x9
   768                           
   769  00A9                     LCDWriteString@cc:	
   770                           ; 4 bytes @ 0x9
   771                           
   772  00A9                     LCDGotoXY@y:	
   773                           ; 1 bytes @ 0x9
   774                           
   775  00A9                     ___almod@sign:	
   776                           ; 1 bytes @ 0x9
   777                           
   778  00A9                     LCDWriteInt@val:	
   779                           ; 1 bytes @ 0x9
   780                           
   781  00A9                     ___lwdiv@quotient:	
   782                           ; 2 bytes @ 0x9
   783                           
   784  00A9                     ___flmul@b:	
   785                           ; 2 bytes @ 0x9
   786                           
   787                           
   788                           ; 4 bytes @ 0x9
   789  00A9                     	ds	1
   790  00AA                     ??_LCDGotoXY:
   791  00AA                     LCDWriteString@msg:	
   792                           ; 1 bytes @ 0xA
   793                           
   794                           
   795                           ; 1 bytes @ 0xA
   796  00AA                     	ds	1
   797  00AB                     ?_Send_data:
   798  00AB                     LCDInit@style:	
   799                           ; 1 bytes @ 0xB
   800                           
   801  00AB                     LCDWriteInt@field_length:	
   802                           ; 1 bytes @ 0xB
   803                           
   804  00AB                     Send_data@Value:	
   805                           ; 1 bytes @ 0xB
   806                           
   807                           
   808                           ; 2 bytes @ 0xB
   809  00AB                     	ds	1
   810  00AC                     ??_LCDWriteInt:
   811  00AC                     LCDInit@__i:	
   812                           ; 1 bytes @ 0xC
   813                           
   814  00AC                     LCDGotoXY@x:	
   815                           ; 1 bytes @ 0xC
   816                           
   817                           
   818                           ; 1 bytes @ 0xC
   819  00AC                     	ds	1
   820  00AD                     Send_data@k:
   821  00AD                     ___flmul@a:	
   822                           ; 2 bytes @ 0xD
   823                           
   824                           
   825                           ; 4 bytes @ 0xD
   826  00AD                     	ds	2
   827  00AF                     Send_data@i:
   828  00AF                     LCDWriteInt@str:	
   829                           ; 1 bytes @ 0xF
   830                           
   831                           
   832                           ; 10 bytes @ 0xF
   833  00AF                     	ds	1
   834  00B0                     ___fladd@signs:
   835  00B0                     Send_data@temp:	
   836                           ; 1 bytes @ 0x10
   837                           
   838                           
   839                           ; 2 bytes @ 0x10
   840  00B0                     	ds	1
   841  00B1                     ??___flmul:
   842  00B1                     ___fladd@aexp:	
   843                           ; 1 bytes @ 0x11
   844                           
   845                           
   846                           ; 1 bytes @ 0x11
   847  00B1                     	ds	1
   848  00B2                     ___fladd@bexp:
   849                           
   850                           ; 1 bytes @ 0x12
   851  00B2                     	ds	1
   852  00B3                     ___fladd@grs:
   853                           
   854                           ; 1 bytes @ 0x13
   855  00B3                     	ds	3
   856  00B6                     ___flmul@sign:
   857                           
   858                           ; 1 bytes @ 0x16
   859  00B6                     	ds	1
   860  00B7                     ___flmul@aexp:
   861                           
   862                           ; 1 bytes @ 0x17
   863  00B7                     	ds	1
   864  00B8                     ___flmul@grs:
   865                           
   866                           ; 4 bytes @ 0x18
   867  00B8                     	ds	1
   868  00B9                     LCDWriteInt@j:
   869                           
   870                           ; 2 bytes @ 0x19
   871  00B9                     	ds	2
   872  00BB                     LCDWriteInt@i:
   873                           
   874                           ; 2 bytes @ 0x1B
   875  00BB                     	ds	1
   876  00BC                     ___flmul@bexp:
   877                           
   878                           ; 1 bytes @ 0x1C
   879  00BC                     	ds	1
   880  00BD                     ___flmul@prod:
   881                           
   882                           ; 4 bytes @ 0x1D
   883  00BD                     	ds	4
   884  00C1                     ___flmul@temp:
   885                           
   886                           ; 2 bytes @ 0x21
   887  00C1                     	ds	2
   888  00C3                     ?___fldiv:
   889  00C3                     ___fldiv@a:	
   890                           ; 4 bytes @ 0x23
   891                           
   892                           
   893                           ; 4 bytes @ 0x23
   894  00C3                     	ds	4
   895  00C7                     ___fldiv@b:
   896                           
   897                           ; 4 bytes @ 0x27
   898  00C7                     	ds	4
   899  00CB                     ??___fldiv:
   900                           
   901                           ; 1 bytes @ 0x2B
   902  00CB                     	ds	5
   903  00D0                     ___fldiv@rem:
   904                           
   905                           ; 4 bytes @ 0x30
   906  00D0                     	ds	4
   907  00D4                     ___fldiv@sign:
   908                           
   909                           ; 1 bytes @ 0x34
   910  00D4                     	ds	1
   911  00D5                     ___fldiv@new_exp:
   912                           
   913                           ; 2 bytes @ 0x35
   914  00D5                     	ds	2
   915  00D7                     ___fldiv@grs:
   916                           
   917                           ; 4 bytes @ 0x37
   918  00D7                     	ds	4
   919  00DB                     ___fldiv@bexp:
   920                           
   921                           ; 1 bytes @ 0x3B
   922  00DB                     	ds	1
   923  00DC                     ___fldiv@aexp:
   924                           
   925                           ; 1 bytes @ 0x3C
   926  00DC                     	ds	1
   927  00DD                     ?___flsub:
   928  00DD                     ___flsub@a:	
   929                           ; 4 bytes @ 0x3D
   930                           
   931                           
   932                           ; 4 bytes @ 0x3D
   933  00DD                     	ds	4
   934  00E1                     ___flsub@b:
   935                           
   936                           ; 4 bytes @ 0x41
   937  00E1                     	ds	4
   938  00E5                     ?___fltol:
   939  00E5                     ___fltol@f1:	
   940                           ; 4 bytes @ 0x45
   941                           
   942                           
   943                           ; 4 bytes @ 0x45
   944  00E5                     	ds	4
   945  00E9                     ___fltol@sign1:
   946                           
   947                           ; 1 bytes @ 0x49
   948  00E9                     	ds	1
   949  00EA                     ___fltol@exp1:
   950                           
   951                           ; 1 bytes @ 0x4A
   952  00EA                     	ds	1
   953                           
   954                           	psect	cstackCOMMON
   955  0070                     __pcstackCOMMON:
   956  0070                     ?_Init_uart:
   957  0070                     ?_LCDInit:	
   958                           ; 1 bytes @ 0x0
   959                           
   960  0070                     ?_LCDWriteString:	
   961                           ; 1 bytes @ 0x0
   962                           
   963  0070                     ?_ADC_Init:	
   964                           ; 1 bytes @ 0x0
   965                           
   966  0070                     ?_TIMER1_Init:	
   967                           ; 1 bytes @ 0x0
   968                           
   969  0070                     ?_ISR:	
   970                           ; 1 bytes @ 0x0
   971                           
   972  0070                     ?_main:	
   973                           ; 1 bytes @ 0x0
   974                           
   975  0070                     ?_LCDBusyLoop:	
   976                           ; 1 bytes @ 0x0
   977                           
   978  0070                     ?_ADC_Read:	
   979                           ; 1 bytes @ 0x0
   980                           
   981  0070                     ?i1__Umul8_16:	
   982                           ; 2 bytes @ 0x0
   983                           
   984  0070                     i1__Umul8_16@multiplicand:	
   985                           ; 2 bytes @ 0x0
   986                           
   987                           
   988                           ; 1 bytes @ 0x0
   989  0070                     	ds	2
   990  0072                     ??_ADC_Read:
   991  0072                     ??i1__Umul8_16:	
   992                           ; 1 bytes @ 0x2
   993                           
   994                           
   995                           ; 1 bytes @ 0x2
   996  0072                     	ds	2
   997  0074                     ADC_Read@value:
   998  0074                     i1__Umul8_16@product:	
   999                           ; 2 bytes @ 0x4
  1000                           
  1001                           
  1002                           ; 2 bytes @ 0x4
  1003  0074                     	ds	2
  1004  0076                     ADC_Read@Channel:
  1005  0076                     i1__Umul8_16@word_mpld:	
  1006                           ; 1 bytes @ 0x6
  1007                           
  1008                           
  1009                           ; 2 bytes @ 0x6
  1010  0076                     	ds	1
  1011  0077                     ?___xxtofl:
  1012  0077                     ___xxtofl@val:	
  1013                           ; 4 bytes @ 0x7
  1014                           
  1015                           
  1016                           ; 4 bytes @ 0x7
  1017  0077                     	ds	1
  1018  0078                     i1__Umul8_16@multiplier:
  1019                           
  1020                           ; 1 bytes @ 0x8
  1021  0078                     	ds	1
  1022  0079                     ??i1___flmul:
  1023                           
  1024                           ; 1 bytes @ 0x9
  1025  0079                     	ds	5
  1026                           
  1027                           	psect	cstackBANK0
  1028  0020                     __pcstackBANK0:
  1029  0020                     ??___xxtofl:
  1030  0020                     ?i1___flmul:	
  1031                           ; 1 bytes @ 0x0
  1032                           
  1033  0020                     i1___flmul@b:	
  1034                           ; 4 bytes @ 0x0
  1035                           
  1036                           
  1037                           ; 4 bytes @ 0x0
  1038  0020                     	ds	4
  1039  0024                     ___xxtofl@sign:
  1040  0024                     i1___flmul@a:	
  1041                           ; 1 bytes @ 0x4
  1042                           
  1043                           
  1044                           ; 4 bytes @ 0x4
  1045  0024                     	ds	1
  1046  0025                     ___xxtofl@exp:
  1047                           
  1048                           ; 1 bytes @ 0x5
  1049  0025                     	ds	1
  1050  0026                     ___xxtofl@arg:
  1051                           
  1052                           ; 4 bytes @ 0x6
  1053  0026                     	ds	2
  1054  0028                     i1___flmul@sign:
  1055                           
  1056                           ; 1 bytes @ 0x8
  1057  0028                     	ds	1
  1058  0029                     i1___flmul@grs:
  1059                           
  1060                           ; 4 bytes @ 0x9
  1061  0029                     	ds	4
  1062  002D                     i1___flmul@aexp:
  1063                           
  1064                           ; 1 bytes @ 0xD
  1065  002D                     	ds	1
  1066  002E                     i1___flmul@bexp:
  1067                           
  1068                           ; 1 bytes @ 0xE
  1069  002E                     	ds	1
  1070  002F                     i1___flmul@prod:
  1071                           
  1072                           ; 4 bytes @ 0xF
  1073  002F                     	ds	4
  1074  0033                     i1___flmul@temp:
  1075                           
  1076                           ; 2 bytes @ 0x13
  1077  0033                     	ds	2
  1078  0035                     ??_ISR:
  1079                           
  1080                           ; 1 bytes @ 0x15
  1081  0035                     	ds	8
  1082  003D                     ??_Init_uart:
  1083  003D                     ??_ADC_Init:	
  1084                           ; 1 bytes @ 0x1D
  1085                           
  1086  003D                     ??_TIMER1_Init:	
  1087                           ; 1 bytes @ 0x1D
  1088                           
  1089  003D                     ??_LCDBusyLoop:	
  1090                           ; 1 bytes @ 0x1D
  1091                           
  1092  003D                     ??___almod:	
  1093                           ; 1 bytes @ 0x1D
  1094                           
  1095  003D                     ??___awdiv:	
  1096                           ; 1 bytes @ 0x1D
  1097                           
  1098  003D                     ??___awmod:	
  1099                           ; 1 bytes @ 0x1D
  1100                           
  1101  003D                     ??___lwmod:	
  1102                           ; 1 bytes @ 0x1D
  1103                           
  1104  003D                     ??___flsub:	
  1105                           ; 1 bytes @ 0x1D
  1106                           
  1107  003D                     ___lwmod@counter:	
  1108                           ; 1 bytes @ 0x1D
  1109                           
  1110                           
  1111                           ; 1 bytes @ 0x1D
  1112  003D                     	ds	1
  1113  003E                     ??_LCDWriteString:
  1114  003E                     ??_Send_data:	
  1115                           ; 1 bytes @ 0x1E
  1116                           
  1117  003E                     ??___lwdiv:	
  1118                           ; 1 bytes @ 0x1E
  1119                           
  1120                           
  1121                           	psect	maintext
  1122  0B31                     __pmaintext:	
  1123                           ; 1 bytes @ 0x1E
  1124 ;;
  1125 ;;Main: autosize = 0, tempsize = 3, incstack = 0, save=0
  1126 ;;
  1127 ;; *************** function _main *****************
  1128 ;; Defined at:
  1129 ;;		line 68 in file "main.c"
  1130 ;; Parameters:    Size  Location     Type
  1131 ;;		None
  1132 ;; Auto vars:     Size  Location     Type
  1133 ;;  digit           4    8[BANK2 ] unsigned char [4]
  1134 ;;  value           2   12[BANK2 ] unsigned int 
  1135 ;; Return value:  Size  Location     Type
  1136 ;;                  1    wreg      void 
  1137 ;; Registers used:
  1138 ;;		wreg, fsr0l, fsr0h, status,2, status,0, btemp+1, pclath, cstack
  1139 ;; Tracked objects:
  1140 ;;		On entry : B00/0
  1141 ;;		On exit  : 0/0
  1142 ;;		Unchanged: 0/0
  1143 ;; Data sizes:     COMMON   BANK0   BANK1   BANK3   BANK2
  1144 ;;      Params:         0       0       0       0       0
  1145 ;;      Locals:         0       0       0       0      14
  1146 ;;      Temps:          0       0       0       3       0
  1147 ;;      Totals:         0       0       0       3      14
  1148 ;;Total ram usage:       17 bytes
  1149 ;; Hardware stack levels required when called:    6
  1150 ;; This function calls:
  1151 ;;		_ADC_Init
  1152 ;;		_Init_uart
  1153 ;;		_LCDByte
  1154 ;;		_LCDGotoXY
  1155 ;;		_LCDInit
  1156 ;;		_LCDWriteInt
  1157 ;;		_LCDWriteString
  1158 ;;		_Send_data
  1159 ;;		_TIMER1_Init
  1160 ;;		___fldiv
  1161 ;;		___flmul
  1162 ;;		___flsub
  1163 ;;		___fltol
  1164 ;;		___lwdiv
  1165 ;;		___lwmod
  1166 ;; This function is called by:
  1167 ;;		Startup code after reset
  1168 ;; This function uses a non-reentrant model
  1169 ;;
  1170                           
  1171                           
  1172                           ;psect for function _main
  1173  0B31                     _main:
  1174  0B31                     l4374:	
  1175                           ;incstack = 0
  1176                           ; Regs used in _main: [wreg-fsr0h+status,2+status,0+btemp+1+pclath+cstack]
  1177                           
  1178                           
  1179                           ;main.c: 70:     unsigned char digit[4]={0,0,0};
  1180  0B31  3000               	movlw	0
  1181  0B32  1283               	bcf	3,5	;RP0=0, select bank2
  1182  0B33  1703               	bsf	3,6	;RP1=1, select bank2
  1183  0B34  009B               	movwf	(main@digit+3)^(0+256)
  1184  0B35  3000               	movlw	0
  1185  0B36  009A               	movwf	(main@digit+2)^(0+256)
  1186  0B37  3000               	movlw	0
  1187  0B38  0099               	movwf	(main@digit+1)^(0+256)
  1188  0B39  3000               	movlw	0
  1189  0B3A  0098               	movwf	main@digit^(0+256)
  1190  0B3B                     l4376:
  1191                           
  1192                           ;main.c: 71:     unsigned int value;;main.c: 72:     TRISBbits.TRISB0=0;
  1193  0B3B  1683               	bsf	3,5	;RP0=1, select bank1
  1194  0B3C  1303               	bcf	3,6	;RP1=0, select bank1
  1195  0B3D  1006               	bcf	6,0	;volatile
  1196  0B3E                     l4378:
  1197                           
  1198                           ;main.c: 73:     PORTBbits.RB0=1;
  1199  0B3E  1283               	bcf	3,5	;RP0=0, select bank0
  1200  0B3F  1303               	bcf	3,6	;RP1=0, select bank0
  1201  0B40  1406               	bsf	6,0	;volatile
  1202  0B41                     l4380:
  1203                           
  1204                           ;main.c: 75:     ADC_Init();
  1205  0B41  160A  118A  2205  120A  158A  	fcall	_ADC_Init
  1206  0B46                     l4382:
  1207                           
  1208                           ;main.c: 76:     Init_uart();
  1209  0B46  160A  118A  220E  120A  158A  	fcall	_Init_uart
  1210  0B4B                     l4384:
  1211                           
  1212                           ;main.c: 77:     LCDInit(0B00000000);
  1213  0B4B  3000               	movlw	0
  1214  0B4C  160A  118A  2503  120A  158A  	fcall	_LCDInit
  1215  0B51                     l4386:
  1216                           
  1217                           ;main.c: 78:     LCDGotoXY(0,0);
  1218  0B51  1683               	bsf	3,5	;RP0=1, select bank1
  1219  0B52  1303               	bcf	3,6	;RP1=0, select bank1
  1220  0B53  01A9               	clrf	LCDGotoXY@y^(0+128)
  1221  0B54  3000               	movlw	0
  1222  0B55  160A  118A  22B8  120A  158A  	fcall	_LCDGotoXY
  1223  0B5A                     l4388:
  1224                           
  1225                           ;main.c: 79:     LCDWriteString("load resister...");
  1226  0B5A  3001               	movlw	(low ((STR_1-__stringbase)| (0+32768)))& (0+255)
  1227  0B5B  160A  118A  25D5  120A  158A  	fcall	_LCDWriteString
  1228  0B60                     l4390:
  1229                           
  1230                           ;main.c: 80:     _delay((unsigned long)((1000)*(16000000/4000.0)));
  1231  0B60  3015               	movlw	21
  1232  0B61  1683               	bsf	3,5	;RP0=1, select bank3
  1233  0B62  1703               	bsf	3,6	;RP1=1, select bank3
  1234  0B63  00EA               	movwf	(??_main^(0+384)+2)
  1235  0B64  304B               	movlw	75
  1236  0B65  00E9               	movwf	(??_main^(0+384)+1)
  1237  0B66  30BD               	movlw	189
  1238  0B67  00E8               	movwf	??_main^(0+384)
  1239  0B68                     u6807:
  1240  0B68  0BE8               	decfsz	??_main^(0+384),f
  1241  0B69  2B68               	goto	u6807
  1242  0B6A  0BE9               	decfsz	(??_main^(0+384)+1),f
  1243  0B6B  2B68               	goto	u6807
  1244  0B6C  0BEA               	decfsz	(??_main^(0+384)+2),f
  1245  0B6D  2B68               	goto	u6807
  1246  0B6E  2B6F               	nop2
  1247  0B6F                     l4392:
  1248                           
  1249                           ;main.c: 81:     (LCDByte(0b00000001,0));
  1250  0B6F  1683               	bsf	3,5	;RP0=1, select bank1
  1251  0B70  1303               	bcf	3,6	;RP1=0, select bank1
  1252  0B71  01A3               	clrf	LCDByte@isdata^(0+128)
  1253  0B72  3001               	movlw	1
  1254  0B73  160A  118A  23F6  120A  158A  	fcall	_LCDByte
  1255  0B78                     l4394:
  1256                           
  1257                           ;main.c: 83:     TIMER1_Init();
  1258  0B78  160A  118A  222F  120A  158A  	fcall	_TIMER1_Init
  1259  0B7D                     l4396:
  1260                           
  1261                           ;main.c: 86:     {;main.c: 88:         if(adc_ok == 1 && count1 >= 25)
  1262  0B7D  1683               	bsf	3,5	;RP0=1, select bank1
  1263  0B7E  1303               	bcf	3,6	;RP1=0, select bank1
  1264  0B7F  036D               	decf	_adc_ok^(0+128),w
  1265  0B80  1D03               	btfss	3,2
  1266  0B81  2B83               	goto	u6781
  1267  0B82  2B84               	goto	u6780
  1268  0B83                     u6781:
  1269  0B83  2B7D               	goto	l4396
  1270  0B84                     u6780:
  1271  0B84                     l4398:
  1272  0B84  3019               	movlw	25
  1273  0B85  026E               	subwf	_count1^(0+128),w
  1274  0B86  1C03               	skipc
  1275  0B87  2B89               	goto	u6791
  1276  0B88  2B8A               	goto	u6790
  1277  0B89                     u6791:
  1278  0B89  2B7D               	goto	l4396
  1279  0B8A                     u6790:
  1280  0B8A                     l4400:
  1281                           
  1282                           ;main.c: 89:         {;main.c: 90:             count1=0;
  1283  0B8A  01EE               	clrf	_count1^(0+128)
  1284  0B8B                     l4402:
  1285                           
  1286                           ;main.c: 92:             value=(unsigned int)dienap;
  1287  0B8B  1283               	bcf	3,5	;RP0=0, select bank0
  1288  0B8C  1303               	bcf	3,6	;RP1=0, select bank0
  1289  0B8D  0852               	movf	_dienap+3,w
  1290  0B8E  1683               	bsf	3,5	;RP0=1, select bank1
  1291  0B8F  1303               	bcf	3,6	;RP1=0, select bank1
  1292  0B90  00E8               	movwf	(___fltol@f1+3)^(0+128)
  1293  0B91  1283               	bcf	3,5	;RP0=0, select bank0
  1294  0B92  1303               	bcf	3,6	;RP1=0, select bank0
  1295  0B93  0851               	movf	_dienap+2,w
  1296  0B94  1683               	bsf	3,5	;RP0=1, select bank1
  1297  0B95  1303               	bcf	3,6	;RP1=0, select bank1
  1298  0B96  00E7               	movwf	(___fltol@f1+2)^(0+128)
  1299  0B97  1283               	bcf	3,5	;RP0=0, select bank0
  1300  0B98  1303               	bcf	3,6	;RP1=0, select bank0
  1301  0B99  0850               	movf	_dienap+1,w
  1302  0B9A  1683               	bsf	3,5	;RP0=1, select bank1
  1303  0B9B  1303               	bcf	3,6	;RP1=0, select bank1
  1304  0B9C  00E6               	movwf	(___fltol@f1+1)^(0+128)
  1305  0B9D  1283               	bcf	3,5	;RP0=0, select bank0
  1306  0B9E  1303               	bcf	3,6	;RP1=0, select bank0
  1307  0B9F  084F               	movf	_dienap,w
  1308  0BA0  1683               	bsf	3,5	;RP0=1, select bank1
  1309  0BA1  1303               	bcf	3,6	;RP1=0, select bank1
  1310  0BA2  00E5               	movwf	___fltol@f1^(0+128)
  1311  0BA3  120A  158A  2004  120A  158A  	fcall	___fltol
  1312  0BA8  1683               	bsf	3,5	;RP0=1, select bank1
  1313  0BA9  1303               	bcf	3,6	;RP1=0, select bank1
  1314  0BAA  0866               	movf	(?___fltol+1)^(0+128),w
  1315  0BAB  1283               	bcf	3,5	;RP0=0, select bank2
  1316  0BAC  1703               	bsf	3,6	;RP1=1, select bank2
  1317  0BAD  009D               	movwf	(main@value+1)^(0+256)
  1318  0BAE  1683               	bsf	3,5	;RP0=1, select bank1
  1319  0BAF  1303               	bcf	3,6	;RP1=0, select bank1
  1320  0BB0  0865               	movf	?___fltol^(0+128),w
  1321  0BB1  1283               	bcf	3,5	;RP0=0, select bank2
  1322  0BB2  1703               	bsf	3,6	;RP1=1, select bank2
  1323  0BB3  009C               	movwf	main@value^(0+256)
  1324  0BB4                     l4404:
  1325                           
  1326                           ;main.c: 93:             digit[2] = value/100;
  1327  0BB4  3064               	movlw	100
  1328  0BB5  1683               	bsf	3,5	;RP0=1, select bank1
  1329  0BB6  1303               	bcf	3,6	;RP1=0, select bank1
  1330  0BB7  00A4               	movwf	___lwdiv@divisor^(0+128)
  1331  0BB8  3000               	movlw	0
  1332  0BB9  00A5               	movwf	(___lwdiv@divisor^(0+128)+1)
  1333  0BBA  1283               	bcf	3,5	;RP0=0, select bank2
  1334  0BBB  1703               	bsf	3,6	;RP1=1, select bank2
  1335  0BBC  081D               	movf	(main@value+1)^(0+256),w
  1336  0BBD  1683               	bsf	3,5	;RP0=1, select bank1
  1337  0BBE  1303               	bcf	3,6	;RP1=0, select bank1
  1338  0BBF  00A7               	movwf	(___lwdiv@dividend+1)^(0+128)
  1339  0BC0  1283               	bcf	3,5	;RP0=0, select bank2
  1340  0BC1  1703               	bsf	3,6	;RP1=1, select bank2
  1341  0BC2  081C               	movf	main@value^(0+256),w
  1342  0BC3  1683               	bsf	3,5	;RP0=1, select bank1
  1343  0BC4  1303               	bcf	3,6	;RP1=0, select bank1
  1344  0BC5  00A6               	movwf	___lwdiv@dividend^(0+128)
  1345  0BC6  160A  118A  2368  120A  158A  	fcall	___lwdiv
  1346  0BCB  1683               	bsf	3,5	;RP0=1, select bank1
  1347  0BCC  1303               	bcf	3,6	;RP1=0, select bank1
  1348  0BCD  0824               	movf	?___lwdiv^(0+128),w
  1349  0BCE  00FF               	movwf	btemp+1
  1350  0BCF  087F               	movf	btemp+1,w
  1351  0BD0  1283               	bcf	3,5	;RP0=0, select bank2
  1352  0BD1  1703               	bsf	3,6	;RP1=1, select bank2
  1353  0BD2  009A               	movwf	(main@digit^(0+256)+2)
  1354  0BD3                     l4406:
  1355                           
  1356                           ;main.c: 94:             digit[1] = (value%100)/10;
  1357  0BD3  300A               	movlw	10
  1358  0BD4  1683               	bsf	3,5	;RP0=1, select bank1
  1359  0BD5  1303               	bcf	3,6	;RP1=0, select bank1
  1360  0BD6  00A4               	movwf	___lwdiv@divisor^(0+128)
  1361  0BD7  3000               	movlw	0
  1362  0BD8  00A5               	movwf	(___lwdiv@divisor^(0+128)+1)
  1363  0BD9  1283               	bcf	3,5	;RP0=0, select bank2
  1364  0BDA  1703               	bsf	3,6	;RP1=1, select bank2
  1365  0BDB  081D               	movf	(main@value+1)^(0+256),w
  1366  0BDC  1683               	bsf	3,5	;RP0=1, select bank1
  1367  0BDD  1303               	bcf	3,6	;RP1=0, select bank1
  1368  0BDE  00A3               	movwf	(___lwmod@dividend+1)^(0+128)
  1369  0BDF  1283               	bcf	3,5	;RP0=0, select bank2
  1370  0BE0  1703               	bsf	3,6	;RP1=1, select bank2
  1371  0BE1  081C               	movf	main@value^(0+256),w
  1372  0BE2  1683               	bsf	3,5	;RP0=1, select bank1
  1373  0BE3  1303               	bcf	3,6	;RP1=0, select bank1
  1374  0BE4  00A2               	movwf	___lwmod@dividend^(0+128)
  1375  0BE5  3064               	movlw	100
  1376  0BE6  00A0               	movwf	___lwmod@divisor^(0+128)
  1377  0BE7  3000               	movlw	0
  1378  0BE8  00A1               	movwf	(___lwmod@divisor^(0+128)+1)
  1379  0BE9  160A  118A  23AE  120A  158A  	fcall	___lwmod
  1380  0BEE  1683               	bsf	3,5	;RP0=1, select bank1
  1381  0BEF  1303               	bcf	3,6	;RP1=0, select bank1
  1382  0BF0  0821               	movf	(?___lwmod+1)^(0+128),w
  1383  0BF1  00A7               	movwf	(___lwdiv@dividend+1)^(0+128)
  1384  0BF2  0820               	movf	?___lwmod^(0+128),w
  1385  0BF3  00A6               	movwf	___lwdiv@dividend^(0+128)
  1386  0BF4  160A  118A  2368  120A  158A  	fcall	___lwdiv
  1387  0BF9  1683               	bsf	3,5	;RP0=1, select bank1
  1388  0BFA  1303               	bcf	3,6	;RP1=0, select bank1
  1389  0BFB  0824               	movf	?___lwdiv^(0+128),w
  1390  0BFC  00FF               	movwf	btemp+1
  1391  0BFD  087F               	movf	btemp+1,w
  1392  0BFE  1283               	bcf	3,5	;RP0=0, select bank2
  1393  0BFF  1703               	bsf	3,6	;RP1=1, select bank2
  1394  0C00  0099               	movwf	(main@digit^(0+256)+1)
  1395  0C01                     l4408:
  1396                           
  1397                           ;main.c: 95:             digit[0] = value%10;
  1398  0C01  300A               	movlw	10
  1399  0C02  1683               	bsf	3,5	;RP0=1, select bank1
  1400  0C03  1303               	bcf	3,6	;RP1=0, select bank1
  1401  0C04  00A0               	movwf	___lwmod@divisor^(0+128)
  1402  0C05  3000               	movlw	0
  1403  0C06  00A1               	movwf	(___lwmod@divisor^(0+128)+1)
  1404  0C07  1283               	bcf	3,5	;RP0=0, select bank2
  1405  0C08  1703               	bsf	3,6	;RP1=1, select bank2
  1406  0C09  081D               	movf	(main@value+1)^(0+256),w
  1407  0C0A  1683               	bsf	3,5	;RP0=1, select bank1
  1408  0C0B  1303               	bcf	3,6	;RP1=0, select bank1
  1409  0C0C  00A3               	movwf	(___lwmod@dividend+1)^(0+128)
  1410  0C0D  1283               	bcf	3,5	;RP0=0, select bank2
  1411  0C0E  1703               	bsf	3,6	;RP1=1, select bank2
  1412  0C0F  081C               	movf	main@value^(0+256),w
  1413  0C10  1683               	bsf	3,5	;RP0=1, select bank1
  1414  0C11  1303               	bcf	3,6	;RP1=0, select bank1
  1415  0C12  00A2               	movwf	___lwmod@dividend^(0+128)
  1416  0C13  160A  118A  23AE  120A  158A  	fcall	___lwmod
  1417  0C18  1683               	bsf	3,5	;RP0=1, select bank1
  1418  0C19  1303               	bcf	3,6	;RP1=0, select bank1
  1419  0C1A  0820               	movf	?___lwmod^(0+128),w
  1420  0C1B  00FF               	movwf	btemp+1
  1421  0C1C  087F               	movf	btemp+1,w
  1422  0C1D  1283               	bcf	3,5	;RP0=0, select bank2
  1423  0C1E  1703               	bsf	3,6	;RP1=1, select bank2
  1424  0C1F  0098               	movwf	main@digit^(0+256)
  1425  0C20                     l4410:
  1426                           
  1427                           ;main.c: 98:             LCDGotoXY(0,0);
  1428  0C20  1683               	bsf	3,5	;RP0=1, select bank1
  1429  0C21  1303               	bcf	3,6	;RP1=0, select bank1
  1430  0C22  01A9               	clrf	LCDGotoXY@y^(0+128)
  1431  0C23  3000               	movlw	0
  1432  0C24  160A  118A  22B8  120A  158A  	fcall	_LCDGotoXY
  1433  0C29                     l4412:
  1434                           
  1435                           ;main.c: 99:             LCDWriteString("G tri U= ");
  1436  0C29  3012               	movlw	(low ((STR_2-__stringbase)| (0+32768)))& (0+255)
  1437  0C2A  160A  118A  25D5  120A  158A  	fcall	_LCDWriteString
  1438  0C2F                     l4414:
  1439                           
  1440                           ;main.c: 100:             (LCDByte(digit[2]+0x30,1));
  1441  0C2F  1683               	bsf	3,5	;RP0=1, select bank1
  1442  0C30  1303               	bcf	3,6	;RP1=0, select bank1
  1443  0C31  01A3               	clrf	LCDByte@isdata^(0+128)
  1444  0C32  0AA3               	incf	LCDByte@isdata^(0+128),f
  1445  0C33  1283               	bcf	3,5	;RP0=0, select bank2
  1446  0C34  1703               	bsf	3,6	;RP1=1, select bank2
  1447  0C35  081A               	movf	(main@digit^(0+256)+2),w
  1448  0C36  3E30               	addlw	48
  1449  0C37  160A  118A  23F6  120A  158A  	fcall	_LCDByte
  1450  0C3C                     l4416:
  1451                           
  1452                           ;main.c: 101:             (LCDByte('.',1));
  1453  0C3C  1683               	bsf	3,5	;RP0=1, select bank1
  1454  0C3D  1303               	bcf	3,6	;RP1=0, select bank1
  1455  0C3E  01A3               	clrf	LCDByte@isdata^(0+128)
  1456  0C3F  0AA3               	incf	LCDByte@isdata^(0+128),f
  1457  0C40  302E               	movlw	46
  1458  0C41  160A  118A  23F6  120A  158A  	fcall	_LCDByte
  1459  0C46                     l4418:
  1460                           
  1461                           ;main.c: 102:             (LCDByte(digit[1]+0x30,1));
  1462  0C46  1683               	bsf	3,5	;RP0=1, select bank1
  1463  0C47  1303               	bcf	3,6	;RP1=0, select bank1
  1464  0C48  01A3               	clrf	LCDByte@isdata^(0+128)
  1465  0C49  0AA3               	incf	LCDByte@isdata^(0+128),f
  1466  0C4A  1283               	bcf	3,5	;RP0=0, select bank2
  1467  0C4B  1703               	bsf	3,6	;RP1=1, select bank2
  1468  0C4C  0819               	movf	(main@digit^(0+256)+1),w
  1469  0C4D  3E30               	addlw	48
  1470  0C4E  160A  118A  23F6  120A  158A  	fcall	_LCDByte
  1471  0C53                     l4420:
  1472                           
  1473                           ;main.c: 103:             (LCDByte(digit[0]+0x30,1));
  1474  0C53  1683               	bsf	3,5	;RP0=1, select bank1
  1475  0C54  1303               	bcf	3,6	;RP1=0, select bank1
  1476  0C55  01A3               	clrf	LCDByte@isdata^(0+128)
  1477  0C56  0AA3               	incf	LCDByte@isdata^(0+128),f
  1478  0C57  1283               	bcf	3,5	;RP0=0, select bank2
  1479  0C58  1703               	bsf	3,6	;RP1=1, select bank2
  1480  0C59  0818               	movf	main@digit^(0+256),w
  1481  0C5A  3E30               	addlw	48
  1482  0C5B  160A  118A  23F6  120A  158A  	fcall	_LCDByte
  1483  0C60                     l4422:
  1484                           
  1485                           ;main.c: 105:             resister=(unsigned int)( (10000*dienap/100)/(5-dienap/100) );
  1486  0C60  1283               	bcf	3,5	;RP0=0, select bank0
  1487  0C61  1303               	bcf	3,6	;RP1=0, select bank0
  1488  0C62  0852               	movf	_dienap+3,w
  1489  0C63  1683               	bsf	3,5	;RP0=1, select bank1
  1490  0C64  1303               	bcf	3,6	;RP1=0, select bank1
  1491  0C65  00B0               	movwf	(___flmul@a+3)^(0+128)
  1492  0C66  1283               	bcf	3,5	;RP0=0, select bank0
  1493  0C67  1303               	bcf	3,6	;RP1=0, select bank0
  1494  0C68  0851               	movf	_dienap+2,w
  1495  0C69  1683               	bsf	3,5	;RP0=1, select bank1
  1496  0C6A  1303               	bcf	3,6	;RP1=0, select bank1
  1497  0C6B  00AF               	movwf	(___flmul@a+2)^(0+128)
  1498  0C6C  1283               	bcf	3,5	;RP0=0, select bank0
  1499  0C6D  1303               	bcf	3,6	;RP1=0, select bank0
  1500  0C6E  0850               	movf	_dienap+1,w
  1501  0C6F  1683               	bsf	3,5	;RP0=1, select bank1
  1502  0C70  1303               	bcf	3,6	;RP1=0, select bank1
  1503  0C71  00AE               	movwf	(___flmul@a+1)^(0+128)
  1504  0C72  1283               	bcf	3,5	;RP0=0, select bank0
  1505  0C73  1303               	bcf	3,6	;RP1=0, select bank0
  1506  0C74  084F               	movf	_dienap,w
  1507  0C75  1683               	bsf	3,5	;RP0=1, select bank1
  1508  0C76  1303               	bcf	3,6	;RP1=0, select bank1
  1509  0C77  00AD               	movwf	___flmul@a^(0+128)
  1510  0C78  3046               	movlw	70
  1511  0C79  00AC               	movwf	(___flmul@b+3)^(0+128)
  1512  0C7A  301C               	movlw	28
  1513  0C7B  00AB               	movwf	(___flmul@b+2)^(0+128)
  1514  0C7C  3040               	movlw	64
  1515  0C7D  00AA               	movwf	(___flmul@b+1)^(0+128)
  1516  0C7E  3000               	movlw	0
  1517  0C7F  00A9               	movwf	___flmul@b^(0+128)
  1518  0C80  120A  118A  203E  120A  158A  	fcall	___flmul
  1519  0C85  1683               	bsf	3,5	;RP0=1, select bank1
  1520  0C86  1303               	bcf	3,6	;RP1=0, select bank1
  1521  0C87  082C               	movf	(?___flmul+3)^(0+128),w
  1522  0C88  00CA               	movwf	(___fldiv@b+3)^(0+128)
  1523  0C89  082B               	movf	(?___flmul+2)^(0+128),w
  1524  0C8A  00C9               	movwf	(___fldiv@b+2)^(0+128)
  1525  0C8B  082A               	movf	(?___flmul+1)^(0+128),w
  1526  0C8C  00C8               	movwf	(___fldiv@b+1)^(0+128)
  1527  0C8D  0829               	movf	?___flmul^(0+128),w
  1528  0C8E  00C7               	movwf	___fldiv@b^(0+128)
  1529  0C8F  3042               	movlw	66
  1530  0C90  00C6               	movwf	(___fldiv@a+3)^(0+128)
  1531  0C91  30C8               	movlw	200
  1532  0C92  00C5               	movwf	(___fldiv@a+2)^(0+128)
  1533  0C93  3000               	movlw	0
  1534  0C94  00C4               	movwf	(___fldiv@a+1)^(0+128)
  1535  0C95  3000               	movlw	0
  1536  0C96  00C3               	movwf	___fldiv@a^(0+128)
  1537  0C97  120A  158A  2154  120A  158A  	fcall	___fldiv
  1538  0C9C  1683               	bsf	3,5	;RP0=1, select bank1
  1539  0C9D  1303               	bcf	3,6	;RP1=0, select bank1
  1540  0C9E  0846               	movf	(?___fldiv+3)^(0+128),w
  1541  0C9F  1283               	bcf	3,5	;RP0=0, select bank2
  1542  0CA0  1703               	bsf	3,6	;RP1=1, select bank2
  1543  0CA1  0093               	movwf	(_main$860+3)^(0+256)
  1544  0CA2  1683               	bsf	3,5	;RP0=1, select bank1
  1545  0CA3  1303               	bcf	3,6	;RP1=0, select bank1
  1546  0CA4  0845               	movf	(?___fldiv+2)^(0+128),w
  1547  0CA5  1283               	bcf	3,5	;RP0=0, select bank2
  1548  0CA6  1703               	bsf	3,6	;RP1=1, select bank2
  1549  0CA7  0092               	movwf	(_main$860+2)^(0+256)
  1550  0CA8  1683               	bsf	3,5	;RP0=1, select bank1
  1551  0CA9  1303               	bcf	3,6	;RP1=0, select bank1
  1552  0CAA  0844               	movf	(?___fldiv+1)^(0+128),w
  1553  0CAB  1283               	bcf	3,5	;RP0=0, select bank2
  1554  0CAC  1703               	bsf	3,6	;RP1=1, select bank2
  1555  0CAD  0091               	movwf	(_main$860+1)^(0+256)
  1556  0CAE  1683               	bsf	3,5	;RP0=1, select bank1
  1557  0CAF  1303               	bcf	3,6	;RP1=0, select bank1
  1558  0CB0  0843               	movf	?___fldiv^(0+128),w
  1559  0CB1  1283               	bcf	3,5	;RP0=0, select bank2
  1560  0CB2  1703               	bsf	3,6	;RP1=1, select bank2
  1561  0CB3  0090               	movwf	_main$860^(0+256)
  1562  0CB4                     l4424:
  1563                           
  1564                           ;main.c: 105:             resister=(unsigned int)( (10000*dienap/100)/(5-dienap/100) );
  1565  0CB4  3040               	movlw	64
  1566  0CB5  1683               	bsf	3,5	;RP0=1, select bank1
  1567  0CB6  1303               	bcf	3,6	;RP1=0, select bank1
  1568  0CB7  00E4               	movwf	(___flsub@b+3)^(0+128)
  1569  0CB8  30A0               	movlw	160
  1570  0CB9  00E3               	movwf	(___flsub@b+2)^(0+128)
  1571  0CBA  3000               	movlw	0
  1572  0CBB  00E2               	movwf	(___flsub@b+1)^(0+128)
  1573  0CBC  3000               	movlw	0
  1574  0CBD  00E1               	movwf	___flsub@b^(0+128)
  1575  0CBE  1283               	bcf	3,5	;RP0=0, select bank0
  1576  0CBF  1303               	bcf	3,6	;RP1=0, select bank0
  1577  0CC0  0852               	movf	_dienap+3,w
  1578  0CC1  1683               	bsf	3,5	;RP0=1, select bank1
  1579  0CC2  1303               	bcf	3,6	;RP1=0, select bank1
  1580  0CC3  00CA               	movwf	(___fldiv@b+3)^(0+128)
  1581  0CC4  1283               	bcf	3,5	;RP0=0, select bank0
  1582  0CC5  1303               	bcf	3,6	;RP1=0, select bank0
  1583  0CC6  0851               	movf	_dienap+2,w
  1584  0CC7  1683               	bsf	3,5	;RP0=1, select bank1
  1585  0CC8  1303               	bcf	3,6	;RP1=0, select bank1
  1586  0CC9  00C9               	movwf	(___fldiv@b+2)^(0+128)
  1587  0CCA  1283               	bcf	3,5	;RP0=0, select bank0
  1588  0CCB  1303               	bcf	3,6	;RP1=0, select bank0
  1589  0CCC  0850               	movf	_dienap+1,w
  1590  0CCD  1683               	bsf	3,5	;RP0=1, select bank1
  1591  0CCE  1303               	bcf	3,6	;RP1=0, select bank1
  1592  0CCF  00C8               	movwf	(___fldiv@b+1)^(0+128)
  1593  0CD0  1283               	bcf	3,5	;RP0=0, select bank0
  1594  0CD1  1303               	bcf	3,6	;RP1=0, select bank0
  1595  0CD2  084F               	movf	_dienap,w
  1596  0CD3  1683               	bsf	3,5	;RP0=1, select bank1
  1597  0CD4  1303               	bcf	3,6	;RP1=0, select bank1
  1598  0CD5  00C7               	movwf	___fldiv@b^(0+128)
  1599  0CD6  3042               	movlw	66
  1600  0CD7  00C6               	movwf	(___fldiv@a+3)^(0+128)
  1601  0CD8  30C8               	movlw	200
  1602  0CD9  00C5               	movwf	(___fldiv@a+2)^(0+128)
  1603  0CDA  3000               	movlw	0
  1604  0CDB  00C4               	movwf	(___fldiv@a+1)^(0+128)
  1605  0CDC  3000               	movlw	0
  1606  0CDD  00C3               	movwf	___fldiv@a^(0+128)
  1607  0CDE  120A  158A  2154  120A  158A  	fcall	___fldiv
  1608  0CE3  1683               	bsf	3,5	;RP0=1, select bank1
  1609  0CE4  1303               	bcf	3,6	;RP1=0, select bank1
  1610  0CE5  0846               	movf	(?___fldiv+3)^(0+128),w
  1611  0CE6  00E0               	movwf	(___flsub@a+3)^(0+128)
  1612  0CE7  0845               	movf	(?___fldiv+2)^(0+128),w
  1613  0CE8  00DF               	movwf	(___flsub@a+2)^(0+128)
  1614  0CE9  0844               	movf	(?___fldiv+1)^(0+128),w
  1615  0CEA  00DE               	movwf	(___flsub@a+1)^(0+128)
  1616  0CEB  0843               	movf	?___fldiv^(0+128),w
  1617  0CEC  00DD               	movwf	___flsub@a^(0+128)
  1618  0CED  160A  118A  2244  120A  158A  	fcall	___flsub
  1619  0CF2  1683               	bsf	3,5	;RP0=1, select bank1
  1620  0CF3  1303               	bcf	3,6	;RP1=0, select bank1
  1621  0CF4  0860               	movf	(?___flsub+3)^(0+128),w
  1622  0CF5  1283               	bcf	3,5	;RP0=0, select bank2
  1623  0CF6  1703               	bsf	3,6	;RP1=1, select bank2
  1624  0CF7  0097               	movwf	(_main$861+3)^(0+256)
  1625  0CF8  1683               	bsf	3,5	;RP0=1, select bank1
  1626  0CF9  1303               	bcf	3,6	;RP1=0, select bank1
  1627  0CFA  085F               	movf	(?___flsub+2)^(0+128),w
  1628  0CFB  1283               	bcf	3,5	;RP0=0, select bank2
  1629  0CFC  1703               	bsf	3,6	;RP1=1, select bank2
  1630  0CFD  0096               	movwf	(_main$861+2)^(0+256)
  1631  0CFE  1683               	bsf	3,5	;RP0=1, select bank1
  1632  0CFF  1303               	bcf	3,6	;RP1=0, select bank1
  1633  0D00  085E               	movf	(?___flsub+1)^(0+128),w
  1634  0D01  1283               	bcf	3,5	;RP0=0, select bank2
  1635  0D02  1703               	bsf	3,6	;RP1=1, select bank2
  1636  0D03  0095               	movwf	(_main$861+1)^(0+256)
  1637  0D04  1683               	bsf	3,5	;RP0=1, select bank1
  1638  0D05  1303               	bcf	3,6	;RP1=0, select bank1
  1639  0D06  085D               	movf	?___flsub^(0+128),w
  1640  0D07  1283               	bcf	3,5	;RP0=0, select bank2
  1641  0D08  1703               	bsf	3,6	;RP1=1, select bank2
  1642  0D09  0094               	movwf	_main$861^(0+256)
  1643  0D0A                     l4426:
  1644                           
  1645                           ;main.c: 105:             resister=(unsigned int)( (10000*dienap/100)/(5-dienap/100) );
  1646  0D0A  0813               	movf	(_main$860+3)^(0+256),w
  1647  0D0B  1683               	bsf	3,5	;RP0=1, select bank1
  1648  0D0C  1303               	bcf	3,6	;RP1=0, select bank1
  1649  0D0D  00CA               	movwf	(___fldiv@b+3)^(0+128)
  1650  0D0E  1283               	bcf	3,5	;RP0=0, select bank2
  1651  0D0F  1703               	bsf	3,6	;RP1=1, select bank2
  1652  0D10  0812               	movf	(_main$860+2)^(0+256),w
  1653  0D11  1683               	bsf	3,5	;RP0=1, select bank1
  1654  0D12  1303               	bcf	3,6	;RP1=0, select bank1
  1655  0D13  00C9               	movwf	(___fldiv@b+2)^(0+128)
  1656  0D14  1283               	bcf	3,5	;RP0=0, select bank2
  1657  0D15  1703               	bsf	3,6	;RP1=1, select bank2
  1658  0D16  0811               	movf	(_main$860+1)^(0+256),w
  1659  0D17  1683               	bsf	3,5	;RP0=1, select bank1
  1660  0D18  1303               	bcf	3,6	;RP1=0, select bank1
  1661  0D19  00C8               	movwf	(___fldiv@b+1)^(0+128)
  1662  0D1A  1283               	bcf	3,5	;RP0=0, select bank2
  1663  0D1B  1703               	bsf	3,6	;RP1=1, select bank2
  1664  0D1C  0810               	movf	_main$860^(0+256),w
  1665  0D1D  1683               	bsf	3,5	;RP0=1, select bank1
  1666  0D1E  1303               	bcf	3,6	;RP1=0, select bank1
  1667  0D1F  00C7               	movwf	___fldiv@b^(0+128)
  1668  0D20  1283               	bcf	3,5	;RP0=0, select bank2
  1669  0D21  1703               	bsf	3,6	;RP1=1, select bank2
  1670  0D22  0817               	movf	(_main$861+3)^(0+256),w
  1671  0D23  1683               	bsf	3,5	;RP0=1, select bank1
  1672  0D24  1303               	bcf	3,6	;RP1=0, select bank1
  1673  0D25  00C6               	movwf	(___fldiv@a+3)^(0+128)
  1674  0D26  1283               	bcf	3,5	;RP0=0, select bank2
  1675  0D27  1703               	bsf	3,6	;RP1=1, select bank2
  1676  0D28  0816               	movf	(_main$861+2)^(0+256),w
  1677  0D29  1683               	bsf	3,5	;RP0=1, select bank1
  1678  0D2A  1303               	bcf	3,6	;RP1=0, select bank1
  1679  0D2B  00C5               	movwf	(___fldiv@a+2)^(0+128)
  1680  0D2C  1283               	bcf	3,5	;RP0=0, select bank2
  1681  0D2D  1703               	bsf	3,6	;RP1=1, select bank2
  1682  0D2E  0815               	movf	(_main$861+1)^(0+256),w
  1683  0D2F  1683               	bsf	3,5	;RP0=1, select bank1
  1684  0D30  1303               	bcf	3,6	;RP1=0, select bank1
  1685  0D31  00C4               	movwf	(___fldiv@a+1)^(0+128)
  1686  0D32  1283               	bcf	3,5	;RP0=0, select bank2
  1687  0D33  1703               	bsf	3,6	;RP1=1, select bank2
  1688  0D34  0814               	movf	_main$861^(0+256),w
  1689  0D35  1683               	bsf	3,5	;RP0=1, select bank1
  1690  0D36  1303               	bcf	3,6	;RP1=0, select bank1
  1691  0D37  00C3               	movwf	___fldiv@a^(0+128)
  1692  0D38  120A  158A  2154  120A  158A  	fcall	___fldiv
  1693  0D3D  1683               	bsf	3,5	;RP0=1, select bank1
  1694  0D3E  1303               	bcf	3,6	;RP1=0, select bank1
  1695  0D3F  0846               	movf	(?___fldiv+3)^(0+128),w
  1696  0D40  00E8               	movwf	(___fltol@f1+3)^(0+128)
  1697  0D41  0845               	movf	(?___fldiv+2)^(0+128),w
  1698  0D42  00E7               	movwf	(___fltol@f1+2)^(0+128)
  1699  0D43  0844               	movf	(?___fldiv+1)^(0+128),w
  1700  0D44  00E6               	movwf	(___fltol@f1+1)^(0+128)
  1701  0D45  0843               	movf	?___fldiv^(0+128),w
  1702  0D46  00E5               	movwf	___fltol@f1^(0+128)
  1703  0D47  120A  158A  2004  120A  158A  	fcall	___fltol
  1704  0D4C  1683               	bsf	3,5	;RP0=1, select bank1
  1705  0D4D  1303               	bcf	3,6	;RP1=0, select bank1
  1706  0D4E  0866               	movf	(?___fltol+1)^(0+128),w
  1707  0D4F  00EC               	movwf	(_resister+1)^(0+128)
  1708  0D50  0865               	movf	?___fltol^(0+128),w
  1709  0D51  00EB               	movwf	_resister^(0+128)
  1710  0D52                     l4428:
  1711                           
  1712                           ;main.c: 106:             Send_data(resister);
  1713  0D52  086C               	movf	(_resister+1)^(0+128),w
  1714  0D53  00AC               	movwf	(Send_data@Value+1)^(0+128)
  1715  0D54  086B               	movf	_resister^(0+128),w
  1716  0D55  00AB               	movwf	Send_data@Value^(0+128)
  1717  0D56  120A  118A  2700  120A  158A  	fcall	_Send_data
  1718  0D5B                     l4430:
  1719                           
  1720                           ;main.c: 108:             LCDGotoXY(0,1);
  1721  0D5B  1683               	bsf	3,5	;RP0=1, select bank1
  1722  0D5C  1303               	bcf	3,6	;RP1=0, select bank1
  1723  0D5D  01A9               	clrf	LCDGotoXY@y^(0+128)
  1724  0D5E  0AA9               	incf	LCDGotoXY@y^(0+128),f
  1725  0D5F  3000               	movlw	0
  1726  0D60  160A  118A  22B8  120A  158A  	fcall	_LCDGotoXY
  1727  0D65                     l4432:
  1728                           
  1729                           ;main.c: 109:             LCDWriteInt(resister, 8);
  1730  0D65  1683               	bsf	3,5	;RP0=1, select bank1
  1731  0D66  1303               	bcf	3,6	;RP1=0, select bank1
  1732  0D67  086C               	movf	(_resister+1)^(0+128),w
  1733  0D68  00AA               	movwf	(LCDWriteInt@val+1)^(0+128)
  1734  0D69  086B               	movf	_resister^(0+128),w
  1735  0D6A  00A9               	movwf	LCDWriteInt@val^(0+128)
  1736  0D6B  3008               	movlw	8
  1737  0D6C  00FF               	movwf	btemp+1
  1738  0D6D  087F               	movf	btemp+1,w
  1739  0D6E  00AB               	movwf	LCDWriteInt@field_length^(0+128)
  1740  0D6F  160A  118A  2756  120A  158A  	fcall	_LCDWriteInt
  1741  0D74  2B7D               	goto	l4396
  1742  0D75  120A  118A  2812   	ljmp	start
  1743  0D78                     __end_of_main:
  1744                           
  1745                           	psect	text1
  1746  0804                     __ptext1:	
  1747 ;; *************** function ___fltol *****************
  1748 ;; Defined at:
  1749 ;;		line 43 in file "C:\Program Files\Microchip\xc8\v2.20\pic\sources\c90\common\fltol.c"
  1750 ;; Parameters:    Size  Location     Type
  1751 ;;  f1              4   69[BANK1 ] void 
  1752 ;; Auto vars:     Size  Location     Type
  1753 ;;  exp1            1   74[BANK1 ] unsigned char 
  1754 ;;  sign1           1   73[BANK1 ] unsigned char 
  1755 ;; Return value:  Size  Location     Type
  1756 ;;                  4   69[BANK1 ] long 
  1757 ;; Registers used:
  1758 ;;		wreg, status,2, status,0, btemp+1
  1759 ;; Tracked objects:
  1760 ;;		On entry : 0/0
  1761 ;;		On exit  : 0/0
  1762 ;;		Unchanged: 0/0
  1763 ;; Data sizes:     COMMON   BANK0   BANK1   BANK3   BANK2
  1764 ;;      Params:         0       0       4       0       0
  1765 ;;      Locals:         0       0       2       0       0
  1766 ;;      Temps:          0       0       0       4       0
  1767 ;;      Totals:         0       0       6       4       0
  1768 ;;Total ram usage:       10 bytes
  1769 ;; Hardware stack levels used:    1
  1770 ;; Hardware stack levels required when called:    3
  1771 ;; This function calls:
  1772 ;;		Nothing
  1773 ;; This function is called by:
  1774 ;;		_main
  1775 ;; This function uses a non-reentrant model
  1776 ;;
  1777                           
  1778                           
  1779                           ;psect for function ___fltol
  1780  0804                     ___fltol:
  1781  0804                     l4044:	
  1782                           ;incstack = 0
  1783                           ; Regs used in ___fltol: [wreg+status,2+status,0+btemp+1]
  1784                           
  1785  0804  1003               	clrc
  1786  0805  1683               	bsf	3,5	;RP0=1, select bank1
  1787  0806  1303               	bcf	3,6	;RP1=0, select bank1
  1788  0807  0D67               	rlf	(___fltol@f1+2)^(0+128),w
  1789  0808  0D68               	rlf	(___fltol@f1+3)^(0+128),w
  1790  0809  00FF               	movwf	btemp+1
  1791  080A  087F               	movf	btemp+1,w
  1792  080B  00EA               	movwf	___fltol@exp1^(0+128)
  1793  080C  086A               	movf	___fltol@exp1^(0+128),w
  1794  080D  1D03               	btfss	3,2
  1795  080E  2810               	goto	u6021
  1796  080F  2811               	goto	u6020
  1797  0810                     u6021:
  1798  0810  281A               	goto	l4050
  1799  0811                     u6020:
  1800  0811                     l4046:
  1801  0811  3000               	movlw	0
  1802  0812  00E8               	movwf	(?___fltol+3)^(0+128)
  1803  0813  3000               	movlw	0
  1804  0814  00E7               	movwf	(?___fltol+2)^(0+128)
  1805  0815  3000               	movlw	0
  1806  0816  00E6               	movwf	(?___fltol+1)^(0+128)
  1807  0817  3000               	movlw	0
  1808  0818  00E5               	movwf	?___fltol^(0+128)
  1809  0819  2897               	goto	l470
  1810  081A                     l4050:
  1811  081A  0865               	movf	___fltol@f1^(0+128),w
  1812  081B  1683               	bsf	3,5	;RP0=1, select bank3
  1813  081C  1703               	bsf	3,6	;RP1=1, select bank3
  1814  081D  00E4               	movwf	??___fltol^(0+384)
  1815  081E  1683               	bsf	3,5	;RP0=1, select bank1
  1816  081F  1303               	bcf	3,6	;RP1=0, select bank1
  1817  0820  0866               	movf	(___fltol@f1+1)^(0+128),w
  1818  0821  1683               	bsf	3,5	;RP0=1, select bank3
  1819  0822  1703               	bsf	3,6	;RP1=1, select bank3
  1820  0823  00E5               	movwf	(??___fltol^(0+384)+1)
  1821  0824  1683               	bsf	3,5	;RP0=1, select bank1
  1822  0825  1303               	bcf	3,6	;RP1=0, select bank1
  1823  0826  0867               	movf	(___fltol@f1+2)^(0+128),w
  1824  0827  1683               	bsf	3,5	;RP0=1, select bank3
  1825  0828  1703               	bsf	3,6	;RP1=1, select bank3
  1826  0829  00E6               	movwf	(??___fltol^(0+384)+2)
  1827  082A  1683               	bsf	3,5	;RP0=1, select bank1
  1828  082B  1303               	bcf	3,6	;RP1=0, select bank1
  1829  082C  0868               	movf	(___fltol@f1+3)^(0+128),w
  1830  082D  1683               	bsf	3,5	;RP0=1, select bank3
  1831  082E  1703               	bsf	3,6	;RP1=1, select bank3
  1832  082F  00E7               	movwf	(??___fltol^(0+384)+3)
  1833  0830  301F               	movlw	31
  1834  0831                     u6035:
  1835  0831  1003               	clrc
  1836  0832  0CE7               	rrf	(??___fltol^(0+384)+3),f
  1837  0833  0CE6               	rrf	(??___fltol^(0+384)+2),f
  1838  0834  0CE5               	rrf	(??___fltol^(0+384)+1),f
  1839  0835  0CE4               	rrf	??___fltol^(0+384),f
  1840  0836                     u6030:
  1841  0836  3EFF               	addlw	-1
  1842  0837  1D03               	skipz
  1843  0838  2831               	goto	u6035
  1844  0839  0864               	movf	??___fltol^(0+384),w
  1845  083A  00FF               	movwf	btemp+1
  1846  083B  087F               	movf	btemp+1,w
  1847  083C  1683               	bsf	3,5	;RP0=1, select bank1
  1848  083D  1303               	bcf	3,6	;RP1=0, select bank1
  1849  083E  00E9               	movwf	___fltol@sign1^(0+128)
  1850  083F                     l4052:
  1851  083F  17E7               	bsf	(___fltol@f1^(0+128)+2),7
  1852  0840                     l4054:
  1853  0840  30FF               	movlw	255
  1854  0841  05E5               	andwf	___fltol@f1^(0+128),f
  1855  0842  30FF               	movlw	255
  1856  0843  05E6               	andwf	(___fltol@f1+1)^(0+128),f
  1857  0844  30FF               	movlw	255
  1858  0845  05E7               	andwf	(___fltol@f1+2)^(0+128),f
  1859  0846  3000               	movlw	0
  1860  0847  05E8               	andwf	(___fltol@f1+3)^(0+128),f
  1861  0848                     l4056:
  1862  0848  3096               	movlw	150
  1863  0849  02EA               	subwf	___fltol@exp1^(0+128),f
  1864  084A                     l4058:
  1865  084A  1FEA               	btfss	___fltol@exp1^(0+128),7
  1866  084B  284D               	goto	u6041
  1867  084C  284E               	goto	u6040
  1868  084D                     u6041:
  1869  084D  2868               	goto	l4070
  1870  084E                     u6040:
  1871  084E                     l4060:
  1872  084E  086A               	movf	___fltol@exp1^(0+128),w
  1873  084F  3A80               	xorlw	128
  1874  0850  3E97               	addlw	151
  1875  0851  1803               	skipnc
  1876  0852  2854               	goto	u6051
  1877  0853  2855               	goto	u6050
  1878  0854                     u6051:
  1879  0854  2856               	goto	l4066
  1880  0855                     u6050:
  1881  0855  2811               	goto	l4046
  1882  0856                     l4066:
  1883  0856  3001               	movlw	1
  1884  0857                     u6065:
  1885  0857  1003               	clrc
  1886  0858  0CE8               	rrf	(___fltol@f1+3)^(0+128),f
  1887  0859  0CE7               	rrf	(___fltol@f1+2)^(0+128),f
  1888  085A  0CE6               	rrf	(___fltol@f1+1)^(0+128),f
  1889  085B  0CE5               	rrf	___fltol@f1^(0+128),f
  1890  085C  3EFF               	addlw	-1
  1891  085D  1D03               	skipz
  1892  085E  2857               	goto	u6065
  1893  085F                     l4068:
  1894  085F  3001               	movlw	1
  1895  0860  00FF               	movwf	btemp+1
  1896  0861  087F               	movf	btemp+1,w
  1897  0862  07EA               	addwf	___fltol@exp1^(0+128),f
  1898  0863  1D03               	btfss	3,2
  1899  0864  2866               	goto	u6071
  1900  0865  2867               	goto	u6070
  1901  0866                     u6071:
  1902  0866  2856               	goto	l4066
  1903  0867                     u6070:
  1904  0867  2887               	goto	l4078
  1905  0868                     l4070:
  1906  0868  3020               	movlw	32
  1907  0869  026A               	subwf	___fltol@exp1^(0+128),w
  1908  086A  1C03               	skipc
  1909  086B  286D               	goto	u6081
  1910  086C  286E               	goto	u6080
  1911  086D                     u6081:
  1912  086D  2882               	goto	l477
  1913  086E                     u6080:
  1914  086E  2811               	goto	l4046
  1915  086F                     l4076:
  1916  086F  3001               	movlw	1
  1917  0870  1683               	bsf	3,5	;RP0=1, select bank3
  1918  0871  1703               	bsf	3,6	;RP1=1, select bank3
  1919  0872  00E4               	movwf	??___fltol^(0+384)
  1920  0873                     u6095:
  1921  0873  1003               	clrc
  1922  0874  1683               	bsf	3,5	;RP0=1, select bank1
  1923  0875  1303               	bcf	3,6	;RP1=0, select bank1
  1924  0876  0DE5               	rlf	___fltol@f1^(0+128),f
  1925  0877  0DE6               	rlf	(___fltol@f1+1)^(0+128),f
  1926  0878  0DE7               	rlf	(___fltol@f1+2)^(0+128),f
  1927  0879  0DE8               	rlf	(___fltol@f1+3)^(0+128),f
  1928  087A  1683               	bsf	3,5	;RP0=1, select bank3
  1929  087B  1703               	bsf	3,6	;RP1=1, select bank3
  1930  087C  0BE4               	decfsz	??___fltol^(0+384),f
  1931  087D  2873               	goto	u6095
  1932  087E  3001               	movlw	1
  1933  087F  1683               	bsf	3,5	;RP0=1, select bank1
  1934  0880  1303               	bcf	3,6	;RP1=0, select bank1
  1935  0881  02EA               	subwf	___fltol@exp1^(0+128),f
  1936  0882                     l477:
  1937  0882  086A               	movf	___fltol@exp1^(0+128),w
  1938  0883  1D03               	btfss	3,2
  1939  0884  2886               	goto	u6101
  1940  0885  2887               	goto	u6100
  1941  0886                     u6101:
  1942  0886  286F               	goto	l4076
  1943  0887                     u6100:
  1944  0887                     l4078:
  1945  0887  0869               	movf	___fltol@sign1^(0+128),w
  1946  0888  1903               	btfsc	3,2
  1947  0889  288B               	goto	u6111
  1948  088A  288C               	goto	u6110
  1949  088B                     u6111:
  1950  088B  2897               	goto	l480
  1951  088C                     u6110:
  1952  088C                     l4080:
  1953  088C  09E5               	comf	___fltol@f1^(0+128),f
  1954  088D  09E6               	comf	(___fltol@f1+1)^(0+128),f
  1955  088E  09E7               	comf	(___fltol@f1+2)^(0+128),f
  1956  088F  09E8               	comf	(___fltol@f1+3)^(0+128),f
  1957  0890  0AE5               	incf	___fltol@f1^(0+128),f
  1958  0891  1903               	skipnz
  1959  0892  0AE6               	incf	(___fltol@f1+1)^(0+128),f
  1960  0893  1903               	skipnz
  1961  0894  0AE7               	incf	(___fltol@f1+2)^(0+128),f
  1962  0895  1903               	skipnz
  1963  0896  0AE8               	incf	(___fltol@f1+3)^(0+128),f
  1964  0897                     l480:
  1965  0897                     l470:
  1966  0897  0008               	return
  1967  0898                     __end_of___fltol:
  1968                           
  1969                           	psect	text2
  1970  1244                     __ptext2:	
  1971 ;; *************** function ___flsub *****************
  1972 ;; Defined at:
  1973 ;;		line 242 in file "C:\Program Files\Microchip\xc8\v2.20\pic\sources\c90\common\sprcadd.c"
  1974 ;; Parameters:    Size  Location     Type
  1975 ;;  a               4   61[BANK1 ] long 
  1976 ;;  b               4   65[BANK1 ] long 
  1977 ;; Auto vars:     Size  Location     Type
  1978 ;;		None
  1979 ;; Return value:  Size  Location     Type
  1980 ;;                  4   61[BANK1 ] long 
  1981 ;; Registers used:
  1982 ;;		wreg, status,2, status,0, btemp+1, pclath, cstack
  1983 ;; Tracked objects:
  1984 ;;		On entry : 0/0
  1985 ;;		On exit  : 0/0
  1986 ;;		Unchanged: 0/0
  1987 ;; Data sizes:     COMMON   BANK0   BANK1   BANK3   BANK2
  1988 ;;      Params:         0       0       8       0       0
  1989 ;;      Locals:         0       0       0       0       0
  1990 ;;      Temps:          0       0       0       0       0
  1991 ;;      Totals:         0       0       8       0       0
  1992 ;;Total ram usage:        8 bytes
  1993 ;; Hardware stack levels used:    1
  1994 ;; Hardware stack levels required when called:    4
  1995 ;; This function calls:
  1996 ;;		___fladd
  1997 ;; This function is called by:
  1998 ;;		_main
  1999 ;; This function uses a non-reentrant model
  2000 ;;
  2001                           
  2002                           
  2003                           ;psect for function ___flsub
  2004  1244                     ___flsub:
  2005  1244                     l4082:	
  2006                           ;incstack = 0
  2007                           ; Regs used in ___flsub: [wreg+status,2+status,0+btemp+1+pclath+cstack]
  2008                           
  2009  1244  3080               	movlw	128
  2010  1245  1683               	bsf	3,5	;RP0=1, select bank1
  2011  1246  1303               	bcf	3,6	;RP1=0, select bank1
  2012  1247  06E0               	xorwf	(___flsub@a+3)^(0+128),f
  2013  1248                     l4084:
  2014  1248  0864               	movf	(___flsub@b+3)^(0+128),w
  2015  1249  00A3               	movwf	(___fladd@b+3)^(0+128)
  2016  124A  0863               	movf	(___flsub@b+2)^(0+128),w
  2017  124B  00A2               	movwf	(___fladd@b+2)^(0+128)
  2018  124C  0862               	movf	(___flsub@b+1)^(0+128),w
  2019  124D  00A1               	movwf	(___fladd@b+1)^(0+128)
  2020  124E  0861               	movf	___flsub@b^(0+128),w
  2021  124F  00A0               	movwf	___fladd@b^(0+128)
  2022  1250  0860               	movf	(___flsub@a+3)^(0+128),w
  2023  1251  00A7               	movwf	(___fladd@a+3)^(0+128)
  2024  1252  085F               	movf	(___flsub@a+2)^(0+128),w
  2025  1253  00A6               	movwf	(___fladd@a+2)^(0+128)
  2026  1254  085E               	movf	(___flsub@a+1)^(0+128),w
  2027  1255  00A5               	movwf	(___fladd@a+1)^(0+128)
  2028  1256  085D               	movf	___flsub@a^(0+128),w
  2029  1257  00A4               	movwf	___fladd@a^(0+128)
  2030  1258  120A  158A  2578  160A  118A  	fcall	___fladd
  2031  125D  1683               	bsf	3,5	;RP0=1, select bank1
  2032  125E  1303               	bcf	3,6	;RP1=0, select bank1
  2033  125F  0823               	movf	(?___fladd+3)^(0+128),w
  2034  1260  00E0               	movwf	(?___flsub+3)^(0+128)
  2035  1261  0822               	movf	(?___fladd+2)^(0+128),w
  2036  1262  00DF               	movwf	(?___flsub+2)^(0+128)
  2037  1263  0821               	movf	(?___fladd+1)^(0+128),w
  2038  1264  00DE               	movwf	(?___flsub+1)^(0+128)
  2039  1265  0820               	movf	?___fladd^(0+128),w
  2040  1266  00DD               	movwf	?___flsub^(0+128)
  2041  1267                     l623:
  2042  1267  0008               	return
  2043  1268                     __end_of___flsub:
  2044                           
  2045                           	psect	text3
  2046  0D78                     __ptext3:	
  2047 ;; *************** function ___fladd *****************
  2048 ;; Defined at:
  2049 ;;		line 10 in file "C:\Program Files\Microchip\xc8\v2.20\pic\sources\c90\common\sprcadd.c"
  2050 ;; Parameters:    Size  Location     Type
  2051 ;;  b               4    0[BANK1 ] long 
  2052 ;;  a               4    4[BANK1 ] long 
  2053 ;; Auto vars:     Size  Location     Type
  2054 ;;  grs             1   19[BANK1 ] unsigned char 
  2055 ;;  bexp            1   18[BANK1 ] unsigned char 
  2056 ;;  aexp            1   17[BANK1 ] unsigned char 
  2057 ;;  signs           1   16[BANK1 ] unsigned char 
  2058 ;; Return value:  Size  Location     Type
  2059 ;;                  4    0[BANK1 ] unsigned char 
  2060 ;; Registers used:
  2061 ;;		wreg, status,2, status,0, btemp+1
  2062 ;; Tracked objects:
  2063 ;;		On entry : 0/0
  2064 ;;		On exit  : 0/0
  2065 ;;		Unchanged: 0/0
  2066 ;; Data sizes:     COMMON   BANK0   BANK1   BANK3   BANK2
  2067 ;;      Params:         0       0       8       0       0
  2068 ;;      Locals:         0       0       4       0       0
  2069 ;;      Temps:          0       0       8       0       0
  2070 ;;      Totals:         0       0      20       0       0
  2071 ;;Total ram usage:       20 bytes
  2072 ;; Hardware stack levels used:    1
  2073 ;; Hardware stack levels required when called:    3
  2074 ;; This function calls:
  2075 ;;		Nothing
  2076 ;; This function is called by:
  2077 ;;		___flsub
  2078 ;; This function uses a non-reentrant model
  2079 ;;
  2080                           
  2081                           
  2082                           ;psect for function ___fladd
  2083  0D78                     ___fladd:
  2084  0D78                     l3650:	
  2085                           ;incstack = 0
  2086                           ; Regs used in ___fladd: [wreg+status,2+status,0+btemp+1]
  2087                           
  2088  0D78  1683               	bsf	3,5	;RP0=1, select bank1
  2089  0D79  1303               	bcf	3,6	;RP1=0, select bank1
  2090  0D7A  0823               	movf	(___fladd@b^(0+128)+3),w
  2091  0D7B  3980               	andlw	128
  2092  0D7C  00FF               	movwf	btemp+1
  2093  0D7D  087F               	movf	btemp+1,w
  2094  0D7E  00B0               	movwf	___fladd@signs^(0+128)
  2095  0D7F                     l3652:
  2096  0D7F  0823               	movf	(___fladd@b^(0+128)+3),w
  2097  0D80  00A8               	movwf	??___fladd^(0+128)
  2098  0D81  0728               	addwf	??___fladd^(0+128),w
  2099  0D82  00FF               	movwf	btemp+1
  2100  0D83  087F               	movf	btemp+1,w
  2101  0D84  00B2               	movwf	___fladd@bexp^(0+128)
  2102  0D85                     l3654:
  2103  0D85  1FA2               	btfss	(___fladd@b^(0+128)+2),7
  2104  0D86  2D88               	goto	u5391
  2105  0D87  2D89               	goto	u5390
  2106  0D88                     u5391:
  2107  0D88  2D8A               	goto	l3658
  2108  0D89                     u5390:
  2109  0D89                     l3656:
  2110  0D89  1432               	bsf	___fladd@bexp^(0+128),0
  2111  0D8A                     l3658:
  2112  0D8A  0832               	movf	___fladd@bexp^(0+128),w
  2113  0D8B  1903               	btfsc	3,2
  2114  0D8C  2D8E               	goto	u5401
  2115  0D8D  2D8F               	goto	u5400
  2116  0D8E                     u5401:
  2117  0D8E  2D9F               	goto	l3668
  2118  0D8F                     u5400:
  2119  0D8F                     l3660:
  2120  0D8F  0A32               	incf	___fladd@bexp^(0+128),w
  2121  0D90  1D03               	btfss	3,2
  2122  0D91  2D93               	goto	u5411
  2123  0D92  2D94               	goto	u5410
  2124  0D93                     u5411:
  2125  0D93  2D9C               	goto	l3664
  2126  0D94                     u5410:
  2127  0D94                     l3662:
  2128  0D94  3000               	movlw	0
  2129  0D95  00A3               	movwf	(___fladd@b+3)^(0+128)
  2130  0D96  3000               	movlw	0
  2131  0D97  00A2               	movwf	(___fladd@b+2)^(0+128)
  2132  0D98  3000               	movlw	0
  2133  0D99  00A1               	movwf	(___fladd@b+1)^(0+128)
  2134  0D9A  3000               	movlw	0
  2135  0D9B  00A0               	movwf	___fladd@b^(0+128)
  2136  0D9C                     l3664:
  2137  0D9C  17A2               	bsf	(___fladd@b^(0+128)+2),7
  2138  0D9D                     l3666:
  2139  0D9D  01A3               	clrf	(___fladd@b^(0+128)+3)
  2140  0D9E  2DA7               	goto	l3670
  2141  0D9F                     l3668:
  2142  0D9F  3000               	movlw	0
  2143  0DA0  00A3               	movwf	(___fladd@b+3)^(0+128)
  2144  0DA1  3000               	movlw	0
  2145  0DA2  00A2               	movwf	(___fladd@b+2)^(0+128)
  2146  0DA3  3000               	movlw	0
  2147  0DA4  00A1               	movwf	(___fladd@b+1)^(0+128)
  2148  0DA5  3000               	movlw	0
  2149  0DA6  00A0               	movwf	___fladd@b^(0+128)
  2150  0DA7                     l3670:
  2151  0DA7  0827               	movf	(___fladd@a^(0+128)+3),w
  2152  0DA8  3980               	andlw	128
  2153  0DA9  00FF               	movwf	btemp+1
  2154  0DAA  087F               	movf	btemp+1,w
  2155  0DAB  00B1               	movwf	___fladd@aexp^(0+128)
  2156  0DAC                     l3672:
  2157  0DAC  0831               	movf	___fladd@aexp^(0+128),w
  2158  0DAD  0630               	xorwf	___fladd@signs^(0+128),w
  2159  0DAE  1903               	skipnz
  2160  0DAF  2DB1               	goto	u5421
  2161  0DB0  2DB2               	goto	u5420
  2162  0DB1                     u5421:
  2163  0DB1  2DB3               	goto	l3676
  2164  0DB2                     u5420:
  2165  0DB2                     l3674:
  2166  0DB2  1730               	bsf	___fladd@signs^(0+128),6
  2167  0DB3                     l3676:
  2168  0DB3  0827               	movf	(___fladd@a^(0+128)+3),w
  2169  0DB4  00A8               	movwf	??___fladd^(0+128)
  2170  0DB5  0728               	addwf	??___fladd^(0+128),w
  2171  0DB6  00FF               	movwf	btemp+1
  2172  0DB7  087F               	movf	btemp+1,w
  2173  0DB8  00B1               	movwf	___fladd@aexp^(0+128)
  2174  0DB9                     l3678:
  2175  0DB9  1FA6               	btfss	(___fladd@a^(0+128)+2),7
  2176  0DBA  2DBC               	goto	u5431
  2177  0DBB  2DBD               	goto	u5430
  2178  0DBC                     u5431:
  2179  0DBC  2DBE               	goto	l3682
  2180  0DBD                     u5430:
  2181  0DBD                     l3680:
  2182  0DBD  1431               	bsf	___fladd@aexp^(0+128),0
  2183  0DBE                     l3682:
  2184  0DBE  0831               	movf	___fladd@aexp^(0+128),w
  2185  0DBF  1903               	btfsc	3,2
  2186  0DC0  2DC2               	goto	u5441
  2187  0DC1  2DC3               	goto	u5440
  2188  0DC2                     u5441:
  2189  0DC2  2DD3               	goto	l3692
  2190  0DC3                     u5440:
  2191  0DC3                     l3684:
  2192  0DC3  0A31               	incf	___fladd@aexp^(0+128),w
  2193  0DC4  1D03               	btfss	3,2
  2194  0DC5  2DC7               	goto	u5451
  2195  0DC6  2DC8               	goto	u5450
  2196  0DC7                     u5451:
  2197  0DC7  2DD0               	goto	l3688
  2198  0DC8                     u5450:
  2199  0DC8                     l3686:
  2200  0DC8  3000               	movlw	0
  2201  0DC9  00A7               	movwf	(___fladd@a+3)^(0+128)
  2202  0DCA  3000               	movlw	0
  2203  0DCB  00A6               	movwf	(___fladd@a+2)^(0+128)
  2204  0DCC  3000               	movlw	0
  2205  0DCD  00A5               	movwf	(___fladd@a+1)^(0+128)
  2206  0DCE  3000               	movlw	0
  2207  0DCF  00A4               	movwf	___fladd@a^(0+128)
  2208  0DD0                     l3688:
  2209  0DD0  17A6               	bsf	(___fladd@a^(0+128)+2),7
  2210  0DD1                     l3690:
  2211  0DD1  01A7               	clrf	(___fladd@a^(0+128)+3)
  2212  0DD2  2DDB               	goto	l577
  2213  0DD3                     l3692:
  2214  0DD3  3000               	movlw	0
  2215  0DD4  00A7               	movwf	(___fladd@a+3)^(0+128)
  2216  0DD5  3000               	movlw	0
  2217  0DD6  00A6               	movwf	(___fladd@a+2)^(0+128)
  2218  0DD7  3000               	movlw	0
  2219  0DD8  00A5               	movwf	(___fladd@a+1)^(0+128)
  2220  0DD9  3000               	movlw	0
  2221  0DDA  00A4               	movwf	___fladd@a^(0+128)
  2222  0DDB                     l577:
  2223  0DDB  0832               	movf	___fladd@bexp^(0+128),w
  2224  0DDC  0231               	subwf	___fladd@aexp^(0+128),w
  2225  0DDD  1803               	skipnc
  2226  0DDE  2DE0               	goto	u5461
  2227  0DDF  2DE1               	goto	u5460
  2228  0DE0                     u5461:
  2229  0DE0  2E25               	goto	l3728
  2230  0DE1                     u5460:
  2231  0DE1                     l3694:
  2232  0DE1  1F30               	btfss	___fladd@signs^(0+128),6
  2233  0DE2  2DE4               	goto	u5471
  2234  0DE3  2DE5               	goto	u5470
  2235  0DE4                     u5471:
  2236  0DE4  2DE9               	goto	l3698
  2237  0DE5                     u5470:
  2238  0DE5                     l3696:
  2239  0DE5  3080               	movlw	128
  2240  0DE6  00FF               	movwf	btemp+1
  2241  0DE7  087F               	movf	btemp+1,w
  2242  0DE8  06B0               	xorwf	___fladd@signs^(0+128),f
  2243  0DE9                     l3698:
  2244  0DE9  0832               	movf	___fladd@bexp^(0+128),w
  2245  0DEA  00FF               	movwf	btemp+1
  2246  0DEB  087F               	movf	btemp+1,w
  2247  0DEC  00B3               	movwf	___fladd@grs^(0+128)
  2248  0DED                     l3700:
  2249  0DED  0831               	movf	___fladd@aexp^(0+128),w
  2250  0DEE  00FF               	movwf	btemp+1
  2251  0DEF  087F               	movf	btemp+1,w
  2252  0DF0  00B2               	movwf	___fladd@bexp^(0+128)
  2253  0DF1                     l3702:
  2254  0DF1  0833               	movf	___fladd@grs^(0+128),w
  2255  0DF2  00FF               	movwf	btemp+1
  2256  0DF3  087F               	movf	btemp+1,w
  2257  0DF4  00B1               	movwf	___fladd@aexp^(0+128)
  2258  0DF5                     l3704:
  2259  0DF5  0820               	movf	___fladd@b^(0+128),w
  2260  0DF6  00FF               	movwf	btemp+1
  2261  0DF7  087F               	movf	btemp+1,w
  2262  0DF8  00B3               	movwf	___fladd@grs^(0+128)
  2263  0DF9                     l3706:
  2264  0DF9  0824               	movf	___fladd@a^(0+128),w
  2265  0DFA  00FF               	movwf	btemp+1
  2266  0DFB  087F               	movf	btemp+1,w
  2267  0DFC  00A0               	movwf	___fladd@b^(0+128)
  2268  0DFD                     l3708:
  2269  0DFD  0833               	movf	___fladd@grs^(0+128),w
  2270  0DFE  00FF               	movwf	btemp+1
  2271  0DFF  087F               	movf	btemp+1,w
  2272  0E00  00A4               	movwf	___fladd@a^(0+128)
  2273  0E01                     l3710:
  2274  0E01  0821               	movf	(___fladd@b^(0+128)+1),w
  2275  0E02  00FF               	movwf	btemp+1
  2276  0E03  087F               	movf	btemp+1,w
  2277  0E04  00B3               	movwf	___fladd@grs^(0+128)
  2278  0E05                     l3712:
  2279  0E05  0825               	movf	(___fladd@a^(0+128)+1),w
  2280  0E06  00FF               	movwf	btemp+1
  2281  0E07  087F               	movf	btemp+1,w
  2282  0E08  00A1               	movwf	(___fladd@b^(0+128)+1)
  2283  0E09                     l3714:
  2284  0E09  0833               	movf	___fladd@grs^(0+128),w
  2285  0E0A  00FF               	movwf	btemp+1
  2286  0E0B  087F               	movf	btemp+1,w
  2287  0E0C  00A5               	movwf	(___fladd@a^(0+128)+1)
  2288  0E0D                     l3716:
  2289  0E0D  0822               	movf	(___fladd@b^(0+128)+2),w
  2290  0E0E  00FF               	movwf	btemp+1
  2291  0E0F  087F               	movf	btemp+1,w
  2292  0E10  00B3               	movwf	___fladd@grs^(0+128)
  2293  0E11                     l3718:
  2294  0E11  0826               	movf	(___fladd@a^(0+128)+2),w
  2295  0E12  00FF               	movwf	btemp+1
  2296  0E13  087F               	movf	btemp+1,w
  2297  0E14  00A2               	movwf	(___fladd@b^(0+128)+2)
  2298  0E15                     l3720:
  2299  0E15  0833               	movf	___fladd@grs^(0+128),w
  2300  0E16  00FF               	movwf	btemp+1
  2301  0E17  087F               	movf	btemp+1,w
  2302  0E18  00A6               	movwf	(___fladd@a^(0+128)+2)
  2303  0E19                     l3722:
  2304  0E19  0823               	movf	(___fladd@b^(0+128)+3),w
  2305  0E1A  00FF               	movwf	btemp+1
  2306  0E1B  087F               	movf	btemp+1,w
  2307  0E1C  00B3               	movwf	___fladd@grs^(0+128)
  2308  0E1D                     l3724:
  2309  0E1D  0827               	movf	(___fladd@a^(0+128)+3),w
  2310  0E1E  00FF               	movwf	btemp+1
  2311  0E1F  087F               	movf	btemp+1,w
  2312  0E20  00A3               	movwf	(___fladd@b^(0+128)+3)
  2313  0E21                     l3726:
  2314  0E21  0833               	movf	___fladd@grs^(0+128),w
  2315  0E22  00FF               	movwf	btemp+1
  2316  0E23  087F               	movf	btemp+1,w
  2317  0E24  00A7               	movwf	(___fladd@a^(0+128)+3)
  2318  0E25                     l3728:
  2319  0E25  01B3               	clrf	___fladd@grs^(0+128)
  2320  0E26                     l3730:
  2321  0E26  0831               	movf	___fladd@aexp^(0+128),w
  2322  0E27  00A8               	movwf	??___fladd^(0+128)
  2323  0E28  01A9               	clrf	(??___fladd^(0+128)+1)
  2324  0E29  0829               	movf	(??___fladd+1)^(0+128),w
  2325  0E2A  00AB               	movwf	((??___fladd+2)^(0+128)+1)
  2326  0E2B  0832               	movf	___fladd@bexp^(0+128),w
  2327  0E2C  0228               	subwf	??___fladd^(0+128),w
  2328  0E2D  00AA               	movwf	(??___fladd+2)^(0+128)
  2329  0E2E  1C03               	skipc
  2330  0E2F  03AB               	decf	((??___fladd+2)^(0+128)+1),f
  2331  0E30  082B               	movf	(??___fladd+3)^(0+128),w
  2332  0E31  3A80               	xorlw	128
  2333  0E32  00FF               	movwf	btemp+1
  2334  0E33  3080               	movlw	128
  2335  0E34  027F               	subwf	btemp+1,w
  2336  0E35  1D03               	skipz
  2337  0E36  2E39               	goto	u5485
  2338  0E37  301A               	movlw	26
  2339  0E38  022A               	subwf	(??___fladd+2)^(0+128),w
  2340  0E39                     u5485:
  2341  0E39  1C03               	skipc
  2342  0E3A  2E3C               	goto	u5481
  2343  0E3B  2E3D               	goto	u5480
  2344  0E3C                     u5481:
  2345  0E3C  2E7A               	goto	l3750
  2346  0E3D                     u5480:
  2347  0E3D                     l3732:
  2348  0E3D  1683               	bsf	3,5	;RP0=1, select bank1
  2349  0E3E  1303               	bcf	3,6	;RP1=0, select bank1
  2350  0E3F  0823               	movf	(___fladd@b+3)^(0+128),w
  2351  0E40  0422               	iorwf	(___fladd@b+2)^(0+128),w
  2352  0E41  0421               	iorwf	(___fladd@b+1)^(0+128),w
  2353  0E42  0420               	iorwf	___fladd@b^(0+128),w
  2354  0E43  1D03               	skipz
  2355  0E44  2E46               	goto	u5491
  2356  0E45  2E48               	goto	u5490
  2357  0E46                     u5491:
  2358  0E46  3001               	movlw	1
  2359  0E47  2E49               	goto	u5500
  2360  0E48                     u5490:
  2361  0E48  3000               	movlw	0
  2362  0E49                     u5500:
  2363  0E49  00FF               	movwf	btemp+1
  2364  0E4A  087F               	movf	btemp+1,w
  2365  0E4B  00B3               	movwf	___fladd@grs^(0+128)
  2366  0E4C                     l3734:
  2367  0E4C  3000               	movlw	0
  2368  0E4D  00A3               	movwf	(___fladd@b+3)^(0+128)
  2369  0E4E  3000               	movlw	0
  2370  0E4F  00A2               	movwf	(___fladd@b+2)^(0+128)
  2371  0E50  3000               	movlw	0
  2372  0E51  00A1               	movwf	(___fladd@b+1)^(0+128)
  2373  0E52  3000               	movlw	0
  2374  0E53  00A0               	movwf	___fladd@b^(0+128)
  2375  0E54                     l3736:
  2376  0E54  0831               	movf	___fladd@aexp^(0+128),w
  2377  0E55  00FF               	movwf	btemp+1
  2378  0E56  087F               	movf	btemp+1,w
  2379  0E57  00B2               	movwf	___fladd@bexp^(0+128)
  2380  0E58  2E82               	goto	l581
  2381  0E59                     l583:
  2382  0E59  1C33               	btfss	___fladd@grs^(0+128),0
  2383  0E5A  2E5C               	goto	u5511
  2384  0E5B  2E5D               	goto	u5510
  2385  0E5C                     u5511:
  2386  0E5C  2E66               	goto	l3740
  2387  0E5D                     u5510:
  2388  0E5D                     l3738:
  2389  0E5D  0833               	movf	___fladd@grs^(0+128),w
  2390  0E5E  00A8               	movwf	??___fladd^(0+128)
  2391  0E5F  1003               	clrc
  2392  0E60  0C28               	rrf	??___fladd^(0+128),w
  2393  0E61  3801               	iorlw	1
  2394  0E62  00FF               	movwf	btemp+1
  2395  0E63  087F               	movf	btemp+1,w
  2396  0E64  00B3               	movwf	___fladd@grs^(0+128)
  2397  0E65  2E68               	goto	l3742
  2398  0E66                     l3740:
  2399  0E66  1003               	clrc
  2400  0E67  0CB3               	rrf	___fladd@grs^(0+128),f
  2401  0E68                     l3742:
  2402  0E68  1C20               	btfss	___fladd@b^(0+128),0
  2403  0E69  2E6B               	goto	u5521
  2404  0E6A  2E6C               	goto	u5520
  2405  0E6B                     u5521:
  2406  0E6B  2E6D               	goto	l3746
  2407  0E6C                     u5520:
  2408  0E6C                     l3744:
  2409  0E6C  17B3               	bsf	___fladd@grs^(0+128),7
  2410  0E6D                     l3746:
  2411  0E6D  3001               	movlw	1
  2412  0E6E  00A8               	movwf	??___fladd^(0+128)
  2413  0E6F                     u5535:
  2414  0E6F  0D23               	rlf	(___fladd@b+3)^(0+128),w
  2415  0E70  0CA3               	rrf	(___fladd@b+3)^(0+128),f
  2416  0E71  0CA2               	rrf	(___fladd@b+2)^(0+128),f
  2417  0E72  0CA1               	rrf	(___fladd@b+1)^(0+128),f
  2418  0E73  0CA0               	rrf	___fladd@b^(0+128),f
  2419  0E74  0BA8               	decfsz	(??___fladd^(0+128))& (0+127),f
  2420  0E75  2E6F               	goto	u5535
  2421  0E76                     l3748:
  2422  0E76  3001               	movlw	1
  2423  0E77  00FF               	movwf	btemp+1
  2424  0E78  087F               	movf	btemp+1,w
  2425  0E79  07B2               	addwf	___fladd@bexp^(0+128),f
  2426  0E7A                     l3750:
  2427  0E7A  1683               	bsf	3,5	;RP0=1, select bank1
  2428  0E7B  1303               	bcf	3,6	;RP1=0, select bank1
  2429  0E7C  0831               	movf	___fladd@aexp^(0+128),w
  2430  0E7D  0232               	subwf	___fladd@bexp^(0+128),w
  2431  0E7E  1C03               	skipc
  2432  0E7F  2E81               	goto	u5541
  2433  0E80  2E82               	goto	u5540
  2434  0E81                     u5541:
  2435  0E81  2E59               	goto	l583
  2436  0E82                     u5540:
  2437  0E82                     l581:
  2438  0E82  1B30               	btfsc	___fladd@signs^(0+128),6
  2439  0E83  2E85               	goto	u5551
  2440  0E84  2E86               	goto	u5550
  2441  0E85                     u5551:
  2442  0E85  2ED1               	goto	l3776
  2443  0E86                     u5550:
  2444  0E86                     l3752:
  2445  0E86  0832               	movf	___fladd@bexp^(0+128),w
  2446  0E87  1D03               	btfss	3,2
  2447  0E88  2E8A               	goto	u5561
  2448  0E89  2E8B               	goto	u5560
  2449  0E8A                     u5561:
  2450  0E8A  2E94               	goto	l3758
  2451  0E8B                     u5560:
  2452  0E8B                     l3754:
  2453  0E8B  3000               	movlw	0
  2454  0E8C  00A3               	movwf	(?___fladd+3)^(0+128)
  2455  0E8D  3000               	movlw	0
  2456  0E8E  00A2               	movwf	(?___fladd+2)^(0+128)
  2457  0E8F  3000               	movlw	0
  2458  0E90  00A1               	movwf	(?___fladd+1)^(0+128)
  2459  0E91  3000               	movlw	0
  2460  0E92  00A0               	movwf	?___fladd^(0+128)
  2461  0E93  2FFF               	goto	l590
  2462  0E94                     l3758:
  2463  0E94  0824               	movf	___fladd@a^(0+128),w
  2464  0E95  07A0               	addwf	___fladd@b^(0+128),f
  2465  0E96  0825               	movf	(___fladd@a+1)^(0+128),w
  2466  0E97  1103               	clrz
  2467  0E98  1803               	skipnc
  2468  0E99  3E01               	addlw	1
  2469  0E9A  1903               	skipnz
  2470  0E9B  2E9D               	goto	u5571
  2471  0E9C  07A1               	addwf	(___fladd@b+1)^(0+128),f
  2472  0E9D                     u5571:
  2473  0E9D  0826               	movf	(___fladd@a+2)^(0+128),w
  2474  0E9E  1103               	clrz
  2475  0E9F  1803               	skipnc
  2476  0EA0  3E01               	addlw	1
  2477  0EA1  1903               	skipnz
  2478  0EA2  2EA4               	goto	u5572
  2479  0EA3  07A2               	addwf	(___fladd@b+2)^(0+128),f
  2480  0EA4                     u5572:
  2481  0EA4  0827               	movf	(___fladd@a+3)^(0+128),w
  2482  0EA5  1103               	clrz
  2483  0EA6  1803               	skipnc
  2484  0EA7  3E01               	addlw	1
  2485  0EA8  1903               	skipnz
  2486  0EA9  2EAB               	goto	u5573
  2487  0EAA  07A3               	addwf	(___fladd@b+3)^(0+128),f
  2488  0EAB                     u5573:
  2489  0EAB                     l3760:
  2490  0EAB  1C23               	btfss	(___fladd@b+3)^(0+128),0
  2491  0EAC  2EAE               	goto	u5581
  2492  0EAD  2EAF               	goto	u5580
  2493  0EAE                     u5581:
  2494  0EAE  2F85               	goto	l3812
  2495  0EAF                     u5580:
  2496  0EAF                     l3762:
  2497  0EAF  1C33               	btfss	___fladd@grs^(0+128),0
  2498  0EB0  2EB2               	goto	u5591
  2499  0EB1  2EB3               	goto	u5590
  2500  0EB2                     u5591:
  2501  0EB2  2EBC               	goto	l3766
  2502  0EB3                     u5590:
  2503  0EB3                     l3764:
  2504  0EB3  0833               	movf	___fladd@grs^(0+128),w
  2505  0EB4  00A8               	movwf	??___fladd^(0+128)
  2506  0EB5  1003               	clrc
  2507  0EB6  0C28               	rrf	??___fladd^(0+128),w
  2508  0EB7  3801               	iorlw	1
  2509  0EB8  00FF               	movwf	btemp+1
  2510  0EB9  087F               	movf	btemp+1,w
  2511  0EBA  00B3               	movwf	___fladd@grs^(0+128)
  2512  0EBB  2EBE               	goto	l3768
  2513  0EBC                     l3766:
  2514  0EBC  1003               	clrc
  2515  0EBD  0CB3               	rrf	___fladd@grs^(0+128),f
  2516  0EBE                     l3768:
  2517  0EBE  1C20               	btfss	___fladd@b^(0+128),0
  2518  0EBF  2EC1               	goto	u5601
  2519  0EC0  2EC2               	goto	u5600
  2520  0EC1                     u5601:
  2521  0EC1  2EC3               	goto	l3772
  2522  0EC2                     u5600:
  2523  0EC2                     l3770:
  2524  0EC2  17B3               	bsf	___fladd@grs^(0+128),7
  2525  0EC3                     l3772:
  2526  0EC3  3001               	movlw	1
  2527  0EC4  00A8               	movwf	??___fladd^(0+128)
  2528  0EC5                     u5615:
  2529  0EC5  0D23               	rlf	(___fladd@b+3)^(0+128),w
  2530  0EC6  0CA3               	rrf	(___fladd@b+3)^(0+128),f
  2531  0EC7  0CA2               	rrf	(___fladd@b+2)^(0+128),f
  2532  0EC8  0CA1               	rrf	(___fladd@b+1)^(0+128),f
  2533  0EC9  0CA0               	rrf	___fladd@b^(0+128),f
  2534  0ECA  0BA8               	decfsz	(??___fladd^(0+128))& (0+127),f
  2535  0ECB  2EC5               	goto	u5615
  2536  0ECC                     l3774:
  2537  0ECC  3001               	movlw	1
  2538  0ECD  00FF               	movwf	btemp+1
  2539  0ECE  087F               	movf	btemp+1,w
  2540  0ECF  07B2               	addwf	___fladd@bexp^(0+128),f
  2541  0ED0  2F85               	goto	l3812
  2542  0ED1                     l3776:
  2543  0ED1  0823               	movf	(___fladd@b+3)^(0+128),w
  2544  0ED2  3A80               	xorlw	128
  2545  0ED3  00FF               	movwf	btemp+1
  2546  0ED4  0827               	movf	(___fladd@a+3)^(0+128),w
  2547  0ED5  3A80               	xorlw	128
  2548  0ED6  027F               	subwf	btemp+1,w
  2549  0ED7  1D03               	skipz
  2550  0ED8  2EE3               	goto	u5623
  2551  0ED9  0826               	movf	(___fladd@a+2)^(0+128),w
  2552  0EDA  0222               	subwf	(___fladd@b+2)^(0+128),w
  2553  0EDB  1D03               	skipz
  2554  0EDC  2EE3               	goto	u5623
  2555  0EDD  0825               	movf	(___fladd@a+1)^(0+128),w
  2556  0EDE  0221               	subwf	(___fladd@b+1)^(0+128),w
  2557  0EDF  1D03               	skipz
  2558  0EE0  2EE3               	goto	u5623
  2559  0EE1  0824               	movf	___fladd@a^(0+128),w
  2560  0EE2  0220               	subwf	___fladd@b^(0+128),w
  2561  0EE3                     u5623:
  2562  0EE3  1803               	skipnc
  2563  0EE4  2EE6               	goto	u5621
  2564  0EE5  2EE7               	goto	u5620
  2565  0EE6                     u5621:
  2566  0EE6  2F3F               	goto	l3788
  2567  0EE7                     u5620:
  2568  0EE7                     l3778:
  2569  0EE7  30FF               	movlw	255
  2570  0EE8  00A8               	movwf	??___fladd^(0+128)
  2571  0EE9  30FF               	movlw	255
  2572  0EEA  00A9               	movwf	(??___fladd^(0+128)+1)
  2573  0EEB  30FF               	movlw	255
  2574  0EEC  00AA               	movwf	(??___fladd^(0+128)+2)
  2575  0EED  30FF               	movlw	255
  2576  0EEE  00AB               	movwf	(??___fladd^(0+128)+3)
  2577  0EEF  0824               	movf	___fladd@a^(0+128),w
  2578  0EF0  00AC               	movwf	(??___fladd+4)^(0+128)
  2579  0EF1  0825               	movf	(___fladd@a+1)^(0+128),w
  2580  0EF2  00AD               	movwf	((??___fladd+4)^(0+128)+1)
  2581  0EF3  0826               	movf	(___fladd@a+2)^(0+128),w
  2582  0EF4  00AE               	movwf	((??___fladd+4)^(0+128)+2)
  2583  0EF5  0827               	movf	(___fladd@a+3)^(0+128),w
  2584  0EF6  00AF               	movwf	((??___fladd+4)^(0+128)+3)
  2585  0EF7  0820               	movf	___fladd@b^(0+128),w
  2586  0EF8  02AC               	subwf	(??___fladd+4)^(0+128),f
  2587  0EF9  0821               	movf	(___fladd@b+1)^(0+128),w
  2588  0EFA  1C03               	skipc
  2589  0EFB  0F21               	incfsz	(___fladd@b+1)^(0+128),w
  2590  0EFC  2EFE               	goto	u5631
  2591  0EFD  2EFF               	goto	u5632
  2592  0EFE                     u5631:
  2593  0EFE  02AD               	subwf	((??___fladd+4)^(0+128)+1),f
  2594  0EFF                     u5632:
  2595  0EFF  0822               	movf	(___fladd@b+2)^(0+128),w
  2596  0F00  1C03               	skipc
  2597  0F01  0F22               	incfsz	(___fladd@b+2)^(0+128),w
  2598  0F02  2F04               	goto	u5633
  2599  0F03  2F05               	goto	u5634
  2600  0F04                     u5633:
  2601  0F04  02AE               	subwf	((??___fladd+4)^(0+128)+2),f
  2602  0F05                     u5634:
  2603  0F05  0823               	movf	(___fladd@b+3)^(0+128),w
  2604  0F06  1C03               	skipc
  2605  0F07  0F23               	incfsz	(___fladd@b+3)^(0+128),w
  2606  0F08  2F0A               	goto	u5635
  2607  0F09  2F0B               	goto	u5636
  2608  0F0A                     u5635:
  2609  0F0A  02AF               	subwf	((??___fladd+4)^(0+128)+3),f
  2610  0F0B                     u5636:
  2611  0F0B  082C               	movf	(??___fladd+4)^(0+128),w
  2612  0F0C  07A8               	addwf	??___fladd^(0+128),f
  2613  0F0D  082D               	movf	(??___fladd+5)^(0+128),w
  2614  0F0E  1803               	skipnc
  2615  0F0F  0F2D               	incfsz	(??___fladd+5)^(0+128),w
  2616  0F10  2F12               	goto	u5640
  2617  0F11  2F13               	goto	u5641
  2618  0F12                     u5640:
  2619  0F12  07A9               	addwf	(??___fladd^(0+128)+1),f
  2620  0F13                     u5641:
  2621  0F13  082E               	movf	(??___fladd+6)^(0+128),w
  2622  0F14  1803               	skipnc
  2623  0F15  0F2E               	incfsz	(??___fladd+6)^(0+128),w
  2624  0F16  2F18               	goto	u5642
  2625  0F17  2F19               	goto	u5643
  2626  0F18                     u5642:
  2627  0F18  07AA               	addwf	(??___fladd^(0+128)+2),f
  2628  0F19                     u5643:
  2629  0F19  082F               	movf	(??___fladd+7)^(0+128),w
  2630  0F1A  1803               	skipnc
  2631  0F1B  0A2F               	incf	(??___fladd+7)^(0+128),w
  2632  0F1C  07AB               	addwf	(??___fladd^(0+128)+3),f
  2633  0F1D  082B               	movf	(??___fladd+3)^(0+128),w
  2634  0F1E  00A3               	movwf	(___fladd@b+3)^(0+128)
  2635  0F1F  082A               	movf	(??___fladd+2)^(0+128),w
  2636  0F20  00A2               	movwf	(___fladd@b+2)^(0+128)
  2637  0F21  0829               	movf	(??___fladd+1)^(0+128),w
  2638  0F22  00A1               	movwf	(___fladd@b+1)^(0+128)
  2639  0F23  0828               	movf	??___fladd^(0+128),w
  2640  0F24  00A0               	movwf	___fladd@b^(0+128)
  2641  0F25                     l3780:
  2642  0F25  3080               	movlw	128
  2643  0F26  00FF               	movwf	btemp+1
  2644  0F27  087F               	movf	btemp+1,w
  2645  0F28  06B0               	xorwf	___fladd@signs^(0+128),f
  2646  0F29                     l3782:
  2647  0F29  09B3               	comf	___fladd@grs^(0+128),f
  2648  0F2A  0AB3               	incf	___fladd@grs^(0+128),f
  2649  0F2B                     l3784:
  2650  0F2B  0833               	movf	___fladd@grs^(0+128),w
  2651  0F2C  1D03               	btfss	3,2
  2652  0F2D  2F2F               	goto	u5651
  2653  0F2E  2F30               	goto	u5650
  2654  0F2F                     u5651:
  2655  0F2F  2F4D               	goto	l598
  2656  0F30                     u5650:
  2657  0F30                     l3786:
  2658  0F30  3001               	movlw	1
  2659  0F31  07A0               	addwf	___fladd@b^(0+128),f
  2660  0F32  3000               	movlw	0
  2661  0F33  1803               	skipnc
  2662  0F34  3001               	movlw	1
  2663  0F35  07A1               	addwf	(___fladd@b+1)^(0+128),f
  2664  0F36  3000               	movlw	0
  2665  0F37  1803               	skipnc
  2666  0F38  3001               	movlw	1
  2667  0F39  07A2               	addwf	(___fladd@b+2)^(0+128),f
  2668  0F3A  3000               	movlw	0
  2669  0F3B  1803               	skipnc
  2670  0F3C  3001               	movlw	1
  2671  0F3D  07A3               	addwf	(___fladd@b+3)^(0+128),f
  2672  0F3E  2F4D               	goto	l598
  2673  0F3F                     l3788:
  2674  0F3F  0824               	movf	___fladd@a^(0+128),w
  2675  0F40  02A0               	subwf	___fladd@b^(0+128),f
  2676  0F41  0825               	movf	(___fladd@a+1)^(0+128),w
  2677  0F42  1C03               	skipc
  2678  0F43  0F25               	incfsz	(___fladd@a+1)^(0+128),w
  2679  0F44  02A1               	subwf	(___fladd@b+1)^(0+128),f
  2680  0F45  0826               	movf	(___fladd@a+2)^(0+128),w
  2681  0F46  1C03               	skipc
  2682  0F47  0F26               	incfsz	(___fladd@a+2)^(0+128),w
  2683  0F48  02A2               	subwf	(___fladd@b+2)^(0+128),f
  2684  0F49  0827               	movf	(___fladd@a+3)^(0+128),w
  2685  0F4A  1C03               	skipc
  2686  0F4B  0F27               	incfsz	(___fladd@a+3)^(0+128),w
  2687  0F4C  02A3               	subwf	(___fladd@b+3)^(0+128),f
  2688  0F4D                     l598:
  2689  0F4D  0823               	movf	(___fladd@b+3)^(0+128),w
  2690  0F4E  0422               	iorwf	(___fladd@b+2)^(0+128),w
  2691  0F4F  0421               	iorwf	(___fladd@b+1)^(0+128),w
  2692  0F50  0420               	iorwf	___fladd@b^(0+128),w
  2693  0F51  1D03               	skipz
  2694  0F52  2F54               	goto	u5661
  2695  0F53  2F55               	goto	u5660
  2696  0F54                     u5661:
  2697  0F54  2F81               	goto	l3810
  2698  0F55                     u5660:
  2699  0F55                     l3790:
  2700  0F55  0833               	movf	___fladd@grs^(0+128),w
  2701  0F56  1D03               	btfss	3,2
  2702  0F57  2F59               	goto	u5671
  2703  0F58  2F5A               	goto	u5670
  2704  0F59                     u5671:
  2705  0F59  2F81               	goto	l3810
  2706  0F5A                     u5670:
  2707  0F5A                     l3792:
  2708  0F5A  3000               	movlw	0
  2709  0F5B  00A3               	movwf	(?___fladd+3)^(0+128)
  2710  0F5C  3000               	movlw	0
  2711  0F5D  00A2               	movwf	(?___fladd+2)^(0+128)
  2712  0F5E  3000               	movlw	0
  2713  0F5F  00A1               	movwf	(?___fladd+1)^(0+128)
  2714  0F60  3000               	movlw	0
  2715  0F61  00A0               	movwf	?___fladd^(0+128)
  2716  0F62  2FFF               	goto	l590
  2717  0F63                     l3796:
  2718  0F63  3001               	movlw	1
  2719  0F64  00A8               	movwf	??___fladd^(0+128)
  2720  0F65                     u5685:
  2721  0F65  1003               	clrc
  2722  0F66  0DA0               	rlf	___fladd@b^(0+128),f
  2723  0F67  0DA1               	rlf	(___fladd@b+1)^(0+128),f
  2724  0F68  0DA2               	rlf	(___fladd@b+2)^(0+128),f
  2725  0F69  0DA3               	rlf	(___fladd@b+3)^(0+128),f
  2726  0F6A  0BA8               	decfsz	??___fladd^(0+128),f
  2727  0F6B  2F65               	goto	u5685
  2728  0F6C                     l3798:
  2729  0F6C  1FB3               	btfss	___fladd@grs^(0+128),7
  2730  0F6D  2F6F               	goto	u5691
  2731  0F6E  2F70               	goto	u5690
  2732  0F6F                     u5691:
  2733  0F6F  2F71               	goto	l602
  2734  0F70                     u5690:
  2735  0F70                     l3800:
  2736  0F70  1420               	bsf	___fladd@b^(0+128),0
  2737  0F71                     l602:
  2738  0F71  1C33               	btfss	___fladd@grs^(0+128),0
  2739  0F72  2F74               	goto	u5701
  2740  0F73  2F75               	goto	u5700
  2741  0F74                     u5701:
  2742  0F74  2F78               	goto	l3804
  2743  0F75                     u5700:
  2744  0F75                     l3802:
  2745  0F75  1403               	setc
  2746  0F76  0DB3               	rlf	___fladd@grs^(0+128),f
  2747  0F77  2F7A               	goto	l3806
  2748  0F78                     l3804:
  2749  0F78  1003               	clrc
  2750  0F79  0DB3               	rlf	___fladd@grs^(0+128),f
  2751  0F7A                     l3806:
  2752  0F7A  0832               	movf	___fladd@bexp^(0+128),w
  2753  0F7B  1903               	btfsc	3,2
  2754  0F7C  2F7E               	goto	u5711
  2755  0F7D  2F7F               	goto	u5710
  2756  0F7E                     u5711:
  2757  0F7E  2F81               	goto	l3810
  2758  0F7F                     u5710:
  2759  0F7F                     l3808:
  2760  0F7F  3001               	movlw	1
  2761  0F80  02B2               	subwf	___fladd@bexp^(0+128),f
  2762  0F81                     l3810:
  2763  0F81  1FA2               	btfss	(___fladd@b+2)^(0+128),7
  2764  0F82  2F84               	goto	u5721
  2765  0F83  2F85               	goto	u5720
  2766  0F84                     u5721:
  2767  0F84  2F63               	goto	l3796
  2768  0F85                     u5720:
  2769  0F85                     l3812:
  2770  0F85  01B1               	clrf	___fladd@aexp^(0+128)
  2771  0F86                     l3814:
  2772  0F86  1FB3               	btfss	___fladd@grs^(0+128),7
  2773  0F87  2F89               	goto	u5731
  2774  0F88  2F8A               	goto	u5730
  2775  0F89                     u5731:
  2776  0F89  2F98               	goto	l3822
  2777  0F8A                     u5730:
  2778  0F8A                     l3816:
  2779  0F8A  0833               	movf	___fladd@grs^(0+128),w
  2780  0F8B  397F               	andlw	127
  2781  0F8C  1903               	btfsc	3,2
  2782  0F8D  2F8F               	goto	u5741
  2783  0F8E  2F90               	goto	u5740
  2784  0F8F                     u5741:
  2785  0F8F  2F93               	goto	l608
  2786  0F90                     u5740:
  2787  0F90                     l3818:
  2788  0F90  01B1               	clrf	___fladd@aexp^(0+128)
  2789  0F91  0AB1               	incf	___fladd@aexp^(0+128),f
  2790  0F92  2F98               	goto	l3822
  2791  0F93                     l608:
  2792  0F93  1C20               	btfss	___fladd@b^(0+128),0
  2793  0F94  2F96               	goto	u5751
  2794  0F95  2F97               	goto	u5750
  2795  0F96                     u5751:
  2796  0F96  2F98               	goto	l3822
  2797  0F97                     u5750:
  2798  0F97  2F90               	goto	l3818
  2799  0F98                     l3822:
  2800  0F98  0831               	movf	___fladd@aexp^(0+128),w
  2801  0F99  1903               	btfsc	3,2
  2802  0F9A  2F9C               	goto	u5761
  2803  0F9B  2F9D               	goto	u5760
  2804  0F9C                     u5761:
  2805  0F9C  2FD1               	goto	l3832
  2806  0F9D                     u5760:
  2807  0F9D                     l3824:
  2808  0F9D  3001               	movlw	1
  2809  0F9E  07A0               	addwf	___fladd@b^(0+128),f
  2810  0F9F  3000               	movlw	0
  2811  0FA0  1803               	skipnc
  2812  0FA1  3001               	movlw	1
  2813  0FA2  07A1               	addwf	(___fladd@b+1)^(0+128),f
  2814  0FA3  3000               	movlw	0
  2815  0FA4  1803               	skipnc
  2816  0FA5  3001               	movlw	1
  2817  0FA6  07A2               	addwf	(___fladd@b+2)^(0+128),f
  2818  0FA7  3000               	movlw	0
  2819  0FA8  1803               	skipnc
  2820  0FA9  3001               	movlw	1
  2821  0FAA  07A3               	addwf	(___fladd@b+3)^(0+128),f
  2822  0FAB                     l3826:
  2823  0FAB  1C23               	btfss	(___fladd@b+3)^(0+128),0
  2824  0FAC  2FAE               	goto	u5771
  2825  0FAD  2FAF               	goto	u5770
  2826  0FAE                     u5771:
  2827  0FAE  2FD1               	goto	l3832
  2828  0FAF                     u5770:
  2829  0FAF                     l3828:
  2830  0FAF  0820               	movf	___fladd@b^(0+128),w
  2831  0FB0  00A8               	movwf	??___fladd^(0+128)
  2832  0FB1  0821               	movf	(___fladd@b+1)^(0+128),w
  2833  0FB2  00A9               	movwf	(??___fladd^(0+128)+1)
  2834  0FB3  0822               	movf	(___fladd@b+2)^(0+128),w
  2835  0FB4  00AA               	movwf	(??___fladd^(0+128)+2)
  2836  0FB5  0823               	movf	(___fladd@b+3)^(0+128),w
  2837  0FB6  00AB               	movwf	(??___fladd^(0+128)+3)
  2838  0FB7  3001               	movlw	1
  2839  0FB8  00AC               	movwf	(??___fladd+4)^(0+128)
  2840  0FB9                     u5785:
  2841  0FB9  0D2B               	rlf	(??___fladd^(0+128)+3),w
  2842  0FBA  0CAB               	rrf	(??___fladd^(0+128)+3),f
  2843  0FBB  0CAA               	rrf	(??___fladd^(0+128)+2),f
  2844  0FBC  0CA9               	rrf	(??___fladd^(0+128)+1),f
  2845  0FBD  0CA8               	rrf	??___fladd^(0+128),f
  2846  0FBE                     u5780:
  2847  0FBE  0BAC               	decfsz	(??___fladd+4)^(0+128),f
  2848  0FBF  2FB9               	goto	u5785
  2849  0FC0  082B               	movf	(??___fladd+3)^(0+128),w
  2850  0FC1  00A3               	movwf	(___fladd@b+3)^(0+128)
  2851  0FC2  082A               	movf	(??___fladd+2)^(0+128),w
  2852  0FC3  00A2               	movwf	(___fladd@b+2)^(0+128)
  2853  0FC4  0829               	movf	(??___fladd+1)^(0+128),w
  2854  0FC5  00A1               	movwf	(___fladd@b+1)^(0+128)
  2855  0FC6  0828               	movf	??___fladd^(0+128),w
  2856  0FC7  00A0               	movwf	___fladd@b^(0+128)
  2857  0FC8  0A32               	incf	___fladd@bexp^(0+128),w
  2858  0FC9  1903               	btfsc	3,2
  2859  0FCA  2FCC               	goto	u5791
  2860  0FCB  2FCD               	goto	u5790
  2861  0FCC                     u5791:
  2862  0FCC  2FD1               	goto	l3832
  2863  0FCD                     u5790:
  2864  0FCD                     l3830:
  2865  0FCD  3001               	movlw	1
  2866  0FCE  00FF               	movwf	btemp+1
  2867  0FCF  087F               	movf	btemp+1,w
  2868  0FD0  07B2               	addwf	___fladd@bexp^(0+128),f
  2869  0FD1                     l3832:
  2870  0FD1  0A32               	incf	___fladd@bexp^(0+128),w
  2871  0FD2  1903               	btfsc	3,2
  2872  0FD3  2FD5               	goto	u5801
  2873  0FD4  2FD6               	goto	u5800
  2874  0FD5                     u5801:
  2875  0FD5  2FDB               	goto	l3836
  2876  0FD6                     u5800:
  2877  0FD6                     l3834:
  2878  0FD6  0832               	movf	___fladd@bexp^(0+128),w
  2879  0FD7  1D03               	btfss	3,2
  2880  0FD8  2FDA               	goto	u5811
  2881  0FD9  2FDB               	goto	u5810
  2882  0FDA                     u5811:
  2883  0FDA  2FE9               	goto	l3842
  2884  0FDB                     u5810:
  2885  0FDB                     l3836:
  2886  0FDB  3000               	movlw	0
  2887  0FDC  00A3               	movwf	(___fladd@b+3)^(0+128)
  2888  0FDD  3000               	movlw	0
  2889  0FDE  00A2               	movwf	(___fladd@b+2)^(0+128)
  2890  0FDF  3000               	movlw	0
  2891  0FE0  00A1               	movwf	(___fladd@b+1)^(0+128)
  2892  0FE1  3000               	movlw	0
  2893  0FE2  00A0               	movwf	___fladd@b^(0+128)
  2894  0FE3                     l3838:
  2895  0FE3  0832               	movf	___fladd@bexp^(0+128),w
  2896  0FE4  1D03               	btfss	3,2
  2897  0FE5  2FE7               	goto	u5821
  2898  0FE6  2FE8               	goto	u5820
  2899  0FE7                     u5821:
  2900  0FE7  2FE9               	goto	l3842
  2901  0FE8                     u5820:
  2902  0FE8                     l3840:
  2903  0FE8  01B0               	clrf	___fladd@signs^(0+128)
  2904  0FE9                     l3842:
  2905  0FE9  1C32               	btfss	___fladd@bexp^(0+128),0
  2906  0FEA  2FEC               	goto	u5831
  2907  0FEB  2FED               	goto	u5830
  2908  0FEC                     u5831:
  2909  0FEC  2FEF               	goto	l3846
  2910  0FED                     u5830:
  2911  0FED                     l3844:
  2912  0FED  17A2               	bsf	(___fladd@b^(0+128)+2),7
  2913  0FEE  2FF3               	goto	l619
  2914  0FEF                     l3846:
  2915  0FEF  307F               	movlw	127
  2916  0FF0  00FF               	movwf	btemp+1
  2917  0FF1  087F               	movf	btemp+1,w
  2918  0FF2  05A2               	andwf	(___fladd@b^(0+128)+2),f
  2919  0FF3                     l619:
  2920  0FF3  0832               	movf	___fladd@bexp^(0+128),w
  2921  0FF4  00A8               	movwf	??___fladd^(0+128)
  2922  0FF5  1003               	clrc
  2923  0FF6  0C28               	rrf	??___fladd^(0+128),w
  2924  0FF7  00FF               	movwf	btemp+1
  2925  0FF8  087F               	movf	btemp+1,w
  2926  0FF9  00A3               	movwf	(___fladd@b^(0+128)+3)
  2927  0FFA                     l3848:
  2928  0FFA  1FB0               	btfss	___fladd@signs^(0+128),7
  2929  0FFB  2FFD               	goto	u5841
  2930  0FFC  2FFE               	goto	u5840
  2931  0FFD                     u5841:
  2932  0FFD  2FFF               	goto	l620
  2933  0FFE                     u5840:
  2934  0FFE                     l3850:
  2935  0FFE  17A3               	bsf	(___fladd@b^(0+128)+3),7
  2936  0FFF                     l620:
  2937  0FFF                     l590:
  2938  0FFF  0008               	return
  2939  1000                     __end_of___fladd:
  2940                           
  2941                           	psect	text4
  2942  003E                     __ptext4:	
  2943 ;; *************** function ___flmul *****************
  2944 ;; Defined at:
  2945 ;;		line 8 in file "C:\Program Files\Microchip\xc8\v2.20\pic\sources\c90\common\sprcmul.c"
  2946 ;; Parameters:    Size  Location     Type
  2947 ;;  b               4    9[BANK1 ] unsigned char 
  2948 ;;  a               4   13[BANK1 ] unsigned char 
  2949 ;; Auto vars:     Size  Location     Type
  2950 ;;  prod            4   29[BANK1 ] struct .
  2951 ;;  grs             4   24[BANK1 ] unsigned long 
  2952 ;;  temp            2   33[BANK1 ] struct .
  2953 ;;  bexp            1   28[BANK1 ] unsigned char 
  2954 ;;  aexp            1   23[BANK1 ] unsigned char 
  2955 ;;  sign            1   22[BANK1 ] unsigned char 
  2956 ;; Return value:  Size  Location     Type
  2957 ;;                  4    9[BANK1 ] unsigned char 
  2958 ;; Registers used:
  2959 ;;		wreg, status,2, status,0, btemp+1, pclath, cstack
  2960 ;; Tracked objects:
  2961 ;;		On entry : 0/0
  2962 ;;		On exit  : 0/0
  2963 ;;		Unchanged: 0/0
  2964 ;; Data sizes:     COMMON   BANK0   BANK1   BANK3   BANK2
  2965 ;;      Params:         0       0       8       0       0
  2966 ;;      Locals:         0       0      13       0       0
  2967 ;;      Temps:          0       0       5       0       0
  2968 ;;      Totals:         0       0      26       0       0
  2969 ;;Total ram usage:       26 bytes
  2970 ;; Hardware stack levels used:    1
  2971 ;; Hardware stack levels required when called:    4
  2972 ;; This function calls:
  2973 ;;		__Umul8_16
  2974 ;; This function is called by:
  2975 ;;		_main
  2976 ;; This function uses a non-reentrant model
  2977 ;;
  2978                           
  2979                           
  2980                           ;psect for function ___flmul
  2981  003E                     ___flmul:
  2982  003E                     l4232:	
  2983                           ;incstack = 0
  2984                           ; Regs used in ___flmul: [wreg+status,2+status,0+btemp+1+pclath+cstack]
  2985                           
  2986  003E  1683               	bsf	3,5	;RP0=1, select bank1
  2987  003F  1303               	bcf	3,6	;RP1=0, select bank1
  2988  0040  082C               	movf	(___flmul@b^(0+128)+3),w
  2989  0041  3980               	andlw	128
  2990  0042  00FF               	movwf	btemp+1
  2991  0043  087F               	movf	btemp+1,w
  2992  0044  00B6               	movwf	___flmul@sign^(0+128)
  2993  0045                     l4234:
  2994  0045  082C               	movf	(___flmul@b^(0+128)+3),w
  2995  0046  00B1               	movwf	??___flmul^(0+128)
  2996  0047  0731               	addwf	??___flmul^(0+128),w
  2997  0048  00FF               	movwf	btemp+1
  2998  0049  087F               	movf	btemp+1,w
  2999  004A  00BC               	movwf	___flmul@bexp^(0+128)
  3000  004B                     l4236:
  3001  004B  1FAB               	btfss	(___flmul@b^(0+128)+2),7
  3002  004C  284E               	goto	u6411
  3003  004D  284F               	goto	u6410
  3004  004E                     u6411:
  3005  004E  2850               	goto	l4240
  3006  004F                     u6410:
  3007  004F                     l4238:
  3008  004F  143C               	bsf	___flmul@bexp^(0+128),0
  3009  0050                     l4240:
  3010  0050  083C               	movf	___flmul@bexp^(0+128),w
  3011  0051  1903               	btfsc	3,2
  3012  0052  2854               	goto	u6421
  3013  0053  2855               	goto	u6420
  3014  0054                     u6421:
  3015  0054  2864               	goto	l4248
  3016  0055                     u6420:
  3017  0055                     l4242:
  3018  0055  0A3C               	incf	___flmul@bexp^(0+128),w
  3019  0056  1D03               	btfss	3,2
  3020  0057  2859               	goto	u6431
  3021  0058  285A               	goto	u6430
  3022  0059                     u6431:
  3023  0059  2862               	goto	l4246
  3024  005A                     u6430:
  3025  005A                     l4244:
  3026  005A  3000               	movlw	0
  3027  005B  00AC               	movwf	(___flmul@b+3)^(0+128)
  3028  005C  3000               	movlw	0
  3029  005D  00AB               	movwf	(___flmul@b+2)^(0+128)
  3030  005E  3000               	movlw	0
  3031  005F  00AA               	movwf	(___flmul@b+1)^(0+128)
  3032  0060  3000               	movlw	0
  3033  0061  00A9               	movwf	___flmul@b^(0+128)
  3034  0062                     l4246:
  3035  0062  17AB               	bsf	(___flmul@b^(0+128)+2),7
  3036  0063  286C               	goto	l4250
  3037  0064                     l4248:
  3038  0064  3000               	movlw	0
  3039  0065  00AC               	movwf	(___flmul@b+3)^(0+128)
  3040  0066  3000               	movlw	0
  3041  0067  00AB               	movwf	(___flmul@b+2)^(0+128)
  3042  0068  3000               	movlw	0
  3043  0069  00AA               	movwf	(___flmul@b+1)^(0+128)
  3044  006A  3000               	movlw	0
  3045  006B  00A9               	movwf	___flmul@b^(0+128)
  3046  006C                     l4250:
  3047  006C  0830               	movf	(___flmul@a^(0+128)+3),w
  3048  006D  3980               	andlw	128
  3049  006E  00FF               	movwf	btemp+1
  3050  006F  087F               	movf	btemp+1,w
  3051  0070  06B6               	xorwf	___flmul@sign^(0+128),f
  3052  0071                     l4252:
  3053  0071  0830               	movf	(___flmul@a^(0+128)+3),w
  3054  0072  00B1               	movwf	??___flmul^(0+128)
  3055  0073  0731               	addwf	??___flmul^(0+128),w
  3056  0074  00FF               	movwf	btemp+1
  3057  0075  087F               	movf	btemp+1,w
  3058  0076  00B7               	movwf	___flmul@aexp^(0+128)
  3059  0077                     l4254:
  3060  0077  1FAF               	btfss	(___flmul@a^(0+128)+2),7
  3061  0078  287A               	goto	u6441
  3062  0079  287B               	goto	u6440
  3063  007A                     u6441:
  3064  007A  287C               	goto	l4258
  3065  007B                     u6440:
  3066  007B                     l4256:
  3067  007B  1437               	bsf	___flmul@aexp^(0+128),0
  3068  007C                     l4258:
  3069  007C  0837               	movf	___flmul@aexp^(0+128),w
  3070  007D  1903               	btfsc	3,2
  3071  007E  2880               	goto	u6451
  3072  007F  2881               	goto	u6450
  3073  0080                     u6451:
  3074  0080  2890               	goto	l4266
  3075  0081                     u6450:
  3076  0081                     l4260:
  3077  0081  0A37               	incf	___flmul@aexp^(0+128),w
  3078  0082  1D03               	btfss	3,2
  3079  0083  2885               	goto	u6461
  3080  0084  2886               	goto	u6460
  3081  0085                     u6461:
  3082  0085  288E               	goto	l4264
  3083  0086                     u6460:
  3084  0086                     l4262:
  3085  0086  3000               	movlw	0
  3086  0087  00B0               	movwf	(___flmul@a+3)^(0+128)
  3087  0088  3000               	movlw	0
  3088  0089  00AF               	movwf	(___flmul@a+2)^(0+128)
  3089  008A  3000               	movlw	0
  3090  008B  00AE               	movwf	(___flmul@a+1)^(0+128)
  3091  008C  3000               	movlw	0
  3092  008D  00AD               	movwf	___flmul@a^(0+128)
  3093  008E                     l4264:
  3094  008E  17AF               	bsf	(___flmul@a^(0+128)+2),7
  3095  008F  2898               	goto	l4268
  3096  0090                     l4266:
  3097  0090  3000               	movlw	0
  3098  0091  00B0               	movwf	(___flmul@a+3)^(0+128)
  3099  0092  3000               	movlw	0
  3100  0093  00AF               	movwf	(___flmul@a+2)^(0+128)
  3101  0094  3000               	movlw	0
  3102  0095  00AE               	movwf	(___flmul@a+1)^(0+128)
  3103  0096  3000               	movlw	0
  3104  0097  00AD               	movwf	___flmul@a^(0+128)
  3105  0098                     l4268:
  3106  0098  0837               	movf	___flmul@aexp^(0+128),w
  3107  0099  1903               	btfsc	3,2
  3108  009A  289C               	goto	u6471
  3109  009B  289D               	goto	u6470
  3110  009C                     u6471:
  3111  009C  28A2               	goto	l4272
  3112  009D                     u6470:
  3113  009D                     l4270:
  3114  009D  083C               	movf	___flmul@bexp^(0+128),w
  3115  009E  1D03               	btfss	3,2
  3116  009F  28A1               	goto	u6481
  3117  00A0  28A2               	goto	u6480
  3118  00A1                     u6481:
  3119  00A1  28AB               	goto	l4276
  3120  00A2                     u6480:
  3121  00A2                     l4272:
  3122  00A2  3000               	movlw	0
  3123  00A3  00AC               	movwf	(?___flmul+3)^(0+128)
  3124  00A4  3000               	movlw	0
  3125  00A5  00AB               	movwf	(?___flmul+2)^(0+128)
  3126  00A6  3000               	movlw	0
  3127  00A7  00AA               	movwf	(?___flmul+1)^(0+128)
  3128  00A8  3000               	movlw	0
  3129  00A9  00A9               	movwf	?___flmul^(0+128)
  3130  00AA  2B9E               	goto	l673
  3131  00AB                     l4276:
  3132  00AB  0829               	movf	___flmul@b^(0+128),w
  3133  00AC  00FF               	movwf	btemp+1
  3134  00AD  087F               	movf	btemp+1,w
  3135  00AE  00A0               	movwf	__Umul8_16@multiplicand^(0+128)
  3136  00AF  082F               	movf	(___flmul@a^(0+128)+2),w
  3137  00B0  160A  118A  228F  120A  118A  	fcall	__Umul8_16
  3138  00B5  1683               	bsf	3,5	;RP0=1, select bank1
  3139  00B6  1303               	bcf	3,6	;RP1=0, select bank1
  3140  00B7  0821               	movf	(?__Umul8_16+1)^(0+128),w
  3141  00B8  00C2               	movwf	(___flmul@temp+1)^(0+128)
  3142  00B9  0820               	movf	?__Umul8_16^(0+128),w
  3143  00BA  00C1               	movwf	___flmul@temp^(0+128)
  3144  00BB                     l4278:
  3145  00BB  0841               	movf	___flmul@temp^(0+128),w
  3146  00BC  00B1               	movwf	??___flmul^(0+128)
  3147  00BD  01B2               	clrf	(??___flmul^(0+128)+1)
  3148  00BE  01B3               	clrf	(??___flmul^(0+128)+2)
  3149  00BF  01B4               	clrf	(??___flmul^(0+128)+3)
  3150  00C0  0834               	movf	(??___flmul+3)^(0+128),w
  3151  00C1  00BB               	movwf	(___flmul@grs+3)^(0+128)
  3152  00C2  0833               	movf	(??___flmul+2)^(0+128),w
  3153  00C3  00BA               	movwf	(___flmul@grs+2)^(0+128)
  3154  00C4  0832               	movf	(??___flmul+1)^(0+128),w
  3155  00C5  00B9               	movwf	(___flmul@grs+1)^(0+128)
  3156  00C6  0831               	movf	??___flmul^(0+128),w
  3157  00C7  00B8               	movwf	___flmul@grs^(0+128)
  3158  00C8                     l4280:
  3159  00C8  0842               	movf	(___flmul@temp^(0+128)+1),w
  3160  00C9  00B1               	movwf	??___flmul^(0+128)
  3161  00CA  01B2               	clrf	(??___flmul^(0+128)+1)
  3162  00CB  01B3               	clrf	(??___flmul^(0+128)+2)
  3163  00CC  01B4               	clrf	(??___flmul^(0+128)+3)
  3164  00CD  0834               	movf	(??___flmul+3)^(0+128),w
  3165  00CE  00C0               	movwf	(___flmul@prod+3)^(0+128)
  3166  00CF  0833               	movf	(??___flmul+2)^(0+128),w
  3167  00D0  00BF               	movwf	(___flmul@prod+2)^(0+128)
  3168  00D1  0832               	movf	(??___flmul+1)^(0+128),w
  3169  00D2  00BE               	movwf	(___flmul@prod+1)^(0+128)
  3170  00D3  0831               	movf	??___flmul^(0+128),w
  3171  00D4  00BD               	movwf	___flmul@prod^(0+128)
  3172  00D5  082A               	movf	(___flmul@b^(0+128)+1),w
  3173  00D6  00FF               	movwf	btemp+1
  3174  00D7  087F               	movf	btemp+1,w
  3175  00D8  00A0               	movwf	__Umul8_16@multiplicand^(0+128)
  3176  00D9  082E               	movf	(___flmul@a^(0+128)+1),w
  3177  00DA  160A  118A  228F  120A  118A  	fcall	__Umul8_16
  3178  00DF  1683               	bsf	3,5	;RP0=1, select bank1
  3179  00E0  1303               	bcf	3,6	;RP1=0, select bank1
  3180  00E1  0821               	movf	(?__Umul8_16+1)^(0+128),w
  3181  00E2  00C2               	movwf	(___flmul@temp+1)^(0+128)
  3182  00E3  0820               	movf	?__Umul8_16^(0+128),w
  3183  00E4  00C1               	movwf	___flmul@temp^(0+128)
  3184  00E5                     l4282:
  3185  00E5  0841               	movf	___flmul@temp^(0+128),w
  3186  00E6  00B1               	movwf	??___flmul^(0+128)
  3187  00E7  01B2               	clrf	(??___flmul^(0+128)+1)
  3188  00E8  01B3               	clrf	(??___flmul^(0+128)+2)
  3189  00E9  01B4               	clrf	(??___flmul^(0+128)+3)
  3190  00EA  0831               	movf	??___flmul^(0+128),w
  3191  00EB  07B8               	addwf	___flmul@grs^(0+128),f
  3192  00EC  0832               	movf	(??___flmul+1)^(0+128),w
  3193  00ED  1103               	clrz
  3194  00EE  1803               	skipnc
  3195  00EF  3E01               	addlw	1
  3196  00F0  1903               	skipnz
  3197  00F1  28F3               	goto	u6491
  3198  00F2  07B9               	addwf	(___flmul@grs+1)^(0+128),f
  3199  00F3                     u6491:
  3200  00F3  0833               	movf	(??___flmul+2)^(0+128),w
  3201  00F4  1103               	clrz
  3202  00F5  1803               	skipnc
  3203  00F6  3E01               	addlw	1
  3204  00F7  1903               	skipnz
  3205  00F8  28FA               	goto	u6492
  3206  00F9  07BA               	addwf	(___flmul@grs+2)^(0+128),f
  3207  00FA                     u6492:
  3208  00FA  0834               	movf	(??___flmul+3)^(0+128),w
  3209  00FB  1103               	clrz
  3210  00FC  1803               	skipnc
  3211  00FD  3E01               	addlw	1
  3212  00FE  1903               	skipnz
  3213  00FF  2901               	goto	u6493
  3214  0100  07BB               	addwf	(___flmul@grs+3)^(0+128),f
  3215  0101                     u6493:
  3216  0101                     l4284:
  3217  0101  0842               	movf	(___flmul@temp^(0+128)+1),w
  3218  0102  00B1               	movwf	??___flmul^(0+128)
  3219  0103  01B2               	clrf	(??___flmul^(0+128)+1)
  3220  0104  01B3               	clrf	(??___flmul^(0+128)+2)
  3221  0105  01B4               	clrf	(??___flmul^(0+128)+3)
  3222  0106  0831               	movf	??___flmul^(0+128),w
  3223  0107  07BD               	addwf	___flmul@prod^(0+128),f
  3224  0108  0832               	movf	(??___flmul+1)^(0+128),w
  3225  0109  1103               	clrz
  3226  010A  1803               	skipnc
  3227  010B  3E01               	addlw	1
  3228  010C  1903               	skipnz
  3229  010D  290F               	goto	u6501
  3230  010E  07BE               	addwf	(___flmul@prod+1)^(0+128),f
  3231  010F                     u6501:
  3232  010F  0833               	movf	(??___flmul+2)^(0+128),w
  3233  0110  1103               	clrz
  3234  0111  1803               	skipnc
  3235  0112  3E01               	addlw	1
  3236  0113  1903               	skipnz
  3237  0114  2916               	goto	u6502
  3238  0115  07BF               	addwf	(___flmul@prod+2)^(0+128),f
  3239  0116                     u6502:
  3240  0116  0834               	movf	(??___flmul+3)^(0+128),w
  3241  0117  1103               	clrz
  3242  0118  1803               	skipnc
  3243  0119  3E01               	addlw	1
  3244  011A  1903               	skipnz
  3245  011B  291D               	goto	u6503
  3246  011C  07C0               	addwf	(___flmul@prod+3)^(0+128),f
  3247  011D                     u6503:
  3248  011D  082B               	movf	(___flmul@b^(0+128)+2),w
  3249  011E  00FF               	movwf	btemp+1
  3250  011F  087F               	movf	btemp+1,w
  3251  0120  00A0               	movwf	__Umul8_16@multiplicand^(0+128)
  3252  0121  082D               	movf	___flmul@a^(0+128),w
  3253  0122  160A  118A  228F  120A  118A  	fcall	__Umul8_16
  3254  0127  1683               	bsf	3,5	;RP0=1, select bank1
  3255  0128  1303               	bcf	3,6	;RP1=0, select bank1
  3256  0129  0821               	movf	(?__Umul8_16+1)^(0+128),w
  3257  012A  00C2               	movwf	(___flmul@temp+1)^(0+128)
  3258  012B  0820               	movf	?__Umul8_16^(0+128),w
  3259  012C  00C1               	movwf	___flmul@temp^(0+128)
  3260  012D                     l4286:
  3261  012D  0841               	movf	___flmul@temp^(0+128),w
  3262  012E  00B1               	movwf	??___flmul^(0+128)
  3263  012F  01B2               	clrf	(??___flmul^(0+128)+1)
  3264  0130  01B3               	clrf	(??___flmul^(0+128)+2)
  3265  0131  01B4               	clrf	(??___flmul^(0+128)+3)
  3266  0132  0831               	movf	??___flmul^(0+128),w
  3267  0133  07B8               	addwf	___flmul@grs^(0+128),f
  3268  0134  0832               	movf	(??___flmul+1)^(0+128),w
  3269  0135  1103               	clrz
  3270  0136  1803               	skipnc
  3271  0137  3E01               	addlw	1
  3272  0138  1903               	skipnz
  3273  0139  293B               	goto	u6511
  3274  013A  07B9               	addwf	(___flmul@grs+1)^(0+128),f
  3275  013B                     u6511:
  3276  013B  0833               	movf	(??___flmul+2)^(0+128),w
  3277  013C  1103               	clrz
  3278  013D  1803               	skipnc
  3279  013E  3E01               	addlw	1
  3280  013F  1903               	skipnz
  3281  0140  2942               	goto	u6512
  3282  0141  07BA               	addwf	(___flmul@grs+2)^(0+128),f
  3283  0142                     u6512:
  3284  0142  0834               	movf	(??___flmul+3)^(0+128),w
  3285  0143  1103               	clrz
  3286  0144  1803               	skipnc
  3287  0145  3E01               	addlw	1
  3288  0146  1903               	skipnz
  3289  0147  2949               	goto	u6513
  3290  0148  07BB               	addwf	(___flmul@grs+3)^(0+128),f
  3291  0149                     u6513:
  3292  0149                     l4288:
  3293  0149  0842               	movf	(___flmul@temp^(0+128)+1),w
  3294  014A  00B1               	movwf	??___flmul^(0+128)
  3295  014B  01B2               	clrf	(??___flmul^(0+128)+1)
  3296  014C  01B3               	clrf	(??___flmul^(0+128)+2)
  3297  014D  01B4               	clrf	(??___flmul^(0+128)+3)
  3298  014E  0831               	movf	??___flmul^(0+128),w
  3299  014F  07BD               	addwf	___flmul@prod^(0+128),f
  3300  0150  0832               	movf	(??___flmul+1)^(0+128),w
  3301  0151  1103               	clrz
  3302  0152  1803               	skipnc
  3303  0153  3E01               	addlw	1
  3304  0154  1903               	skipnz
  3305  0155  2957               	goto	u6521
  3306  0156  07BE               	addwf	(___flmul@prod+1)^(0+128),f
  3307  0157                     u6521:
  3308  0157  0833               	movf	(??___flmul+2)^(0+128),w
  3309  0158  1103               	clrz
  3310  0159  1803               	skipnc
  3311  015A  3E01               	addlw	1
  3312  015B  1903               	skipnz
  3313  015C  295E               	goto	u6522
  3314  015D  07BF               	addwf	(___flmul@prod+2)^(0+128),f
  3315  015E                     u6522:
  3316  015E  0834               	movf	(??___flmul+3)^(0+128),w
  3317  015F  1103               	clrz
  3318  0160  1803               	skipnc
  3319  0161  3E01               	addlw	1
  3320  0162  1903               	skipnz
  3321  0163  2965               	goto	u6523
  3322  0164  07C0               	addwf	(___flmul@prod+3)^(0+128),f
  3323  0165                     u6523:
  3324  0165                     l4290:
  3325  0165  3008               	movlw	8
  3326  0166  00B1               	movwf	??___flmul^(0+128)
  3327  0167                     u6535:
  3328  0167  1003               	clrc
  3329  0168  0DB8               	rlf	___flmul@grs^(0+128),f
  3330  0169  0DB9               	rlf	(___flmul@grs+1)^(0+128),f
  3331  016A  0DBA               	rlf	(___flmul@grs+2)^(0+128),f
  3332  016B  0DBB               	rlf	(___flmul@grs+3)^(0+128),f
  3333  016C  0BB1               	decfsz	??___flmul^(0+128),f
  3334  016D  2967               	goto	u6535
  3335  016E                     l4292:
  3336  016E  082A               	movf	(___flmul@b^(0+128)+1),w
  3337  016F  00FF               	movwf	btemp+1
  3338  0170  087F               	movf	btemp+1,w
  3339  0171  00A0               	movwf	__Umul8_16@multiplicand^(0+128)
  3340  0172  082D               	movf	___flmul@a^(0+128),w
  3341  0173  160A  118A  228F  120A  118A  	fcall	__Umul8_16
  3342  0178  1683               	bsf	3,5	;RP0=1, select bank1
  3343  0179  1303               	bcf	3,6	;RP1=0, select bank1
  3344  017A  0821               	movf	(?__Umul8_16+1)^(0+128),w
  3345  017B  00C2               	movwf	(___flmul@temp+1)^(0+128)
  3346  017C  0820               	movf	?__Umul8_16^(0+128),w
  3347  017D  00C1               	movwf	___flmul@temp^(0+128)
  3348  017E                     l4294:
  3349  017E  0841               	movf	___flmul@temp^(0+128),w
  3350  017F  00B1               	movwf	??___flmul^(0+128)
  3351  0180  0842               	movf	(___flmul@temp+1)^(0+128),w
  3352  0181  00B2               	movwf	(??___flmul^(0+128)+1)
  3353  0182  01B3               	clrf	(??___flmul^(0+128)+2)
  3354  0183  01B4               	clrf	(??___flmul^(0+128)+3)
  3355  0184  0831               	movf	??___flmul^(0+128),w
  3356  0185  07B8               	addwf	___flmul@grs^(0+128),f
  3357  0186  0832               	movf	(??___flmul+1)^(0+128),w
  3358  0187  1103               	clrz
  3359  0188  1803               	skipnc
  3360  0189  3E01               	addlw	1
  3361  018A  1903               	skipnz
  3362  018B  298D               	goto	u6541
  3363  018C  07B9               	addwf	(___flmul@grs+1)^(0+128),f
  3364  018D                     u6541:
  3365  018D  0833               	movf	(??___flmul+2)^(0+128),w
  3366  018E  1103               	clrz
  3367  018F  1803               	skipnc
  3368  0190  3E01               	addlw	1
  3369  0191  1903               	skipnz
  3370  0192  2994               	goto	u6542
  3371  0193  07BA               	addwf	(___flmul@grs+2)^(0+128),f
  3372  0194                     u6542:
  3373  0194  0834               	movf	(??___flmul+3)^(0+128),w
  3374  0195  1103               	clrz
  3375  0196  1803               	skipnc
  3376  0197  3E01               	addlw	1
  3377  0198  1903               	skipnz
  3378  0199  299B               	goto	u6543
  3379  019A  07BB               	addwf	(___flmul@grs+3)^(0+128),f
  3380  019B                     u6543:
  3381  019B                     l4296:
  3382  019B  0829               	movf	___flmul@b^(0+128),w
  3383  019C  00FF               	movwf	btemp+1
  3384  019D  087F               	movf	btemp+1,w
  3385  019E  00A0               	movwf	__Umul8_16@multiplicand^(0+128)
  3386  019F  082E               	movf	(___flmul@a^(0+128)+1),w
  3387  01A0  160A  118A  228F  120A  118A  	fcall	__Umul8_16
  3388  01A5  1683               	bsf	3,5	;RP0=1, select bank1
  3389  01A6  1303               	bcf	3,6	;RP1=0, select bank1
  3390  01A7  0821               	movf	(?__Umul8_16+1)^(0+128),w
  3391  01A8  00C2               	movwf	(___flmul@temp+1)^(0+128)
  3392  01A9  0820               	movf	?__Umul8_16^(0+128),w
  3393  01AA  00C1               	movwf	___flmul@temp^(0+128)
  3394  01AB                     l4298:
  3395  01AB  0841               	movf	___flmul@temp^(0+128),w
  3396  01AC  00B1               	movwf	??___flmul^(0+128)
  3397  01AD  0842               	movf	(___flmul@temp+1)^(0+128),w
  3398  01AE  00B2               	movwf	(??___flmul^(0+128)+1)
  3399  01AF  01B3               	clrf	(??___flmul^(0+128)+2)
  3400  01B0  01B4               	clrf	(??___flmul^(0+128)+3)
  3401  01B1  0831               	movf	??___flmul^(0+128),w
  3402  01B2  07B8               	addwf	___flmul@grs^(0+128),f
  3403  01B3  0832               	movf	(??___flmul+1)^(0+128),w
  3404  01B4  1103               	clrz
  3405  01B5  1803               	skipnc
  3406  01B6  3E01               	addlw	1
  3407  01B7  1903               	skipnz
  3408  01B8  29BA               	goto	u6551
  3409  01B9  07B9               	addwf	(___flmul@grs+1)^(0+128),f
  3410  01BA                     u6551:
  3411  01BA  0833               	movf	(??___flmul+2)^(0+128),w
  3412  01BB  1103               	clrz
  3413  01BC  1803               	skipnc
  3414  01BD  3E01               	addlw	1
  3415  01BE  1903               	skipnz
  3416  01BF  29C1               	goto	u6552
  3417  01C0  07BA               	addwf	(___flmul@grs+2)^(0+128),f
  3418  01C1                     u6552:
  3419  01C1  0834               	movf	(??___flmul+3)^(0+128),w
  3420  01C2  1103               	clrz
  3421  01C3  1803               	skipnc
  3422  01C4  3E01               	addlw	1
  3423  01C5  1903               	skipnz
  3424  01C6  29C8               	goto	u6553
  3425  01C7  07BB               	addwf	(___flmul@grs+3)^(0+128),f
  3426  01C8                     u6553:
  3427  01C8                     l4300:
  3428  01C8  3008               	movlw	8
  3429  01C9  00B1               	movwf	??___flmul^(0+128)
  3430  01CA                     u6565:
  3431  01CA  1003               	clrc
  3432  01CB  0DB8               	rlf	___flmul@grs^(0+128),f
  3433  01CC  0DB9               	rlf	(___flmul@grs+1)^(0+128),f
  3434  01CD  0DBA               	rlf	(___flmul@grs+2)^(0+128),f
  3435  01CE  0DBB               	rlf	(___flmul@grs+3)^(0+128),f
  3436  01CF  0BB1               	decfsz	??___flmul^(0+128),f
  3437  01D0  29CA               	goto	u6565
  3438  01D1  0829               	movf	___flmul@b^(0+128),w
  3439  01D2  00FF               	movwf	btemp+1
  3440  01D3  087F               	movf	btemp+1,w
  3441  01D4  00A0               	movwf	__Umul8_16@multiplicand^(0+128)
  3442  01D5  082D               	movf	___flmul@a^(0+128),w
  3443  01D6  160A  118A  228F  120A  118A  	fcall	__Umul8_16
  3444  01DB  1683               	bsf	3,5	;RP0=1, select bank1
  3445  01DC  1303               	bcf	3,6	;RP1=0, select bank1
  3446  01DD  0821               	movf	(?__Umul8_16+1)^(0+128),w
  3447  01DE  00C2               	movwf	(___flmul@temp+1)^(0+128)
  3448  01DF  0820               	movf	?__Umul8_16^(0+128),w
  3449  01E0  00C1               	movwf	___flmul@temp^(0+128)
  3450  01E1                     l4302:
  3451  01E1  0841               	movf	___flmul@temp^(0+128),w
  3452  01E2  00B1               	movwf	??___flmul^(0+128)
  3453  01E3  0842               	movf	(___flmul@temp+1)^(0+128),w
  3454  01E4  00B2               	movwf	(??___flmul^(0+128)+1)
  3455  01E5  01B3               	clrf	(??___flmul^(0+128)+2)
  3456  01E6  01B4               	clrf	(??___flmul^(0+128)+3)
  3457  01E7  0831               	movf	??___flmul^(0+128),w
  3458  01E8  07B8               	addwf	___flmul@grs^(0+128),f
  3459  01E9  0832               	movf	(??___flmul+1)^(0+128),w
  3460  01EA  1103               	clrz
  3461  01EB  1803               	skipnc
  3462  01EC  3E01               	addlw	1
  3463  01ED  1903               	skipnz
  3464  01EE  29F0               	goto	u6571
  3465  01EF  07B9               	addwf	(___flmul@grs+1)^(0+128),f
  3466  01F0                     u6571:
  3467  01F0  0833               	movf	(??___flmul+2)^(0+128),w
  3468  01F1  1103               	clrz
  3469  01F2  1803               	skipnc
  3470  01F3  3E01               	addlw	1
  3471  01F4  1903               	skipnz
  3472  01F5  29F7               	goto	u6572
  3473  01F6  07BA               	addwf	(___flmul@grs+2)^(0+128),f
  3474  01F7                     u6572:
  3475  01F7  0834               	movf	(??___flmul+3)^(0+128),w
  3476  01F8  1103               	clrz
  3477  01F9  1803               	skipnc
  3478  01FA  3E01               	addlw	1
  3479  01FB  1903               	skipnz
  3480  01FC  29FE               	goto	u6573
  3481  01FD  07BB               	addwf	(___flmul@grs+3)^(0+128),f
  3482  01FE                     u6573:
  3483  01FE                     l4304:
  3484  01FE  082A               	movf	(___flmul@b^(0+128)+1),w
  3485  01FF  00FF               	movwf	btemp+1
  3486  0200  087F               	movf	btemp+1,w
  3487  0201  00A0               	movwf	__Umul8_16@multiplicand^(0+128)
  3488  0202  082F               	movf	(___flmul@a^(0+128)+2),w
  3489  0203  160A  118A  228F  120A  118A  	fcall	__Umul8_16
  3490  0208  1683               	bsf	3,5	;RP0=1, select bank1
  3491  0209  1303               	bcf	3,6	;RP1=0, select bank1
  3492  020A  0821               	movf	(?__Umul8_16+1)^(0+128),w
  3493  020B  00C2               	movwf	(___flmul@temp+1)^(0+128)
  3494  020C  0820               	movf	?__Umul8_16^(0+128),w
  3495  020D  00C1               	movwf	___flmul@temp^(0+128)
  3496  020E  0841               	movf	___flmul@temp^(0+128),w
  3497  020F  00B1               	movwf	??___flmul^(0+128)
  3498  0210  0842               	movf	(___flmul@temp+1)^(0+128),w
  3499  0211  00B2               	movwf	(??___flmul^(0+128)+1)
  3500  0212  01B3               	clrf	(??___flmul^(0+128)+2)
  3501  0213  01B4               	clrf	(??___flmul^(0+128)+3)
  3502  0214  0831               	movf	??___flmul^(0+128),w
  3503  0215  07BD               	addwf	___flmul@prod^(0+128),f
  3504  0216  0832               	movf	(??___flmul+1)^(0+128),w
  3505  0217  1103               	clrz
  3506  0218  1803               	skipnc
  3507  0219  3E01               	addlw	1
  3508  021A  1903               	skipnz
  3509  021B  2A1D               	goto	u6581
  3510  021C  07BE               	addwf	(___flmul@prod+1)^(0+128),f
  3511  021D                     u6581:
  3512  021D  0833               	movf	(??___flmul+2)^(0+128),w
  3513  021E  1103               	clrz
  3514  021F  1803               	skipnc
  3515  0220  3E01               	addlw	1
  3516  0221  1903               	skipnz
  3517  0222  2A24               	goto	u6582
  3518  0223  07BF               	addwf	(___flmul@prod+2)^(0+128),f
  3519  0224                     u6582:
  3520  0224  0834               	movf	(??___flmul+3)^(0+128),w
  3521  0225  1103               	clrz
  3522  0226  1803               	skipnc
  3523  0227  3E01               	addlw	1
  3524  0228  1903               	skipnz
  3525  0229  2A2B               	goto	u6583
  3526  022A  07C0               	addwf	(___flmul@prod+3)^(0+128),f
  3527  022B                     u6583:
  3528  022B                     l4306:
  3529  022B  082B               	movf	(___flmul@b^(0+128)+2),w
  3530  022C  00FF               	movwf	btemp+1
  3531  022D  087F               	movf	btemp+1,w
  3532  022E  00A0               	movwf	__Umul8_16@multiplicand^(0+128)
  3533  022F  082E               	movf	(___flmul@a^(0+128)+1),w
  3534  0230  160A  118A  228F  120A  118A  	fcall	__Umul8_16
  3535  0235  1683               	bsf	3,5	;RP0=1, select bank1
  3536  0236  1303               	bcf	3,6	;RP1=0, select bank1
  3537  0237  0821               	movf	(?__Umul8_16+1)^(0+128),w
  3538  0238  00C2               	movwf	(___flmul@temp+1)^(0+128)
  3539  0239  0820               	movf	?__Umul8_16^(0+128),w
  3540  023A  00C1               	movwf	___flmul@temp^(0+128)
  3541  023B                     l4308:
  3542  023B  0841               	movf	___flmul@temp^(0+128),w
  3543  023C  00B1               	movwf	??___flmul^(0+128)
  3544  023D  0842               	movf	(___flmul@temp+1)^(0+128),w
  3545  023E  00B2               	movwf	(??___flmul^(0+128)+1)
  3546  023F  01B3               	clrf	(??___flmul^(0+128)+2)
  3547  0240  01B4               	clrf	(??___flmul^(0+128)+3)
  3548  0241  0831               	movf	??___flmul^(0+128),w
  3549  0242  07BD               	addwf	___flmul@prod^(0+128),f
  3550  0243  0832               	movf	(??___flmul+1)^(0+128),w
  3551  0244  1103               	clrz
  3552  0245  1803               	skipnc
  3553  0246  3E01               	addlw	1
  3554  0247  1903               	skipnz
  3555  0248  2A4A               	goto	u6591
  3556  0249  07BE               	addwf	(___flmul@prod+1)^(0+128),f
  3557  024A                     u6591:
  3558  024A  0833               	movf	(??___flmul+2)^(0+128),w
  3559  024B  1103               	clrz
  3560  024C  1803               	skipnc
  3561  024D  3E01               	addlw	1
  3562  024E  1903               	skipnz
  3563  024F  2A51               	goto	u6592
  3564  0250  07BF               	addwf	(___flmul@prod+2)^(0+128),f
  3565  0251                     u6592:
  3566  0251  0834               	movf	(??___flmul+3)^(0+128),w
  3567  0252  1103               	clrz
  3568  0253  1803               	skipnc
  3569  0254  3E01               	addlw	1
  3570  0255  1903               	skipnz
  3571  0256  2A58               	goto	u6593
  3572  0257  07C0               	addwf	(___flmul@prod+3)^(0+128),f
  3573  0258                     u6593:
  3574  0258  082B               	movf	(___flmul@b^(0+128)+2),w
  3575  0259  00FF               	movwf	btemp+1
  3576  025A  087F               	movf	btemp+1,w
  3577  025B  00A0               	movwf	__Umul8_16@multiplicand^(0+128)
  3578  025C  082F               	movf	(___flmul@a^(0+128)+2),w
  3579  025D  160A  118A  228F  120A  118A  	fcall	__Umul8_16
  3580  0262  1683               	bsf	3,5	;RP0=1, select bank1
  3581  0263  1303               	bcf	3,6	;RP1=0, select bank1
  3582  0264  0821               	movf	(?__Umul8_16+1)^(0+128),w
  3583  0265  00C2               	movwf	(___flmul@temp+1)^(0+128)
  3584  0266  0820               	movf	?__Umul8_16^(0+128),w
  3585  0267  00C1               	movwf	___flmul@temp^(0+128)
  3586  0268                     l4310:
  3587  0268  0841               	movf	___flmul@temp^(0+128),w
  3588  0269  00B1               	movwf	??___flmul^(0+128)
  3589  026A  0842               	movf	(___flmul@temp+1)^(0+128),w
  3590  026B  00B2               	movwf	(??___flmul^(0+128)+1)
  3591  026C  01B3               	clrf	(??___flmul^(0+128)+2)
  3592  026D  01B4               	clrf	(??___flmul^(0+128)+3)
  3593  026E  3008               	movlw	8
  3594  026F                     u6605:
  3595  026F  1003               	clrc
  3596  0270  0DB1               	rlf	??___flmul^(0+128),f
  3597  0271  0DB2               	rlf	(??___flmul^(0+128)+1),f
  3598  0272  0DB3               	rlf	(??___flmul^(0+128)+2),f
  3599  0273  0DB4               	rlf	(??___flmul^(0+128)+3),f
  3600  0274                     u6600:
  3601  0274  3EFF               	addlw	-1
  3602  0275  1D03               	skipz
  3603  0276  2A6F               	goto	u6605
  3604  0277  0831               	movf	??___flmul^(0+128),w
  3605  0278  07BD               	addwf	___flmul@prod^(0+128),f
  3606  0279  0832               	movf	(??___flmul+1)^(0+128),w
  3607  027A  1103               	clrz
  3608  027B  1803               	skipnc
  3609  027C  3E01               	addlw	1
  3610  027D  1903               	skipnz
  3611  027E  2A80               	goto	u6611
  3612  027F  07BE               	addwf	(___flmul@prod+1)^(0+128),f
  3613  0280                     u6611:
  3614  0280  0833               	movf	(??___flmul+2)^(0+128),w
  3615  0281  1103               	clrz
  3616  0282  1803               	skipnc
  3617  0283  3E01               	addlw	1
  3618  0284  1903               	skipnz
  3619  0285  2A87               	goto	u6612
  3620  0286  07BF               	addwf	(___flmul@prod+2)^(0+128),f
  3621  0287                     u6612:
  3622  0287  0834               	movf	(??___flmul+3)^(0+128),w
  3623  0288  1103               	clrz
  3624  0289  1803               	skipnc
  3625  028A  3E01               	addlw	1
  3626  028B  1903               	skipnz
  3627  028C  2A8E               	goto	u6613
  3628  028D  07C0               	addwf	(___flmul@prod+3)^(0+128),f
  3629  028E                     u6613:
  3630  028E                     l4312:
  3631  028E  0838               	movf	___flmul@grs^(0+128),w
  3632  028F  00B1               	movwf	??___flmul^(0+128)
  3633  0290  0839               	movf	(___flmul@grs+1)^(0+128),w
  3634  0291  00B2               	movwf	(??___flmul^(0+128)+1)
  3635  0292  083A               	movf	(___flmul@grs+2)^(0+128),w
  3636  0293  00B3               	movwf	(??___flmul^(0+128)+2)
  3637  0294  083B               	movf	(___flmul@grs+3)^(0+128),w
  3638  0295  00B4               	movwf	(??___flmul^(0+128)+3)
  3639  0296  3018               	movlw	24
  3640  0297                     u6625:
  3641  0297  1003               	clrc
  3642  0298  0CB4               	rrf	(??___flmul^(0+128)+3),f
  3643  0299  0CB3               	rrf	(??___flmul^(0+128)+2),f
  3644  029A  0CB2               	rrf	(??___flmul^(0+128)+1),f
  3645  029B  0CB1               	rrf	??___flmul^(0+128),f
  3646  029C                     u6620:
  3647  029C  3EFF               	addlw	-1
  3648  029D  1D03               	skipz
  3649  029E  2A97               	goto	u6625
  3650  029F  0831               	movf	??___flmul^(0+128),w
  3651  02A0  07BD               	addwf	___flmul@prod^(0+128),f
  3652  02A1  0832               	movf	(??___flmul+1)^(0+128),w
  3653  02A2  1103               	clrz
  3654  02A3  1803               	skipnc
  3655  02A4  3E01               	addlw	1
  3656  02A5  1903               	skipnz
  3657  02A6  2AA8               	goto	u6631
  3658  02A7  07BE               	addwf	(___flmul@prod+1)^(0+128),f
  3659  02A8                     u6631:
  3660  02A8  0833               	movf	(??___flmul+2)^(0+128),w
  3661  02A9  1103               	clrz
  3662  02AA  1803               	skipnc
  3663  02AB  3E01               	addlw	1
  3664  02AC  1903               	skipnz
  3665  02AD  2AAF               	goto	u6632
  3666  02AE  07BF               	addwf	(___flmul@prod+2)^(0+128),f
  3667  02AF                     u6632:
  3668  02AF  0834               	movf	(??___flmul+3)^(0+128),w
  3669  02B0  1103               	clrz
  3670  02B1  1803               	skipnc
  3671  02B2  3E01               	addlw	1
  3672  02B3  1903               	skipnz
  3673  02B4  2AB6               	goto	u6633
  3674  02B5  07C0               	addwf	(___flmul@prod+3)^(0+128),f
  3675  02B6                     u6633:
  3676  02B6                     l4314:
  3677  02B6  3008               	movlw	8
  3678  02B7  00B1               	movwf	??___flmul^(0+128)
  3679  02B8                     u6645:
  3680  02B8  1003               	clrc
  3681  02B9  0DB8               	rlf	___flmul@grs^(0+128),f
  3682  02BA  0DB9               	rlf	(___flmul@grs+1)^(0+128),f
  3683  02BB  0DBA               	rlf	(___flmul@grs+2)^(0+128),f
  3684  02BC  0DBB               	rlf	(___flmul@grs+3)^(0+128),f
  3685  02BD  0BB1               	decfsz	??___flmul^(0+128),f
  3686  02BE  2AB8               	goto	u6645
  3687  02BF                     l4316:
  3688  02BF  083C               	movf	___flmul@bexp^(0+128),w
  3689  02C0  0737               	addwf	___flmul@aexp^(0+128),w
  3690  02C1  00B1               	movwf	??___flmul^(0+128)
  3691  02C2  01B2               	clrf	(??___flmul^(0+128)+1)
  3692  02C3  0DB2               	rlf	(??___flmul+1)^(0+128),f
  3693  02C4  0831               	movf	??___flmul^(0+128),w
  3694  02C5  3E82               	addlw	130
  3695  02C6  00C1               	movwf	___flmul@temp^(0+128)
  3696  02C7  0832               	movf	(??___flmul+1)^(0+128),w
  3697  02C8  1803               	skipnc
  3698  02C9  3E01               	addlw	1
  3699  02CA  3EFF               	addlw	255
  3700  02CB  00C2               	movwf	(___flmul@temp+1)^(0+128)
  3701  02CC  2AEA               	goto	l4328
  3702  02CD                     l4318:
  3703  02CD  3001               	movlw	1
  3704  02CE  00B1               	movwf	??___flmul^(0+128)
  3705  02CF                     u6655:
  3706  02CF  1003               	clrc
  3707  02D0  0DBD               	rlf	___flmul@prod^(0+128),f
  3708  02D1  0DBE               	rlf	(___flmul@prod+1)^(0+128),f
  3709  02D2  0DBF               	rlf	(___flmul@prod+2)^(0+128),f
  3710  02D3  0DC0               	rlf	(___flmul@prod+3)^(0+128),f
  3711  02D4  0BB1               	decfsz	??___flmul^(0+128),f
  3712  02D5  2ACF               	goto	u6655
  3713  02D6                     l4320:
  3714  02D6  1FBB               	btfss	(___flmul@grs+3)^(0+128),7
  3715  02D7  2AD9               	goto	u6661
  3716  02D8  2ADA               	goto	u6660
  3717  02D9                     u6661:
  3718  02D9  2ADB               	goto	l4324
  3719  02DA                     u6660:
  3720  02DA                     l4322:
  3721  02DA  143D               	bsf	___flmul@prod^(0+128),0
  3722  02DB                     l4324:
  3723  02DB  3001               	movlw	1
  3724  02DC  00B1               	movwf	??___flmul^(0+128)
  3725  02DD                     u6675:
  3726  02DD  1003               	clrc
  3727  02DE  0DB8               	rlf	___flmul@grs^(0+128),f
  3728  02DF  0DB9               	rlf	(___flmul@grs+1)^(0+128),f
  3729  02E0  0DBA               	rlf	(___flmul@grs+2)^(0+128),f
  3730  02E1  0DBB               	rlf	(___flmul@grs+3)^(0+128),f
  3731  02E2  0BB1               	decfsz	??___flmul^(0+128),f
  3732  02E3  2ADD               	goto	u6675
  3733  02E4                     l4326:
  3734  02E4  30FF               	movlw	255
  3735  02E5  07C1               	addwf	___flmul@temp^(0+128),f
  3736  02E6  1803               	skipnc
  3737  02E7  0AC2               	incf	(___flmul@temp+1)^(0+128),f
  3738  02E8  30FF               	movlw	255
  3739  02E9  07C2               	addwf	(___flmul@temp+1)^(0+128),f
  3740  02EA                     l4328:
  3741  02EA  1FBF               	btfss	(___flmul@prod+2)^(0+128),7
  3742  02EB  2AED               	goto	u6681
  3743  02EC  2AEE               	goto	u6680
  3744  02ED                     u6681:
  3745  02ED  2ACD               	goto	l4318
  3746  02EE                     u6680:
  3747  02EE                     l4330:
  3748  02EE  01B7               	clrf	___flmul@aexp^(0+128)
  3749  02EF                     l4332:
  3750  02EF  1FBB               	btfss	(___flmul@grs+3)^(0+128),7
  3751  02F0  2AF2               	goto	u6691
  3752  02F1  2AF3               	goto	u6690
  3753  02F2                     u6691:
  3754  02F2  2B0F               	goto	l4340
  3755  02F3                     u6690:
  3756  02F3                     l4334:
  3757  02F3  30FF               	movlw	255
  3758  02F4  0538               	andwf	___flmul@grs^(0+128),w
  3759  02F5  00B1               	movwf	??___flmul^(0+128)
  3760  02F6  30FF               	movlw	255
  3761  02F7  0539               	andwf	(___flmul@grs+1)^(0+128),w
  3762  02F8  00B2               	movwf	(??___flmul^(0+128)+1)
  3763  02F9  30FF               	movlw	255
  3764  02FA  053A               	andwf	(___flmul@grs+2)^(0+128),w
  3765  02FB  00B3               	movwf	(??___flmul^(0+128)+2)
  3766  02FC  307F               	movlw	127
  3767  02FD  053B               	andwf	(___flmul@grs+3)^(0+128),w
  3768  02FE  00B4               	movwf	(??___flmul^(0+128)+3)
  3769  02FF  0834               	movf	(??___flmul+3)^(0+128),w
  3770  0300  0433               	iorwf	(??___flmul+2)^(0+128),w
  3771  0301  0432               	iorwf	(??___flmul+1)^(0+128),w
  3772  0302  0431               	iorwf	??___flmul^(0+128),w
  3773  0303  1903               	skipnz
  3774  0304  2B06               	goto	u6701
  3775  0305  2B07               	goto	u6700
  3776  0306                     u6701:
  3777  0306  2B0A               	goto	l679
  3778  0307                     u6700:
  3779  0307                     l4336:
  3780  0307  01B7               	clrf	___flmul@aexp^(0+128)
  3781  0308  0AB7               	incf	___flmul@aexp^(0+128),f
  3782  0309  2B0F               	goto	l4340
  3783  030A                     l679:
  3784  030A  1C3D               	btfss	___flmul@prod^(0+128),0
  3785  030B  2B0D               	goto	u6711
  3786  030C  2B0E               	goto	u6710
  3787  030D                     u6711:
  3788  030D  2B0F               	goto	l4340
  3789  030E                     u6710:
  3790  030E  2B07               	goto	l4336
  3791  030F                     l4340:
  3792  030F  0837               	movf	___flmul@aexp^(0+128),w
  3793  0310  1903               	btfsc	3,2
  3794  0311  2B13               	goto	u6721
  3795  0312  2B14               	goto	u6720
  3796  0313                     u6721:
  3797  0313  2B45               	goto	l4350
  3798  0314                     u6720:
  3799  0314                     l4342:
  3800  0314  3001               	movlw	1
  3801  0315  07BD               	addwf	___flmul@prod^(0+128),f
  3802  0316  3000               	movlw	0
  3803  0317  1803               	skipnc
  3804  0318  3001               	movlw	1
  3805  0319  07BE               	addwf	(___flmul@prod+1)^(0+128),f
  3806  031A  3000               	movlw	0
  3807  031B  1803               	skipnc
  3808  031C  3001               	movlw	1
  3809  031D  07BF               	addwf	(___flmul@prod+2)^(0+128),f
  3810  031E  3000               	movlw	0
  3811  031F  1803               	skipnc
  3812  0320  3001               	movlw	1
  3813  0321  07C0               	addwf	(___flmul@prod+3)^(0+128),f
  3814  0322                     l4344:
  3815  0322  1C40               	btfss	(___flmul@prod+3)^(0+128),0
  3816  0323  2B25               	goto	u6731
  3817  0324  2B26               	goto	u6730
  3818  0325                     u6731:
  3819  0325  2B45               	goto	l4350
  3820  0326                     u6730:
  3821  0326                     l4346:
  3822  0326  083D               	movf	___flmul@prod^(0+128),w
  3823  0327  00B1               	movwf	??___flmul^(0+128)
  3824  0328  083E               	movf	(___flmul@prod+1)^(0+128),w
  3825  0329  00B2               	movwf	(??___flmul^(0+128)+1)
  3826  032A  083F               	movf	(___flmul@prod+2)^(0+128),w
  3827  032B  00B3               	movwf	(??___flmul^(0+128)+2)
  3828  032C  0840               	movf	(___flmul@prod+3)^(0+128),w
  3829  032D  00B4               	movwf	(??___flmul^(0+128)+3)
  3830  032E  3001               	movlw	1
  3831  032F  00B5               	movwf	(??___flmul+4)^(0+128)
  3832  0330                     u6745:
  3833  0330  0D34               	rlf	(??___flmul^(0+128)+3),w
  3834  0331  0CB4               	rrf	(??___flmul^(0+128)+3),f
  3835  0332  0CB3               	rrf	(??___flmul^(0+128)+2),f
  3836  0333  0CB2               	rrf	(??___flmul^(0+128)+1),f
  3837  0334  0CB1               	rrf	??___flmul^(0+128),f
  3838  0335                     u6740:
  3839  0335  0BB5               	decfsz	(??___flmul+4)^(0+128),f
  3840  0336  2B30               	goto	u6745
  3841  0337  0834               	movf	(??___flmul+3)^(0+128),w
  3842  0338  00C0               	movwf	(___flmul@prod+3)^(0+128)
  3843  0339  0833               	movf	(??___flmul+2)^(0+128),w
  3844  033A  00BF               	movwf	(___flmul@prod+2)^(0+128)
  3845  033B  0832               	movf	(??___flmul+1)^(0+128),w
  3846  033C  00BE               	movwf	(___flmul@prod+1)^(0+128)
  3847  033D  0831               	movf	??___flmul^(0+128),w
  3848  033E  00BD               	movwf	___flmul@prod^(0+128)
  3849  033F                     l4348:
  3850  033F  3001               	movlw	1
  3851  0340  07C1               	addwf	___flmul@temp^(0+128),f
  3852  0341  1803               	skipnc
  3853  0342  0AC2               	incf	(___flmul@temp+1)^(0+128),f
  3854  0343  3000               	movlw	0
  3855  0344  07C2               	addwf	(___flmul@temp+1)^(0+128),f
  3856  0345                     l4350:
  3857  0345  0842               	movf	(___flmul@temp+1)^(0+128),w
  3858  0346  3A80               	xorlw	128
  3859  0347  00FF               	movwf	btemp+1
  3860  0348  3080               	movlw	128
  3861  0349  027F               	subwf	btemp+1,w
  3862  034A  1D03               	skipz
  3863  034B  2B4E               	goto	u6755
  3864  034C  30FF               	movlw	255
  3865  034D  0241               	subwf	___flmul@temp^(0+128),w
  3866  034E                     u6755:
  3867  034E  1C03               	skipc
  3868  034F  2B51               	goto	u6751
  3869  0350  2B52               	goto	u6750
  3870  0351                     u6751:
  3871  0351  2B5D               	goto	l4354
  3872  0352                     u6750:
  3873  0352                     l4352:
  3874  0352  307F               	movlw	127
  3875  0353  1683               	bsf	3,5	;RP0=1, select bank1
  3876  0354  1303               	bcf	3,6	;RP1=0, select bank1
  3877  0355  00C0               	movwf	(___flmul@prod+3)^(0+128)
  3878  0356  3080               	movlw	128
  3879  0357  00BF               	movwf	(___flmul@prod+2)^(0+128)
  3880  0358  3000               	movlw	0
  3881  0359  00BE               	movwf	(___flmul@prod+1)^(0+128)
  3882  035A  3000               	movlw	0
  3883  035B  00BD               	movwf	___flmul@prod^(0+128)
  3884  035C  2B92               	goto	l685
  3885  035D                     l4354:
  3886  035D  1683               	bsf	3,5	;RP0=1, select bank1
  3887  035E  1303               	bcf	3,6	;RP1=0, select bank1
  3888  035F  0842               	movf	(___flmul@temp+1)^(0+128),w
  3889  0360  3A80               	xorlw	128
  3890  0361  00FF               	movwf	btemp+1
  3891  0362  3080               	movlw	128
  3892  0363  027F               	subwf	btemp+1,w
  3893  0364  1D03               	skipz
  3894  0365  2B68               	goto	u6765
  3895  0366  3001               	movlw	1
  3896  0367  0241               	subwf	___flmul@temp^(0+128),w
  3897  0368                     u6765:
  3898  0368  1803               	skipnc
  3899  0369  2B6B               	goto	u6761
  3900  036A  2B6C               	goto	u6760
  3901  036B                     u6761:
  3902  036B  2B78               	goto	l4360
  3903  036C                     u6760:
  3904  036C                     l4356:
  3905  036C  3000               	movlw	0
  3906  036D  1683               	bsf	3,5	;RP0=1, select bank1
  3907  036E  1303               	bcf	3,6	;RP1=0, select bank1
  3908  036F  00C0               	movwf	(___flmul@prod+3)^(0+128)
  3909  0370  3000               	movlw	0
  3910  0371  00BF               	movwf	(___flmul@prod+2)^(0+128)
  3911  0372  3000               	movlw	0
  3912  0373  00BE               	movwf	(___flmul@prod+1)^(0+128)
  3913  0374  3000               	movlw	0
  3914  0375  00BD               	movwf	___flmul@prod^(0+128)
  3915  0376                     l4358:
  3916  0376  01B6               	clrf	___flmul@sign^(0+128)
  3917  0377  2B92               	goto	l685
  3918  0378                     l4360:
  3919  0378  1683               	bsf	3,5	;RP0=1, select bank1
  3920  0379  1303               	bcf	3,6	;RP1=0, select bank1
  3921  037A  0841               	movf	___flmul@temp^(0+128),w
  3922  037B  00FF               	movwf	btemp+1
  3923  037C  087F               	movf	btemp+1,w
  3924  037D  00BC               	movwf	___flmul@bexp^(0+128)
  3925  037E                     l4362:
  3926  037E  30FF               	movlw	255
  3927  037F  05BD               	andwf	___flmul@prod^(0+128),f
  3928  0380  30FF               	movlw	255
  3929  0381  05BE               	andwf	(___flmul@prod+1)^(0+128),f
  3930  0382  307F               	movlw	127
  3931  0383  05BF               	andwf	(___flmul@prod+2)^(0+128),f
  3932  0384  3000               	movlw	0
  3933  0385  05C0               	andwf	(___flmul@prod+3)^(0+128),f
  3934  0386                     l4364:
  3935  0386  1C3C               	btfss	___flmul@bexp^(0+128),0
  3936  0387  2B89               	goto	u6771
  3937  0388  2B8A               	goto	u6770
  3938  0389                     u6771:
  3939  0389  2B8B               	goto	l4368
  3940  038A                     u6770:
  3941  038A                     l4366:
  3942  038A  17BF               	bsf	(___flmul@prod^(0+128)+2),7
  3943  038B                     l4368:
  3944  038B  083C               	movf	___flmul@bexp^(0+128),w
  3945  038C  00B1               	movwf	??___flmul^(0+128)
  3946  038D  1003               	clrc
  3947  038E  0C31               	rrf	??___flmul^(0+128),w
  3948  038F  00FF               	movwf	btemp+1
  3949  0390  087F               	movf	btemp+1,w
  3950  0391  00C0               	movwf	(___flmul@prod^(0+128)+3)
  3951  0392                     l685:
  3952  0392  0836               	movf	___flmul@sign^(0+128),w
  3953  0393  00FF               	movwf	btemp+1
  3954  0394  087F               	movf	btemp+1,w
  3955  0395  04C0               	iorwf	(___flmul@prod^(0+128)+3),f
  3956  0396                     l4370:
  3957  0396  0840               	movf	(___flmul@prod+3)^(0+128),w
  3958  0397  00AC               	movwf	(?___flmul+3)^(0+128)
  3959  0398  083F               	movf	(___flmul@prod+2)^(0+128),w
  3960  0399  00AB               	movwf	(?___flmul+2)^(0+128)
  3961  039A  083E               	movf	(___flmul@prod+1)^(0+128),w
  3962  039B  00AA               	movwf	(?___flmul+1)^(0+128)
  3963  039C  083D               	movf	___flmul@prod^(0+128),w
  3964  039D  00A9               	movwf	?___flmul^(0+128)
  3965  039E                     l673:
  3966  039E  0008               	return
  3967  039F                     __end_of___flmul:
  3968                           
  3969                           	psect	text5
  3970  128F                     __ptext5:	
  3971 ;; *************** function __Umul8_16 *****************
  3972 ;; Defined at:
  3973 ;;		line 4 in file "C:\Program Files\Microchip\xc8\v2.20\pic\sources\c90\common\Umul8_16.c"
  3974 ;; Parameters:    Size  Location     Type
  3975 ;;  multiplier      1    wreg     unsigned char 
  3976 ;;  multiplicand    1    0[BANK1 ] unsigned char 
  3977 ;; Auto vars:     Size  Location     Type
  3978 ;;  multiplier      1    8[BANK1 ] unsigned char 
  3979 ;;  word_mpld       2    6[BANK1 ] unsigned int 
  3980 ;;  product         2    4[BANK1 ] unsigned int 
  3981 ;; Return value:  Size  Location     Type
  3982 ;;                  2    0[BANK1 ] unsigned int 
  3983 ;; Registers used:
  3984 ;;		wreg, status,2, status,0
  3985 ;; Tracked objects:
  3986 ;;		On entry : 0/0
  3987 ;;		On exit  : 0/0
  3988 ;;		Unchanged: 0/0
  3989 ;; Data sizes:     COMMON   BANK0   BANK1   BANK3   BANK2
  3990 ;;      Params:         0       0       2       0       0
  3991 ;;      Locals:         0       0       5       0       0
  3992 ;;      Temps:          0       0       2       0       0
  3993 ;;      Totals:         0       0       9       0       0
  3994 ;;Total ram usage:        9 bytes
  3995 ;; Hardware stack levels used:    1
  3996 ;; Hardware stack levels required when called:    3
  3997 ;; This function calls:
  3998 ;;		Nothing
  3999 ;; This function is called by:
  4000 ;;		___flmul
  4001 ;; This function uses a non-reentrant model
  4002 ;;
  4003                           
  4004                           
  4005                           ;psect for function __Umul8_16
  4006  128F                     __Umul8_16:
  4007                           
  4008                           ;incstack = 0
  4009                           ; Regs used in __Umul8_16: [wreg+status,2+status,0]
  4010                           ;__Umul8_16@multiplier stored from wreg
  4011  128F  1683               	bsf	3,5	;RP0=1, select bank1
  4012  1290  1303               	bcf	3,6	;RP1=0, select bank1
  4013  1291  00A8               	movwf	__Umul8_16@multiplier^(0+128)
  4014  1292                     l3852:
  4015  1292  01A4               	clrf	__Umul8_16@product^(0+128)
  4016  1293  01A5               	clrf	(__Umul8_16@product+1)^(0+128)
  4017  1294                     l3854:
  4018  1294  0820               	movf	__Umul8_16@multiplicand^(0+128),w
  4019  1295  00A2               	movwf	??__Umul8_16^(0+128)
  4020  1296  01A3               	clrf	(??__Umul8_16^(0+128)+1)
  4021  1297  0822               	movf	??__Umul8_16^(0+128),w
  4022  1298  00A6               	movwf	__Umul8_16@word_mpld^(0+128)
  4023  1299  0823               	movf	(??__Umul8_16+1)^(0+128),w
  4024  129A  00A7               	movwf	(__Umul8_16@word_mpld+1)^(0+128)
  4025  129B                     l3856:
  4026  129B  1C28               	btfss	__Umul8_16@multiplier^(0+128),0
  4027  129C  2A9E               	goto	u5851
  4028  129D  2A9F               	goto	u5850
  4029  129E                     u5851:
  4030  129E  2AA5               	goto	l692
  4031  129F                     u5850:
  4032  129F                     l3858:
  4033  129F  0826               	movf	__Umul8_16@word_mpld^(0+128),w
  4034  12A0  07A4               	addwf	__Umul8_16@product^(0+128),f
  4035  12A1  1803               	skipnc
  4036  12A2  0AA5               	incf	(__Umul8_16@product+1)^(0+128),f
  4037  12A3  0827               	movf	(__Umul8_16@word_mpld+1)^(0+128),w
  4038  12A4  07A5               	addwf	(__Umul8_16@product+1)^(0+128),f
  4039  12A5                     l692:
  4040  12A5  3001               	movlw	1
  4041  12A6                     u5865:
  4042  12A6  1003               	clrc
  4043  12A7  0DA6               	rlf	__Umul8_16@word_mpld^(0+128),f
  4044  12A8  0DA7               	rlf	(__Umul8_16@word_mpld+1)^(0+128),f
  4045  12A9  3EFF               	addlw	-1
  4046  12AA  1D03               	skipz
  4047  12AB  2AA6               	goto	u5865
  4048  12AC  1003               	clrc
  4049  12AD  0CA8               	rrf	__Umul8_16@multiplier^(0+128),f
  4050  12AE                     l3860:
  4051  12AE  0828               	movf	__Umul8_16@multiplier^(0+128),w
  4052  12AF  1D03               	btfss	3,2
  4053  12B0  2AB2               	goto	u5871
  4054  12B1  2AB3               	goto	u5870
  4055  12B2                     u5871:
  4056  12B2  2A9B               	goto	l3856
  4057  12B3                     u5870:
  4058  12B3                     l3862:
  4059  12B3  0825               	movf	(__Umul8_16@product+1)^(0+128),w
  4060  12B4  00A1               	movwf	(?__Umul8_16+1)^(0+128)
  4061  12B5  0824               	movf	__Umul8_16@product^(0+128),w
  4062  12B6  00A0               	movwf	?__Umul8_16^(0+128)
  4063  12B7                     l694:
  4064  12B7  0008               	return
  4065  12B8                     __end_of__Umul8_16:
  4066                           
  4067                           	psect	text6
  4068  0954                     __ptext6:	
  4069 ;; *************** function ___fldiv *****************
  4070 ;; Defined at:
  4071 ;;		line 8 in file "C:\Program Files\Microchip\xc8\v2.20\pic\sources\c90\common\sprcdiv.c"
  4072 ;; Parameters:    Size  Location     Type
  4073 ;;  a               4   35[BANK1 ] unsigned int 
  4074 ;;  b               4   39[BANK1 ] unsigned int 
  4075 ;; Auto vars:     Size  Location     Type
  4076 ;;  grs             4   55[BANK1 ] unsigned long 
  4077 ;;  rem             4   48[BANK1 ] unsigned long 
  4078 ;;  new_exp         2   53[BANK1 ] int 
  4079 ;;  aexp            1   60[BANK1 ] unsigned char 
  4080 ;;  bexp            1   59[BANK1 ] unsigned char 
  4081 ;;  sign            1   52[BANK1 ] unsigned char 
  4082 ;; Return value:  Size  Location     Type
  4083 ;;                  4   35[BANK1 ] unsigned char 
  4084 ;; Registers used:
  4085 ;;		wreg, status,2, status,0, btemp+1
  4086 ;; Tracked objects:
  4087 ;;		On entry : 0/0
  4088 ;;		On exit  : 0/0
  4089 ;;		Unchanged: 0/0
  4090 ;; Data sizes:     COMMON   BANK0   BANK1   BANK3   BANK2
  4091 ;;      Params:         0       0       8       0       0
  4092 ;;      Locals:         0       0      13       0       0
  4093 ;;      Temps:          0       0       5       0       0
  4094 ;;      Totals:         0       0      26       0       0
  4095 ;;Total ram usage:       26 bytes
  4096 ;; Hardware stack levels used:    1
  4097 ;; Hardware stack levels required when called:    3
  4098 ;; This function calls:
  4099 ;;		Nothing
  4100 ;; This function is called by:
  4101 ;;		_main
  4102 ;; This function uses a non-reentrant model
  4103 ;;
  4104                           
  4105                           
  4106                           ;psect for function ___fldiv
  4107  0954                     ___fldiv:
  4108  0954                     l4088:	
  4109                           ;incstack = 0
  4110                           ; Regs used in ___fldiv: [wreg+status,2+status,0+btemp+1]
  4111                           
  4112  0954  1683               	bsf	3,5	;RP0=1, select bank1
  4113  0955  1303               	bcf	3,6	;RP1=0, select bank1
  4114  0956  084A               	movf	(___fldiv@b^(0+128)+3),w
  4115  0957  3980               	andlw	128
  4116  0958  00FF               	movwf	btemp+1
  4117  0959  087F               	movf	btemp+1,w
  4118  095A  00D4               	movwf	___fldiv@sign^(0+128)
  4119  095B                     l4090:
  4120  095B  084A               	movf	(___fldiv@b^(0+128)+3),w
  4121  095C  00CB               	movwf	??___fldiv^(0+128)
  4122  095D  074B               	addwf	??___fldiv^(0+128),w
  4123  095E  00FF               	movwf	btemp+1
  4124  095F  087F               	movf	btemp+1,w
  4125  0960  00DB               	movwf	___fldiv@bexp^(0+128)
  4126  0961                     l4092:
  4127  0961  1FC9               	btfss	(___fldiv@b^(0+128)+2),7
  4128  0962  2964               	goto	u6121
  4129  0963  2965               	goto	u6120
  4130  0964                     u6121:
  4131  0964  2966               	goto	l4096
  4132  0965                     u6120:
  4133  0965                     l4094:
  4134  0965  145B               	bsf	___fldiv@bexp^(0+128),0
  4135  0966                     l4096:
  4136  0966  085B               	movf	___fldiv@bexp^(0+128),w
  4137  0967  1903               	btfsc	3,2
  4138  0968  296A               	goto	u6131
  4139  0969  296B               	goto	u6130
  4140  096A                     u6131:
  4141  096A  297B               	goto	l4106
  4142  096B                     u6130:
  4143  096B                     l4098:
  4144  096B  0A5B               	incf	___fldiv@bexp^(0+128),w
  4145  096C  1D03               	btfss	3,2
  4146  096D  296F               	goto	u6141
  4147  096E  2970               	goto	u6140
  4148  096F                     u6141:
  4149  096F  2978               	goto	l4102
  4150  0970                     u6140:
  4151  0970                     l4100:
  4152  0970  3000               	movlw	0
  4153  0971  00CA               	movwf	(___fldiv@b+3)^(0+128)
  4154  0972  3000               	movlw	0
  4155  0973  00C9               	movwf	(___fldiv@b+2)^(0+128)
  4156  0974  3000               	movlw	0
  4157  0975  00C8               	movwf	(___fldiv@b+1)^(0+128)
  4158  0976  3000               	movlw	0
  4159  0977  00C7               	movwf	___fldiv@b^(0+128)
  4160  0978                     l4102:
  4161  0978  17C9               	bsf	(___fldiv@b^(0+128)+2),7
  4162  0979                     l4104:
  4163  0979  01CA               	clrf	(___fldiv@b^(0+128)+3)
  4164  097A  2983               	goto	l4108
  4165  097B                     l4106:
  4166  097B  3000               	movlw	0
  4167  097C  00CA               	movwf	(___fldiv@b+3)^(0+128)
  4168  097D  3000               	movlw	0
  4169  097E  00C9               	movwf	(___fldiv@b+2)^(0+128)
  4170  097F  3000               	movlw	0
  4171  0980  00C8               	movwf	(___fldiv@b+1)^(0+128)
  4172  0981  3000               	movlw	0
  4173  0982  00C7               	movwf	___fldiv@b^(0+128)
  4174  0983                     l4108:
  4175  0983  0846               	movf	(___fldiv@a^(0+128)+3),w
  4176  0984  3980               	andlw	128
  4177  0985  00FF               	movwf	btemp+1
  4178  0986  087F               	movf	btemp+1,w
  4179  0987  06D4               	xorwf	___fldiv@sign^(0+128),f
  4180  0988                     l4110:
  4181  0988  0846               	movf	(___fldiv@a^(0+128)+3),w
  4182  0989  00CB               	movwf	??___fldiv^(0+128)
  4183  098A  074B               	addwf	??___fldiv^(0+128),w
  4184  098B  00FF               	movwf	btemp+1
  4185  098C  087F               	movf	btemp+1,w
  4186  098D  00DC               	movwf	___fldiv@aexp^(0+128)
  4187  098E                     l4112:
  4188  098E  1FC5               	btfss	(___fldiv@a^(0+128)+2),7
  4189  098F  2991               	goto	u6151
  4190  0990  2992               	goto	u6150
  4191  0991                     u6151:
  4192  0991  2993               	goto	l4116
  4193  0992                     u6150:
  4194  0992                     l4114:
  4195  0992  145C               	bsf	___fldiv@aexp^(0+128),0
  4196  0993                     l4116:
  4197  0993  085C               	movf	___fldiv@aexp^(0+128),w
  4198  0994  1903               	btfsc	3,2
  4199  0995  2997               	goto	u6161
  4200  0996  2998               	goto	u6160
  4201  0997                     u6161:
  4202  0997  29A8               	goto	l4126
  4203  0998                     u6160:
  4204  0998                     l4118:
  4205  0998  0A5C               	incf	___fldiv@aexp^(0+128),w
  4206  0999  1D03               	btfss	3,2
  4207  099A  299C               	goto	u6171
  4208  099B  299D               	goto	u6170
  4209  099C                     u6171:
  4210  099C  29A5               	goto	l4122
  4211  099D                     u6170:
  4212  099D                     l4120:
  4213  099D  3000               	movlw	0
  4214  099E  00C6               	movwf	(___fldiv@a+3)^(0+128)
  4215  099F  3000               	movlw	0
  4216  09A0  00C5               	movwf	(___fldiv@a+2)^(0+128)
  4217  09A1  3000               	movlw	0
  4218  09A2  00C4               	movwf	(___fldiv@a+1)^(0+128)
  4219  09A3  3000               	movlw	0
  4220  09A4  00C3               	movwf	___fldiv@a^(0+128)
  4221  09A5                     l4122:
  4222  09A5  17C5               	bsf	(___fldiv@a^(0+128)+2),7
  4223  09A6                     l4124:
  4224  09A6  01C6               	clrf	(___fldiv@a^(0+128)+3)
  4225  09A7  29B0               	goto	l633
  4226  09A8                     l4126:
  4227  09A8  3000               	movlw	0
  4228  09A9  00C6               	movwf	(___fldiv@a+3)^(0+128)
  4229  09AA  3000               	movlw	0
  4230  09AB  00C5               	movwf	(___fldiv@a+2)^(0+128)
  4231  09AC  3000               	movlw	0
  4232  09AD  00C4               	movwf	(___fldiv@a+1)^(0+128)
  4233  09AE  3000               	movlw	0
  4234  09AF  00C3               	movwf	___fldiv@a^(0+128)
  4235  09B0                     l633:
  4236  09B0  0846               	movf	(___fldiv@a+3)^(0+128),w
  4237  09B1  0445               	iorwf	(___fldiv@a+2)^(0+128),w
  4238  09B2  0444               	iorwf	(___fldiv@a+1)^(0+128),w
  4239  09B3  0443               	iorwf	___fldiv@a^(0+128),w
  4240  09B4  1D03               	skipz
  4241  09B5  29B7               	goto	u6181
  4242  09B6  29B8               	goto	u6180
  4243  09B7                     u6181:
  4244  09B7  29D1               	goto	l4136
  4245  09B8                     u6180:
  4246  09B8                     l4128:
  4247  09B8  3000               	movlw	0
  4248  09B9  00CA               	movwf	(___fldiv@b+3)^(0+128)
  4249  09BA  3000               	movlw	0
  4250  09BB  00C9               	movwf	(___fldiv@b+2)^(0+128)
  4251  09BC  3000               	movlw	0
  4252  09BD  00C8               	movwf	(___fldiv@b+1)^(0+128)
  4253  09BE  3000               	movlw	0
  4254  09BF  00C7               	movwf	___fldiv@b^(0+128)
  4255  09C0  3080               	movlw	128
  4256  09C1  04C9               	iorwf	(___fldiv@b^(0+128)+2),f
  4257  09C2  307F               	movlw	127
  4258  09C3  04CA               	iorwf	((___fldiv@b+1)^(0+128)+2),f
  4259  09C4                     l4130:
  4260  09C4  0854               	movf	___fldiv@sign^(0+128),w
  4261  09C5  00FF               	movwf	btemp+1
  4262  09C6  087F               	movf	btemp+1,w
  4263  09C7  04CA               	iorwf	(___fldiv@b^(0+128)+3),f
  4264  09C8                     l4132:
  4265  09C8  084A               	movf	(___fldiv@b+3)^(0+128),w
  4266  09C9  00C6               	movwf	(?___fldiv+3)^(0+128)
  4267  09CA  0849               	movf	(___fldiv@b+2)^(0+128),w
  4268  09CB  00C5               	movwf	(?___fldiv+2)^(0+128)
  4269  09CC  0848               	movf	(___fldiv@b+1)^(0+128),w
  4270  09CD  00C4               	movwf	(?___fldiv+1)^(0+128)
  4271  09CE  0847               	movf	___fldiv@b^(0+128),w
  4272  09CF  00C3               	movwf	?___fldiv^(0+128)
  4273  09D0  2B30               	goto	l635
  4274  09D1                     l4136:
  4275  09D1  085B               	movf	___fldiv@bexp^(0+128),w
  4276  09D2  1D03               	btfss	3,2
  4277  09D3  29D5               	goto	u6191
  4278  09D4  29D6               	goto	u6190
  4279  09D5                     u6191:
  4280  09D5  29DF               	goto	l4142
  4281  09D6                     u6190:
  4282  09D6                     l4138:
  4283  09D6  3000               	movlw	0
  4284  09D7  00C6               	movwf	(?___fldiv+3)^(0+128)
  4285  09D8  3000               	movlw	0
  4286  09D9  00C5               	movwf	(?___fldiv+2)^(0+128)
  4287  09DA  3000               	movlw	0
  4288  09DB  00C4               	movwf	(?___fldiv+1)^(0+128)
  4289  09DC  3000               	movlw	0
  4290  09DD  00C3               	movwf	?___fldiv^(0+128)
  4291  09DE  2B30               	goto	l635
  4292  09DF                     l4142:
  4293  09DF  085B               	movf	___fldiv@bexp^(0+128),w
  4294  09E0  00CB               	movwf	??___fldiv^(0+128)
  4295  09E1  01CC               	clrf	(??___fldiv^(0+128)+1)
  4296  09E2  084C               	movf	(??___fldiv+1)^(0+128),w
  4297  09E3  00CE               	movwf	((??___fldiv+2)^(0+128)+1)
  4298  09E4  085C               	movf	___fldiv@aexp^(0+128),w
  4299  09E5  024B               	subwf	??___fldiv^(0+128),w
  4300  09E6  00CD               	movwf	(??___fldiv+2)^(0+128)
  4301  09E7  1C03               	skipc
  4302  09E8  03CE               	decf	((??___fldiv+2)^(0+128)+1),f
  4303  09E9  084D               	movf	(??___fldiv+2)^(0+128),w
  4304  09EA  3E7F               	addlw	127
  4305  09EB  00D5               	movwf	___fldiv@new_exp^(0+128)
  4306  09EC  084E               	movf	(??___fldiv+3)^(0+128),w
  4307  09ED  1803               	skipnc
  4308  09EE  3E01               	addlw	1
  4309  09EF  3E00               	addlw	0
  4310  09F0  00D6               	movwf	(___fldiv@new_exp+1)^(0+128)
  4311  09F1                     l4144:
  4312  09F1  084A               	movf	(___fldiv@b+3)^(0+128),w
  4313  09F2  00D3               	movwf	(___fldiv@rem+3)^(0+128)
  4314  09F3  0849               	movf	(___fldiv@b+2)^(0+128),w
  4315  09F4  00D2               	movwf	(___fldiv@rem+2)^(0+128)
  4316  09F5  0848               	movf	(___fldiv@b+1)^(0+128),w
  4317  09F6  00D1               	movwf	(___fldiv@rem+1)^(0+128)
  4318  09F7  0847               	movf	___fldiv@b^(0+128),w
  4319  09F8  00D0               	movwf	___fldiv@rem^(0+128)
  4320  09F9                     l4146:
  4321  09F9  3000               	movlw	0
  4322  09FA  00CA               	movwf	(___fldiv@b+3)^(0+128)
  4323  09FB  3000               	movlw	0
  4324  09FC  00C9               	movwf	(___fldiv@b+2)^(0+128)
  4325  09FD  3000               	movlw	0
  4326  09FE  00C8               	movwf	(___fldiv@b+1)^(0+128)
  4327  09FF  3000               	movlw	0
  4328  0A00  00C7               	movwf	___fldiv@b^(0+128)
  4329  0A01                     l4148:
  4330  0A01  3000               	movlw	0
  4331  0A02  00DA               	movwf	(___fldiv@grs+3)^(0+128)
  4332  0A03  3000               	movlw	0
  4333  0A04  00D9               	movwf	(___fldiv@grs+2)^(0+128)
  4334  0A05  3000               	movlw	0
  4335  0A06  00D8               	movwf	(___fldiv@grs+1)^(0+128)
  4336  0A07  3000               	movlw	0
  4337  0A08  00D7               	movwf	___fldiv@grs^(0+128)
  4338  0A09                     l4150:
  4339  0A09  01DC               	clrf	___fldiv@aexp^(0+128)
  4340  0A0A  2A55               	goto	l4170
  4341  0A0B                     l4152:
  4342  0A0B  085C               	movf	___fldiv@aexp^(0+128),w
  4343  0A0C  1903               	btfsc	3,2
  4344  0A0D  2A0F               	goto	u6201
  4345  0A0E  2A10               	goto	u6200
  4346  0A0F                     u6201:
  4347  0A0F  2A30               	goto	l4162
  4348  0A10                     u6200:
  4349  0A10                     l4154:
  4350  0A10  3001               	movlw	1
  4351  0A11  00CB               	movwf	??___fldiv^(0+128)
  4352  0A12                     u6215:
  4353  0A12  1003               	clrc
  4354  0A13  0DD0               	rlf	___fldiv@rem^(0+128),f
  4355  0A14  0DD1               	rlf	(___fldiv@rem+1)^(0+128),f
  4356  0A15  0DD2               	rlf	(___fldiv@rem+2)^(0+128),f
  4357  0A16  0DD3               	rlf	(___fldiv@rem+3)^(0+128),f
  4358  0A17  0BCB               	decfsz	??___fldiv^(0+128),f
  4359  0A18  2A12               	goto	u6215
  4360  0A19  3001               	movlw	1
  4361  0A1A  00CB               	movwf	??___fldiv^(0+128)
  4362  0A1B                     u6225:
  4363  0A1B  1003               	clrc
  4364  0A1C  0DC7               	rlf	___fldiv@b^(0+128),f
  4365  0A1D  0DC8               	rlf	(___fldiv@b+1)^(0+128),f
  4366  0A1E  0DC9               	rlf	(___fldiv@b+2)^(0+128),f
  4367  0A1F  0DCA               	rlf	(___fldiv@b+3)^(0+128),f
  4368  0A20  0BCB               	decfsz	??___fldiv^(0+128),f
  4369  0A21  2A1B               	goto	u6225
  4370  0A22                     l4156:
  4371  0A22  1FDA               	btfss	(___fldiv@grs+3)^(0+128),7
  4372  0A23  2A25               	goto	u6231
  4373  0A24  2A26               	goto	u6230
  4374  0A25                     u6231:
  4375  0A25  2A27               	goto	l4160
  4376  0A26                     u6230:
  4377  0A26                     l4158:
  4378  0A26  1447               	bsf	___fldiv@b^(0+128),0
  4379  0A27                     l4160:
  4380  0A27  3001               	movlw	1
  4381  0A28  00CB               	movwf	??___fldiv^(0+128)
  4382  0A29                     u6245:
  4383  0A29  1003               	clrc
  4384  0A2A  0DD7               	rlf	___fldiv@grs^(0+128),f
  4385  0A2B  0DD8               	rlf	(___fldiv@grs+1)^(0+128),f
  4386  0A2C  0DD9               	rlf	(___fldiv@grs+2)^(0+128),f
  4387  0A2D  0DDA               	rlf	(___fldiv@grs+3)^(0+128),f
  4388  0A2E  0BCB               	decfsz	??___fldiv^(0+128),f
  4389  0A2F  2A29               	goto	u6245
  4390  0A30                     l4162:
  4391  0A30  0846               	movf	(___fldiv@a+3)^(0+128),w
  4392  0A31  0253               	subwf	(___fldiv@rem+3)^(0+128),w
  4393  0A32  1D03               	skipz
  4394  0A33  2A3E               	goto	u6255
  4395  0A34  0845               	movf	(___fldiv@a+2)^(0+128),w
  4396  0A35  0252               	subwf	(___fldiv@rem+2)^(0+128),w
  4397  0A36  1D03               	skipz
  4398  0A37  2A3E               	goto	u6255
  4399  0A38  0844               	movf	(___fldiv@a+1)^(0+128),w
  4400  0A39  0251               	subwf	(___fldiv@rem+1)^(0+128),w
  4401  0A3A  1D03               	skipz
  4402  0A3B  2A3E               	goto	u6255
  4403  0A3C  0843               	movf	___fldiv@a^(0+128),w
  4404  0A3D  0250               	subwf	___fldiv@rem^(0+128),w
  4405  0A3E                     u6255:
  4406  0A3E  1C03               	skipc
  4407  0A3F  2A41               	goto	u6251
  4408  0A40  2A42               	goto	u6250
  4409  0A41                     u6251:
  4410  0A41  2A51               	goto	l4168
  4411  0A42                     u6250:
  4412  0A42                     l4164:
  4413  0A42  175A               	bsf	(___fldiv@grs^(0+128)+3),6
  4414  0A43                     l4166:
  4415  0A43  0843               	movf	___fldiv@a^(0+128),w
  4416  0A44  02D0               	subwf	___fldiv@rem^(0+128),f
  4417  0A45  0844               	movf	(___fldiv@a+1)^(0+128),w
  4418  0A46  1C03               	skipc
  4419  0A47  0F44               	incfsz	(___fldiv@a+1)^(0+128),w
  4420  0A48  02D1               	subwf	(___fldiv@rem+1)^(0+128),f
  4421  0A49  0845               	movf	(___fldiv@a+2)^(0+128),w
  4422  0A4A  1C03               	skipc
  4423  0A4B  0F45               	incfsz	(___fldiv@a+2)^(0+128),w
  4424  0A4C  02D2               	subwf	(___fldiv@rem+2)^(0+128),f
  4425  0A4D  0846               	movf	(___fldiv@a+3)^(0+128),w
  4426  0A4E  1C03               	skipc
  4427  0A4F  0F46               	incfsz	(___fldiv@a+3)^(0+128),w
  4428  0A50  02D3               	subwf	(___fldiv@rem+3)^(0+128),f
  4429  0A51                     l4168:
  4430  0A51  3001               	movlw	1
  4431  0A52  00FF               	movwf	btemp+1
  4432  0A53  087F               	movf	btemp+1,w
  4433  0A54  07DC               	addwf	___fldiv@aexp^(0+128),f
  4434  0A55                     l4170:
  4435  0A55  301A               	movlw	26
  4436  0A56  025C               	subwf	___fldiv@aexp^(0+128),w
  4437  0A57  1C03               	skipc
  4438  0A58  2A5A               	goto	u6261
  4439  0A59  2A5B               	goto	u6260
  4440  0A5A                     u6261:
  4441  0A5A  2A0B               	goto	l4152
  4442  0A5B                     u6260:
  4443  0A5B                     l4172:
  4444  0A5B  0853               	movf	(___fldiv@rem+3)^(0+128),w
  4445  0A5C  0452               	iorwf	(___fldiv@rem+2)^(0+128),w
  4446  0A5D  0451               	iorwf	(___fldiv@rem+1)^(0+128),w
  4447  0A5E  0450               	iorwf	___fldiv@rem^(0+128),w
  4448  0A5F  1903               	skipnz
  4449  0A60  2A62               	goto	u6271
  4450  0A61  2A63               	goto	u6270
  4451  0A62                     u6271:
  4452  0A62  2A82               	goto	l4186
  4453  0A63                     u6270:
  4454  0A63                     l4174:
  4455  0A63  1457               	bsf	___fldiv@grs^(0+128),0
  4456  0A64  2A82               	goto	l4186
  4457  0A65                     l4176:
  4458  0A65  3001               	movlw	1
  4459  0A66  00CB               	movwf	??___fldiv^(0+128)
  4460  0A67                     u6285:
  4461  0A67  1003               	clrc
  4462  0A68  0DC7               	rlf	___fldiv@b^(0+128),f
  4463  0A69  0DC8               	rlf	(___fldiv@b+1)^(0+128),f
  4464  0A6A  0DC9               	rlf	(___fldiv@b+2)^(0+128),f
  4465  0A6B  0DCA               	rlf	(___fldiv@b+3)^(0+128),f
  4466  0A6C  0BCB               	decfsz	??___fldiv^(0+128),f
  4467  0A6D  2A67               	goto	u6285
  4468  0A6E                     l4178:
  4469  0A6E  1FDA               	btfss	(___fldiv@grs+3)^(0+128),7
  4470  0A6F  2A71               	goto	u6291
  4471  0A70  2A72               	goto	u6290
  4472  0A71                     u6291:
  4473  0A71  2A73               	goto	l4182
  4474  0A72                     u6290:
  4475  0A72                     l4180:
  4476  0A72  1447               	bsf	___fldiv@b^(0+128),0
  4477  0A73                     l4182:
  4478  0A73  3001               	movlw	1
  4479  0A74  00CB               	movwf	??___fldiv^(0+128)
  4480  0A75                     u6305:
  4481  0A75  1003               	clrc
  4482  0A76  0DD7               	rlf	___fldiv@grs^(0+128),f
  4483  0A77  0DD8               	rlf	(___fldiv@grs+1)^(0+128),f
  4484  0A78  0DD9               	rlf	(___fldiv@grs+2)^(0+128),f
  4485  0A79  0DDA               	rlf	(___fldiv@grs+3)^(0+128),f
  4486  0A7A  0BCB               	decfsz	??___fldiv^(0+128),f
  4487  0A7B  2A75               	goto	u6305
  4488  0A7C                     l4184:
  4489  0A7C  30FF               	movlw	255
  4490  0A7D  07D5               	addwf	___fldiv@new_exp^(0+128),f
  4491  0A7E  1803               	skipnc
  4492  0A7F  0AD6               	incf	(___fldiv@new_exp+1)^(0+128),f
  4493  0A80  30FF               	movlw	255
  4494  0A81  07D6               	addwf	(___fldiv@new_exp+1)^(0+128),f
  4495  0A82                     l4186:
  4496  0A82  1FC9               	btfss	(___fldiv@b+2)^(0+128),7
  4497  0A83  2A85               	goto	u6311
  4498  0A84  2A86               	goto	u6310
  4499  0A85                     u6311:
  4500  0A85  2A65               	goto	l4176
  4501  0A86                     u6310:
  4502  0A86                     l4188:
  4503  0A86  01DC               	clrf	___fldiv@aexp^(0+128)
  4504  0A87                     l4190:
  4505  0A87  1FDA               	btfss	(___fldiv@grs+3)^(0+128),7
  4506  0A88  2A8A               	goto	u6321
  4507  0A89  2A8B               	goto	u6320
  4508  0A8A                     u6321:
  4509  0A8A  2AA7               	goto	l4198
  4510  0A8B                     u6320:
  4511  0A8B                     l4192:
  4512  0A8B  30FF               	movlw	255
  4513  0A8C  0557               	andwf	___fldiv@grs^(0+128),w
  4514  0A8D  00CB               	movwf	??___fldiv^(0+128)
  4515  0A8E  30FF               	movlw	255
  4516  0A8F  0558               	andwf	(___fldiv@grs+1)^(0+128),w
  4517  0A90  00CC               	movwf	(??___fldiv^(0+128)+1)
  4518  0A91  30FF               	movlw	255
  4519  0A92  0559               	andwf	(___fldiv@grs+2)^(0+128),w
  4520  0A93  00CD               	movwf	(??___fldiv^(0+128)+2)
  4521  0A94  307F               	movlw	127
  4522  0A95  055A               	andwf	(___fldiv@grs+3)^(0+128),w
  4523  0A96  00CE               	movwf	(??___fldiv^(0+128)+3)
  4524  0A97  084E               	movf	(??___fldiv+3)^(0+128),w
  4525  0A98  044D               	iorwf	(??___fldiv+2)^(0+128),w
  4526  0A99  044C               	iorwf	(??___fldiv+1)^(0+128),w
  4527  0A9A  044B               	iorwf	??___fldiv^(0+128),w
  4528  0A9B  1903               	skipnz
  4529  0A9C  2A9E               	goto	u6331
  4530  0A9D  2A9F               	goto	u6330
  4531  0A9E                     u6331:
  4532  0A9E  2AA2               	goto	l649
  4533  0A9F                     u6330:
  4534  0A9F                     l4194:
  4535  0A9F  01DC               	clrf	___fldiv@aexp^(0+128)
  4536  0AA0  0ADC               	incf	___fldiv@aexp^(0+128),f
  4537  0AA1  2AA7               	goto	l4198
  4538  0AA2                     l649:
  4539  0AA2  1C47               	btfss	___fldiv@b^(0+128),0
  4540  0AA3  2AA5               	goto	u6341
  4541  0AA4  2AA6               	goto	u6340
  4542  0AA5                     u6341:
  4543  0AA5  2AA7               	goto	l4198
  4544  0AA6                     u6340:
  4545  0AA6  2A9F               	goto	l4194
  4546  0AA7                     l4198:
  4547  0AA7  085C               	movf	___fldiv@aexp^(0+128),w
  4548  0AA8  1903               	btfsc	3,2
  4549  0AA9  2AAB               	goto	u6351
  4550  0AAA  2AAC               	goto	u6350
  4551  0AAB                     u6351:
  4552  0AAB  2ADD               	goto	l4208
  4553  0AAC                     u6350:
  4554  0AAC                     l4200:
  4555  0AAC  3001               	movlw	1
  4556  0AAD  07C7               	addwf	___fldiv@b^(0+128),f
  4557  0AAE  3000               	movlw	0
  4558  0AAF  1803               	skipnc
  4559  0AB0  3001               	movlw	1
  4560  0AB1  07C8               	addwf	(___fldiv@b+1)^(0+128),f
  4561  0AB2  3000               	movlw	0
  4562  0AB3  1803               	skipnc
  4563  0AB4  3001               	movlw	1
  4564  0AB5  07C9               	addwf	(___fldiv@b+2)^(0+128),f
  4565  0AB6  3000               	movlw	0
  4566  0AB7  1803               	skipnc
  4567  0AB8  3001               	movlw	1
  4568  0AB9  07CA               	addwf	(___fldiv@b+3)^(0+128),f
  4569  0ABA                     l4202:
  4570  0ABA  1C4A               	btfss	(___fldiv@b+3)^(0+128),0
  4571  0ABB  2ABD               	goto	u6361
  4572  0ABC  2ABE               	goto	u6360
  4573  0ABD                     u6361:
  4574  0ABD  2ADD               	goto	l4208
  4575  0ABE                     u6360:
  4576  0ABE                     l4204:
  4577  0ABE  0847               	movf	___fldiv@b^(0+128),w
  4578  0ABF  00CB               	movwf	??___fldiv^(0+128)
  4579  0AC0  0848               	movf	(___fldiv@b+1)^(0+128),w
  4580  0AC1  00CC               	movwf	(??___fldiv^(0+128)+1)
  4581  0AC2  0849               	movf	(___fldiv@b+2)^(0+128),w
  4582  0AC3  00CD               	movwf	(??___fldiv^(0+128)+2)
  4583  0AC4  084A               	movf	(___fldiv@b+3)^(0+128),w
  4584  0AC5  00CE               	movwf	(??___fldiv^(0+128)+3)
  4585  0AC6  3001               	movlw	1
  4586  0AC7  00CF               	movwf	(??___fldiv+4)^(0+128)
  4587  0AC8                     u6375:
  4588  0AC8  0D4E               	rlf	(??___fldiv^(0+128)+3),w
  4589  0AC9  0CCE               	rrf	(??___fldiv^(0+128)+3),f
  4590  0ACA  0CCD               	rrf	(??___fldiv^(0+128)+2),f
  4591  0ACB  0CCC               	rrf	(??___fldiv^(0+128)+1),f
  4592  0ACC  0CCB               	rrf	??___fldiv^(0+128),f
  4593  0ACD                     u6370:
  4594  0ACD  0BCF               	decfsz	(??___fldiv+4)^(0+128),f
  4595  0ACE  2AC8               	goto	u6375
  4596  0ACF  084E               	movf	(??___fldiv+3)^(0+128),w
  4597  0AD0  00CA               	movwf	(___fldiv@b+3)^(0+128)
  4598  0AD1  084D               	movf	(??___fldiv+2)^(0+128),w
  4599  0AD2  00C9               	movwf	(___fldiv@b+2)^(0+128)
  4600  0AD3  084C               	movf	(??___fldiv+1)^(0+128),w
  4601  0AD4  00C8               	movwf	(___fldiv@b+1)^(0+128)
  4602  0AD5  084B               	movf	??___fldiv^(0+128),w
  4603  0AD6  00C7               	movwf	___fldiv@b^(0+128)
  4604  0AD7                     l4206:
  4605  0AD7  3001               	movlw	1
  4606  0AD8  07D5               	addwf	___fldiv@new_exp^(0+128),f
  4607  0AD9  1803               	skipnc
  4608  0ADA  0AD6               	incf	(___fldiv@new_exp+1)^(0+128),f
  4609  0ADB  3000               	movlw	0
  4610  0ADC  07D6               	addwf	(___fldiv@new_exp+1)^(0+128),f
  4611  0ADD                     l4208:
  4612  0ADD  0856               	movf	(___fldiv@new_exp+1)^(0+128),w
  4613  0ADE  3A80               	xorlw	128
  4614  0ADF  00FF               	movwf	btemp+1
  4615  0AE0  3080               	movlw	128
  4616  0AE1  027F               	subwf	btemp+1,w
  4617  0AE2  1D03               	skipz
  4618  0AE3  2AE6               	goto	u6385
  4619  0AE4  30FF               	movlw	255
  4620  0AE5  0255               	subwf	___fldiv@new_exp^(0+128),w
  4621  0AE6                     u6385:
  4622  0AE6  1C03               	skipc
  4623  0AE7  2AE9               	goto	u6381
  4624  0AE8  2AEA               	goto	u6380
  4625  0AE9                     u6381:
  4626  0AE9  2AF8               	goto	l4212
  4627  0AEA                     u6380:
  4628  0AEA                     l4210:
  4629  0AEA  30FF               	movlw	255
  4630  0AEB  1683               	bsf	3,5	;RP0=1, select bank1
  4631  0AEC  1303               	bcf	3,6	;RP1=0, select bank1
  4632  0AED  00D5               	movwf	___fldiv@new_exp^(0+128)
  4633  0AEE  3000               	movlw	0
  4634  0AEF  00D6               	movwf	(___fldiv@new_exp^(0+128)+1)
  4635  0AF0  3000               	movlw	0
  4636  0AF1  00CA               	movwf	(___fldiv@b+3)^(0+128)
  4637  0AF2  3000               	movlw	0
  4638  0AF3  00C9               	movwf	(___fldiv@b+2)^(0+128)
  4639  0AF4  3000               	movlw	0
  4640  0AF5  00C8               	movwf	(___fldiv@b+1)^(0+128)
  4641  0AF6  3000               	movlw	0
  4642  0AF7  00C7               	movwf	___fldiv@b^(0+128)
  4643  0AF8                     l4212:
  4644  0AF8  1683               	bsf	3,5	;RP0=1, select bank1
  4645  0AF9  1303               	bcf	3,6	;RP1=0, select bank1
  4646  0AFA  0856               	movf	(___fldiv@new_exp+1)^(0+128),w
  4647  0AFB  3A80               	xorlw	128
  4648  0AFC  00FF               	movwf	btemp+1
  4649  0AFD  3080               	movlw	128
  4650  0AFE  027F               	subwf	btemp+1,w
  4651  0AFF  1D03               	skipz
  4652  0B00  2B03               	goto	u6395
  4653  0B01  3001               	movlw	1
  4654  0B02  0255               	subwf	___fldiv@new_exp^(0+128),w
  4655  0B03                     u6395:
  4656  0B03  1803               	skipnc
  4657  0B04  2B06               	goto	u6391
  4658  0B05  2B07               	goto	u6390
  4659  0B06                     u6391:
  4660  0B06  2B14               	goto	l4220
  4661  0B07                     u6390:
  4662  0B07                     l4214:
  4663  0B07  1683               	bsf	3,5	;RP0=1, select bank1
  4664  0B08  1303               	bcf	3,6	;RP1=0, select bank1
  4665  0B09  01D5               	clrf	___fldiv@new_exp^(0+128)
  4666  0B0A  01D6               	clrf	(___fldiv@new_exp+1)^(0+128)
  4667  0B0B                     l4216:
  4668  0B0B  3000               	movlw	0
  4669  0B0C  00CA               	movwf	(___fldiv@b+3)^(0+128)
  4670  0B0D  3000               	movlw	0
  4671  0B0E  00C9               	movwf	(___fldiv@b+2)^(0+128)
  4672  0B0F  3000               	movlw	0
  4673  0B10  00C8               	movwf	(___fldiv@b+1)^(0+128)
  4674  0B11  3000               	movlw	0
  4675  0B12  00C7               	movwf	___fldiv@b^(0+128)
  4676  0B13                     l4218:
  4677  0B13  01D4               	clrf	___fldiv@sign^(0+128)
  4678  0B14                     l4220:
  4679  0B14  1683               	bsf	3,5	;RP0=1, select bank1
  4680  0B15  1303               	bcf	3,6	;RP1=0, select bank1
  4681  0B16  0855               	movf	___fldiv@new_exp^(0+128),w
  4682  0B17  00FF               	movwf	btemp+1
  4683  0B18  087F               	movf	btemp+1,w
  4684  0B19  00DB               	movwf	___fldiv@bexp^(0+128)
  4685  0B1A                     l4222:
  4686  0B1A  1C5B               	btfss	___fldiv@bexp^(0+128),0
  4687  0B1B  2B1D               	goto	u6401
  4688  0B1C  2B1E               	goto	u6400
  4689  0B1D                     u6401:
  4690  0B1D  2B20               	goto	l4226
  4691  0B1E                     u6400:
  4692  0B1E                     l4224:
  4693  0B1E  17C9               	bsf	(___fldiv@b^(0+128)+2),7
  4694  0B1F  2B24               	goto	l657
  4695  0B20                     l4226:
  4696  0B20  307F               	movlw	127
  4697  0B21  00FF               	movwf	btemp+1
  4698  0B22  087F               	movf	btemp+1,w
  4699  0B23  05C9               	andwf	(___fldiv@b^(0+128)+2),f
  4700  0B24                     l657:
  4701  0B24  085B               	movf	___fldiv@bexp^(0+128),w
  4702  0B25  00CB               	movwf	??___fldiv^(0+128)
  4703  0B26  1003               	clrc
  4704  0B27  0C4B               	rrf	??___fldiv^(0+128),w
  4705  0B28  00FF               	movwf	btemp+1
  4706  0B29  087F               	movf	btemp+1,w
  4707  0B2A  00CA               	movwf	(___fldiv@b^(0+128)+3)
  4708  0B2B  0854               	movf	___fldiv@sign^(0+128),w
  4709  0B2C  00FF               	movwf	btemp+1
  4710  0B2D  087F               	movf	btemp+1,w
  4711  0B2E  04CA               	iorwf	(___fldiv@b^(0+128)+3),f
  4712  0B2F  29C8               	goto	l4132
  4713  0B30                     l635:
  4714  0B30  0008               	return
  4715  0B31                     __end_of___fldiv:
  4716                           
  4717                           	psect	text7
  4718  122F                     __ptext7:	
  4719 ;; *************** function _TIMER1_Init *****************
  4720 ;; Defined at:
  4721 ;;		line 29 in file "main.c"
  4722 ;; Parameters:    Size  Location     Type
  4723 ;;		None
  4724 ;; Auto vars:     Size  Location     Type
  4725 ;;		None
  4726 ;; Return value:  Size  Location     Type
  4727 ;;                  1    wreg      void 
  4728 ;; Registers used:
  4729 ;;		None
  4730 ;; Tracked objects:
  4731 ;;		On entry : 0/0
  4732 ;;		On exit  : 0/0
  4733 ;;		Unchanged: 0/0
  4734 ;; Data sizes:     COMMON   BANK0   BANK1   BANK3   BANK2
  4735 ;;      Params:         0       0       0       0       0
  4736 ;;      Locals:         0       0       0       0       0
  4737 ;;      Temps:          0       0       0       0       0
  4738 ;;      Totals:         0       0       0       0       0
  4739 ;;Total ram usage:        0 bytes
  4740 ;; Hardware stack levels used:    1
  4741 ;; Hardware stack levels required when called:    3
  4742 ;; This function calls:
  4743 ;;		Nothing
  4744 ;; This function is called by:
  4745 ;;		_main
  4746 ;; This function uses a non-reentrant model
  4747 ;;
  4748                           
  4749                           
  4750                           ;psect for function _TIMER1_Init
  4751  122F                     _TIMER1_Init:
  4752  122F                     l3868:	
  4753                           ;incstack = 0
  4754                           ; Regs used in _TIMER1_Init: []
  4755                           
  4756                           
  4757                           ;main.c: 31:     TMR1ON=1;
  4758  122F  1283               	bcf	3,5	;RP0=0, select bank0
  4759  1230  1303               	bcf	3,6	;RP1=0, select bank0
  4760  1231  1410               	bsf	16,0	;volatile
  4761                           
  4762                           ;main.c: 32:     TMR1CS=0;
  4763  1232  1090               	bcf	16,1	;volatile
  4764                           
  4765                           ;main.c: 33:     T1SYNC=0;
  4766  1233  1110               	bcf	16,2	;volatile
  4767                           
  4768                           ;main.c: 34:     T1OSCEN=0;
  4769  1234  1190               	bcf	16,3	;volatile
  4770                           
  4771                           ;main.c: 35:     T1CKPS1=1;
  4772  1235  1690               	bsf	16,5	;volatile
  4773                           
  4774                           ;main.c: 36:     T1CKPS0=1;
  4775  1236  1610               	bsf	16,4	;volatile
  4776                           
  4777                           ;main.c: 38:     TMR1IE=1;
  4778  1237  1683               	bsf	3,5	;RP0=1, select bank1
  4779  1238  1303               	bcf	3,6	;RP1=0, select bank1
  4780  1239  140C               	bsf	12,0	;volatile
  4781                           
  4782                           ;main.c: 39:     TMR1IF=0;
  4783  123A  1283               	bcf	3,5	;RP0=0, select bank0
  4784  123B  1303               	bcf	3,6	;RP1=0, select bank0
  4785  123C  100C               	bcf	12,0	;volatile
  4786                           
  4787                           ;main.c: 40:     PEIE=1;
  4788  123D  170B               	bsf	11,6	;volatile
  4789                           
  4790                           ;main.c: 41:     GIE=1;
  4791  123E  178B               	bsf	11,7	;volatile
  4792                           
  4793                           ;main.c: 43:     TMR1=65036;
  4794  123F  30FE               	movlw	254
  4795  1240  008F               	movwf	15	;volatile
  4796  1241  300C               	movlw	12
  4797  1242  008E               	movwf	14	;volatile
  4798  1243                     l88:
  4799  1243  0008               	return
  4800  1244                     __end_of_TIMER1_Init:
  4801                           
  4802                           	psect	text8
  4803  0700                     __ptext8:	
  4804 ;; *************** function _Send_data *****************
  4805 ;; Defined at:
  4806 ;;		line 15 in file "uart.c"
  4807 ;; Parameters:    Size  Location     Type
  4808 ;;  Value           2   11[BANK1 ] unsigned int 
  4809 ;; Auto vars:     Size  Location     Type
  4810 ;;  temp            2   16[BANK1 ] unsigned int 
  4811 ;;  k               2   13[BANK1 ] unsigned int 
  4812 ;;  i               1   15[BANK1 ] unsigned char 
  4813 ;; Return value:  Size  Location     Type
  4814 ;;                  1    wreg      void 
  4815 ;; Registers used:
  4816 ;;		wreg, fsr0l, fsr0h, status,2, status,0, btemp+1, pclath, cstack
  4817 ;; Tracked objects:
  4818 ;;		On entry : 0/0
  4819 ;;		On exit  : 0/0
  4820 ;;		Unchanged: 0/0
  4821 ;; Data sizes:     COMMON   BANK0   BANK1   BANK3   BANK2
  4822 ;;      Params:         0       0       2       0       0
  4823 ;;      Locals:         0       0       5       0       0
  4824 ;;      Temps:          0       0       0       0       0
  4825 ;;      Totals:         0       0       7       0       0
  4826 ;;Total ram usage:        7 bytes
  4827 ;; Hardware stack levels used:    1
  4828 ;; Hardware stack levels required when called:    4
  4829 ;; This function calls:
  4830 ;;		___almod
  4831 ;;		___lwdiv
  4832 ;;		___lwmod
  4833 ;; This function is called by:
  4834 ;;		_main
  4835 ;; This function uses a non-reentrant model
  4836 ;;
  4837                           
  4838                           
  4839                           ;psect for function _Send_data
  4840  0700                     _Send_data:
  4841  0700                     l3966:	
  4842                           ;incstack = 0
  4843                           ; Regs used in _Send_data: [wreg-fsr0h+status,2+status,0+btemp+1+pclath+cstack]
  4844                           
  4845                           
  4846                           ;uart.c: 18:     unsigned int k=0;
  4847  0700  1683               	bsf	3,5	;RP0=1, select bank1
  4848  0701  1303               	bcf	3,6	;RP1=0, select bank1
  4849  0702  01AD               	clrf	Send_data@k^(0+128)
  4850  0703  01AE               	clrf	(Send_data@k+1)^(0+128)
  4851  0704                     l3968:
  4852                           
  4853                           ;uart.c: 19:     unsigned int temp;;uart.c: 30:     Value=Value%100000;
  4854  0704  3000               	movlw	0
  4855  0705  00A3               	movwf	(___almod@divisor+3)^(0+128)
  4856  0706  3001               	movlw	1
  4857  0707  00A2               	movwf	(___almod@divisor+2)^(0+128)
  4858  0708  3086               	movlw	134
  4859  0709  00A1               	movwf	(___almod@divisor+1)^(0+128)
  4860  070A  30A0               	movlw	160
  4861  070B  00A0               	movwf	___almod@divisor^(0+128)
  4862  070C  082B               	movf	Send_data@Value^(0+128),w
  4863  070D  00A4               	movwf	___almod@dividend^(0+128)
  4864  070E  082C               	movf	(Send_data@Value+1)^(0+128),w
  4865  070F  00A5               	movwf	(___almod@dividend^(0+128)+1)
  4866  0710  01A6               	clrf	(___almod@dividend^(0+128)+2)
  4867  0711  01A7               	clrf	(___almod@dividend^(0+128)+3)
  4868  0712  160A  118A  26C7  120A  118A  	fcall	___almod
  4869  0717  1683               	bsf	3,5	;RP0=1, select bank1
  4870  0718  1303               	bcf	3,6	;RP1=0, select bank1
  4871  0719  0821               	movf	(?___almod+1)^(0+128),w
  4872  071A  00AC               	movwf	(Send_data@Value+1)^(0+128)
  4873  071B  0820               	movf	?___almod^(0+128),w
  4874  071C  00AB               	movwf	Send_data@Value^(0+128)
  4875  071D                     l3970:
  4876                           
  4877                           ;uart.c: 31:     commbuffer[0]='{';
  4878  071D  307B               	movlw	123
  4879  071E  00FF               	movwf	btemp+1
  4880  071F  087F               	movf	btemp+1,w
  4881  0720  1683               	bsf	3,5	;RP0=1, select bank3
  4882  0721  1703               	bsf	3,6	;RP1=1, select bank3
  4883  0722  00D0               	movwf	_commbuffer^(0+384)
  4884  0723                     l3972:
  4885                           
  4886                           ;uart.c: 32:     commbuffer[1]=Value/10000+0x30;
  4887  0723  3010               	movlw	16
  4888  0724  1683               	bsf	3,5	;RP0=1, select bank1
  4889  0725  1303               	bcf	3,6	;RP1=0, select bank1
  4890  0726  00A4               	movwf	___lwdiv@divisor^(0+128)
  4891  0727  3027               	movlw	39
  4892  0728  00A5               	movwf	(___lwdiv@divisor^(0+128)+1)
  4893  0729  082C               	movf	(Send_data@Value+1)^(0+128),w
  4894  072A  00A7               	movwf	(___lwdiv@dividend+1)^(0+128)
  4895  072B  082B               	movf	Send_data@Value^(0+128),w
  4896  072C  00A6               	movwf	___lwdiv@dividend^(0+128)
  4897  072D  160A  118A  2368  120A  118A  	fcall	___lwdiv
  4898  0732  1683               	bsf	3,5	;RP0=1, select bank1
  4899  0733  1303               	bcf	3,6	;RP1=0, select bank1
  4900  0734  0824               	movf	?___lwdiv^(0+128),w
  4901  0735  3E30               	addlw	48
  4902  0736  00FF               	movwf	btemp+1
  4903  0737  087F               	movf	btemp+1,w
  4904  0738  1683               	bsf	3,5	;RP0=1, select bank3
  4905  0739  1703               	bsf	3,6	;RP1=1, select bank3
  4906  073A  00D1               	movwf	(_commbuffer^(0+384)+1)
  4907  073B                     l3974:
  4908                           
  4909                           ;uart.c: 33:     temp = Value%10000;
  4910  073B  3010               	movlw	16
  4911  073C  1683               	bsf	3,5	;RP0=1, select bank1
  4912  073D  1303               	bcf	3,6	;RP1=0, select bank1
  4913  073E  00A0               	movwf	___lwmod@divisor^(0+128)
  4914  073F  3027               	movlw	39
  4915  0740  00A1               	movwf	(___lwmod@divisor^(0+128)+1)
  4916  0741  082C               	movf	(Send_data@Value+1)^(0+128),w
  4917  0742  00A3               	movwf	(___lwmod@dividend+1)^(0+128)
  4918  0743  082B               	movf	Send_data@Value^(0+128),w
  4919  0744  00A2               	movwf	___lwmod@dividend^(0+128)
  4920  0745  160A  118A  23AE  120A  118A  	fcall	___lwmod
  4921  074A  1683               	bsf	3,5	;RP0=1, select bank1
  4922  074B  1303               	bcf	3,6	;RP1=0, select bank1
  4923  074C  0821               	movf	(?___lwmod+1)^(0+128),w
  4924  074D  00B1               	movwf	(Send_data@temp+1)^(0+128)
  4925  074E  0820               	movf	?___lwmod^(0+128),w
  4926  074F  00B0               	movwf	Send_data@temp^(0+128)
  4927  0750                     l3976:
  4928                           
  4929                           ;uart.c: 34:     commbuffer[2]= temp/1000+0x30;
  4930  0750  30E8               	movlw	232
  4931  0751  00A4               	movwf	___lwdiv@divisor^(0+128)
  4932  0752  3003               	movlw	3
  4933  0753  00A5               	movwf	(___lwdiv@divisor^(0+128)+1)
  4934  0754  0831               	movf	(Send_data@temp+1)^(0+128),w
  4935  0755  00A7               	movwf	(___lwdiv@dividend+1)^(0+128)
  4936  0756  0830               	movf	Send_data@temp^(0+128),w
  4937  0757  00A6               	movwf	___lwdiv@dividend^(0+128)
  4938  0758  160A  118A  2368  120A  118A  	fcall	___lwdiv
  4939  075D  1683               	bsf	3,5	;RP0=1, select bank1
  4940  075E  1303               	bcf	3,6	;RP1=0, select bank1
  4941  075F  0824               	movf	?___lwdiv^(0+128),w
  4942  0760  3E30               	addlw	48
  4943  0761  00FF               	movwf	btemp+1
  4944  0762  087F               	movf	btemp+1,w
  4945  0763  1683               	bsf	3,5	;RP0=1, select bank3
  4946  0764  1703               	bsf	3,6	;RP1=1, select bank3
  4947  0765  00D2               	movwf	(_commbuffer^(0+384)+2)
  4948  0766                     l3978:
  4949                           
  4950                           ;uart.c: 35:     temp = temp % 1000;
  4951  0766  30E8               	movlw	232
  4952  0767  1683               	bsf	3,5	;RP0=1, select bank1
  4953  0768  1303               	bcf	3,6	;RP1=0, select bank1
  4954  0769  00A0               	movwf	___lwmod@divisor^(0+128)
  4955  076A  3003               	movlw	3
  4956  076B  00A1               	movwf	(___lwmod@divisor^(0+128)+1)
  4957  076C  0831               	movf	(Send_data@temp+1)^(0+128),w
  4958  076D  00A3               	movwf	(___lwmod@dividend+1)^(0+128)
  4959  076E  0830               	movf	Send_data@temp^(0+128),w
  4960  076F  00A2               	movwf	___lwmod@dividend^(0+128)
  4961  0770  160A  118A  23AE  120A  118A  	fcall	___lwmod
  4962  0775  1683               	bsf	3,5	;RP0=1, select bank1
  4963  0776  1303               	bcf	3,6	;RP1=0, select bank1
  4964  0777  0821               	movf	(?___lwmod+1)^(0+128),w
  4965  0778  00B1               	movwf	(Send_data@temp+1)^(0+128)
  4966  0779  0820               	movf	?___lwmod^(0+128),w
  4967  077A  00B0               	movwf	Send_data@temp^(0+128)
  4968  077B                     l3980:
  4969                           
  4970                           ;uart.c: 36:     commbuffer[3] = temp/100+0x30;
  4971  077B  3064               	movlw	100
  4972  077C  00A4               	movwf	___lwdiv@divisor^(0+128)
  4973  077D  3000               	movlw	0
  4974  077E  00A5               	movwf	(___lwdiv@divisor^(0+128)+1)
  4975  077F  0831               	movf	(Send_data@temp+1)^(0+128),w
  4976  0780  00A7               	movwf	(___lwdiv@dividend+1)^(0+128)
  4977  0781  0830               	movf	Send_data@temp^(0+128),w
  4978  0782  00A6               	movwf	___lwdiv@dividend^(0+128)
  4979  0783  160A  118A  2368  120A  118A  	fcall	___lwdiv
  4980  0788  1683               	bsf	3,5	;RP0=1, select bank1
  4981  0789  1303               	bcf	3,6	;RP1=0, select bank1
  4982  078A  0824               	movf	?___lwdiv^(0+128),w
  4983  078B  3E30               	addlw	48
  4984  078C  00FF               	movwf	btemp+1
  4985  078D  087F               	movf	btemp+1,w
  4986  078E  1683               	bsf	3,5	;RP0=1, select bank3
  4987  078F  1703               	bsf	3,6	;RP1=1, select bank3
  4988  0790  00D3               	movwf	(_commbuffer^(0+384)+3)
  4989  0791                     l3982:
  4990                           
  4991                           ;uart.c: 37:     temp = temp%100;
  4992  0791  3064               	movlw	100
  4993  0792  1683               	bsf	3,5	;RP0=1, select bank1
  4994  0793  1303               	bcf	3,6	;RP1=0, select bank1
  4995  0794  00A0               	movwf	___lwmod@divisor^(0+128)
  4996  0795  3000               	movlw	0
  4997  0796  00A1               	movwf	(___lwmod@divisor^(0+128)+1)
  4998  0797  0831               	movf	(Send_data@temp+1)^(0+128),w
  4999  0798  00A3               	movwf	(___lwmod@dividend+1)^(0+128)
  5000  0799  0830               	movf	Send_data@temp^(0+128),w
  5001  079A  00A2               	movwf	___lwmod@dividend^(0+128)
  5002  079B  160A  118A  23AE  120A  118A  	fcall	___lwmod
  5003  07A0  1683               	bsf	3,5	;RP0=1, select bank1
  5004  07A1  1303               	bcf	3,6	;RP1=0, select bank1
  5005  07A2  0821               	movf	(?___lwmod+1)^(0+128),w
  5006  07A3  00B1               	movwf	(Send_data@temp+1)^(0+128)
  5007  07A4  0820               	movf	?___lwmod^(0+128),w
  5008  07A5  00B0               	movwf	Send_data@temp^(0+128)
  5009  07A6                     l3984:
  5010                           
  5011                           ;uart.c: 38:     commbuffer[4] = temp/10+0x30;
  5012  07A6  300A               	movlw	10
  5013  07A7  00A4               	movwf	___lwdiv@divisor^(0+128)
  5014  07A8  3000               	movlw	0
  5015  07A9  00A5               	movwf	(___lwdiv@divisor^(0+128)+1)
  5016  07AA  0831               	movf	(Send_data@temp+1)^(0+128),w
  5017  07AB  00A7               	movwf	(___lwdiv@dividend+1)^(0+128)
  5018  07AC  0830               	movf	Send_data@temp^(0+128),w
  5019  07AD  00A6               	movwf	___lwdiv@dividend^(0+128)
  5020  07AE  160A  118A  2368  120A  118A  	fcall	___lwdiv
  5021  07B3  1683               	bsf	3,5	;RP0=1, select bank1
  5022  07B4  1303               	bcf	3,6	;RP1=0, select bank1
  5023  07B5  0824               	movf	?___lwdiv^(0+128),w
  5024  07B6  3E30               	addlw	48
  5025  07B7  00FF               	movwf	btemp+1
  5026  07B8  087F               	movf	btemp+1,w
  5027  07B9  1683               	bsf	3,5	;RP0=1, select bank3
  5028  07BA  1703               	bsf	3,6	;RP1=1, select bank3
  5029  07BB  00D4               	movwf	(_commbuffer^(0+384)+4)
  5030  07BC                     l3986:
  5031                           
  5032                           ;uart.c: 39:     commbuffer[5] = temp%10+0x30;
  5033  07BC  300A               	movlw	10
  5034  07BD  1683               	bsf	3,5	;RP0=1, select bank1
  5035  07BE  1303               	bcf	3,6	;RP1=0, select bank1
  5036  07BF  00A0               	movwf	___lwmod@divisor^(0+128)
  5037  07C0  3000               	movlw	0
  5038  07C1  00A1               	movwf	(___lwmod@divisor^(0+128)+1)
  5039  07C2  0831               	movf	(Send_data@temp+1)^(0+128),w
  5040  07C3  00A3               	movwf	(___lwmod@dividend+1)^(0+128)
  5041  07C4  0830               	movf	Send_data@temp^(0+128),w
  5042  07C5  00A2               	movwf	___lwmod@dividend^(0+128)
  5043  07C6  160A  118A  23AE  120A  118A  	fcall	___lwmod
  5044  07CB  1683               	bsf	3,5	;RP0=1, select bank1
  5045  07CC  1303               	bcf	3,6	;RP1=0, select bank1
  5046  07CD  0820               	movf	?___lwmod^(0+128),w
  5047  07CE  3E30               	addlw	48
  5048  07CF  00FF               	movwf	btemp+1
  5049  07D0  087F               	movf	btemp+1,w
  5050  07D1  1683               	bsf	3,5	;RP0=1, select bank3
  5051  07D2  1703               	bsf	3,6	;RP1=1, select bank3
  5052  07D3  00D5               	movwf	(_commbuffer^(0+384)+5)
  5053  07D4                     l3988:
  5054                           
  5055                           ;uart.c: 40:     commbuffer[6]='}';
  5056  07D4  307D               	movlw	125
  5057  07D5  00FF               	movwf	btemp+1
  5058  07D6  087F               	movf	btemp+1,w
  5059  07D7  00D6               	movwf	(_commbuffer^(0+384)+6)
  5060  07D8                     l3990:
  5061                           
  5062                           ;uart.c: 41:     commbuffer[7]='\r';
  5063  07D8  300D               	movlw	13
  5064  07D9  00FF               	movwf	btemp+1
  5065  07DA  087F               	movf	btemp+1,w
  5066  07DB  00D7               	movwf	(_commbuffer^(0+384)+7)
  5067  07DC                     l3992:
  5068                           
  5069                           ;uart.c: 43:     for(i=0;i<8;i++)
  5070  07DC  1683               	bsf	3,5	;RP0=1, select bank1
  5071  07DD  1303               	bcf	3,6	;RP1=0, select bank1
  5072  07DE  01AF               	clrf	Send_data@i^(0+128)
  5073  07DF                     l3998:
  5074                           
  5075                           ;uart.c: 44:     {;uart.c: 45:       TXREG=commbuffer[i];
  5076  07DF  082F               	movf	Send_data@i^(0+128),w
  5077  07E0  3ED0               	addlw	(low (_commbuffer| (0+256)))& (0+255)
  5078  07E1  0084               	movwf	4
  5079  07E2  1783               	bsf	3,7	;select IRP bank3
  5080  07E3  0800               	movf	0,w
  5081  07E4  1283               	bcf	3,5	;RP0=0, select bank0
  5082  07E5  1303               	bcf	3,6	;RP1=0, select bank0
  5083  07E6  0099               	movwf	25	;volatile
  5084  07E7                     l195:	
  5085                           ;uart.c: 46:       while(TRMT==0);
  5086                           
  5087  07E7  1683               	bsf	3,5	;RP0=1, select bank1
  5088  07E8  1303               	bcf	3,6	;RP1=0, select bank1
  5089  07E9  1C98               	btfss	24,1	;volatile
  5090  07EA  2FEC               	goto	u5941
  5091  07EB  2FED               	goto	u5940
  5092  07EC                     u5941:
  5093  07EC  2FE7               	goto	l195
  5094  07ED                     u5940:
  5095  07ED                     l4000:
  5096                           
  5097                           ;uart.c: 47:     }
  5098  07ED  3001               	movlw	1
  5099  07EE  00FF               	movwf	btemp+1
  5100  07EF  087F               	movf	btemp+1,w
  5101  07F0  07AF               	addwf	Send_data@i^(0+128),f
  5102  07F1                     l4002:
  5103  07F1  3008               	movlw	8
  5104  07F2  022F               	subwf	Send_data@i^(0+128),w
  5105  07F3  1C03               	skipc
  5106  07F4  2FF6               	goto	u5951
  5107  07F5  2FF7               	goto	u5950
  5108  07F6                     u5951:
  5109  07F6  2FDF               	goto	l3998
  5110  07F7                     u5950:
  5111  07F7                     l198:
  5112  07F7  0008               	return
  5113  07F8                     __end_of_Send_data:
  5114                           
  5115                           	psect	text9
  5116  13AE                     __ptext9:	
  5117 ;; *************** function ___lwmod *****************
  5118 ;; Defined at:
  5119 ;;		line 5 in file "C:\Program Files\Microchip\xc8\v2.20\pic\sources\c90\common\lwmod.c"
  5120 ;; Parameters:    Size  Location     Type
  5121 ;;  divisor         2    0[BANK1 ] unsigned int 
  5122 ;;  dividend        2    2[BANK1 ] unsigned int 
  5123 ;; Auto vars:     Size  Location     Type
  5124 ;;  counter         1   29[BANK0 ] unsigned char 
  5125 ;; Return value:  Size  Location     Type
  5126 ;;                  2    0[BANK1 ] unsigned int 
  5127 ;; Registers used:
  5128 ;;		wreg, status,2, status,0, btemp+1
  5129 ;; Tracked objects:
  5130 ;;		On entry : 0/0
  5131 ;;		On exit  : 0/0
  5132 ;;		Unchanged: 0/0
  5133 ;; Data sizes:     COMMON   BANK0   BANK1   BANK3   BANK2
  5134 ;;      Params:         0       0       4       0       0
  5135 ;;      Locals:         0       1       0       0       0
  5136 ;;      Temps:          0       0       0       0       0
  5137 ;;      Totals:         0       1       4       0       0
  5138 ;;Total ram usage:        5 bytes
  5139 ;; Hardware stack levels used:    1
  5140 ;; Hardware stack levels required when called:    3
  5141 ;; This function calls:
  5142 ;;		Nothing
  5143 ;; This function is called by:
  5144 ;;		_main
  5145 ;;		_Send_data
  5146 ;; This function uses a non-reentrant model
  5147 ;;
  5148                           
  5149                           
  5150                           ;psect for function ___lwmod
  5151  13AE                     ___lwmod:
  5152  13AE                     l3628:	
  5153                           ;incstack = 0
  5154                           ; Regs used in ___lwmod: [wreg+status,2+status,0+btemp+1]
  5155                           
  5156  13AE  1683               	bsf	3,5	;RP0=1, select bank1
  5157  13AF  1303               	bcf	3,6	;RP1=0, select bank1
  5158  13B0  0820               	movf	___lwmod@divisor^(0+128),w
  5159  13B1  0421               	iorwf	(___lwmod@divisor+1)^(0+128),w
  5160  13B2  1903               	btfsc	3,2
  5161  13B3  2BB5               	goto	u5331
  5162  13B4  2BB6               	goto	u5330
  5163  13B5                     u5331:
  5164  13B5  2BEF               	goto	l3646
  5165  13B6                     u5330:
  5166  13B6                     l3630:
  5167  13B6  1283               	bcf	3,5	;RP0=0, select bank0
  5168  13B7  1303               	bcf	3,6	;RP1=0, select bank0
  5169  13B8  01BD               	clrf	___lwmod@counter
  5170  13B9  0ABD               	incf	___lwmod@counter,f
  5171  13BA  2BC8               	goto	l3636
  5172  13BB                     l3632:
  5173  13BB  3001               	movlw	1
  5174  13BC                     u5345:
  5175  13BC  1003               	clrc
  5176  13BD  0DA0               	rlf	___lwmod@divisor^(0+128),f
  5177  13BE  0DA1               	rlf	(___lwmod@divisor+1)^(0+128),f
  5178  13BF  3EFF               	addlw	-1
  5179  13C0  1D03               	skipz
  5180  13C1  2BBC               	goto	u5345
  5181  13C2                     l3634:
  5182  13C2  3001               	movlw	1
  5183  13C3  00FF               	movwf	btemp+1
  5184  13C4  087F               	movf	btemp+1,w
  5185  13C5  1283               	bcf	3,5	;RP0=0, select bank0
  5186  13C6  1303               	bcf	3,6	;RP1=0, select bank0
  5187  13C7  07BD               	addwf	___lwmod@counter,f
  5188  13C8                     l3636:
  5189  13C8  1683               	bsf	3,5	;RP0=1, select bank1
  5190  13C9  1303               	bcf	3,6	;RP1=0, select bank1
  5191  13CA  1FA1               	btfss	(___lwmod@divisor+1)^(0+128),7
  5192  13CB  2BCD               	goto	u5351
  5193  13CC  2BCE               	goto	u5350
  5194  13CD                     u5351:
  5195  13CD  2BBB               	goto	l3632
  5196  13CE                     u5350:
  5197  13CE                     l3638:
  5198  13CE  1683               	bsf	3,5	;RP0=1, select bank1
  5199  13CF  1303               	bcf	3,6	;RP1=0, select bank1
  5200  13D0  0821               	movf	(___lwmod@divisor+1)^(0+128),w
  5201  13D1  0223               	subwf	(___lwmod@dividend+1)^(0+128),w
  5202  13D2  1D03               	skipz
  5203  13D3  2BD6               	goto	u5365
  5204  13D4  0820               	movf	___lwmod@divisor^(0+128),w
  5205  13D5  0222               	subwf	___lwmod@dividend^(0+128),w
  5206  13D6                     u5365:
  5207  13D6  1C03               	skipc
  5208  13D7  2BD9               	goto	u5361
  5209  13D8  2BDA               	goto	u5360
  5210  13D9                     u5361:
  5211  13D9  2BE0               	goto	l3642
  5212  13DA                     u5360:
  5213  13DA                     l3640:
  5214  13DA  0820               	movf	___lwmod@divisor^(0+128),w
  5215  13DB  02A2               	subwf	___lwmod@dividend^(0+128),f
  5216  13DC  0821               	movf	(___lwmod@divisor+1)^(0+128),w
  5217  13DD  1C03               	skipc
  5218  13DE  03A3               	decf	(___lwmod@dividend+1)^(0+128),f
  5219  13DF  02A3               	subwf	(___lwmod@dividend+1)^(0+128),f
  5220  13E0                     l3642:
  5221  13E0  3001               	movlw	1
  5222  13E1                     u5375:
  5223  13E1  1003               	clrc
  5224  13E2  0CA1               	rrf	(___lwmod@divisor+1)^(0+128),f
  5225  13E3  0CA0               	rrf	___lwmod@divisor^(0+128),f
  5226  13E4  3EFF               	addlw	-1
  5227  13E5  1D03               	skipz
  5228  13E6  2BE1               	goto	u5375
  5229  13E7                     l3644:
  5230  13E7  3001               	movlw	1
  5231  13E8  1283               	bcf	3,5	;RP0=0, select bank0
  5232  13E9  1303               	bcf	3,6	;RP1=0, select bank0
  5233  13EA  02BD               	subwf	___lwmod@counter,f
  5234  13EB  1D03               	btfss	3,2
  5235  13EC  2BEE               	goto	u5381
  5236  13ED  2BEF               	goto	u5380
  5237  13EE                     u5381:
  5238  13EE  2BCE               	goto	l3638
  5239  13EF                     u5380:
  5240  13EF                     l3646:
  5241  13EF  1683               	bsf	3,5	;RP0=1, select bank1
  5242  13F0  1303               	bcf	3,6	;RP1=0, select bank1
  5243  13F1  0823               	movf	(___lwmod@dividend+1)^(0+128),w
  5244  13F2  00A1               	movwf	(?___lwmod+1)^(0+128)
  5245  13F3  0822               	movf	___lwmod@dividend^(0+128),w
  5246  13F4  00A0               	movwf	?___lwmod^(0+128)
  5247  13F5                     l566:
  5248  13F5  0008               	return
  5249  13F6                     __end_of___lwmod:
  5250                           
  5251                           	psect	text10
  5252  1368                     __ptext10:	
  5253 ;; *************** function ___lwdiv *****************
  5254 ;; Defined at:
  5255 ;;		line 5 in file "C:\Program Files\Microchip\xc8\v2.20\pic\sources\c90\common\lwdiv.c"
  5256 ;; Parameters:    Size  Location     Type
  5257 ;;  divisor         2    4[BANK1 ] unsigned int 
  5258 ;;  dividend        2    6[BANK1 ] unsigned int 
  5259 ;; Auto vars:     Size  Location     Type
  5260 ;;  quotient        2    9[BANK1 ] unsigned int 
  5261 ;;  counter         1    8[BANK1 ] unsigned char 
  5262 ;; Return value:  Size  Location     Type
  5263 ;;                  2    4[BANK1 ] unsigned int 
  5264 ;; Registers used:
  5265 ;;		wreg, status,2, status,0, btemp+1
  5266 ;; Tracked objects:
  5267 ;;		On entry : 0/0
  5268 ;;		On exit  : 0/0
  5269 ;;		Unchanged: 0/0
  5270 ;; Data sizes:     COMMON   BANK0   BANK1   BANK3   BANK2
  5271 ;;      Params:         0       0       4       0       0
  5272 ;;      Locals:         0       0       3       0       0
  5273 ;;      Temps:          0       0       0       0       0
  5274 ;;      Totals:         0       0       7       0       0
  5275 ;;Total ram usage:        7 bytes
  5276 ;; Hardware stack levels used:    1
  5277 ;; Hardware stack levels required when called:    3
  5278 ;; This function calls:
  5279 ;;		Nothing
  5280 ;; This function is called by:
  5281 ;;		_main
  5282 ;;		_Send_data
  5283 ;; This function uses a non-reentrant model
  5284 ;;
  5285                           
  5286                           
  5287                           ;psect for function ___lwdiv
  5288  1368                     ___lwdiv:
  5289  1368                     l3602:	
  5290                           ;incstack = 0
  5291                           ; Regs used in ___lwdiv: [wreg+status,2+status,0+btemp+1]
  5292                           
  5293  1368  1683               	bsf	3,5	;RP0=1, select bank1
  5294  1369  1303               	bcf	3,6	;RP1=0, select bank1
  5295  136A  01A9               	clrf	___lwdiv@quotient^(0+128)
  5296  136B  01AA               	clrf	(___lwdiv@quotient+1)^(0+128)
  5297  136C                     l3604:
  5298  136C  0824               	movf	___lwdiv@divisor^(0+128),w
  5299  136D  0425               	iorwf	(___lwdiv@divisor+1)^(0+128),w
  5300  136E  1903               	btfsc	3,2
  5301  136F  2B71               	goto	u5261
  5302  1370  2B72               	goto	u5260
  5303  1371                     u5261:
  5304  1371  2BA9               	goto	l3624
  5305  1372                     u5260:
  5306  1372                     l3606:
  5307  1372  01A8               	clrf	___lwdiv@counter^(0+128)
  5308  1373  0AA8               	incf	___lwdiv@counter^(0+128),f
  5309  1374  2B80               	goto	l3612
  5310  1375                     l3608:
  5311  1375  3001               	movlw	1
  5312  1376                     u5275:
  5313  1376  1003               	clrc
  5314  1377  0DA4               	rlf	___lwdiv@divisor^(0+128),f
  5315  1378  0DA5               	rlf	(___lwdiv@divisor+1)^(0+128),f
  5316  1379  3EFF               	addlw	-1
  5317  137A  1D03               	skipz
  5318  137B  2B76               	goto	u5275
  5319  137C                     l3610:
  5320  137C  3001               	movlw	1
  5321  137D  00FF               	movwf	btemp+1
  5322  137E  087F               	movf	btemp+1,w
  5323  137F  07A8               	addwf	___lwdiv@counter^(0+128),f
  5324  1380                     l3612:
  5325  1380  1FA5               	btfss	(___lwdiv@divisor+1)^(0+128),7
  5326  1381  2B83               	goto	u5281
  5327  1382  2B84               	goto	u5280
  5328  1383                     u5281:
  5329  1383  2B75               	goto	l3608
  5330  1384                     u5280:
  5331  1384                     l3614:
  5332  1384  3001               	movlw	1
  5333  1385                     u5295:
  5334  1385  1003               	clrc
  5335  1386  0DA9               	rlf	___lwdiv@quotient^(0+128),f
  5336  1387  0DAA               	rlf	(___lwdiv@quotient+1)^(0+128),f
  5337  1388  3EFF               	addlw	-1
  5338  1389  1D03               	skipz
  5339  138A  2B85               	goto	u5295
  5340  138B  0825               	movf	(___lwdiv@divisor+1)^(0+128),w
  5341  138C  0227               	subwf	(___lwdiv@dividend+1)^(0+128),w
  5342  138D  1D03               	skipz
  5343  138E  2B91               	goto	u5305
  5344  138F  0824               	movf	___lwdiv@divisor^(0+128),w
  5345  1390  0226               	subwf	___lwdiv@dividend^(0+128),w
  5346  1391                     u5305:
  5347  1391  1C03               	skipc
  5348  1392  2B94               	goto	u5301
  5349  1393  2B95               	goto	u5300
  5350  1394                     u5301:
  5351  1394  2B9C               	goto	l3620
  5352  1395                     u5300:
  5353  1395                     l3616:
  5354  1395  0824               	movf	___lwdiv@divisor^(0+128),w
  5355  1396  02A6               	subwf	___lwdiv@dividend^(0+128),f
  5356  1397  0825               	movf	(___lwdiv@divisor+1)^(0+128),w
  5357  1398  1C03               	skipc
  5358  1399  03A7               	decf	(___lwdiv@dividend+1)^(0+128),f
  5359  139A  02A7               	subwf	(___lwdiv@dividend+1)^(0+128),f
  5360  139B                     l3618:
  5361  139B  1429               	bsf	___lwdiv@quotient^(0+128),0
  5362  139C                     l3620:
  5363  139C  3001               	movlw	1
  5364  139D                     u5315:
  5365  139D  1003               	clrc
  5366  139E  0CA5               	rrf	(___lwdiv@divisor+1)^(0+128),f
  5367  139F  0CA4               	rrf	___lwdiv@divisor^(0+128),f
  5368  13A0  3EFF               	addlw	-1
  5369  13A1  1D03               	skipz
  5370  13A2  2B9D               	goto	u5315
  5371  13A3                     l3622:
  5372  13A3  3001               	movlw	1
  5373  13A4  02A8               	subwf	___lwdiv@counter^(0+128),f
  5374  13A5  1D03               	btfss	3,2
  5375  13A6  2BA8               	goto	u5321
  5376  13A7  2BA9               	goto	u5320
  5377  13A8                     u5321:
  5378  13A8  2B84               	goto	l3614
  5379  13A9                     u5320:
  5380  13A9                     l3624:
  5381  13A9  082A               	movf	(___lwdiv@quotient+1)^(0+128),w
  5382  13AA  00A5               	movwf	(?___lwdiv+1)^(0+128)
  5383  13AB  0829               	movf	___lwdiv@quotient^(0+128),w
  5384  13AC  00A4               	movwf	?___lwdiv^(0+128)
  5385  13AD                     l556:
  5386  13AD  0008               	return
  5387  13AE                     __end_of___lwdiv:
  5388                           
  5389                           	psect	text11
  5390  16C7                     __ptext11:	
  5391 ;; *************** function ___almod *****************
  5392 ;; Defined at:
  5393 ;;		line 5 in file "C:\Program Files\Microchip\xc8\v2.20\pic\sources\c90\common\almod.c"
  5394 ;; Parameters:    Size  Location     Type
  5395 ;;  divisor         4    0[BANK1 ] long 
  5396 ;;  dividend        4    4[BANK1 ] long 
  5397 ;; Auto vars:     Size  Location     Type
  5398 ;;  sign            1    9[BANK1 ] unsigned char 
  5399 ;;  counter         1    8[BANK1 ] unsigned char 
  5400 ;; Return value:  Size  Location     Type
  5401 ;;                  4    0[BANK1 ] long 
  5402 ;; Registers used:
  5403 ;;		wreg, status,2, status,0, btemp+1
  5404 ;; Tracked objects:
  5405 ;;		On entry : 0/0
  5406 ;;		On exit  : 0/0
  5407 ;;		Unchanged: 0/0
  5408 ;; Data sizes:     COMMON   BANK0   BANK1   BANK3   BANK2
  5409 ;;      Params:         0       0       8       0       0
  5410 ;;      Locals:         0       0       2       0       0
  5411 ;;      Temps:          0       1       0       0       0
  5412 ;;      Totals:         0       1      10       0       0
  5413 ;;Total ram usage:       11 bytes
  5414 ;; Hardware stack levels used:    1
  5415 ;; Hardware stack levels required when called:    3
  5416 ;; This function calls:
  5417 ;;		Nothing
  5418 ;; This function is called by:
  5419 ;;		_Send_data
  5420 ;; This function uses a non-reentrant model
  5421 ;;
  5422                           
  5423                           
  5424                           ;psect for function ___almod
  5425  16C7                     ___almod:
  5426  16C7                     l3486:	
  5427                           ;incstack = 0
  5428                           ; Regs used in ___almod: [wreg+status,2+status,0+btemp+1]
  5429                           
  5430  16C7  1683               	bsf	3,5	;RP0=1, select bank1
  5431  16C8  1303               	bcf	3,6	;RP1=0, select bank1
  5432  16C9  01A9               	clrf	___almod@sign^(0+128)
  5433  16CA                     l3488:
  5434  16CA  1FA7               	btfss	(___almod@dividend+3)^(0+128),7
  5435  16CB  2ECD               	goto	u4981
  5436  16CC  2ECE               	goto	u4980
  5437  16CD                     u4981:
  5438  16CD  2EDB               	goto	l362
  5439  16CE                     u4980:
  5440  16CE                     l3490:
  5441  16CE  09A4               	comf	___almod@dividend^(0+128),f
  5442  16CF  09A5               	comf	(___almod@dividend+1)^(0+128),f
  5443  16D0  09A6               	comf	(___almod@dividend+2)^(0+128),f
  5444  16D1  09A7               	comf	(___almod@dividend+3)^(0+128),f
  5445  16D2  0AA4               	incf	___almod@dividend^(0+128),f
  5446  16D3  1903               	skipnz
  5447  16D4  0AA5               	incf	(___almod@dividend+1)^(0+128),f
  5448  16D5  1903               	skipnz
  5449  16D6  0AA6               	incf	(___almod@dividend+2)^(0+128),f
  5450  16D7  1903               	skipnz
  5451  16D8  0AA7               	incf	(___almod@dividend+3)^(0+128),f
  5452  16D9  01A9               	clrf	___almod@sign^(0+128)
  5453  16DA  0AA9               	incf	___almod@sign^(0+128),f
  5454  16DB                     l362:
  5455  16DB  1FA3               	btfss	(___almod@divisor+3)^(0+128),7
  5456  16DC  2EDE               	goto	u4991
  5457  16DD  2EDF               	goto	u4990
  5458  16DE                     u4991:
  5459  16DE  2EEA               	goto	l3494
  5460  16DF                     u4990:
  5461  16DF                     l3492:
  5462  16DF  09A0               	comf	___almod@divisor^(0+128),f
  5463  16E0  09A1               	comf	(___almod@divisor+1)^(0+128),f
  5464  16E1  09A2               	comf	(___almod@divisor+2)^(0+128),f
  5465  16E2  09A3               	comf	(___almod@divisor+3)^(0+128),f
  5466  16E3  0AA0               	incf	___almod@divisor^(0+128),f
  5467  16E4  1903               	skipnz
  5468  16E5  0AA1               	incf	(___almod@divisor+1)^(0+128),f
  5469  16E6  1903               	skipnz
  5470  16E7  0AA2               	incf	(___almod@divisor+2)^(0+128),f
  5471  16E8  1903               	skipnz
  5472  16E9  0AA3               	incf	(___almod@divisor+3)^(0+128),f
  5473  16EA                     l3494:
  5474  16EA  0823               	movf	(___almod@divisor+3)^(0+128),w
  5475  16EB  0422               	iorwf	(___almod@divisor+2)^(0+128),w
  5476  16EC  0421               	iorwf	(___almod@divisor+1)^(0+128),w
  5477  16ED  0420               	iorwf	___almod@divisor^(0+128),w
  5478  16EE  1903               	skipnz
  5479  16EF  2EF1               	goto	u5001
  5480  16F0  2EF2               	goto	u5000
  5481  16F1                     u5001:
  5482  16F1  2F3D               	goto	l3512
  5483  16F2                     u5000:
  5484  16F2                     l3496:
  5485  16F2  01A8               	clrf	___almod@counter^(0+128)
  5486  16F3  0AA8               	incf	___almod@counter^(0+128),f
  5487  16F4  2F0A               	goto	l3502
  5488  16F5                     l3498:
  5489  16F5  3001               	movlw	1
  5490  16F6  1283               	bcf	3,5	;RP0=0, select bank0
  5491  16F7  1303               	bcf	3,6	;RP1=0, select bank0
  5492  16F8  00BD               	movwf	??___almod
  5493  16F9                     u5015:
  5494  16F9  1003               	clrc
  5495  16FA  1683               	bsf	3,5	;RP0=1, select bank1
  5496  16FB  1303               	bcf	3,6	;RP1=0, select bank1
  5497  16FC  0DA0               	rlf	___almod@divisor^(0+128),f
  5498  16FD  0DA1               	rlf	(___almod@divisor+1)^(0+128),f
  5499  16FE  0DA2               	rlf	(___almod@divisor+2)^(0+128),f
  5500  16FF  0DA3               	rlf	(___almod@divisor+3)^(0+128),f
  5501  1700  1283               	bcf	3,5	;RP0=0, select bank0
  5502  1701  1303               	bcf	3,6	;RP1=0, select bank0
  5503  1702  0BBD               	decfsz	??___almod,f
  5504  1703  2EF9               	goto	u5015
  5505  1704                     l3500:
  5506  1704  3001               	movlw	1
  5507  1705  00FF               	movwf	btemp+1
  5508  1706  087F               	movf	btemp+1,w
  5509  1707  1683               	bsf	3,5	;RP0=1, select bank1
  5510  1708  1303               	bcf	3,6	;RP1=0, select bank1
  5511  1709  07A8               	addwf	___almod@counter^(0+128),f
  5512  170A                     l3502:
  5513  170A  1FA3               	btfss	(___almod@divisor+3)^(0+128),7
  5514  170B  2F0D               	goto	u5021
  5515  170C  2F0E               	goto	u5020
  5516  170D                     u5021:
  5517  170D  2EF5               	goto	l3498
  5518  170E                     u5020:
  5519  170E                     l3504:
  5520  170E  0823               	movf	(___almod@divisor+3)^(0+128),w
  5521  170F  0227               	subwf	(___almod@dividend+3)^(0+128),w
  5522  1710  1D03               	skipz
  5523  1711  2F1C               	goto	u5035
  5524  1712  0822               	movf	(___almod@divisor+2)^(0+128),w
  5525  1713  0226               	subwf	(___almod@dividend+2)^(0+128),w
  5526  1714  1D03               	skipz
  5527  1715  2F1C               	goto	u5035
  5528  1716  0821               	movf	(___almod@divisor+1)^(0+128),w
  5529  1717  0225               	subwf	(___almod@dividend+1)^(0+128),w
  5530  1718  1D03               	skipz
  5531  1719  2F1C               	goto	u5035
  5532  171A  0820               	movf	___almod@divisor^(0+128),w
  5533  171B  0224               	subwf	___almod@dividend^(0+128),w
  5534  171C                     u5035:
  5535  171C  1C03               	skipc
  5536  171D  2F1F               	goto	u5031
  5537  171E  2F20               	goto	u5030
  5538  171F                     u5031:
  5539  171F  2F2E               	goto	l3508
  5540  1720                     u5030:
  5541  1720                     l3506:
  5542  1720  0820               	movf	___almod@divisor^(0+128),w
  5543  1721  02A4               	subwf	___almod@dividend^(0+128),f
  5544  1722  0821               	movf	(___almod@divisor+1)^(0+128),w
  5545  1723  1C03               	skipc
  5546  1724  0F21               	incfsz	(___almod@divisor+1)^(0+128),w
  5547  1725  02A5               	subwf	(___almod@dividend+1)^(0+128),f
  5548  1726  0822               	movf	(___almod@divisor+2)^(0+128),w
  5549  1727  1C03               	skipc
  5550  1728  0F22               	incfsz	(___almod@divisor+2)^(0+128),w
  5551  1729  02A6               	subwf	(___almod@dividend+2)^(0+128),f
  5552  172A  0823               	movf	(___almod@divisor+3)^(0+128),w
  5553  172B  1C03               	skipc
  5554  172C  0F23               	incfsz	(___almod@divisor+3)^(0+128),w
  5555  172D  02A7               	subwf	(___almod@dividend+3)^(0+128),f
  5556  172E                     l3508:
  5557  172E  3001               	movlw	1
  5558  172F                     u5045:
  5559  172F  1003               	clrc
  5560  1730  0CA3               	rrf	(___almod@divisor+3)^(0+128),f
  5561  1731  0CA2               	rrf	(___almod@divisor+2)^(0+128),f
  5562  1732  0CA1               	rrf	(___almod@divisor+1)^(0+128),f
  5563  1733  0CA0               	rrf	___almod@divisor^(0+128),f
  5564  1734  3EFF               	addlw	-1
  5565  1735  1D03               	skipz
  5566  1736  2F2F               	goto	u5045
  5567  1737                     l3510:
  5568  1737  3001               	movlw	1
  5569  1738  02A8               	subwf	___almod@counter^(0+128),f
  5570  1739  1D03               	btfss	3,2
  5571  173A  2F3C               	goto	u5051
  5572  173B  2F3D               	goto	u5050
  5573  173C                     u5051:
  5574  173C  2F0E               	goto	l3504
  5575  173D                     u5050:
  5576  173D                     l3512:
  5577  173D  0829               	movf	___almod@sign^(0+128),w
  5578  173E  1903               	btfsc	3,2
  5579  173F  2F41               	goto	u5061
  5580  1740  2F42               	goto	u5060
  5581  1741                     u5061:
  5582  1741  2F4D               	goto	l3516
  5583  1742                     u5060:
  5584  1742                     l3514:
  5585  1742  09A4               	comf	___almod@dividend^(0+128),f
  5586  1743  09A5               	comf	(___almod@dividend+1)^(0+128),f
  5587  1744  09A6               	comf	(___almod@dividend+2)^(0+128),f
  5588  1745  09A7               	comf	(___almod@dividend+3)^(0+128),f
  5589  1746  0AA4               	incf	___almod@dividend^(0+128),f
  5590  1747  1903               	skipnz
  5591  1748  0AA5               	incf	(___almod@dividend+1)^(0+128),f
  5592  1749  1903               	skipnz
  5593  174A  0AA6               	incf	(___almod@dividend+2)^(0+128),f
  5594  174B  1903               	skipnz
  5595  174C  0AA7               	incf	(___almod@dividend+3)^(0+128),f
  5596  174D                     l3516:
  5597  174D  0827               	movf	(___almod@dividend+3)^(0+128),w
  5598  174E  00A3               	movwf	(?___almod+3)^(0+128)
  5599  174F  0826               	movf	(___almod@dividend+2)^(0+128),w
  5600  1750  00A2               	movwf	(?___almod+2)^(0+128)
  5601  1751  0825               	movf	(___almod@dividend+1)^(0+128),w
  5602  1752  00A1               	movwf	(?___almod+1)^(0+128)
  5603  1753  0824               	movf	___almod@dividend^(0+128),w
  5604  1754  00A0               	movwf	?___almod^(0+128)
  5605  1755                     l372:
  5606  1755  0008               	return
  5607  1756                     __end_of___almod:
  5608                           
  5609                           	psect	text12
  5610  15D5                     __ptext12:	
  5611 ;; *************** function _LCDWriteString *****************
  5612 ;; Defined at:
  5613 ;;		line 211 in file "lcd_hd44780_pic16.c"
  5614 ;; Parameters:    Size  Location     Type
  5615 ;;  msg             1    wreg     PTR const unsigned char 
  5616 ;;		 -> STR_2(10), STR_1(17), 
  5617 ;; Auto vars:     Size  Location     Type
  5618 ;;  msg             1   10[BANK1 ] PTR const unsigned char 
  5619 ;;		 -> STR_2(10), STR_1(17), 
  5620 ;;  cc              1    9[BANK1 ] char 
  5621 ;; Return value:  Size  Location     Type
  5622 ;;                  1    wreg      void 
  5623 ;; Registers used:
  5624 ;;		wreg, fsr0l, fsr0h, status,2, status,0, btemp+1, pclath, cstack
  5625 ;; Tracked objects:
  5626 ;;		On entry : 0/0
  5627 ;;		On exit  : 0/0
  5628 ;;		Unchanged: 0/0
  5629 ;; Data sizes:     COMMON   BANK0   BANK1   BANK3   BANK2
  5630 ;;      Params:         0       0       0       0       0
  5631 ;;      Locals:         0       0       2       0       0
  5632 ;;      Temps:          0       0       0       0       0
  5633 ;;      Totals:         0       0       2       0       0
  5634 ;;Total ram usage:        2 bytes
  5635 ;; Hardware stack levels used:    1
  5636 ;; Hardware stack levels required when called:    5
  5637 ;; This function calls:
  5638 ;;		_LCDByte
  5639 ;; This function is called by:
  5640 ;;		_main
  5641 ;; This function uses a non-reentrant model
  5642 ;;
  5643                           
  5644                           
  5645                           ;psect for function _LCDWriteString
  5646  15D5                     _LCDWriteString:
  5647                           
  5648                           ;incstack = 0
  5649                           ; Regs used in _LCDWriteString: [wreg-fsr0h+status,2+status,0+btemp+1+pclath+cstack]
  5650                           ;LCDWriteString@msg stored from wreg
  5651  15D5  1683               	bsf	3,5	;RP0=1, select bank1
  5652  15D6  1303               	bcf	3,6	;RP1=0, select bank1
  5653  15D7  00AA               	movwf	LCDWriteString@msg^(0+128)
  5654  15D8                     l3942:
  5655                           
  5656                           ;lcd_hd44780_pic16.c: 211: void LCDWriteString(const char *msg);lcd_hd44780_pic16.c: 212
      +                          : {;lcd_hd44780_pic16.c: 241:  while(*msg!='\0')
  5657  15D8  2E35               	goto	l3964
  5658  15D9                     l3944:
  5659                           
  5660                           ;lcd_hd44780_pic16.c: 242:  {;lcd_hd44780_pic16.c: 244:  if(*msg=='%')
  5661  15D9  082A               	movf	LCDWriteString@msg^(0+128),w
  5662  15DA  0084               	movwf	4
  5663  15DB  160A  118A  2000  160A  118A  	fcall	stringdir
  5664  15E0  3A25               	xorlw	37
  5665  15E1  1D03               	skipz
  5666  15E2  2DE4               	goto	u5901
  5667  15E3  2DE5               	goto	u5900
  5668  15E4                     u5901:
  5669  15E4  2E21               	goto	l3960
  5670  15E5                     u5900:
  5671  15E5                     l3946:
  5672                           
  5673                           ;lcd_hd44780_pic16.c: 245:  {;lcd_hd44780_pic16.c: 246:   msg++;
  5674  15E5  3001               	movlw	1
  5675  15E6  00FF               	movwf	btemp+1
  5676  15E7  087F               	movf	btemp+1,w
  5677  15E8  07AA               	addwf	LCDWriteString@msg^(0+128),f
  5678  15E9                     l3948:
  5679                           
  5680                           ;lcd_hd44780_pic16.c: 247:   int8_t cc=*msg-'0';
  5681  15E9  082A               	movf	LCDWriteString@msg^(0+128),w
  5682  15EA  0084               	movwf	4
  5683  15EB  160A  118A  2000  160A  118A  	fcall	stringdir
  5684  15F0  3ED0               	addlw	-48
  5685  15F1  00FF               	movwf	btemp+1
  5686  15F2  087F               	movf	btemp+1,w
  5687  15F3  00A9               	movwf	LCDWriteString@cc^(0+128)
  5688  15F4                     l3950:
  5689                           
  5690                           ;lcd_hd44780_pic16.c: 249:   if(cc>=0 && cc<=7)
  5691  15F4  1BA9               	btfsc	LCDWriteString@cc^(0+128),7
  5692  15F5  2DF7               	goto	u5911
  5693  15F6  2DF8               	goto	u5910
  5694  15F7                     u5911:
  5695  15F7  2E08               	goto	l3956
  5696  15F8                     u5910:
  5697  15F8                     l3952:
  5698  15F8  0829               	movf	LCDWriteString@cc^(0+128),w
  5699  15F9  3A80               	xorlw	128
  5700  15FA  3E78               	addlw	-136
  5701  15FB  1803               	skipnc
  5702  15FC  2DFE               	goto	u5921
  5703  15FD  2DFF               	goto	u5920
  5704  15FE                     u5921:
  5705  15FE  2E08               	goto	l3956
  5706  15FF                     u5920:
  5707  15FF                     l3954:
  5708                           
  5709                           ;lcd_hd44780_pic16.c: 250:   {;lcd_hd44780_pic16.c: 251:    (LCDByte(cc,1));
  5710  15FF  01A3               	clrf	LCDByte@isdata^(0+128)
  5711  1600  0AA3               	incf	LCDByte@isdata^(0+128),f
  5712  1601  0829               	movf	LCDWriteString@cc^(0+128),w
  5713  1602  160A  118A  23F6  160A  118A  	fcall	_LCDByte
  5714                           
  5715                           ;lcd_hd44780_pic16.c: 252:   }
  5716  1607  2E2F               	goto	l3962
  5717  1608                     l3956:
  5718                           
  5719                           ;lcd_hd44780_pic16.c: 254:   {;lcd_hd44780_pic16.c: 255:    (LCDByte('%',1));
  5720  1608  01A3               	clrf	LCDByte@isdata^(0+128)
  5721  1609  0AA3               	incf	LCDByte@isdata^(0+128),f
  5722  160A  3025               	movlw	37
  5723  160B  160A  118A  23F6  160A  118A  	fcall	_LCDByte
  5724  1610                     l3958:
  5725                           
  5726                           ;lcd_hd44780_pic16.c: 256:    (LCDByte(*msg,1));
  5727  1610  1683               	bsf	3,5	;RP0=1, select bank1
  5728  1611  1303               	bcf	3,6	;RP1=0, select bank1
  5729  1612  01A3               	clrf	LCDByte@isdata^(0+128)
  5730  1613  0AA3               	incf	LCDByte@isdata^(0+128),f
  5731  1614  082A               	movf	LCDWriteString@msg^(0+128),w
  5732  1615  0084               	movwf	4
  5733  1616  160A  118A  2000  160A  118A  	fcall	stringdir
  5734  161B  160A  118A  23F6  160A  118A  	fcall	_LCDByte
  5735  1620  2E2F               	goto	l3962
  5736  1621                     l3960:
  5737                           
  5738                           ;lcd_hd44780_pic16.c: 260:  {;lcd_hd44780_pic16.c: 261:   (LCDByte(*msg,1));
  5739  1621  01A3               	clrf	LCDByte@isdata^(0+128)
  5740  1622  0AA3               	incf	LCDByte@isdata^(0+128),f
  5741  1623  082A               	movf	LCDWriteString@msg^(0+128),w
  5742  1624  0084               	movwf	4
  5743  1625  160A  118A  2000  160A  118A  	fcall	stringdir
  5744  162A  160A  118A  23F6  160A  118A  	fcall	_LCDByte
  5745  162F                     l3962:
  5746                           
  5747                           ;lcd_hd44780_pic16.c: 263:  msg++;
  5748  162F  3001               	movlw	1
  5749  1630  00FF               	movwf	btemp+1
  5750  1631  087F               	movf	btemp+1,w
  5751  1632  1683               	bsf	3,5	;RP0=1, select bank1
  5752  1633  1303               	bcf	3,6	;RP1=0, select bank1
  5753  1634  07AA               	addwf	LCDWriteString@msg^(0+128),f
  5754  1635                     l3964:
  5755                           
  5756                           ;lcd_hd44780_pic16.c: 241:  while(*msg!='\0')
  5757  1635  082A               	movf	LCDWriteString@msg^(0+128),w
  5758  1636  0084               	movwf	4
  5759  1637  160A  118A  2000  160A  118A  	fcall	stringdir
  5760  163C  3A00               	xorlw	0
  5761  163D  1D03               	skipz
  5762  163E  2E40               	goto	u5931
  5763  163F  2E41               	goto	u5930
  5764  1640                     u5931:
  5765  1640  2DD9               	goto	l3944
  5766  1641                     u5930:
  5767  1641                     l147:
  5768  1641  0008               	return
  5769  1642                     __end_of_LCDWriteString:
  5770                           
  5771                           	psect	text13
  5772  1756                     __ptext13:	
  5773 ;; *************** function _LCDWriteInt *****************
  5774 ;; Defined at:
  5775 ;;		line 267 in file "lcd_hd44780_pic16.c"
  5776 ;; Parameters:    Size  Location     Type
  5777 ;;  val             2    9[BANK1 ] int 
  5778 ;;  field_length    1   11[BANK1 ] char 
  5779 ;; Auto vars:     Size  Location     Type
  5780 ;;  str            10   15[BANK1 ] unsigned char [10]
  5781 ;;  i               2   27[BANK1 ] int 
  5782 ;;  j               2   25[BANK1 ] int 
  5783 ;; Return value:  Size  Location     Type
  5784 ;;                  1    wreg      void 
  5785 ;; Registers used:
  5786 ;;		wreg, fsr0l, fsr0h, status,2, status,0, btemp+1, pclath, cstack
  5787 ;; Tracked objects:
  5788 ;;		On entry : 0/0
  5789 ;;		On exit  : 0/0
  5790 ;;		Unchanged: 0/0
  5791 ;; Data sizes:     COMMON   BANK0   BANK1   BANK3   BANK2
  5792 ;;      Params:         0       0       3       0       0
  5793 ;;      Locals:         0       0      14       0       0
  5794 ;;      Temps:          0       0       3       0       0
  5795 ;;      Totals:         0       0      20       0       0
  5796 ;;Total ram usage:       20 bytes
  5797 ;; Hardware stack levels used:    1
  5798 ;; Hardware stack levels required when called:    5
  5799 ;; This function calls:
  5800 ;;		_LCDByte
  5801 ;;		___awdiv
  5802 ;;		___awmod
  5803 ;; This function is called by:
  5804 ;;		_main
  5805 ;; This function uses a non-reentrant model
  5806 ;;
  5807                           
  5808                           
  5809                           ;psect for function _LCDWriteInt
  5810  1756                     _LCDWriteInt:
  5811  1756                     l4004:	
  5812                           ;incstack = 0
  5813                           ; Regs used in _LCDWriteInt: [wreg-fsr0h+status,2+status,0+btemp+1+pclath+cstack]
  5814                           
  5815                           
  5816                           ;lcd_hd44780_pic16.c: 267: void LCDWriteInt(int val,int8_t field_length);lcd_hd44780_pic
      +                          16.c: 268: {;lcd_hd44780_pic16.c: 280:  char str[10]={0,0,0,0,0,0,0,0,0,0};
  5817  1756  30AF               	movlw	LCDWriteInt@str& (0+255)
  5818  1757  0084               	movwf	4
  5819  1758  300A               	movlw	10
  5820  1759  00FF               	movwf	btemp+1
  5821  175A                     u5960:
  5822  175A  1383               	bcf	3,7	;select IRP bank1
  5823  175B  0180               	clrf	0
  5824  175C  0A84               	incf	4,f
  5825  175D  0BFF               	decfsz	btemp+1,f
  5826  175E  2F5A               	goto	u5960
  5827  175F                     l4006:
  5828                           
  5829                           ;lcd_hd44780_pic16.c: 281:  int i=9,j=0;
  5830  175F  3009               	movlw	9
  5831  1760  1683               	bsf	3,5	;RP0=1, select bank1
  5832  1761  1303               	bcf	3,6	;RP1=0, select bank1
  5833  1762  00BB               	movwf	LCDWriteInt@i^(0+128)
  5834  1763  3000               	movlw	0
  5835  1764  00BC               	movwf	(LCDWriteInt@i^(0+128)+1)
  5836  1765                     l4008:
  5837  1765  01B9               	clrf	LCDWriteInt@j^(0+128)
  5838  1766  01BA               	clrf	(LCDWriteInt@j+1)^(0+128)
  5839  1767                     l4010:
  5840                           
  5841                           ;lcd_hd44780_pic16.c: 284:         if(val<0)
  5842  1767  1FAA               	btfss	(LCDWriteInt@val+1)^(0+128),7
  5843  1768  2F6A               	goto	u5971
  5844  1769  2F6B               	goto	u5970
  5845  176A                     u5971:
  5846  176A  2FAB               	goto	l4022
  5847  176B                     u5970:
  5848  176B                     l4012:
  5849                           
  5850                           ;lcd_hd44780_pic16.c: 285:         {;lcd_hd44780_pic16.c: 286:             (LCDByte('-',
      +                          1));
  5851  176B  01A3               	clrf	LCDByte@isdata^(0+128)
  5852  176C  0AA3               	incf	LCDByte@isdata^(0+128),f
  5853  176D  302D               	movlw	45
  5854  176E  160A  118A  23F6  160A  118A  	fcall	_LCDByte
  5855  1773                     l4014:
  5856                           
  5857                           ;lcd_hd44780_pic16.c: 287:             val=val*-1;
  5858  1773  1683               	bsf	3,5	;RP0=1, select bank1
  5859  1774  1303               	bcf	3,6	;RP1=0, select bank1
  5860  1775  09A9               	comf	LCDWriteInt@val^(0+128),f
  5861  1776  09AA               	comf	(LCDWriteInt@val+1)^(0+128),f
  5862  1777  0AA9               	incf	LCDWriteInt@val^(0+128),f
  5863  1778  1903               	skipnz
  5864  1779  0AAA               	incf	(LCDWriteInt@val+1)^(0+128),f
  5865  177A  2FAB               	goto	l4022
  5866  177B                     l4016:
  5867                           
  5868                           ;lcd_hd44780_pic16.c: 291:  {;lcd_hd44780_pic16.c: 292:             str[i]=val%10;
  5869  177B  300A               	movlw	10
  5870  177C  00A0               	movwf	___awmod@divisor^(0+128)
  5871  177D  3000               	movlw	0
  5872  177E  00A1               	movwf	(___awmod@divisor^(0+128)+1)
  5873  177F  082A               	movf	(LCDWriteInt@val+1)^(0+128),w
  5874  1780  00A3               	movwf	(___awmod@dividend+1)^(0+128)
  5875  1781  0829               	movf	LCDWriteInt@val^(0+128),w
  5876  1782  00A2               	movwf	___awmod@dividend^(0+128)
  5877  1783  160A  118A  2449  160A  118A  	fcall	___awmod
  5878  1788  1683               	bsf	3,5	;RP0=1, select bank1
  5879  1789  1303               	bcf	3,6	;RP1=0, select bank1
  5880  178A  0820               	movf	?___awmod^(0+128),w
  5881  178B  00FF               	movwf	btemp+1
  5882  178C  083B               	movf	LCDWriteInt@i^(0+128),w
  5883  178D  3EAF               	addlw	(low (LCDWriteInt@str| 0))& (0+255)
  5884  178E  0084               	movwf	4
  5885  178F  087F               	movf	btemp+1,w
  5886  1790  1383               	bcf	3,7	;select IRP bank1
  5887  1791  0080               	movwf	0
  5888  1792                     l4018:
  5889                           
  5890                           ;lcd_hd44780_pic16.c: 293:             val=val/10;
  5891  1792  300A               	movlw	10
  5892  1793  00A0               	movwf	___awdiv@divisor^(0+128)
  5893  1794  3000               	movlw	0
  5894  1795  00A1               	movwf	(___awdiv@divisor^(0+128)+1)
  5895  1796  082A               	movf	(LCDWriteInt@val+1)^(0+128),w
  5896  1797  00A3               	movwf	(___awdiv@dividend+1)^(0+128)
  5897  1798  0829               	movf	LCDWriteInt@val^(0+128),w
  5898  1799  00A2               	movwf	___awdiv@dividend^(0+128)
  5899  179A  160A  118A  256C  160A  118A  	fcall	___awdiv
  5900  179F  1683               	bsf	3,5	;RP0=1, select bank1
  5901  17A0  1303               	bcf	3,6	;RP1=0, select bank1
  5902  17A1  0821               	movf	(?___awdiv+1)^(0+128),w
  5903  17A2  00AA               	movwf	(LCDWriteInt@val+1)^(0+128)
  5904  17A3  0820               	movf	?___awdiv^(0+128),w
  5905  17A4  00A9               	movwf	LCDWriteInt@val^(0+128)
  5906  17A5                     l4020:
  5907                           
  5908                           ;lcd_hd44780_pic16.c: 294:             i--;
  5909  17A5  30FF               	movlw	255
  5910  17A6  07BB               	addwf	LCDWriteInt@i^(0+128),f
  5911  17A7  1803               	skipnc
  5912  17A8  0ABC               	incf	(LCDWriteInt@i+1)^(0+128),f
  5913  17A9  30FF               	movlw	255
  5914  17AA  07BC               	addwf	(LCDWriteInt@i+1)^(0+128),f
  5915  17AB                     l4022:
  5916                           
  5917                           ;lcd_hd44780_pic16.c: 290:  while(val)
  5918  17AB  0829               	movf	LCDWriteInt@val^(0+128),w
  5919  17AC  042A               	iorwf	(LCDWriteInt@val+1)^(0+128),w
  5920  17AD  1D03               	btfss	3,2
  5921  17AE  2FB0               	goto	u5981
  5922  17AF  2FB1               	goto	u5980
  5923  17B0                     u5981:
  5924  17B0  2F7B               	goto	l4016
  5925  17B1                     u5980:
  5926  17B1                     l4024:
  5927                           
  5928                           ;lcd_hd44780_pic16.c: 296:  if(field_length==-1)
  5929  17B1  0A2B               	incf	LCDWriteInt@field_length^(0+128),w
  5930  17B2  1D03               	btfss	3,2
  5931  17B3  2FB5               	goto	u5991
  5932  17B4  2FB6               	goto	u5990
  5933  17B5                     u5991:
  5934  17B5  2FC7               	goto	l4032
  5935  17B6                     u5990:
  5936  17B6  2FBD               	goto	l4030
  5937  17B7                     l4028:
  5938  17B7  3001               	movlw	1
  5939  17B8  07B9               	addwf	LCDWriteInt@j^(0+128),f
  5940  17B9  1803               	skipnc
  5941  17BA  0ABA               	incf	(LCDWriteInt@j+1)^(0+128),f
  5942  17BB  3000               	movlw	0
  5943  17BC  07BA               	addwf	(LCDWriteInt@j+1)^(0+128),f
  5944  17BD                     l4030:
  5945  17BD  0839               	movf	LCDWriteInt@j^(0+128),w
  5946  17BE  3EAF               	addlw	(low (LCDWriteInt@str| 0))& (0+255)
  5947  17BF  0084               	movwf	4
  5948  17C0  1383               	bcf	3,7	;select IRP bank1
  5949  17C1  0800               	movf	0,w
  5950  17C2  1903               	btfsc	3,2
  5951  17C3  2FC5               	goto	u6001
  5952  17C4  2FC6               	goto	u6000
  5953  17C5                     u6001:
  5954  17C5  2FB7               	goto	l4028
  5955  17C6                     u6000:
  5956  17C6  2FD5               	goto	l160
  5957  17C7                     l4032:
  5958                           
  5959                           ;lcd_hd44780_pic16.c: 299:   j=10-field_length;
  5960  17C7  082B               	movf	LCDWriteInt@field_length^(0+128),w
  5961  17C8  00AC               	movwf	??_LCDWriteInt^(0+128)
  5962  17C9  01AD               	clrf	(??_LCDWriteInt^(0+128)+1)
  5963  17CA  1BAC               	btfsc	??_LCDWriteInt^(0+128),7
  5964  17CB  03AD               	decf	(??_LCDWriteInt^(0+128)+1),f
  5965  17CC  300A               	movlw	10
  5966  17CD  00AE               	movwf	(??_LCDWriteInt+2)^(0+128)
  5967  17CE  082C               	movf	??_LCDWriteInt^(0+128),w
  5968  17CF  022E               	subwf	(??_LCDWriteInt+2)^(0+128),w
  5969  17D0  00B9               	movwf	LCDWriteInt@j^(0+128)
  5970  17D1  092D               	comf	(??_LCDWriteInt+1)^(0+128),w
  5971  17D2  1803               	skipnc
  5972  17D3  3E01               	addlw	1
  5973  17D4  00BA               	movwf	(LCDWriteInt@j^(0+128)+1)
  5974  17D5                     l160:
  5975                           
  5976                           ;lcd_hd44780_pic16.c: 302:  for(i=j;i<10;i++)
  5977  17D5  083A               	movf	(LCDWriteInt@j+1)^(0+128),w
  5978  17D6  00BC               	movwf	(LCDWriteInt@i+1)^(0+128)
  5979  17D7  0839               	movf	LCDWriteInt@j^(0+128),w
  5980  17D8  00BB               	movwf	LCDWriteInt@i^(0+128)
  5981  17D9                     l4034:
  5982  17D9  083C               	movf	(LCDWriteInt@i+1)^(0+128),w
  5983  17DA  3A80               	xorlw	128
  5984  17DB  00FF               	movwf	btemp+1
  5985  17DC  3080               	movlw	128
  5986  17DD  027F               	subwf	btemp+1,w
  5987  17DE  1D03               	skipz
  5988  17DF  2FE2               	goto	u6015
  5989  17E0  300A               	movlw	10
  5990  17E1  023B               	subwf	LCDWriteInt@i^(0+128),w
  5991  17E2                     u6015:
  5992  17E2  1C03               	skipc
  5993  17E3  2FE5               	goto	u6011
  5994  17E4  2FE6               	goto	u6010
  5995  17E5                     u6011:
  5996  17E5  2FE7               	goto	l4038
  5997  17E6                     u6010:
  5998  17E6  2FFF               	goto	l163
  5999  17E7                     l4038:
  6000                           
  6001                           ;lcd_hd44780_pic16.c: 303:  {;lcd_hd44780_pic16.c: 304:  (LCDByte(48+str[i],1));
  6002  17E7  1683               	bsf	3,5	;RP0=1, select bank1
  6003  17E8  1303               	bcf	3,6	;RP1=0, select bank1
  6004  17E9  01A3               	clrf	LCDByte@isdata^(0+128)
  6005  17EA  0AA3               	incf	LCDByte@isdata^(0+128),f
  6006  17EB  083B               	movf	LCDWriteInt@i^(0+128),w
  6007  17EC  3EAF               	addlw	(low (LCDWriteInt@str| 0))& (0+255)
  6008  17ED  0084               	movwf	4
  6009  17EE  1383               	bcf	3,7	;select IRP bank1
  6010  17EF  0800               	movf	0,w
  6011  17F0  3E30               	addlw	48
  6012  17F1  160A  118A  23F6  160A  118A  	fcall	_LCDByte
  6013  17F6                     l4040:
  6014                           
  6015                           ;lcd_hd44780_pic16.c: 305:  }
  6016  17F6  3001               	movlw	1
  6017  17F7  1683               	bsf	3,5	;RP0=1, select bank1
  6018  17F8  1303               	bcf	3,6	;RP1=0, select bank1
  6019  17F9  07BB               	addwf	LCDWriteInt@i^(0+128),f
  6020  17FA  1803               	skipnc
  6021  17FB  0ABC               	incf	(LCDWriteInt@i+1)^(0+128),f
  6022  17FC  3000               	movlw	0
  6023  17FD  07BC               	addwf	(LCDWriteInt@i+1)^(0+128),f
  6024  17FE  2FD9               	goto	l4034
  6025  17FF                     l163:
  6026  17FF  0008               	return
  6027  1800                     __end_of_LCDWriteInt:
  6028                           
  6029                           	psect	text14
  6030  1449                     __ptext14:	
  6031 ;; *************** function ___awmod *****************
  6032 ;; Defined at:
  6033 ;;		line 5 in file "C:\Program Files\Microchip\xc8\v2.20\pic\sources\c90\common\awmod.c"
  6034 ;; Parameters:    Size  Location     Type
  6035 ;;  divisor         2    0[BANK1 ] int 
  6036 ;;  dividend        2    2[BANK1 ] int 
  6037 ;; Auto vars:     Size  Location     Type
  6038 ;;  sign            1    5[BANK1 ] unsigned char 
  6039 ;;  counter         1    4[BANK1 ] unsigned char 
  6040 ;; Return value:  Size  Location     Type
  6041 ;;                  2    0[BANK1 ] int 
  6042 ;; Registers used:
  6043 ;;		wreg, status,2, status,0, btemp+1
  6044 ;; Tracked objects:
  6045 ;;		On entry : 0/0
  6046 ;;		On exit  : 0/0
  6047 ;;		Unchanged: 0/0
  6048 ;; Data sizes:     COMMON   BANK0   BANK1   BANK3   BANK2
  6049 ;;      Params:         0       0       4       0       0
  6050 ;;      Locals:         0       0       2       0       0
  6051 ;;      Temps:          0       0       0       0       0
  6052 ;;      Totals:         0       0       6       0       0
  6053 ;;Total ram usage:        6 bytes
  6054 ;; Hardware stack levels used:    1
  6055 ;; Hardware stack levels required when called:    3
  6056 ;; This function calls:
  6057 ;;		Nothing
  6058 ;; This function is called by:
  6059 ;;		_LCDWriteInt
  6060 ;; This function uses a non-reentrant model
  6061 ;;
  6062                           
  6063                           
  6064                           ;psect for function ___awmod
  6065  1449                     ___awmod:
  6066  1449                     l3564:	
  6067                           ;incstack = 0
  6068                           ; Regs used in ___awmod: [wreg+status,2+status,0+btemp+1]
  6069                           
  6070  1449  1683               	bsf	3,5	;RP0=1, select bank1
  6071  144A  1303               	bcf	3,6	;RP1=0, select bank1
  6072  144B  01A5               	clrf	___awmod@sign^(0+128)
  6073  144C                     l3566:
  6074  144C  1FA3               	btfss	(___awmod@dividend+1)^(0+128),7
  6075  144D  2C4F               	goto	u5171
  6076  144E  2C50               	goto	u5170
  6077  144F                     u5171:
  6078  144F  2C57               	goto	l3572
  6079  1450                     u5170:
  6080  1450                     l3568:
  6081  1450  09A2               	comf	___awmod@dividend^(0+128),f
  6082  1451  09A3               	comf	(___awmod@dividend+1)^(0+128),f
  6083  1452  0AA2               	incf	___awmod@dividend^(0+128),f
  6084  1453  1903               	skipnz
  6085  1454  0AA3               	incf	(___awmod@dividend+1)^(0+128),f
  6086  1455                     l3570:
  6087  1455  01A5               	clrf	___awmod@sign^(0+128)
  6088  1456  0AA5               	incf	___awmod@sign^(0+128),f
  6089  1457                     l3572:
  6090  1457  1FA1               	btfss	(___awmod@divisor+1)^(0+128),7
  6091  1458  2C5A               	goto	u5181
  6092  1459  2C5B               	goto	u5180
  6093  145A                     u5181:
  6094  145A  2C60               	goto	l3576
  6095  145B                     u5180:
  6096  145B                     l3574:
  6097  145B  09A0               	comf	___awmod@divisor^(0+128),f
  6098  145C  09A1               	comf	(___awmod@divisor+1)^(0+128),f
  6099  145D  0AA0               	incf	___awmod@divisor^(0+128),f
  6100  145E  1903               	skipnz
  6101  145F  0AA1               	incf	(___awmod@divisor+1)^(0+128),f
  6102  1460                     l3576:
  6103  1460  0820               	movf	___awmod@divisor^(0+128),w
  6104  1461  0421               	iorwf	(___awmod@divisor+1)^(0+128),w
  6105  1462  1903               	btfsc	3,2
  6106  1463  2C65               	goto	u5191
  6107  1464  2C66               	goto	u5190
  6108  1465                     u5191:
  6109  1465  2C95               	goto	l3594
  6110  1466                     u5190:
  6111  1466                     l3578:
  6112  1466  01A4               	clrf	___awmod@counter^(0+128)
  6113  1467  0AA4               	incf	___awmod@counter^(0+128),f
  6114  1468  2C74               	goto	l3584
  6115  1469                     l3580:
  6116  1469  3001               	movlw	1
  6117  146A                     u5205:
  6118  146A  1003               	clrc
  6119  146B  0DA0               	rlf	___awmod@divisor^(0+128),f
  6120  146C  0DA1               	rlf	(___awmod@divisor+1)^(0+128),f
  6121  146D  3EFF               	addlw	-1
  6122  146E  1D03               	skipz
  6123  146F  2C6A               	goto	u5205
  6124  1470                     l3582:
  6125  1470  3001               	movlw	1
  6126  1471  00FF               	movwf	btemp+1
  6127  1472  087F               	movf	btemp+1,w
  6128  1473  07A4               	addwf	___awmod@counter^(0+128),f
  6129  1474                     l3584:
  6130  1474  1FA1               	btfss	(___awmod@divisor+1)^(0+128),7
  6131  1475  2C77               	goto	u5211
  6132  1476  2C78               	goto	u5210
  6133  1477                     u5211:
  6134  1477  2C69               	goto	l3580
  6135  1478                     u5210:
  6136  1478                     l3586:
  6137  1478  0821               	movf	(___awmod@divisor+1)^(0+128),w
  6138  1479  0223               	subwf	(___awmod@dividend+1)^(0+128),w
  6139  147A  1D03               	skipz
  6140  147B  2C7E               	goto	u5225
  6141  147C  0820               	movf	___awmod@divisor^(0+128),w
  6142  147D  0222               	subwf	___awmod@dividend^(0+128),w
  6143  147E                     u5225:
  6144  147E  1C03               	skipc
  6145  147F  2C81               	goto	u5221
  6146  1480  2C82               	goto	u5220
  6147  1481                     u5221:
  6148  1481  2C88               	goto	l3590
  6149  1482                     u5220:
  6150  1482                     l3588:
  6151  1482  0820               	movf	___awmod@divisor^(0+128),w
  6152  1483  02A2               	subwf	___awmod@dividend^(0+128),f
  6153  1484  0821               	movf	(___awmod@divisor+1)^(0+128),w
  6154  1485  1C03               	skipc
  6155  1486  03A3               	decf	(___awmod@dividend+1)^(0+128),f
  6156  1487  02A3               	subwf	(___awmod@dividend+1)^(0+128),f
  6157  1488                     l3590:
  6158  1488  3001               	movlw	1
  6159  1489                     u5235:
  6160  1489  1003               	clrc
  6161  148A  0CA1               	rrf	(___awmod@divisor+1)^(0+128),f
  6162  148B  0CA0               	rrf	___awmod@divisor^(0+128),f
  6163  148C  3EFF               	addlw	-1
  6164  148D  1D03               	skipz
  6165  148E  2C89               	goto	u5235
  6166  148F                     l3592:
  6167  148F  3001               	movlw	1
  6168  1490  02A4               	subwf	___awmod@counter^(0+128),f
  6169  1491  1D03               	btfss	3,2
  6170  1492  2C94               	goto	u5241
  6171  1493  2C95               	goto	u5240
  6172  1494                     u5241:
  6173  1494  2C78               	goto	l3586
  6174  1495                     u5240:
  6175  1495                     l3594:
  6176  1495  0825               	movf	___awmod@sign^(0+128),w
  6177  1496  1903               	btfsc	3,2
  6178  1497  2C99               	goto	u5251
  6179  1498  2C9A               	goto	u5250
  6180  1499                     u5251:
  6181  1499  2C9F               	goto	l3598
  6182  149A                     u5250:
  6183  149A                     l3596:
  6184  149A  09A2               	comf	___awmod@dividend^(0+128),f
  6185  149B  09A3               	comf	(___awmod@dividend+1)^(0+128),f
  6186  149C  0AA2               	incf	___awmod@dividend^(0+128),f
  6187  149D  1903               	skipnz
  6188  149E  0AA3               	incf	(___awmod@dividend+1)^(0+128),f
  6189  149F                     l3598:
  6190  149F  0823               	movf	(___awmod@dividend+1)^(0+128),w
  6191  14A0  00A1               	movwf	(?___awmod+1)^(0+128)
  6192  14A1  0822               	movf	___awmod@dividend^(0+128),w
  6193  14A2  00A0               	movwf	?___awmod^(0+128)
  6194  14A3                     l450:
  6195  14A3  0008               	return
  6196  14A4                     __end_of___awmod:
  6197                           
  6198                           	psect	text15
  6199  156C                     __ptext15:	
  6200 ;; *************** function ___awdiv *****************
  6201 ;; Defined at:
  6202 ;;		line 5 in file "C:\Program Files\Microchip\xc8\v2.20\pic\sources\c90\common\awdiv.c"
  6203 ;; Parameters:    Size  Location     Type
  6204 ;;  divisor         2    0[BANK1 ] int 
  6205 ;;  dividend        2    2[BANK1 ] int 
  6206 ;; Auto vars:     Size  Location     Type
  6207 ;;  quotient        2    6[BANK1 ] int 
  6208 ;;  sign            1    5[BANK1 ] unsigned char 
  6209 ;;  counter         1    4[BANK1 ] unsigned char 
  6210 ;; Return value:  Size  Location     Type
  6211 ;;                  2    0[BANK1 ] int 
  6212 ;; Registers used:
  6213 ;;		wreg, status,2, status,0, btemp+1
  6214 ;; Tracked objects:
  6215 ;;		On entry : 0/0
  6216 ;;		On exit  : 0/0
  6217 ;;		Unchanged: 0/0
  6218 ;; Data sizes:     COMMON   BANK0   BANK1   BANK3   BANK2
  6219 ;;      Params:         0       0       4       0       0
  6220 ;;      Locals:         0       0       4       0       0
  6221 ;;      Temps:          0       0       0       0       0
  6222 ;;      Totals:         0       0       8       0       0
  6223 ;;Total ram usage:        8 bytes
  6224 ;; Hardware stack levels used:    1
  6225 ;; Hardware stack levels required when called:    3
  6226 ;; This function calls:
  6227 ;;		Nothing
  6228 ;; This function is called by:
  6229 ;;		_LCDWriteInt
  6230 ;; This function uses a non-reentrant model
  6231 ;;
  6232                           
  6233                           
  6234                           ;psect for function ___awdiv
  6235  156C                     ___awdiv:
  6236  156C                     l3520:	
  6237                           ;incstack = 0
  6238                           ; Regs used in ___awdiv: [wreg+status,2+status,0+btemp+1]
  6239                           
  6240  156C  1683               	bsf	3,5	;RP0=1, select bank1
  6241  156D  1303               	bcf	3,6	;RP1=0, select bank1
  6242  156E  01A5               	clrf	___awdiv@sign^(0+128)
  6243  156F                     l3522:
  6244  156F  1FA1               	btfss	(___awdiv@divisor+1)^(0+128),7
  6245  1570  2D72               	goto	u5071
  6246  1571  2D73               	goto	u5070
  6247  1572                     u5071:
  6248  1572  2D7A               	goto	l3528
  6249  1573                     u5070:
  6250  1573                     l3524:
  6251  1573  09A0               	comf	___awdiv@divisor^(0+128),f
  6252  1574  09A1               	comf	(___awdiv@divisor+1)^(0+128),f
  6253  1575  0AA0               	incf	___awdiv@divisor^(0+128),f
  6254  1576  1903               	skipnz
  6255  1577  0AA1               	incf	(___awdiv@divisor+1)^(0+128),f
  6256  1578                     l3526:
  6257  1578  01A5               	clrf	___awdiv@sign^(0+128)
  6258  1579  0AA5               	incf	___awdiv@sign^(0+128),f
  6259  157A                     l3528:
  6260  157A  1FA3               	btfss	(___awdiv@dividend+1)^(0+128),7
  6261  157B  2D7D               	goto	u5081
  6262  157C  2D7E               	goto	u5080
  6263  157D                     u5081:
  6264  157D  2D87               	goto	l3534
  6265  157E                     u5080:
  6266  157E                     l3530:
  6267  157E  09A2               	comf	___awdiv@dividend^(0+128),f
  6268  157F  09A3               	comf	(___awdiv@dividend+1)^(0+128),f
  6269  1580  0AA2               	incf	___awdiv@dividend^(0+128),f
  6270  1581  1903               	skipnz
  6271  1582  0AA3               	incf	(___awdiv@dividend+1)^(0+128),f
  6272  1583                     l3532:
  6273  1583  3001               	movlw	1
  6274  1584  00FF               	movwf	btemp+1
  6275  1585  087F               	movf	btemp+1,w
  6276  1586  06A5               	xorwf	___awdiv@sign^(0+128),f
  6277  1587                     l3534:
  6278  1587  01A6               	clrf	___awdiv@quotient^(0+128)
  6279  1588  01A7               	clrf	(___awdiv@quotient+1)^(0+128)
  6280  1589                     l3536:
  6281  1589  0820               	movf	___awdiv@divisor^(0+128),w
  6282  158A  0421               	iorwf	(___awdiv@divisor+1)^(0+128),w
  6283  158B  1903               	btfsc	3,2
  6284  158C  2D8E               	goto	u5091
  6285  158D  2D8F               	goto	u5090
  6286  158E                     u5091:
  6287  158E  2DC6               	goto	l3556
  6288  158F                     u5090:
  6289  158F                     l3538:
  6290  158F  01A4               	clrf	___awdiv@counter^(0+128)
  6291  1590  0AA4               	incf	___awdiv@counter^(0+128),f
  6292  1591  2D9D               	goto	l3544
  6293  1592                     l3540:
  6294  1592  3001               	movlw	1
  6295  1593                     u5105:
  6296  1593  1003               	clrc
  6297  1594  0DA0               	rlf	___awdiv@divisor^(0+128),f
  6298  1595  0DA1               	rlf	(___awdiv@divisor+1)^(0+128),f
  6299  1596  3EFF               	addlw	-1
  6300  1597  1D03               	skipz
  6301  1598  2D93               	goto	u5105
  6302  1599                     l3542:
  6303  1599  3001               	movlw	1
  6304  159A  00FF               	movwf	btemp+1
  6305  159B  087F               	movf	btemp+1,w
  6306  159C  07A4               	addwf	___awdiv@counter^(0+128),f
  6307  159D                     l3544:
  6308  159D  1FA1               	btfss	(___awdiv@divisor+1)^(0+128),7
  6309  159E  2DA0               	goto	u5111
  6310  159F  2DA1               	goto	u5110
  6311  15A0                     u5111:
  6312  15A0  2D92               	goto	l3540
  6313  15A1                     u5110:
  6314  15A1                     l3546:
  6315  15A1  3001               	movlw	1
  6316  15A2                     u5125:
  6317  15A2  1003               	clrc
  6318  15A3  0DA6               	rlf	___awdiv@quotient^(0+128),f
  6319  15A4  0DA7               	rlf	(___awdiv@quotient+1)^(0+128),f
  6320  15A5  3EFF               	addlw	-1
  6321  15A6  1D03               	skipz
  6322  15A7  2DA2               	goto	u5125
  6323  15A8  0821               	movf	(___awdiv@divisor+1)^(0+128),w
  6324  15A9  0223               	subwf	(___awdiv@dividend+1)^(0+128),w
  6325  15AA  1D03               	skipz
  6326  15AB  2DAE               	goto	u5135
  6327  15AC  0820               	movf	___awdiv@divisor^(0+128),w
  6328  15AD  0222               	subwf	___awdiv@dividend^(0+128),w
  6329  15AE                     u5135:
  6330  15AE  1C03               	skipc
  6331  15AF  2DB1               	goto	u5131
  6332  15B0  2DB2               	goto	u5130
  6333  15B1                     u5131:
  6334  15B1  2DB9               	goto	l3552
  6335  15B2                     u5130:
  6336  15B2                     l3548:
  6337  15B2  0820               	movf	___awdiv@divisor^(0+128),w
  6338  15B3  02A2               	subwf	___awdiv@dividend^(0+128),f
  6339  15B4  0821               	movf	(___awdiv@divisor+1)^(0+128),w
  6340  15B5  1C03               	skipc
  6341  15B6  03A3               	decf	(___awdiv@dividend+1)^(0+128),f
  6342  15B7  02A3               	subwf	(___awdiv@dividend+1)^(0+128),f
  6343  15B8                     l3550:
  6344  15B8  1426               	bsf	___awdiv@quotient^(0+128),0
  6345  15B9                     l3552:
  6346  15B9  3001               	movlw	1
  6347  15BA                     u5145:
  6348  15BA  1003               	clrc
  6349  15BB  0CA1               	rrf	(___awdiv@divisor+1)^(0+128),f
  6350  15BC  0CA0               	rrf	___awdiv@divisor^(0+128),f
  6351  15BD  3EFF               	addlw	-1
  6352  15BE  1D03               	skipz
  6353  15BF  2DBA               	goto	u5145
  6354  15C0                     l3554:
  6355  15C0  3001               	movlw	1
  6356  15C1  02A4               	subwf	___awdiv@counter^(0+128),f
  6357  15C2  1D03               	btfss	3,2
  6358  15C3  2DC5               	goto	u5151
  6359  15C4  2DC6               	goto	u5150
  6360  15C5                     u5151:
  6361  15C5  2DA1               	goto	l3546
  6362  15C6                     u5150:
  6363  15C6                     l3556:
  6364  15C6  0825               	movf	___awdiv@sign^(0+128),w
  6365  15C7  1903               	btfsc	3,2
  6366  15C8  2DCA               	goto	u5161
  6367  15C9  2DCB               	goto	u5160
  6368  15CA                     u5161:
  6369  15CA  2DD0               	goto	l3560
  6370  15CB                     u5160:
  6371  15CB                     l3558:
  6372  15CB  09A6               	comf	___awdiv@quotient^(0+128),f
  6373  15CC  09A7               	comf	(___awdiv@quotient+1)^(0+128),f
  6374  15CD  0AA6               	incf	___awdiv@quotient^(0+128),f
  6375  15CE  1903               	skipnz
  6376  15CF  0AA7               	incf	(___awdiv@quotient+1)^(0+128),f
  6377  15D0                     l3560:
  6378  15D0  0827               	movf	(___awdiv@quotient+1)^(0+128),w
  6379  15D1  00A1               	movwf	(?___awdiv+1)^(0+128)
  6380  15D2  0826               	movf	___awdiv@quotient^(0+128),w
  6381  15D3  00A0               	movwf	?___awdiv^(0+128)
  6382  15D4                     l437:
  6383  15D4  0008               	return
  6384  15D5                     __end_of___awdiv:
  6385                           
  6386                           	psect	text16
  6387  1503                     __ptext16:	
  6388 ;; *************** function _LCDInit *****************
  6389 ;; Defined at:
  6390 ;;		line 153 in file "lcd_hd44780_pic16.c"
  6391 ;; Parameters:    Size  Location     Type
  6392 ;;  style           1    wreg     unsigned char 
  6393 ;; Auto vars:     Size  Location     Type
  6394 ;;  style           1   11[BANK1 ] unsigned char 
  6395 ;;  __i             1   12[BANK1 ] unsigned char 
  6396 ;; Return value:  Size  Location     Type
  6397 ;;                  1    wreg      void 
  6398 ;; Registers used:
  6399 ;;		wreg, fsr0l, fsr0h, status,2, status,0, btemp+1, pclath, cstack
  6400 ;; Tracked objects:
  6401 ;;		On entry : 0/0
  6402 ;;		On exit  : 0/0
  6403 ;;		Unchanged: 0/0
  6404 ;; Data sizes:     COMMON   BANK0   BANK1   BANK3   BANK2
  6405 ;;      Params:         0       0       0       0       0
  6406 ;;      Locals:         0       0       2       0       0
  6407 ;;      Temps:          0       0       2       0       0
  6408 ;;      Totals:         0       0       4       0       0
  6409 ;;Total ram usage:        4 bytes
  6410 ;; Hardware stack levels used:    1
  6411 ;; Hardware stack levels required when called:    5
  6412 ;; This function calls:
  6413 ;;		_LCDBusyLoop
  6414 ;;		_LCDByte
  6415 ;; This function is called by:
  6416 ;;		_main
  6417 ;; This function uses a non-reentrant model
  6418 ;;
  6419                           
  6420                           
  6421                           ;psect for function _LCDInit
  6422  1503                     _LCDInit:
  6423                           
  6424                           ;incstack = 0
  6425                           ; Regs used in _LCDInit: [wreg-fsr0h+status,2+status,0+btemp+1+pclath+cstack]
  6426                           ;LCDInit@style stored from wreg
  6427  1503  1683               	bsf	3,5	;RP0=1, select bank1
  6428  1504  1303               	bcf	3,6	;RP1=0, select bank1
  6429  1505  00AB               	movwf	LCDInit@style^(0+128)
  6430  1506                     l3874:
  6431                           
  6432                           ;lcd_hd44780_pic16.c: 153: void LCDInit(uint8_t style);lcd_hd44780_pic16.c: 154: {;lcd_h
      +                          d44780_pic16.c: 169:   _delay((unsigned long)((30)*(16000000/4000.0)));
  6433  1506  309C               	movlw	156
  6434  1507  1683               	bsf	3,5	;RP0=1, select bank1
  6435  1508  1303               	bcf	3,6	;RP1=0, select bank1
  6436  1509  00AA               	movwf	(??_LCDInit^(0+128)+1)
  6437  150A  30D6               	movlw	214
  6438  150B  00A9               	movwf	??_LCDInit^(0+128)
  6439  150C                     u6817:
  6440  150C  0BA9               	decfsz	??_LCDInit^(0+128),f
  6441  150D  2D0C               	goto	u6817
  6442  150E  0BAA               	decfsz	(??_LCDInit^(0+128)+1),f
  6443  150F  2D0C               	goto	u6817
  6444  1510  0000               	nop
  6445  1511                     l3876:
  6446                           
  6447                           ;lcd_hd44780_pic16.c: 172:  TRISD&=(~(0x0F<<0));
  6448  1511  30F0               	movlw	240
  6449  1512  00FF               	movwf	btemp+1
  6450  1513  087F               	movf	btemp+1,w
  6451  1514  1683               	bsf	3,5	;RP0=1, select bank1
  6452  1515  1303               	bcf	3,6	;RP1=0, select bank1
  6453  1516  0588               	andwf	8,f	;volatile
  6454  1517                     l3878:
  6455                           
  6456                           ;lcd_hd44780_pic16.c: 174:         TRISDbits.TRISD6=0;
  6457  1517  1308               	bcf	8,6	;volatile
  6458  1518                     l3880:
  6459                           
  6460                           ;lcd_hd44780_pic16.c: 175:         TRISDbits.TRISD4=0;
  6461  1518  1208               	bcf	8,4	;volatile
  6462  1519                     l3882:
  6463                           
  6464                           ;lcd_hd44780_pic16.c: 176:         TRISDbits.TRISD5=0;
  6465  1519  1288               	bcf	8,5	;volatile
  6466  151A                     l3884:
  6467                           
  6468                           ;lcd_hd44780_pic16.c: 178:  PORTD&=(~(0x0F<<0));
  6469  151A  30F0               	movlw	240
  6470  151B  00FF               	movwf	btemp+1
  6471  151C  087F               	movf	btemp+1,w
  6472  151D  1283               	bcf	3,5	;RP0=0, select bank0
  6473  151E  1303               	bcf	3,6	;RP1=0, select bank0
  6474  151F  0588               	andwf	8,f	;volatile
  6475  1520                     l3886:
  6476                           
  6477                           ;lcd_hd44780_pic16.c: 180:         (RD6=0);
  6478  1520  1308               	bcf	8,6	;volatile
  6479  1521                     l3888:
  6480                           
  6481                           ;lcd_hd44780_pic16.c: 181:  (RD5=0);
  6482  1521  1288               	bcf	8,5	;volatile
  6483  1522                     l3890:
  6484                           
  6485                           ;lcd_hd44780_pic16.c: 182:  (RD4=0);
  6486  1522  1208               	bcf	8,4	;volatile
  6487  1523                     l3892:
  6488                           
  6489                           ;lcd_hd44780_pic16.c: 185:  _delay((unsigned long)((0.5)*(16000000/4000000.0)));
  6490  1523  2D24               	nop2	;2 cycle nop
  6491  1524                     l3894:
  6492                           
  6493                           ;lcd_hd44780_pic16.c: 187:  (RD6=1);
  6494  1524  1283               	bcf	3,5	;RP0=0, select bank0
  6495  1525  1303               	bcf	3,6	;RP1=0, select bank0
  6496  1526  1708               	bsf	8,6	;volatile
  6497  1527                     l3896:
  6498                           
  6499                           ;lcd_hd44780_pic16.c: 188:  PORTD|=((0b00000010)<<0);
  6500  1527  1488               	bsf	8,1	;volatile
  6501  1528                     l3898:
  6502                           
  6503                           ;lcd_hd44780_pic16.c: 189:  _delay((unsigned long)((1)*(16000000/4000000.0)));
  6504  1528  2D29               	nop2	;2 cycle nop
  6505  1529  2D2A               	nop2	;2 cycle nop
  6506  152A                     l3900:
  6507                           
  6508                           ;lcd_hd44780_pic16.c: 190:  (RD6=0);
  6509  152A  1283               	bcf	3,5	;RP0=0, select bank0
  6510  152B  1303               	bcf	3,6	;RP1=0, select bank0
  6511  152C  1308               	bcf	8,6	;volatile
  6512  152D                     l3902:
  6513                           
  6514                           ;lcd_hd44780_pic16.c: 191:  _delay((unsigned long)((1)*(16000000/4000000.0)));
  6515  152D  2D2E               	nop2	;2 cycle nop
  6516  152E  2D2F               	nop2	;2 cycle nop
  6517  152F                     l3904:
  6518                           
  6519                           ;lcd_hd44780_pic16.c: 194:  LCDBusyLoop();
  6520  152F  160A  118A  24A4  160A  118A  	fcall	_LCDBusyLoop
  6521  1534                     l3906:
  6522                           
  6523                           ;lcd_hd44780_pic16.c: 199:  (LCDByte(0b00101000,0));
  6524  1534  1683               	bsf	3,5	;RP0=1, select bank1
  6525  1535  1303               	bcf	3,6	;RP1=0, select bank1
  6526  1536  01A3               	clrf	LCDByte@isdata^(0+128)
  6527  1537  3028               	movlw	40
  6528  1538  160A  118A  23F6  160A  118A  	fcall	_LCDByte
  6529  153D                     l3908:
  6530                           
  6531                           ;lcd_hd44780_pic16.c: 200:         (LCDByte(0b00001100|style,0));
  6532  153D  1683               	bsf	3,5	;RP0=1, select bank1
  6533  153E  1303               	bcf	3,6	;RP1=0, select bank1
  6534  153F  01A3               	clrf	LCDByte@isdata^(0+128)
  6535  1540  082B               	movf	LCDInit@style^(0+128),w
  6536  1541  380C               	iorlw	12
  6537  1542  160A  118A  23F6  160A  118A  	fcall	_LCDByte
  6538  1547                     l3910:
  6539                           
  6540                           ;lcd_hd44780_pic16.c: 203:         (LCDByte(0b01000000,0));
  6541  1547  1683               	bsf	3,5	;RP0=1, select bank1
  6542  1548  1303               	bcf	3,6	;RP1=0, select bank1
  6543  1549  01A3               	clrf	LCDByte@isdata^(0+128)
  6544  154A  3040               	movlw	64
  6545  154B  160A  118A  23F6  160A  118A  	fcall	_LCDByte
  6546  1550                     l3912:
  6547                           
  6548                           ;lcd_hd44780_pic16.c: 205:  uint8_t __i;;lcd_hd44780_pic16.c: 206:  for(__i=0;__i<sizeof
      +                          (__cgram);__i++)
  6549  1550  1683               	bsf	3,5	;RP0=1, select bank1
  6550  1551  1303               	bcf	3,6	;RP1=0, select bank1
  6551  1552  01AC               	clrf	LCDInit@__i^(0+128)
  6552  1553                     l3918:
  6553                           
  6554                           ;lcd_hd44780_pic16.c: 207:   (LCDByte(__cgram[__i],1));
  6555  1553  01A3               	clrf	LCDByte@isdata^(0+128)
  6556  1554  0AA3               	incf	LCDByte@isdata^(0+128),f
  6557  1555  082C               	movf	LCDInit@__i^(0+128),w
  6558  1556  3E90               	addlw	(low (___cgram| (0+256)))& (0+255)
  6559  1557  0084               	movwf	4
  6560  1558  1783               	bsf	3,7	;select IRP bank3
  6561  1559  0800               	movf	0,w
  6562  155A  160A  118A  23F6  160A  118A  	fcall	_LCDByte
  6563  155F                     l3920:
  6564  155F  3001               	movlw	1
  6565  1560  00FF               	movwf	btemp+1
  6566  1561  087F               	movf	btemp+1,w
  6567  1562  1683               	bsf	3,5	;RP0=1, select bank1
  6568  1563  1303               	bcf	3,6	;RP1=0, select bank1
  6569  1564  07AC               	addwf	LCDInit@__i^(0+128),f
  6570  1565                     l3922:
  6571  1565  3040               	movlw	64
  6572  1566  022C               	subwf	LCDInit@__i^(0+128),w
  6573  1567  1C03               	skipc
  6574  1568  2D6A               	goto	u5881
  6575  1569  2D6B               	goto	u5880
  6576  156A                     u5881:
  6577  156A  2D53               	goto	l3918
  6578  156B                     u5880:
  6579  156B                     l137:
  6580  156B  0008               	return
  6581  156C                     __end_of_LCDInit:
  6582                           
  6583                           	psect	text17
  6584  12B8                     __ptext17:	
  6585 ;; *************** function _LCDGotoXY *****************
  6586 ;; Defined at:
  6587 ;;		line 312 in file "lcd_hd44780_pic16.c"
  6588 ;; Parameters:    Size  Location     Type
  6589 ;;  x               1    wreg     unsigned char 
  6590 ;;  y               1    9[BANK1 ] unsigned char 
  6591 ;; Auto vars:     Size  Location     Type
  6592 ;;  x               1   12[BANK1 ] unsigned char 
  6593 ;; Return value:  Size  Location     Type
  6594 ;;                  1    wreg      void 
  6595 ;; Registers used:
  6596 ;;		wreg, fsr0l, fsr0h, status,2, status,0, btemp+1, pclath, cstack
  6597 ;; Tracked objects:
  6598 ;;		On entry : 0/0
  6599 ;;		On exit  : 0/0
  6600 ;;		Unchanged: 0/0
  6601 ;; Data sizes:     COMMON   BANK0   BANK1   BANK3   BANK2
  6602 ;;      Params:         0       0       1       0       0
  6603 ;;      Locals:         0       0       1       0       0
  6604 ;;      Temps:          0       0       2       0       0
  6605 ;;      Totals:         0       0       4       0       0
  6606 ;;Total ram usage:        4 bytes
  6607 ;; Hardware stack levels used:    1
  6608 ;; Hardware stack levels required when called:    5
  6609 ;; This function calls:
  6610 ;;		_LCDByte
  6611 ;; This function is called by:
  6612 ;;		_main
  6613 ;; This function uses a non-reentrant model
  6614 ;;
  6615                           
  6616                           
  6617                           ;psect for function _LCDGotoXY
  6618  12B8                     _LCDGotoXY:
  6619                           
  6620                           ;incstack = 0
  6621                           ; Regs used in _LCDGotoXY: [wreg-fsr0h+status,2+status,0+btemp+1+pclath+cstack]
  6622                           ;LCDGotoXY@x stored from wreg
  6623  12B8  1683               	bsf	3,5	;RP0=1, select bank1
  6624  12B9  1303               	bcf	3,6	;RP1=0, select bank1
  6625  12BA  00AC               	movwf	LCDGotoXY@x^(0+128)
  6626  12BB                     l3924:
  6627                           
  6628                           ;lcd_hd44780_pic16.c: 312: void LCDGotoXY(uint8_t x,uint8_t y);lcd_hd44780_pic16.c: 313:
      +                           {;lcd_hd44780_pic16.c: 314:   if(x>=20) return;
  6629  12BB  3014               	movlw	20
  6630  12BC  022C               	subwf	LCDGotoXY@x^(0+128),w
  6631  12BD  1C03               	skipc
  6632  12BE  2AC0               	goto	u5891
  6633  12BF  2AC1               	goto	u5890
  6634  12C0                     u5891:
  6635  12C0  2ACE               	goto	l3934
  6636  12C1                     u5890:
  6637  12C1  2AEC               	goto	l167
  6638  12C2                     l171:	
  6639                           ;lcd_hd44780_pic16.c: 322:   case 1:
  6640                           
  6641                           
  6642                           ;lcd_hd44780_pic16.c: 323:    x|=0b01000000;
  6643  12C2  172C               	bsf	LCDGotoXY@x^(0+128),6
  6644                           
  6645                           ;lcd_hd44780_pic16.c: 324:    break;
  6646  12C3  2AE4               	goto	l170
  6647  12C4                     l3928:
  6648                           
  6649                           ;lcd_hd44780_pic16.c: 326:    x+=0x14;
  6650  12C4  3014               	movlw	20
  6651  12C5  00FF               	movwf	btemp+1
  6652  12C6  087F               	movf	btemp+1,w
  6653  12C7  07AC               	addwf	LCDGotoXY@x^(0+128),f
  6654                           
  6655                           ;lcd_hd44780_pic16.c: 327:    break;
  6656  12C8  2AE4               	goto	l170
  6657  12C9                     l3930:
  6658                           
  6659                           ;lcd_hd44780_pic16.c: 329:    x+=0x54;
  6660  12C9  3054               	movlw	84
  6661  12CA  00FF               	movwf	btemp+1
  6662  12CB  087F               	movf	btemp+1,w
  6663  12CC  07AC               	addwf	LCDGotoXY@x^(0+128),f
  6664                           
  6665                           ;lcd_hd44780_pic16.c: 330:    break;
  6666  12CD  2AE4               	goto	l170
  6667  12CE                     l3934:
  6668  12CE  0829               	movf	LCDGotoXY@y^(0+128),w
  6669  12CF  00AA               	movwf	??_LCDGotoXY^(0+128)
  6670  12D0  01AB               	clrf	(??_LCDGotoXY^(0+128)+1)
  6671                           
  6672                           ; Switch on 2 bytes has been partitioned into a top level switch of size 1, and 1 sub-sw
      +                          itches
  6673                           ; Switch size 1, requested type "simple"
  6674                           ; Number of cases is 1, Range of values is 0 to 0
  6675                           ; switch strategies available:
  6676                           ; Name         Instructions Cycles
  6677                           ; simple_byte            4     3 (average)
  6678                           ; direct_byte           11     8 (fixed)
  6679                           ; jumptable            260     6 (fixed)
  6680                           ;	Chosen strategy is simple_byte
  6681  12D1  082B               	movf	(??_LCDGotoXY+1)^(0+128),w
  6682  12D2  3A00               	xorlw	0	; case 0
  6683  12D3  1903               	skipnz
  6684  12D4  2AD6               	goto	l4474
  6685  12D5  2AE4               	goto	l170
  6686  12D6                     l4474:
  6687                           
  6688                           ; Switch size 1, requested type "simple"
  6689                           ; Number of cases is 4, Range of values is 0 to 3
  6690                           ; switch strategies available:
  6691                           ; Name         Instructions Cycles
  6692                           ; simple_byte           13     7 (average)
  6693                           ; direct_byte           20     8 (fixed)
  6694                           ; jumptable            260     6 (fixed)
  6695                           ;	Chosen strategy is simple_byte
  6696  12D6  082A               	movf	??_LCDGotoXY^(0+128),w
  6697  12D7  3A00               	xorlw	0	; case 0
  6698  12D8  1903               	skipnz
  6699  12D9  2AE4               	goto	l170
  6700  12DA  3A01               	xorlw	1	; case 1
  6701  12DB  1903               	skipnz
  6702  12DC  2AC2               	goto	l171
  6703  12DD  3A03               	xorlw	3	; case 2
  6704  12DE  1903               	skipnz
  6705  12DF  2AC4               	goto	l3928
  6706  12E0  3A01               	xorlw	1	; case 3
  6707  12E1  1903               	skipnz
  6708  12E2  2AC9               	goto	l3930
  6709  12E3  2AE4               	goto	l170
  6710  12E4                     l170:
  6711                           
  6712                           ;lcd_hd44780_pic16.c: 353:  x|=0b10000000;
  6713  12E4  17AC               	bsf	LCDGotoXY@x^(0+128),7
  6714  12E5                     l3936:
  6715                           
  6716                           ;lcd_hd44780_pic16.c: 354:    (LCDByte(x,0));
  6717  12E5  01A3               	clrf	LCDByte@isdata^(0+128)
  6718  12E6  082C               	movf	LCDGotoXY@x^(0+128),w
  6719  12E7  160A  118A  23F6  160A  118A  	fcall	_LCDByte
  6720  12EC                     l167:
  6721  12EC  0008               	return
  6722  12ED                     __end_of_LCDGotoXY:
  6723                           
  6724                           	psect	text18
  6725  13F6                     __ptext18:	
  6726 ;; *************** function _LCDByte *****************
  6727 ;; Defined at:
  6728 ;;		line 96 in file "lcd_hd44780_pic16.c"
  6729 ;; Parameters:    Size  Location     Type
  6730 ;;  c               1    wreg     unsigned char 
  6731 ;;  isdata          1    3[BANK1 ] unsigned char 
  6732 ;; Auto vars:     Size  Location     Type
  6733 ;;  c               1    7[BANK1 ] unsigned char 
  6734 ;;  temp            1    8[BANK1 ] unsigned char 
  6735 ;;  ln              1    6[BANK1 ] unsigned char 
  6736 ;;  hn              1    5[BANK1 ] unsigned char 
  6737 ;; Return value:  Size  Location     Type
  6738 ;;                  1    wreg      void 
  6739 ;; Registers used:
  6740 ;;		wreg, status,2, status,0, btemp+1, pclath, cstack
  6741 ;; Tracked objects:
  6742 ;;		On entry : 0/0
  6743 ;;		On exit  : 0/0
  6744 ;;		Unchanged: 0/0
  6745 ;; Data sizes:     COMMON   BANK0   BANK1   BANK3   BANK2
  6746 ;;      Params:         0       0       1       0       0
  6747 ;;      Locals:         0       0       4       0       0
  6748 ;;      Temps:          0       0       1       0       0
  6749 ;;      Totals:         0       0       6       0       0
  6750 ;;Total ram usage:        6 bytes
  6751 ;; Hardware stack levels used:    1
  6752 ;; Hardware stack levels required when called:    4
  6753 ;; This function calls:
  6754 ;;		_LCDBusyLoop
  6755 ;; This function is called by:
  6756 ;;		_main
  6757 ;;		_LCDInit
  6758 ;;		_LCDWriteString
  6759 ;;		_LCDWriteInt
  6760 ;;		_LCDGotoXY
  6761 ;; This function uses a non-reentrant model
  6762 ;;
  6763                           
  6764                           
  6765                           ;psect for function _LCDByte
  6766  13F6                     _LCDByte:
  6767                           
  6768                           ;incstack = 0
  6769                           ; Regs used in _LCDByte: [wreg+status,2+status,0+btemp+1+pclath+cstack]
  6770                           ;LCDByte@c stored from wreg
  6771  13F6  1683               	bsf	3,5	;RP0=1, select bank1
  6772  13F7  1303               	bcf	3,6	;RP1=0, select bank1
  6773  13F8  00A7               	movwf	LCDByte@c^(0+128)
  6774  13F9                     l3456:
  6775                           
  6776                           ;lcd_hd44780_pic16.c: 96: void LCDByte(uint8_t c,uint8_t isdata);lcd_hd44780_pic16.c: 97
      +                          : {;lcd_hd44780_pic16.c: 105: uint8_t hn,ln;;lcd_hd44780_pic16.c: 106: uint8_t temp;;lcd
      +                          _hd44780_pic16.c: 108: hn=c>>4;
  6777  13F9  0827               	movf	LCDByte@c^(0+128),w
  6778  13FA  00A4               	movwf	??_LCDByte^(0+128)
  6779  13FB  3004               	movlw	4
  6780  13FC                     u4965:
  6781  13FC  1003               	clrc
  6782  13FD  0CA4               	rrf	??_LCDByte^(0+128),f
  6783  13FE  3EFF               	addlw	-1
  6784  13FF  1D03               	skipz
  6785  1400  2BFC               	goto	u4965
  6786  1401  0824               	movf	??_LCDByte^(0+128),w
  6787  1402  00FF               	movwf	btemp+1
  6788  1403  087F               	movf	btemp+1,w
  6789  1404  00A5               	movwf	LCDByte@hn^(0+128)
  6790  1405                     l3458:
  6791                           
  6792                           ;lcd_hd44780_pic16.c: 109: ln=(c & 0x0F);
  6793  1405  0827               	movf	LCDByte@c^(0+128),w
  6794  1406  390F               	andlw	15
  6795  1407  00FF               	movwf	btemp+1
  6796  1408  087F               	movf	btemp+1,w
  6797  1409  00A6               	movwf	LCDByte@ln^(0+128)
  6798  140A                     l3460:
  6799                           
  6800                           ;lcd_hd44780_pic16.c: 111: if(isdata==0)
  6801  140A  0823               	movf	LCDByte@isdata^(0+128),w
  6802  140B  1D03               	btfss	3,2
  6803  140C  2C0E               	goto	u4971
  6804  140D  2C0F               	goto	u4970
  6805  140E                     u4971:
  6806  140E  2C13               	goto	l130
  6807  140F                     u4970:
  6808  140F                     l3462:
  6809                           
  6810                           ;lcd_hd44780_pic16.c: 112:  (RD4=0);
  6811  140F  1283               	bcf	3,5	;RP0=0, select bank0
  6812  1410  1303               	bcf	3,6	;RP1=0, select bank0
  6813  1411  1208               	bcf	8,4	;volatile
  6814  1412  2C16               	goto	l131
  6815  1413                     l130:	
  6816                           ;lcd_hd44780_pic16.c: 113: else
  6817                           
  6818                           
  6819                           ;lcd_hd44780_pic16.c: 114:  (RD4=1);
  6820  1413  1283               	bcf	3,5	;RP0=0, select bank0
  6821  1414  1303               	bcf	3,6	;RP1=0, select bank0
  6822  1415  1608               	bsf	8,4	;volatile
  6823  1416                     l131:
  6824                           
  6825                           ;lcd_hd44780_pic16.c: 116: _delay((unsigned long)((0.5)*(16000000/4000000.0)));
  6826  1416  2C17               	nop2	;2 cycle nop
  6827                           
  6828                           ;lcd_hd44780_pic16.c: 118: (RD6=1);
  6829  1417  1283               	bcf	3,5	;RP0=0, select bank0
  6830  1418  1303               	bcf	3,6	;RP1=0, select bank0
  6831  1419  1708               	bsf	8,6	;volatile
  6832  141A                     l3464:
  6833                           
  6834                           ;lcd_hd44780_pic16.c: 122: temp=(PORTD & (~(0X0F<<0)))|((hn<<0));
  6835  141A  0808               	movf	8,w	;volatile
  6836  141B  39F0               	andlw	240
  6837  141C  1683               	bsf	3,5	;RP0=1, select bank1
  6838  141D  1303               	bcf	3,6	;RP1=0, select bank1
  6839  141E  0425               	iorwf	LCDByte@hn^(0+128),w
  6840  141F  00FF               	movwf	btemp+1
  6841  1420  087F               	movf	btemp+1,w
  6842  1421  00A8               	movwf	LCDByte@temp^(0+128)
  6843  1422                     l3466:
  6844                           
  6845                           ;lcd_hd44780_pic16.c: 123: PORTD=temp;
  6846  1422  0828               	movf	LCDByte@temp^(0+128),w
  6847  1423  1283               	bcf	3,5	;RP0=0, select bank0
  6848  1424  1303               	bcf	3,6	;RP1=0, select bank0
  6849  1425  0088               	movwf	8	;volatile
  6850  1426                     l3468:
  6851                           
  6852                           ;lcd_hd44780_pic16.c: 125: _delay((unsigned long)((1)*(16000000/4000000.0)));
  6853  1426  2C27               	nop2	;2 cycle nop
  6854  1427  2C28               	nop2	;2 cycle nop
  6855  1428                     l3470:
  6856                           
  6857                           ;lcd_hd44780_pic16.c: 129: (RD6=0);
  6858  1428  1283               	bcf	3,5	;RP0=0, select bank0
  6859  1429  1303               	bcf	3,6	;RP1=0, select bank0
  6860  142A  1308               	bcf	8,6	;volatile
  6861  142B                     l3472:
  6862                           
  6863                           ;lcd_hd44780_pic16.c: 131: _delay((unsigned long)((1)*(16000000/4000000.0)));
  6864  142B  2C2C               	nop2	;2 cycle nop
  6865  142C  2C2D               	nop2	;2 cycle nop
  6866  142D                     l3474:
  6867                           
  6868                           ;lcd_hd44780_pic16.c: 134: (RD6=1);
  6869  142D  1283               	bcf	3,5	;RP0=0, select bank0
  6870  142E  1303               	bcf	3,6	;RP1=0, select bank0
  6871  142F  1708               	bsf	8,6	;volatile
  6872  1430                     l3476:
  6873                           
  6874                           ;lcd_hd44780_pic16.c: 136: temp=(PORTD & (~(0X0F<<0)))|((ln<<0));
  6875  1430  0808               	movf	8,w	;volatile
  6876  1431  39F0               	andlw	240
  6877  1432  1683               	bsf	3,5	;RP0=1, select bank1
  6878  1433  1303               	bcf	3,6	;RP1=0, select bank1
  6879  1434  0426               	iorwf	LCDByte@ln^(0+128),w
  6880  1435  00FF               	movwf	btemp+1
  6881  1436  087F               	movf	btemp+1,w
  6882  1437  00A8               	movwf	LCDByte@temp^(0+128)
  6883                           
  6884                           ;lcd_hd44780_pic16.c: 138: PORTD=temp;
  6885  1438  0828               	movf	LCDByte@temp^(0+128),w
  6886  1439  1283               	bcf	3,5	;RP0=0, select bank0
  6887  143A  1303               	bcf	3,6	;RP1=0, select bank0
  6888  143B  0088               	movwf	8	;volatile
  6889  143C                     l3478:
  6890                           
  6891                           ;lcd_hd44780_pic16.c: 140: _delay((unsigned long)((1)*(16000000/4000000.0)));
  6892  143C  2C3D               	nop2	;2 cycle nop
  6893  143D  2C3E               	nop2	;2 cycle nop
  6894  143E                     l3480:
  6895                           
  6896                           ;lcd_hd44780_pic16.c: 144: (RD6=0);
  6897  143E  1283               	bcf	3,5	;RP0=0, select bank0
  6898  143F  1303               	bcf	3,6	;RP1=0, select bank0
  6899  1440  1308               	bcf	8,6	;volatile
  6900  1441                     l3482:
  6901                           
  6902                           ;lcd_hd44780_pic16.c: 146: _delay((unsigned long)((1)*(16000000/4000000.0)));
  6903  1441  2C42               	nop2	;2 cycle nop
  6904  1442  2C43               	nop2	;2 cycle nop
  6905  1443                     l3484:
  6906                           
  6907                           ;lcd_hd44780_pic16.c: 148: LCDBusyLoop();
  6908  1443  160A  118A  24A4  160A  118A  	fcall	_LCDBusyLoop
  6909  1448                     l132:
  6910  1448  0008               	return
  6911  1449                     __end_of_LCDByte:
  6912                           
  6913                           	psect	text19
  6914  14A4                     __ptext19:	
  6915 ;; *************** function _LCDBusyLoop *****************
  6916 ;; Defined at:
  6917 ;;		line 38 in file "lcd_hd44780_pic16.c"
  6918 ;; Parameters:    Size  Location     Type
  6919 ;;		None
  6920 ;; Auto vars:     Size  Location     Type
  6921 ;;  status          1    2[BANK1 ] unsigned char 
  6922 ;;  temp            1    1[BANK1 ] unsigned char 
  6923 ;;  busy            1    0[BANK1 ] unsigned char 
  6924 ;; Return value:  Size  Location     Type
  6925 ;;                  1    wreg      void 
  6926 ;; Registers used:
  6927 ;;		wreg, status,2, status,0, btemp+1
  6928 ;; Tracked objects:
  6929 ;;		On entry : 0/0
  6930 ;;		On exit  : 0/0
  6931 ;;		Unchanged: 0/0
  6932 ;; Data sizes:     COMMON   BANK0   BANK1   BANK3   BANK2
  6933 ;;      Params:         0       0       0       0       0
  6934 ;;      Locals:         0       0       3       0       0
  6935 ;;      Temps:          0       1       0       0       0
  6936 ;;      Totals:         0       1       3       0       0
  6937 ;;Total ram usage:        4 bytes
  6938 ;; Hardware stack levels used:    1
  6939 ;; Hardware stack levels required when called:    3
  6940 ;; This function calls:
  6941 ;;		Nothing
  6942 ;; This function is called by:
  6943 ;;		_LCDByte
  6944 ;;		_LCDInit
  6945 ;; This function uses a non-reentrant model
  6946 ;;
  6947                           
  6948                           
  6949                           ;psect for function _LCDBusyLoop
  6950  14A4                     _LCDBusyLoop:
  6951  14A4                     l3410:	
  6952                           ;incstack = 0
  6953                           ; Regs used in _LCDBusyLoop: [wreg+status,2+status,0+btemp+1]
  6954                           
  6955  14A4                     l3412:
  6956                           
  6957                           ;lcd_hd44780_pic16.c: 45:  TRISD|=(0x0f<<0);
  6958  14A4  300F               	movlw	15
  6959  14A5  00FF               	movwf	btemp+1
  6960  14A6  087F               	movf	btemp+1,w
  6961  14A7  1683               	bsf	3,5	;RP0=1, select bank1
  6962  14A8  1303               	bcf	3,6	;RP1=0, select bank1
  6963  14A9  0488               	iorwf	8,f	;volatile
  6964  14AA                     l3414:
  6965                           
  6966                           ;lcd_hd44780_pic16.c: 48:  (RD5=1);
  6967  14AA  1283               	bcf	3,5	;RP0=0, select bank0
  6968  14AB  1303               	bcf	3,6	;RP1=0, select bank0
  6969  14AC  1688               	bsf	8,5	;volatile
  6970  14AD                     l3416:
  6971                           
  6972                           ;lcd_hd44780_pic16.c: 49:  (RD4=0);
  6973  14AD  1208               	bcf	8,4	;volatile
  6974  14AE                     l3418:
  6975                           
  6976                           ;lcd_hd44780_pic16.c: 53:  _delay((unsigned long)((0.5)*(16000000/4000000.0)));
  6977  14AE  2CAF               	nop2	;2 cycle nop
  6978  14AF                     l3420:
  6979                           
  6980                           ;lcd_hd44780_pic16.c: 57:  {;lcd_hd44780_pic16.c: 59:   (RD6=1);
  6981  14AF  1283               	bcf	3,5	;RP0=0, select bank0
  6982  14B0  1303               	bcf	3,6	;RP1=0, select bank0
  6983  14B1  1708               	bsf	8,6	;volatile
  6984  14B2                     l3422:
  6985                           
  6986                           ;lcd_hd44780_pic16.c: 62:   _delay((unsigned long)((0.5)*(16000000/4000000.0)));
  6987  14B2  2CB3               	nop2	;2 cycle nop
  6988  14B3                     l3424:
  6989                           
  6990                           ;lcd_hd44780_pic16.c: 64:   status=(PORTD>>0);
  6991  14B3  1283               	bcf	3,5	;RP0=0, select bank0
  6992  14B4  1303               	bcf	3,6	;RP1=0, select bank0
  6993  14B5  0808               	movf	8,w	;volatile
  6994  14B6  00FF               	movwf	btemp+1
  6995  14B7  087F               	movf	btemp+1,w
  6996  14B8  1683               	bsf	3,5	;RP0=1, select bank1
  6997  14B9  1303               	bcf	3,6	;RP1=0, select bank1
  6998  14BA  00A2               	movwf	LCDBusyLoop@status^(0+128)
  6999  14BB                     l3426:
  7000                           
  7001                           ;lcd_hd44780_pic16.c: 65:   status=status<<4;
  7002  14BB  0822               	movf	LCDBusyLoop@status^(0+128),w
  7003  14BC  1283               	bcf	3,5	;RP0=0, select bank0
  7004  14BD  1303               	bcf	3,6	;RP1=0, select bank0
  7005  14BE  00BD               	movwf	??_LCDBusyLoop
  7006  14BF  3003               	movlw	3
  7007  14C0                     u4945:
  7008  14C0  1003               	clrc
  7009  14C1  0DBD               	rlf	??_LCDBusyLoop,f
  7010  14C2  3EFF               	addlw	-1
  7011  14C3  1D03               	skipz
  7012  14C4  2CC0               	goto	u4945
  7013  14C5  1003               	clrc
  7014  14C6  0D3D               	rlf	??_LCDBusyLoop,w
  7015  14C7  00FF               	movwf	btemp+1
  7016  14C8  087F               	movf	btemp+1,w
  7017  14C9  1683               	bsf	3,5	;RP0=1, select bank1
  7018  14CA  1303               	bcf	3,6	;RP1=0, select bank1
  7019  14CB  00A2               	movwf	LCDBusyLoop@status^(0+128)
  7020  14CC                     l3428:
  7021                           
  7022                           ;lcd_hd44780_pic16.c: 67:   _delay((unsigned long)((0.5)*(16000000/4000000.0)));
  7023  14CC  2CCD               	nop2	;2 cycle nop
  7024  14CD                     l3430:
  7025                           
  7026                           ;lcd_hd44780_pic16.c: 70:   (RD6=0);
  7027  14CD  1283               	bcf	3,5	;RP0=0, select bank0
  7028  14CE  1303               	bcf	3,6	;RP1=0, select bank0
  7029  14CF  1308               	bcf	8,6	;volatile
  7030  14D0                     l3432:
  7031                           
  7032                           ;lcd_hd44780_pic16.c: 71:   _delay((unsigned long)((1)*(16000000/4000000.0)));
  7033  14D0  2CD1               	nop2	;2 cycle nop
  7034  14D1  2CD2               	nop2	;2 cycle nop
  7035  14D2                     l3434:
  7036                           
  7037                           ;lcd_hd44780_pic16.c: 73:   (RD6=1);
  7038  14D2  1283               	bcf	3,5	;RP0=0, select bank0
  7039  14D3  1303               	bcf	3,6	;RP1=0, select bank0
  7040  14D4  1708               	bsf	8,6	;volatile
  7041  14D5                     l3436:
  7042                           
  7043                           ;lcd_hd44780_pic16.c: 74:   _delay((unsigned long)((0.5)*(16000000/4000000.0)));
  7044  14D5  2CD6               	nop2	;2 cycle nop
  7045  14D6                     l3438:
  7046                           
  7047                           ;lcd_hd44780_pic16.c: 76:   temp=(PORTD>>0);
  7048  14D6  1283               	bcf	3,5	;RP0=0, select bank0
  7049  14D7  1303               	bcf	3,6	;RP1=0, select bank0
  7050  14D8  0808               	movf	8,w	;volatile
  7051  14D9  00FF               	movwf	btemp+1
  7052  14DA  087F               	movf	btemp+1,w
  7053  14DB  1683               	bsf	3,5	;RP0=1, select bank1
  7054  14DC  1303               	bcf	3,6	;RP1=0, select bank1
  7055  14DD  00A1               	movwf	LCDBusyLoop@temp^(0+128)
  7056  14DE                     l3440:
  7057                           
  7058                           ;lcd_hd44780_pic16.c: 77:   temp&=0x0F;
  7059  14DE  300F               	movlw	15
  7060  14DF  00FF               	movwf	btemp+1
  7061  14E0  087F               	movf	btemp+1,w
  7062  14E1  05A1               	andwf	LCDBusyLoop@temp^(0+128),f
  7063  14E2                     l3442:
  7064                           
  7065                           ;lcd_hd44780_pic16.c: 79:   status=status|temp;
  7066  14E2  0822               	movf	LCDBusyLoop@status^(0+128),w
  7067  14E3  0421               	iorwf	LCDBusyLoop@temp^(0+128),w
  7068  14E4  00FF               	movwf	btemp+1
  7069  14E5  087F               	movf	btemp+1,w
  7070  14E6  00A2               	movwf	LCDBusyLoop@status^(0+128)
  7071  14E7                     l3444:
  7072                           
  7073                           ;lcd_hd44780_pic16.c: 81:   busy=status & 0b10000000;
  7074  14E7  0822               	movf	LCDBusyLoop@status^(0+128),w
  7075  14E8  3980               	andlw	128
  7076  14E9  00FF               	movwf	btemp+1
  7077  14EA  087F               	movf	btemp+1,w
  7078  14EB  00A0               	movwf	LCDBusyLoop@busy^(0+128)
  7079  14EC                     l3446:
  7080                           
  7081                           ;lcd_hd44780_pic16.c: 83:   _delay((unsigned long)((0.5)*(16000000/4000000.0)));
  7082  14EC  2CED               	nop2	;2 cycle nop
  7083  14ED                     l3448:
  7084                           
  7085                           ;lcd_hd44780_pic16.c: 85:                 (RD6=0);
  7086  14ED  1283               	bcf	3,5	;RP0=0, select bank0
  7087  14EE  1303               	bcf	3,6	;RP1=0, select bank0
  7088  14EF  1308               	bcf	8,6	;volatile
  7089  14F0                     l3450:
  7090                           
  7091                           ;lcd_hd44780_pic16.c: 86:   _delay((unsigned long)((1)*(16000000/4000000.0)));
  7092  14F0  2CF1               	nop2	;2 cycle nop
  7093  14F1  2CF2               	nop2	;2 cycle nop
  7094  14F2                     l3452:
  7095                           
  7096                           ;lcd_hd44780_pic16.c: 87:  }while(busy);
  7097  14F2  1683               	bsf	3,5	;RP0=1, select bank1
  7098  14F3  1303               	bcf	3,6	;RP1=0, select bank1
  7099  14F4  0820               	movf	LCDBusyLoop@busy^(0+128),w
  7100  14F5  1D03               	btfss	3,2
  7101  14F6  2CF8               	goto	u4951
  7102  14F7  2CF9               	goto	u4950
  7103  14F8                     u4951:
  7104  14F8  2CAF               	goto	l3420
  7105  14F9                     u4950:
  7106  14F9                     l126:
  7107                           
  7108                           ;lcd_hd44780_pic16.c: 89:  (RD5=0);
  7109  14F9  1283               	bcf	3,5	;RP0=0, select bank0
  7110  14FA  1303               	bcf	3,6	;RP1=0, select bank0
  7111  14FB  1288               	bcf	8,5	;volatile
  7112  14FC                     l3454:
  7113                           
  7114                           ;lcd_hd44780_pic16.c: 92:  TRISD&=(~(0x0F<<0));
  7115  14FC  30F0               	movlw	240
  7116  14FD  00FF               	movwf	btemp+1
  7117  14FE  087F               	movf	btemp+1,w
  7118  14FF  1683               	bsf	3,5	;RP0=1, select bank1
  7119  1500  1303               	bcf	3,6	;RP1=0, select bank1
  7120  1501  0588               	andwf	8,f	;volatile
  7121  1502                     l127:
  7122  1502  0008               	return
  7123  1503                     __end_of_LCDBusyLoop:
  7124                           
  7125                           	psect	text20
  7126  120E                     __ptext20:	
  7127 ;; *************** function _Init_uart *****************
  7128 ;; Defined at:
  7129 ;;		line 8 in file "uart.c"
  7130 ;; Parameters:    Size  Location     Type
  7131 ;;		None
  7132 ;; Auto vars:     Size  Location     Type
  7133 ;;		None
  7134 ;; Return value:  Size  Location     Type
  7135 ;;                  1    wreg      void 
  7136 ;; Registers used:
  7137 ;;		wreg
  7138 ;; Tracked objects:
  7139 ;;		On entry : 0/0
  7140 ;;		On exit  : 0/0
  7141 ;;		Unchanged: 0/0
  7142 ;; Data sizes:     COMMON   BANK0   BANK1   BANK3   BANK2
  7143 ;;      Params:         0       0       0       0       0
  7144 ;;      Locals:         0       0       0       0       0
  7145 ;;      Temps:          0       0       0       0       0
  7146 ;;      Totals:         0       0       0       0       0
  7147 ;;Total ram usage:        0 bytes
  7148 ;; Hardware stack levels used:    1
  7149 ;; Hardware stack levels required when called:    3
  7150 ;; This function calls:
  7151 ;;		Nothing
  7152 ;; This function is called by:
  7153 ;;		_main
  7154 ;; This function uses a non-reentrant model
  7155 ;;
  7156                           
  7157                           
  7158                           ;psect for function _Init_uart
  7159  120E                     _Init_uart:
  7160  120E                     l3870:	
  7161                           ;incstack = 0
  7162                           ; Regs used in _Init_uart: [wreg]
  7163                           
  7164                           
  7165                           ;uart.c: 10:     TXSTA=0x20;
  7166  120E  3020               	movlw	32
  7167  120F  1683               	bsf	3,5	;RP0=1, select bank1
  7168  1210  1303               	bcf	3,6	;RP1=0, select bank1
  7169  1211  0098               	movwf	24	;volatile
  7170                           
  7171                           ;uart.c: 11:     RCSTA=0x90;
  7172  1212  3090               	movlw	144
  7173  1213  1283               	bcf	3,5	;RP0=0, select bank0
  7174  1214  1303               	bcf	3,6	;RP1=0, select bank0
  7175  1215  0098               	movwf	24	;volatile
  7176                           
  7177                           ;uart.c: 12:     SPBRG=25;
  7178  1216  3019               	movlw	25
  7179  1217  1683               	bsf	3,5	;RP0=1, select bank1
  7180  1218  1303               	bcf	3,6	;RP1=0, select bank1
  7181  1219  0099               	movwf	25	;volatile
  7182  121A                     l3872:
  7183                           
  7184                           ;uart.c: 13:     RCIE=1;
  7185  121A  168C               	bsf	12,5	;volatile
  7186  121B                     l190:
  7187  121B  0008               	return
  7188  121C                     __end_of_Init_uart:
  7189                           
  7190                           	psect	text21
  7191  1205                     __ptext21:	
  7192 ;; *************** function _ADC_Init *****************
  7193 ;; Defined at:
  7194 ;;		line 4 in file "./adc_thay_hai.h"
  7195 ;; Parameters:    Size  Location     Type
  7196 ;;		None
  7197 ;; Auto vars:     Size  Location     Type
  7198 ;;		None
  7199 ;; Return value:  Size  Location     Type
  7200 ;;                  1    wreg      void 
  7201 ;; Registers used:
  7202 ;;		wreg
  7203 ;; Tracked objects:
  7204 ;;		On entry : 0/0
  7205 ;;		On exit  : 0/0
  7206 ;;		Unchanged: 0/0
  7207 ;; Data sizes:     COMMON   BANK0   BANK1   BANK3   BANK2
  7208 ;;      Params:         0       0       0       0       0
  7209 ;;      Locals:         0       0       0       0       0
  7210 ;;      Temps:          0       0       0       0       0
  7211 ;;      Totals:         0       0       0       0       0
  7212 ;;Total ram usage:        0 bytes
  7213 ;; Hardware stack levels used:    1
  7214 ;; Hardware stack levels required when called:    3
  7215 ;; This function calls:
  7216 ;;		Nothing
  7217 ;; This function is called by:
  7218 ;;		_main
  7219 ;; This function uses a non-reentrant model
  7220 ;;
  7221                           
  7222                           
  7223                           ;psect for function _ADC_Init
  7224  1205                     _ADC_Init:
  7225  1205                     l3866:	
  7226                           ;incstack = 0
  7227                           ; Regs used in _ADC_Init: [wreg]
  7228                           
  7229                           
  7230                           ;./adc_thay_hai.h: 6:     ADCON1 = 0b11000100;
  7231  1205  30C4               	movlw	196
  7232  1206  1683               	bsf	3,5	;RP0=1, select bank1
  7233  1207  1303               	bcf	3,6	;RP1=0, select bank1
  7234  1208  009F               	movwf	31	;volatile
  7235                           
  7236                           ;./adc_thay_hai.h: 7:     ADCON0 =0x80;
  7237  1209  3080               	movlw	128
  7238  120A  1283               	bcf	3,5	;RP0=0, select bank0
  7239  120B  1303               	bcf	3,6	;RP1=0, select bank0
  7240  120C  009F               	movwf	31	;volatile
  7241  120D                     l63:
  7242  120D  0008               	return
  7243  120E                     __end_of_ADC_Init:
  7244                           
  7245                           	psect	text22
  7246  1642                     __ptext22:	
  7247 ;; *************** function _ISR *****************
  7248 ;; Defined at:
  7249 ;;		line 46 in file "main.c"
  7250 ;; Parameters:    Size  Location     Type
  7251 ;;		None
  7252 ;; Auto vars:     Size  Location     Type
  7253 ;;		None
  7254 ;; Return value:  Size  Location     Type
  7255 ;;                  1    wreg      void 
  7256 ;; Registers used:
  7257 ;;		wreg, fsr0l, fsr0h, status,2, status,0, btemp+1, pclath, cstack
  7258 ;; Tracked objects:
  7259 ;;		On entry : 0/0
  7260 ;;		On exit  : 0/0
  7261 ;;		Unchanged: 0/0
  7262 ;; Data sizes:     COMMON   BANK0   BANK1   BANK3   BANK2
  7263 ;;      Params:         0       0       0       0       0
  7264 ;;      Locals:         0       0       0       0       0
  7265 ;;      Temps:          0       8       0       0       0
  7266 ;;      Totals:         0       8       0       0       0
  7267 ;;Total ram usage:        8 bytes
  7268 ;; Hardware stack levels used:    1
  7269 ;; Hardware stack levels required when called:    2
  7270 ;; This function calls:
  7271 ;;		_ADC_Read
  7272 ;;		___xxtofl
  7273 ;;		i1___flmul
  7274 ;; This function is called by:
  7275 ;;		Interrupt level 1
  7276 ;; This function uses a non-reentrant model
  7277 ;;
  7278                           
  7279                           
  7280                           ;psect for function _ISR
  7281  1642                     _ISR:
  7282  1642                     i1l3286:
  7283                           
  7284                           ;main.c: 48:     if(TMR1IE && TMR1IF)
  7285  1642  1683               	bsf	3,5	;RP0=1, select bank1
  7286  1643  1303               	bcf	3,6	;RP1=0, select bank1
  7287  1644  1C0C               	btfss	12,0	;volatile
  7288  1645  2E47               	goto	u487_21
  7289  1646  2E48               	goto	u487_20
  7290  1647                     u487_21:
  7291  1647  2EBB               	goto	i1l95
  7292  1648                     u487_20:
  7293  1648                     i1l3288:
  7294  1648  1283               	bcf	3,5	;RP0=0, select bank0
  7295  1649  1303               	bcf	3,6	;RP1=0, select bank0
  7296  164A  1C0C               	btfss	12,0	;volatile
  7297  164B  2E4D               	goto	u488_21
  7298  164C  2E4E               	goto	u488_20
  7299  164D                     u488_21:
  7300  164D  2EBB               	goto	i1l95
  7301  164E                     u488_20:
  7302  164E                     i1l3290:
  7303                           
  7304                           ;main.c: 49:     {;main.c: 50:         count++;
  7305  164E  3001               	movlw	1
  7306  164F  00FF               	movwf	btemp+1
  7307  1650  087F               	movf	btemp+1,w
  7308  1651  07CE               	addwf	_count,f
  7309  1652                     i1l3292:
  7310                           
  7311                           ;main.c: 51:         if(count>20)
  7312  1652  3015               	movlw	21
  7313  1653  024E               	subwf	_count,w
  7314  1654  1C03               	skipc
  7315  1655  2E57               	goto	u489_21
  7316  1656  2E58               	goto	u489_20
  7317  1657                     u489_21:
  7318  1657  2EA8               	goto	i1l3304
  7319  1658                     u489_20:
  7320  1658                     i1l3294:
  7321                           
  7322                           ;main.c: 52:         {;main.c: 53:             count=0;
  7323  1658  01CE               	clrf	_count
  7324  1659                     i1l3296:
  7325                           
  7326                           ;main.c: 54:             count1++;
  7327  1659  3001               	movlw	1
  7328  165A  00FF               	movwf	btemp+1
  7329  165B  087F               	movf	btemp+1,w
  7330  165C  1683               	bsf	3,5	;RP0=1, select bank1
  7331  165D  1303               	bcf	3,6	;RP1=0, select bank1
  7332  165E  07EE               	addwf	_count1^(0+128),f
  7333  165F                     i1l3298:
  7334                           
  7335                           ;main.c: 55:             dienap=(float)ADC_Read(0);
  7336  165F  3000               	movlw	0
  7337  1660  160A  118A  22ED  160A  118A  	fcall	_ADC_Read
  7338  1665  0870               	movf	?_ADC_Read,w
  7339  1666  1283               	bcf	3,5	;RP0=0, select bank0
  7340  1667  1303               	bcf	3,6	;RP1=0, select bank0
  7341  1668  00B5               	movwf	??_ISR
  7342  1669  0871               	movf	?_ADC_Read+1,w
  7343  166A  00B6               	movwf	??_ISR+1
  7344  166B  01B7               	clrf	??_ISR+2
  7345  166C  01B8               	clrf	??_ISR+3
  7346  166D  0838               	movf	??_ISR+3,w
  7347  166E  00FA               	movwf	___xxtofl@val+3
  7348  166F  0837               	movf	??_ISR+2,w
  7349  1670  00F9               	movwf	___xxtofl@val+2
  7350  1671  0836               	movf	??_ISR+1,w
  7351  1672  00F8               	movwf	___xxtofl@val+1
  7352  1673  0835               	movf	??_ISR,w
  7353  1674  00F7               	movwf	___xxtofl@val
  7354  1675  3000               	movlw	0
  7355  1676  120A  158A  2098  160A  118A  	fcall	___xxtofl
  7356  167B  087A               	movf	?___xxtofl+3,w
  7357  167C  1283               	bcf	3,5	;RP0=0, select bank0
  7358  167D  1303               	bcf	3,6	;RP1=0, select bank0
  7359  167E  00D2               	movwf	_dienap+3
  7360  167F  0879               	movf	?___xxtofl+2,w
  7361  1680  00D1               	movwf	_dienap+2
  7362  1681  0878               	movf	?___xxtofl+1,w
  7363  1682  00D0               	movwf	_dienap+1
  7364  1683  0877               	movf	?___xxtofl,w
  7365  1684  00CF               	movwf	_dienap
  7366  1685                     i1l3300:
  7367                           
  7368                           ;main.c: 56:             dienap*=0.48828;
  7369  1685  303E               	movlw	62
  7370  1686  00A3               	movwf	i1___flmul@b+3
  7371  1687  30F9               	movlw	249
  7372  1688  00A2               	movwf	i1___flmul@b+2
  7373  1689  30FF               	movlw	255
  7374  168A  00A1               	movwf	i1___flmul@b+1
  7375  168B  30D6               	movlw	214
  7376  168C  00A0               	movwf	i1___flmul@b
  7377  168D  0852               	movf	_dienap+3,w
  7378  168E  00A7               	movwf	i1___flmul@a+3
  7379  168F  0851               	movf	_dienap+2,w
  7380  1690  00A6               	movwf	i1___flmul@a+2
  7381  1691  0850               	movf	_dienap+1,w
  7382  1692  00A5               	movwf	i1___flmul@a+1
  7383  1693  084F               	movf	_dienap,w
  7384  1694  00A4               	movwf	i1___flmul@a
  7385  1695  120A  118A  239F  160A  118A  	fcall	i1___flmul
  7386  169A  1283               	bcf	3,5	;RP0=0, select bank0
  7387  169B  1303               	bcf	3,6	;RP1=0, select bank0
  7388  169C  0823               	movf	?i1___flmul+3,w
  7389  169D  00D2               	movwf	_dienap+3
  7390  169E  0822               	movf	?i1___flmul+2,w
  7391  169F  00D1               	movwf	_dienap+2
  7392  16A0  0821               	movf	?i1___flmul+1,w
  7393  16A1  00D0               	movwf	_dienap+1
  7394  16A2  0820               	movf	?i1___flmul,w
  7395  16A3  00CF               	movwf	_dienap
  7396  16A4                     i1l3302:
  7397                           
  7398                           ;main.c: 57:             adc_ok=1;
  7399  16A4  1683               	bsf	3,5	;RP0=1, select bank1
  7400  16A5  1303               	bcf	3,6	;RP1=0, select bank1
  7401  16A6  01ED               	clrf	_adc_ok^(0+128)
  7402  16A7  0AED               	incf	_adc_ok^(0+128),f
  7403  16A8                     i1l3304:
  7404                           
  7405                           ;main.c: 60:         PORTBbits.RB0=~PORTBbits.RB0;
  7406  16A8  1003               	clrc
  7407  16A9  1283               	bcf	3,5	;RP0=0, select bank0
  7408  16AA  1C06               	btfss	6,0	;volatile
  7409  16AB  1403               	setc
  7410  16AC  1803               	btfsc	3,0
  7411  16AD  2EAF               	goto	u490_21
  7412  16AE  2EB3               	goto	u490_20
  7413  16AF                     u490_21:
  7414  16AF  1283               	bcf	3,5	;RP0=0, select bank0
  7415  16B0  1303               	bcf	3,6	;RP1=0, select bank0
  7416  16B1  1406               	bsf	6,0	;volatile
  7417  16B2  2EB6               	goto	u491_24
  7418  16B3                     u490_20:
  7419  16B3  1283               	bcf	3,5	;RP0=0, select bank0
  7420  16B4  1303               	bcf	3,6	;RP1=0, select bank0
  7421  16B5  1006               	bcf	6,0	;volatile
  7422  16B6                     u491_24:
  7423  16B6                     i1l3306:
  7424                           
  7425                           ;main.c: 62:         TMR1=65036;
  7426  16B6  30FE               	movlw	254
  7427  16B7  008F               	movwf	15	;volatile
  7428  16B8  300C               	movlw	12
  7429  16B9  008E               	movwf	14	;volatile
  7430  16BA                     i1l3308:
  7431                           
  7432                           ;main.c: 63:         TMR1IF=0;
  7433  16BA  100C               	bcf	12,0	;volatile
  7434  16BB                     i1l95:
  7435  16BB  1283               	bcf	3,5	;RP0=0, select bank0
  7436  16BC  083C               	movf	??_ISR+7,w
  7437  16BD  00FF               	movwf	btemp+1
  7438  16BE  083B               	movf	??_ISR+6,w
  7439  16BF  008A               	movwf	10
  7440  16C0  083A               	movf	??_ISR+5,w
  7441  16C1  0084               	movwf	4
  7442  16C2  0E39               	swapf	(??_ISR+4)^0,w
  7443  16C3  0083               	movwf	3
  7444  16C4  0EFE               	swapf	btemp,f
  7445  16C5  0E7E               	swapf	btemp,w
  7446  16C6  0009               	retfie
  7447  16C7                     __end_of_ISR:
  7448                           
  7449                           	psect	intentry
  7450  0004                     __pintentry:	
  7451                           ;incstack = 0
  7452                           ; Regs used in _ISR: [wreg-fsr0h+status,2+status,0+btemp+1+pclath+cstack]
  7453                           
  7454  0004                     interrupt_function:
  7455  007E                     saved_w	set	btemp
  7456  0004  00FE               	movwf	btemp
  7457  0005  0E03               	swapf	3,w
  7458  0006  1283               	bcf	3,5	;RP0=0, select bank0
  7459  0007  1303               	bcf	3,6	;RP1=0, select bank0
  7460  0008  00B9               	movwf	??_ISR+4
  7461  0009  0804               	movf	4,w
  7462  000A  00BA               	movwf	??_ISR+5
  7463  000B  080A               	movf	10,w
  7464  000C  00BB               	movwf	??_ISR+6
  7465  000D  087F               	movf	btemp+1,w
  7466  000E  00BC               	movwf	??_ISR+7
  7467  000F  160A  118A  2E42   	ljmp	_ISR
  7468                           
  7469                           	psect	text23
  7470  039F                     __ptext23:	
  7471 ;; *************** function i1___flmul *****************
  7472 ;; Defined at:
  7473 ;;		line 8 in file "C:\Program Files\Microchip\xc8\v2.20\pic\sources\c90\common\sprcmul.c"
  7474 ;; Parameters:    Size  Location     Type
  7475 ;;  b               4    0[BANK0 ] void 
  7476 ;;  a               4    4[BANK0 ] void 
  7477 ;; Auto vars:     Size  Location     Type
  7478 ;;  prod            4   15[BANK0 ] struct .
  7479 ;;  grs             4    9[BANK0 ] unsigned long 
  7480 ;;  temp            2   19[BANK0 ] struct .
  7481 ;;  bexp            1   14[BANK0 ] unsigned char 
  7482 ;;  aexp            1   13[BANK0 ] unsigned char 
  7483 ;;  sign            1    8[BANK0 ] unsigned char 
  7484 ;; Return value:  Size  Location     Type
  7485 ;;                  4    0[BANK0 ] unsigned char 
  7486 ;; Registers used:
  7487 ;;		wreg, status,2, status,0, btemp+1, pclath, cstack
  7488 ;; Tracked objects:
  7489 ;;		On entry : 0/0
  7490 ;;		On exit  : 0/0
  7491 ;;		Unchanged: 0/0
  7492 ;; Data sizes:     COMMON   BANK0   BANK1   BANK3   BANK2
  7493 ;;      Params:         0       8       0       0       0
  7494 ;;      Locals:         0      13       0       0       0
  7495 ;;      Temps:          5       0       0       0       0
  7496 ;;      Totals:         5      21       0       0       0
  7497 ;;Total ram usage:       26 bytes
  7498 ;; Hardware stack levels used:    1
  7499 ;; Hardware stack levels required when called:    1
  7500 ;; This function calls:
  7501 ;;		i1__Umul8_16
  7502 ;; This function is called by:
  7503 ;;		_ISR
  7504 ;; This function uses a non-reentrant model
  7505 ;;
  7506                           
  7507                           
  7508                           ;psect for function i1___flmul
  7509  039F                     i1___flmul:
  7510  039F                     i1l3144:	
  7511                           ;incstack = 0
  7512                           ; Regs used in i1___flmul: [wreg+status,2+status,0+btemp+1+pclath+cstack]
  7513                           
  7514  039F  1283               	bcf	3,5	;RP0=0, select bank0
  7515  03A0  1303               	bcf	3,6	;RP1=0, select bank0
  7516  03A1  0823               	movf	i1___flmul@b+3,w
  7517  03A2  3980               	andlw	128
  7518  03A3  00FF               	movwf	btemp+1
  7519  03A4  087F               	movf	btemp+1,w
  7520  03A5  00A8               	movwf	i1___flmul@sign
  7521  03A6                     i1l3146:
  7522  03A6  0823               	movf	i1___flmul@b+3,w
  7523  03A7  00F9               	movwf	??i1___flmul
  7524  03A8  0779               	addwf	??i1___flmul,w
  7525  03A9  00FF               	movwf	btemp+1
  7526  03AA  087F               	movf	btemp+1,w
  7527  03AB  00AE               	movwf	i1___flmul@bexp
  7528  03AC                     i1l3148:
  7529  03AC  1FA2               	btfss	i1___flmul@b+2,7
  7530  03AD  2BAF               	goto	u450_21
  7531  03AE  2BB0               	goto	u450_20
  7532  03AF                     u450_21:
  7533  03AF  2BB1               	goto	i1l3152
  7534  03B0                     u450_20:
  7535  03B0                     i1l3150:
  7536  03B0  142E               	bsf	i1___flmul@bexp,0
  7537  03B1                     i1l3152:
  7538  03B1  082E               	movf	i1___flmul@bexp,w
  7539  03B2  1903               	btfsc	3,2
  7540  03B3  2BB5               	goto	u451_21
  7541  03B4  2BB6               	goto	u451_20
  7542  03B5                     u451_21:
  7543  03B5  2BC5               	goto	i1l3160
  7544  03B6                     u451_20:
  7545  03B6                     i1l3154:
  7546  03B6  0A2E               	incf	i1___flmul@bexp,w
  7547  03B7  1D03               	btfss	3,2
  7548  03B8  2BBA               	goto	u452_21
  7549  03B9  2BBB               	goto	u452_20
  7550  03BA                     u452_21:
  7551  03BA  2BC3               	goto	i1l3158
  7552  03BB                     u452_20:
  7553  03BB                     i1l3156:
  7554  03BB  3000               	movlw	0
  7555  03BC  00A3               	movwf	i1___flmul@b+3
  7556  03BD  3000               	movlw	0
  7557  03BE  00A2               	movwf	i1___flmul@b+2
  7558  03BF  3000               	movlw	0
  7559  03C0  00A1               	movwf	i1___flmul@b+1
  7560  03C1  3000               	movlw	0
  7561  03C2  00A0               	movwf	i1___flmul@b
  7562  03C3                     i1l3158:
  7563  03C3  17A2               	bsf	i1___flmul@b+2,7
  7564  03C4  2BCD               	goto	i1l3162
  7565  03C5                     i1l3160:
  7566  03C5  3000               	movlw	0
  7567  03C6  00A3               	movwf	i1___flmul@b+3
  7568  03C7  3000               	movlw	0
  7569  03C8  00A2               	movwf	i1___flmul@b+2
  7570  03C9  3000               	movlw	0
  7571  03CA  00A1               	movwf	i1___flmul@b+1
  7572  03CB  3000               	movlw	0
  7573  03CC  00A0               	movwf	i1___flmul@b
  7574  03CD                     i1l3162:
  7575  03CD  0827               	movf	i1___flmul@a+3,w
  7576  03CE  3980               	andlw	128
  7577  03CF  00FF               	movwf	btemp+1
  7578  03D0  087F               	movf	btemp+1,w
  7579  03D1  06A8               	xorwf	i1___flmul@sign,f
  7580  03D2                     i1l3164:
  7581  03D2  0827               	movf	i1___flmul@a+3,w
  7582  03D3  00F9               	movwf	??i1___flmul
  7583  03D4  0779               	addwf	??i1___flmul,w
  7584  03D5  00FF               	movwf	btemp+1
  7585  03D6  087F               	movf	btemp+1,w
  7586  03D7  00AD               	movwf	i1___flmul@aexp
  7587  03D8                     i1l3166:
  7588  03D8  1FA6               	btfss	i1___flmul@a+2,7
  7589  03D9  2BDB               	goto	u453_21
  7590  03DA  2BDC               	goto	u453_20
  7591  03DB                     u453_21:
  7592  03DB  2BDD               	goto	i1l3170
  7593  03DC                     u453_20:
  7594  03DC                     i1l3168:
  7595  03DC  142D               	bsf	i1___flmul@aexp,0
  7596  03DD                     i1l3170:
  7597  03DD  082D               	movf	i1___flmul@aexp,w
  7598  03DE  1903               	btfsc	3,2
  7599  03DF  2BE1               	goto	u454_21
  7600  03E0  2BE2               	goto	u454_20
  7601  03E1                     u454_21:
  7602  03E1  2BF1               	goto	i1l3178
  7603  03E2                     u454_20:
  7604  03E2                     i1l3172:
  7605  03E2  0A2D               	incf	i1___flmul@aexp,w
  7606  03E3  1D03               	btfss	3,2
  7607  03E4  2BE6               	goto	u455_21
  7608  03E5  2BE7               	goto	u455_20
  7609  03E6                     u455_21:
  7610  03E6  2BEF               	goto	i1l3176
  7611  03E7                     u455_20:
  7612  03E7                     i1l3174:
  7613  03E7  3000               	movlw	0
  7614  03E8  00A7               	movwf	i1___flmul@a+3
  7615  03E9  3000               	movlw	0
  7616  03EA  00A6               	movwf	i1___flmul@a+2
  7617  03EB  3000               	movlw	0
  7618  03EC  00A5               	movwf	i1___flmul@a+1
  7619  03ED  3000               	movlw	0
  7620  03EE  00A4               	movwf	i1___flmul@a
  7621  03EF                     i1l3176:
  7622  03EF  17A6               	bsf	i1___flmul@a+2,7
  7623  03F0  2BF9               	goto	i1l3180
  7624  03F1                     i1l3178:
  7625  03F1  3000               	movlw	0
  7626  03F2  00A7               	movwf	i1___flmul@a+3
  7627  03F3  3000               	movlw	0
  7628  03F4  00A6               	movwf	i1___flmul@a+2
  7629  03F5  3000               	movlw	0
  7630  03F6  00A5               	movwf	i1___flmul@a+1
  7631  03F7  3000               	movlw	0
  7632  03F8  00A4               	movwf	i1___flmul@a
  7633  03F9                     i1l3180:
  7634  03F9  082D               	movf	i1___flmul@aexp,w
  7635  03FA  1903               	btfsc	3,2
  7636  03FB  2BFD               	goto	u456_21
  7637  03FC  2BFE               	goto	u456_20
  7638  03FD                     u456_21:
  7639  03FD  2C03               	goto	i1l3184
  7640  03FE                     u456_20:
  7641  03FE                     i1l3182:
  7642  03FE  082E               	movf	i1___flmul@bexp,w
  7643  03FF  1D03               	btfss	3,2
  7644  0400  2C02               	goto	u457_21
  7645  0401  2C03               	goto	u457_20
  7646  0402                     u457_21:
  7647  0402  2C0C               	goto	i1l3188
  7648  0403                     u457_20:
  7649  0403                     i1l3184:
  7650  0403  3000               	movlw	0
  7651  0404  00A3               	movwf	?i1___flmul+3
  7652  0405  3000               	movlw	0
  7653  0406  00A2               	movwf	?i1___flmul+2
  7654  0407  3000               	movlw	0
  7655  0408  00A1               	movwf	?i1___flmul+1
  7656  0409  3000               	movlw	0
  7657  040A  00A0               	movwf	?i1___flmul
  7658  040B  2EFF               	goto	i1l673
  7659  040C                     i1l3188:
  7660  040C  0820               	movf	i1___flmul@b,w
  7661  040D  00FF               	movwf	btemp+1
  7662  040E  087F               	movf	btemp+1,w
  7663  040F  00F0               	movwf	i1__Umul8_16@multiplicand
  7664  0410  0826               	movf	i1___flmul@a+2,w
  7665  0411  160A  118A  2268  120A  118A  	fcall	i1__Umul8_16
  7666  0416  0871               	movf	?i1__Umul8_16+1,w
  7667  0417  1283               	bcf	3,5	;RP0=0, select bank0
  7668  0418  1303               	bcf	3,6	;RP1=0, select bank0
  7669  0419  00B4               	movwf	i1___flmul@temp+1
  7670  041A  0870               	movf	?i1__Umul8_16,w
  7671  041B  00B3               	movwf	i1___flmul@temp
  7672  041C                     i1l3190:
  7673  041C  0833               	movf	i1___flmul@temp,w
  7674  041D  00F9               	movwf	??i1___flmul
  7675  041E  01FA               	clrf	??i1___flmul+1
  7676  041F  01FB               	clrf	??i1___flmul+2
  7677  0420  01FC               	clrf	??i1___flmul+3
  7678  0421  087C               	movf	??i1___flmul+3,w
  7679  0422  00AC               	movwf	i1___flmul@grs+3
  7680  0423  087B               	movf	??i1___flmul+2,w
  7681  0424  00AB               	movwf	i1___flmul@grs+2
  7682  0425  087A               	movf	??i1___flmul+1,w
  7683  0426  00AA               	movwf	i1___flmul@grs+1
  7684  0427  0879               	movf	??i1___flmul,w
  7685  0428  00A9               	movwf	i1___flmul@grs
  7686  0429                     i1l3192:
  7687  0429  0834               	movf	i1___flmul@temp+1,w
  7688  042A  00F9               	movwf	??i1___flmul
  7689  042B  01FA               	clrf	??i1___flmul+1
  7690  042C  01FB               	clrf	??i1___flmul+2
  7691  042D  01FC               	clrf	??i1___flmul+3
  7692  042E  087C               	movf	??i1___flmul+3,w
  7693  042F  00B2               	movwf	i1___flmul@prod+3
  7694  0430  087B               	movf	??i1___flmul+2,w
  7695  0431  00B1               	movwf	i1___flmul@prod+2
  7696  0432  087A               	movf	??i1___flmul+1,w
  7697  0433  00B0               	movwf	i1___flmul@prod+1
  7698  0434  0879               	movf	??i1___flmul,w
  7699  0435  00AF               	movwf	i1___flmul@prod
  7700  0436  0821               	movf	i1___flmul@b+1,w
  7701  0437  00FF               	movwf	btemp+1
  7702  0438  087F               	movf	btemp+1,w
  7703  0439  00F0               	movwf	i1__Umul8_16@multiplicand
  7704  043A  0825               	movf	i1___flmul@a+1,w
  7705  043B  160A  118A  2268  120A  118A  	fcall	i1__Umul8_16
  7706  0440  0871               	movf	?i1__Umul8_16+1,w
  7707  0441  1283               	bcf	3,5	;RP0=0, select bank0
  7708  0442  1303               	bcf	3,6	;RP1=0, select bank0
  7709  0443  00B4               	movwf	i1___flmul@temp+1
  7710  0444  0870               	movf	?i1__Umul8_16,w
  7711  0445  00B3               	movwf	i1___flmul@temp
  7712  0446                     i1l3194:
  7713  0446  0833               	movf	i1___flmul@temp,w
  7714  0447  00F9               	movwf	??i1___flmul
  7715  0448  01FA               	clrf	??i1___flmul+1
  7716  0449  01FB               	clrf	??i1___flmul+2
  7717  044A  01FC               	clrf	??i1___flmul+3
  7718  044B  0879               	movf	??i1___flmul,w
  7719  044C  07A9               	addwf	i1___flmul@grs,f
  7720  044D  087A               	movf	??i1___flmul+1,w
  7721  044E  1103               	clrz
  7722  044F  1803               	skipnc
  7723  0450  3E01               	addlw	1
  7724  0451  1903               	skipnz
  7725  0452  2C54               	goto	u458_21
  7726  0453  07AA               	addwf	i1___flmul@grs+1,f
  7727  0454                     u458_21:
  7728  0454  087B               	movf	??i1___flmul+2,w
  7729  0455  1103               	clrz
  7730  0456  1803               	skipnc
  7731  0457  3E01               	addlw	1
  7732  0458  1903               	skipnz
  7733  0459  2C5B               	goto	u458_22
  7734  045A  07AB               	addwf	i1___flmul@grs+2,f
  7735  045B                     u458_22:
  7736  045B  087C               	movf	??i1___flmul+3,w
  7737  045C  1103               	clrz
  7738  045D  1803               	skipnc
  7739  045E  3E01               	addlw	1
  7740  045F  1903               	skipnz
  7741  0460  2C62               	goto	u458_23
  7742  0461  07AC               	addwf	i1___flmul@grs+3,f
  7743  0462                     u458_23:
  7744  0462                     i1l3196:
  7745  0462  0834               	movf	i1___flmul@temp+1,w
  7746  0463  00F9               	movwf	??i1___flmul
  7747  0464  01FA               	clrf	??i1___flmul+1
  7748  0465  01FB               	clrf	??i1___flmul+2
  7749  0466  01FC               	clrf	??i1___flmul+3
  7750  0467  0879               	movf	??i1___flmul,w
  7751  0468  07AF               	addwf	i1___flmul@prod,f
  7752  0469  087A               	movf	??i1___flmul+1,w
  7753  046A  1103               	clrz
  7754  046B  1803               	skipnc
  7755  046C  3E01               	addlw	1
  7756  046D  1903               	skipnz
  7757  046E  2C70               	goto	u459_21
  7758  046F  07B0               	addwf	i1___flmul@prod+1,f
  7759  0470                     u459_21:
  7760  0470  087B               	movf	??i1___flmul+2,w
  7761  0471  1103               	clrz
  7762  0472  1803               	skipnc
  7763  0473  3E01               	addlw	1
  7764  0474  1903               	skipnz
  7765  0475  2C77               	goto	u459_22
  7766  0476  07B1               	addwf	i1___flmul@prod+2,f
  7767  0477                     u459_22:
  7768  0477  087C               	movf	??i1___flmul+3,w
  7769  0478  1103               	clrz
  7770  0479  1803               	skipnc
  7771  047A  3E01               	addlw	1
  7772  047B  1903               	skipnz
  7773  047C  2C7E               	goto	u459_23
  7774  047D  07B2               	addwf	i1___flmul@prod+3,f
  7775  047E                     u459_23:
  7776  047E  0822               	movf	i1___flmul@b+2,w
  7777  047F  00FF               	movwf	btemp+1
  7778  0480  087F               	movf	btemp+1,w
  7779  0481  00F0               	movwf	i1__Umul8_16@multiplicand
  7780  0482  0824               	movf	i1___flmul@a,w
  7781  0483  160A  118A  2268  120A  118A  	fcall	i1__Umul8_16
  7782  0488  0871               	movf	?i1__Umul8_16+1,w
  7783  0489  1283               	bcf	3,5	;RP0=0, select bank0
  7784  048A  1303               	bcf	3,6	;RP1=0, select bank0
  7785  048B  00B4               	movwf	i1___flmul@temp+1
  7786  048C  0870               	movf	?i1__Umul8_16,w
  7787  048D  00B3               	movwf	i1___flmul@temp
  7788  048E                     i1l3198:
  7789  048E  0833               	movf	i1___flmul@temp,w
  7790  048F  00F9               	movwf	??i1___flmul
  7791  0490  01FA               	clrf	??i1___flmul+1
  7792  0491  01FB               	clrf	??i1___flmul+2
  7793  0492  01FC               	clrf	??i1___flmul+3
  7794  0493  0879               	movf	??i1___flmul,w
  7795  0494  07A9               	addwf	i1___flmul@grs,f
  7796  0495  087A               	movf	??i1___flmul+1,w
  7797  0496  1103               	clrz
  7798  0497  1803               	skipnc
  7799  0498  3E01               	addlw	1
  7800  0499  1903               	skipnz
  7801  049A  2C9C               	goto	u460_21
  7802  049B  07AA               	addwf	i1___flmul@grs+1,f
  7803  049C                     u460_21:
  7804  049C  087B               	movf	??i1___flmul+2,w
  7805  049D  1103               	clrz
  7806  049E  1803               	skipnc
  7807  049F  3E01               	addlw	1
  7808  04A0  1903               	skipnz
  7809  04A1  2CA3               	goto	u460_22
  7810  04A2  07AB               	addwf	i1___flmul@grs+2,f
  7811  04A3                     u460_22:
  7812  04A3  087C               	movf	??i1___flmul+3,w
  7813  04A4  1103               	clrz
  7814  04A5  1803               	skipnc
  7815  04A6  3E01               	addlw	1
  7816  04A7  1903               	skipnz
  7817  04A8  2CAA               	goto	u460_23
  7818  04A9  07AC               	addwf	i1___flmul@grs+3,f
  7819  04AA                     u460_23:
  7820  04AA                     i1l3200:
  7821  04AA  0834               	movf	i1___flmul@temp+1,w
  7822  04AB  00F9               	movwf	??i1___flmul
  7823  04AC  01FA               	clrf	??i1___flmul+1
  7824  04AD  01FB               	clrf	??i1___flmul+2
  7825  04AE  01FC               	clrf	??i1___flmul+3
  7826  04AF  0879               	movf	??i1___flmul,w
  7827  04B0  07AF               	addwf	i1___flmul@prod,f
  7828  04B1  087A               	movf	??i1___flmul+1,w
  7829  04B2  1103               	clrz
  7830  04B3  1803               	skipnc
  7831  04B4  3E01               	addlw	1
  7832  04B5  1903               	skipnz
  7833  04B6  2CB8               	goto	u461_21
  7834  04B7  07B0               	addwf	i1___flmul@prod+1,f
  7835  04B8                     u461_21:
  7836  04B8  087B               	movf	??i1___flmul+2,w
  7837  04B9  1103               	clrz
  7838  04BA  1803               	skipnc
  7839  04BB  3E01               	addlw	1
  7840  04BC  1903               	skipnz
  7841  04BD  2CBF               	goto	u461_22
  7842  04BE  07B1               	addwf	i1___flmul@prod+2,f
  7843  04BF                     u461_22:
  7844  04BF  087C               	movf	??i1___flmul+3,w
  7845  04C0  1103               	clrz
  7846  04C1  1803               	skipnc
  7847  04C2  3E01               	addlw	1
  7848  04C3  1903               	skipnz
  7849  04C4  2CC6               	goto	u461_23
  7850  04C5  07B2               	addwf	i1___flmul@prod+3,f
  7851  04C6                     u461_23:
  7852  04C6                     i1l3202:
  7853  04C6  3008               	movlw	8
  7854  04C7  00F9               	movwf	??i1___flmul
  7855  04C8                     u462_25:
  7856  04C8  1003               	clrc
  7857  04C9  0DA9               	rlf	i1___flmul@grs,f
  7858  04CA  0DAA               	rlf	i1___flmul@grs+1,f
  7859  04CB  0DAB               	rlf	i1___flmul@grs+2,f
  7860  04CC  0DAC               	rlf	i1___flmul@grs+3,f
  7861  04CD  0BF9               	decfsz	??i1___flmul,f
  7862  04CE  2CC8               	goto	u462_25
  7863  04CF                     i1l3204:
  7864  04CF  0821               	movf	i1___flmul@b+1,w
  7865  04D0  00FF               	movwf	btemp+1
  7866  04D1  087F               	movf	btemp+1,w
  7867  04D2  00F0               	movwf	i1__Umul8_16@multiplicand
  7868  04D3  0824               	movf	i1___flmul@a,w
  7869  04D4  160A  118A  2268  120A  118A  	fcall	i1__Umul8_16
  7870  04D9  0871               	movf	?i1__Umul8_16+1,w
  7871  04DA  1283               	bcf	3,5	;RP0=0, select bank0
  7872  04DB  1303               	bcf	3,6	;RP1=0, select bank0
  7873  04DC  00B4               	movwf	i1___flmul@temp+1
  7874  04DD  0870               	movf	?i1__Umul8_16,w
  7875  04DE  00B3               	movwf	i1___flmul@temp
  7876  04DF                     i1l3206:
  7877  04DF  0833               	movf	i1___flmul@temp,w
  7878  04E0  00F9               	movwf	??i1___flmul
  7879  04E1  0834               	movf	i1___flmul@temp+1,w
  7880  04E2  00FA               	movwf	??i1___flmul+1
  7881  04E3  01FB               	clrf	??i1___flmul+2
  7882  04E4  01FC               	clrf	??i1___flmul+3
  7883  04E5  0879               	movf	??i1___flmul,w
  7884  04E6  07A9               	addwf	i1___flmul@grs,f
  7885  04E7  087A               	movf	??i1___flmul+1,w
  7886  04E8  1103               	clrz
  7887  04E9  1803               	skipnc
  7888  04EA  3E01               	addlw	1
  7889  04EB  1903               	skipnz
  7890  04EC  2CEE               	goto	u463_21
  7891  04ED  07AA               	addwf	i1___flmul@grs+1,f
  7892  04EE                     u463_21:
  7893  04EE  087B               	movf	??i1___flmul+2,w
  7894  04EF  1103               	clrz
  7895  04F0  1803               	skipnc
  7896  04F1  3E01               	addlw	1
  7897  04F2  1903               	skipnz
  7898  04F3  2CF5               	goto	u463_22
  7899  04F4  07AB               	addwf	i1___flmul@grs+2,f
  7900  04F5                     u463_22:
  7901  04F5  087C               	movf	??i1___flmul+3,w
  7902  04F6  1103               	clrz
  7903  04F7  1803               	skipnc
  7904  04F8  3E01               	addlw	1
  7905  04F9  1903               	skipnz
  7906  04FA  2CFC               	goto	u463_23
  7907  04FB  07AC               	addwf	i1___flmul@grs+3,f
  7908  04FC                     u463_23:
  7909  04FC                     i1l3208:
  7910  04FC  0820               	movf	i1___flmul@b,w
  7911  04FD  00FF               	movwf	btemp+1
  7912  04FE  087F               	movf	btemp+1,w
  7913  04FF  00F0               	movwf	i1__Umul8_16@multiplicand
  7914  0500  0825               	movf	i1___flmul@a+1,w
  7915  0501  160A  118A  2268  120A  118A  	fcall	i1__Umul8_16
  7916  0506  0871               	movf	?i1__Umul8_16+1,w
  7917  0507  1283               	bcf	3,5	;RP0=0, select bank0
  7918  0508  1303               	bcf	3,6	;RP1=0, select bank0
  7919  0509  00B4               	movwf	i1___flmul@temp+1
  7920  050A  0870               	movf	?i1__Umul8_16,w
  7921  050B  00B3               	movwf	i1___flmul@temp
  7922  050C                     i1l3210:
  7923  050C  0833               	movf	i1___flmul@temp,w
  7924  050D  00F9               	movwf	??i1___flmul
  7925  050E  0834               	movf	i1___flmul@temp+1,w
  7926  050F  00FA               	movwf	??i1___flmul+1
  7927  0510  01FB               	clrf	??i1___flmul+2
  7928  0511  01FC               	clrf	??i1___flmul+3
  7929  0512  0879               	movf	??i1___flmul,w
  7930  0513  07A9               	addwf	i1___flmul@grs,f
  7931  0514  087A               	movf	??i1___flmul+1,w
  7932  0515  1103               	clrz
  7933  0516  1803               	skipnc
  7934  0517  3E01               	addlw	1
  7935  0518  1903               	skipnz
  7936  0519  2D1B               	goto	u464_21
  7937  051A  07AA               	addwf	i1___flmul@grs+1,f
  7938  051B                     u464_21:
  7939  051B  087B               	movf	??i1___flmul+2,w
  7940  051C  1103               	clrz
  7941  051D  1803               	skipnc
  7942  051E  3E01               	addlw	1
  7943  051F  1903               	skipnz
  7944  0520  2D22               	goto	u464_22
  7945  0521  07AB               	addwf	i1___flmul@grs+2,f
  7946  0522                     u464_22:
  7947  0522  087C               	movf	??i1___flmul+3,w
  7948  0523  1103               	clrz
  7949  0524  1803               	skipnc
  7950  0525  3E01               	addlw	1
  7951  0526  1903               	skipnz
  7952  0527  2D29               	goto	u464_23
  7953  0528  07AC               	addwf	i1___flmul@grs+3,f
  7954  0529                     u464_23:
  7955  0529                     i1l3212:
  7956  0529  3008               	movlw	8
  7957  052A  00F9               	movwf	??i1___flmul
  7958  052B                     u465_25:
  7959  052B  1003               	clrc
  7960  052C  0DA9               	rlf	i1___flmul@grs,f
  7961  052D  0DAA               	rlf	i1___flmul@grs+1,f
  7962  052E  0DAB               	rlf	i1___flmul@grs+2,f
  7963  052F  0DAC               	rlf	i1___flmul@grs+3,f
  7964  0530  0BF9               	decfsz	??i1___flmul,f
  7965  0531  2D2B               	goto	u465_25
  7966  0532  0820               	movf	i1___flmul@b,w
  7967  0533  00FF               	movwf	btemp+1
  7968  0534  087F               	movf	btemp+1,w
  7969  0535  00F0               	movwf	i1__Umul8_16@multiplicand
  7970  0536  0824               	movf	i1___flmul@a,w
  7971  0537  160A  118A  2268  120A  118A  	fcall	i1__Umul8_16
  7972  053C  0871               	movf	?i1__Umul8_16+1,w
  7973  053D  1283               	bcf	3,5	;RP0=0, select bank0
  7974  053E  1303               	bcf	3,6	;RP1=0, select bank0
  7975  053F  00B4               	movwf	i1___flmul@temp+1
  7976  0540  0870               	movf	?i1__Umul8_16,w
  7977  0541  00B3               	movwf	i1___flmul@temp
  7978  0542                     i1l3214:
  7979  0542  0833               	movf	i1___flmul@temp,w
  7980  0543  00F9               	movwf	??i1___flmul
  7981  0544  0834               	movf	i1___flmul@temp+1,w
  7982  0545  00FA               	movwf	??i1___flmul+1
  7983  0546  01FB               	clrf	??i1___flmul+2
  7984  0547  01FC               	clrf	??i1___flmul+3
  7985  0548  0879               	movf	??i1___flmul,w
  7986  0549  07A9               	addwf	i1___flmul@grs,f
  7987  054A  087A               	movf	??i1___flmul+1,w
  7988  054B  1103               	clrz
  7989  054C  1803               	skipnc
  7990  054D  3E01               	addlw	1
  7991  054E  1903               	skipnz
  7992  054F  2D51               	goto	u466_21
  7993  0550  07AA               	addwf	i1___flmul@grs+1,f
  7994  0551                     u466_21:
  7995  0551  087B               	movf	??i1___flmul+2,w
  7996  0552  1103               	clrz
  7997  0553  1803               	skipnc
  7998  0554  3E01               	addlw	1
  7999  0555  1903               	skipnz
  8000  0556  2D58               	goto	u466_22
  8001  0557  07AB               	addwf	i1___flmul@grs+2,f
  8002  0558                     u466_22:
  8003  0558  087C               	movf	??i1___flmul+3,w
  8004  0559  1103               	clrz
  8005  055A  1803               	skipnc
  8006  055B  3E01               	addlw	1
  8007  055C  1903               	skipnz
  8008  055D  2D5F               	goto	u466_23
  8009  055E  07AC               	addwf	i1___flmul@grs+3,f
  8010  055F                     u466_23:
  8011  055F                     i1l3216:
  8012  055F  0821               	movf	i1___flmul@b+1,w
  8013  0560  00FF               	movwf	btemp+1
  8014  0561  087F               	movf	btemp+1,w
  8015  0562  00F0               	movwf	i1__Umul8_16@multiplicand
  8016  0563  0826               	movf	i1___flmul@a+2,w
  8017  0564  160A  118A  2268  120A  118A  	fcall	i1__Umul8_16
  8018  0569  0871               	movf	?i1__Umul8_16+1,w
  8019  056A  1283               	bcf	3,5	;RP0=0, select bank0
  8020  056B  1303               	bcf	3,6	;RP1=0, select bank0
  8021  056C  00B4               	movwf	i1___flmul@temp+1
  8022  056D  0870               	movf	?i1__Umul8_16,w
  8023  056E  00B3               	movwf	i1___flmul@temp
  8024  056F  0833               	movf	i1___flmul@temp,w
  8025  0570  00F9               	movwf	??i1___flmul
  8026  0571  0834               	movf	i1___flmul@temp+1,w
  8027  0572  00FA               	movwf	??i1___flmul+1
  8028  0573  01FB               	clrf	??i1___flmul+2
  8029  0574  01FC               	clrf	??i1___flmul+3
  8030  0575  0879               	movf	??i1___flmul,w
  8031  0576  07AF               	addwf	i1___flmul@prod,f
  8032  0577  087A               	movf	??i1___flmul+1,w
  8033  0578  1103               	clrz
  8034  0579  1803               	skipnc
  8035  057A  3E01               	addlw	1
  8036  057B  1903               	skipnz
  8037  057C  2D7E               	goto	u467_21
  8038  057D  07B0               	addwf	i1___flmul@prod+1,f
  8039  057E                     u467_21:
  8040  057E  087B               	movf	??i1___flmul+2,w
  8041  057F  1103               	clrz
  8042  0580  1803               	skipnc
  8043  0581  3E01               	addlw	1
  8044  0582  1903               	skipnz
  8045  0583  2D85               	goto	u467_22
  8046  0584  07B1               	addwf	i1___flmul@prod+2,f
  8047  0585                     u467_22:
  8048  0585  087C               	movf	??i1___flmul+3,w
  8049  0586  1103               	clrz
  8050  0587  1803               	skipnc
  8051  0588  3E01               	addlw	1
  8052  0589  1903               	skipnz
  8053  058A  2D8C               	goto	u467_23
  8054  058B  07B2               	addwf	i1___flmul@prod+3,f
  8055  058C                     u467_23:
  8056  058C                     i1l3218:
  8057  058C  0822               	movf	i1___flmul@b+2,w
  8058  058D  00FF               	movwf	btemp+1
  8059  058E  087F               	movf	btemp+1,w
  8060  058F  00F0               	movwf	i1__Umul8_16@multiplicand
  8061  0590  0825               	movf	i1___flmul@a+1,w
  8062  0591  160A  118A  2268  120A  118A  	fcall	i1__Umul8_16
  8063  0596  0871               	movf	?i1__Umul8_16+1,w
  8064  0597  1283               	bcf	3,5	;RP0=0, select bank0
  8065  0598  1303               	bcf	3,6	;RP1=0, select bank0
  8066  0599  00B4               	movwf	i1___flmul@temp+1
  8067  059A  0870               	movf	?i1__Umul8_16,w
  8068  059B  00B3               	movwf	i1___flmul@temp
  8069  059C                     i1l3220:
  8070  059C  0833               	movf	i1___flmul@temp,w
  8071  059D  00F9               	movwf	??i1___flmul
  8072  059E  0834               	movf	i1___flmul@temp+1,w
  8073  059F  00FA               	movwf	??i1___flmul+1
  8074  05A0  01FB               	clrf	??i1___flmul+2
  8075  05A1  01FC               	clrf	??i1___flmul+3
  8076  05A2  0879               	movf	??i1___flmul,w
  8077  05A3  07AF               	addwf	i1___flmul@prod,f
  8078  05A4  087A               	movf	??i1___flmul+1,w
  8079  05A5  1103               	clrz
  8080  05A6  1803               	skipnc
  8081  05A7  3E01               	addlw	1
  8082  05A8  1903               	skipnz
  8083  05A9  2DAB               	goto	u468_21
  8084  05AA  07B0               	addwf	i1___flmul@prod+1,f
  8085  05AB                     u468_21:
  8086  05AB  087B               	movf	??i1___flmul+2,w
  8087  05AC  1103               	clrz
  8088  05AD  1803               	skipnc
  8089  05AE  3E01               	addlw	1
  8090  05AF  1903               	skipnz
  8091  05B0  2DB2               	goto	u468_22
  8092  05B1  07B1               	addwf	i1___flmul@prod+2,f
  8093  05B2                     u468_22:
  8094  05B2  087C               	movf	??i1___flmul+3,w
  8095  05B3  1103               	clrz
  8096  05B4  1803               	skipnc
  8097  05B5  3E01               	addlw	1
  8098  05B6  1903               	skipnz
  8099  05B7  2DB9               	goto	u468_23
  8100  05B8  07B2               	addwf	i1___flmul@prod+3,f
  8101  05B9                     u468_23:
  8102  05B9  0822               	movf	i1___flmul@b+2,w
  8103  05BA  00FF               	movwf	btemp+1
  8104  05BB  087F               	movf	btemp+1,w
  8105  05BC  00F0               	movwf	i1__Umul8_16@multiplicand
  8106  05BD  0826               	movf	i1___flmul@a+2,w
  8107  05BE  160A  118A  2268  120A  118A  	fcall	i1__Umul8_16
  8108  05C3  0871               	movf	?i1__Umul8_16+1,w
  8109  05C4  1283               	bcf	3,5	;RP0=0, select bank0
  8110  05C5  1303               	bcf	3,6	;RP1=0, select bank0
  8111  05C6  00B4               	movwf	i1___flmul@temp+1
  8112  05C7  0870               	movf	?i1__Umul8_16,w
  8113  05C8  00B3               	movwf	i1___flmul@temp
  8114  05C9                     i1l3222:
  8115  05C9  0833               	movf	i1___flmul@temp,w
  8116  05CA  00F9               	movwf	??i1___flmul
  8117  05CB  0834               	movf	i1___flmul@temp+1,w
  8118  05CC  00FA               	movwf	??i1___flmul+1
  8119  05CD  01FB               	clrf	??i1___flmul+2
  8120  05CE  01FC               	clrf	??i1___flmul+3
  8121  05CF  3008               	movlw	8
  8122  05D0                     u469_25:
  8123  05D0  1003               	clrc
  8124  05D1  0DF9               	rlf	??i1___flmul,f
  8125  05D2  0DFA               	rlf	??i1___flmul+1,f
  8126  05D3  0DFB               	rlf	??i1___flmul+2,f
  8127  05D4  0DFC               	rlf	??i1___flmul+3,f
  8128  05D5                     u469_20:
  8129  05D5  3EFF               	addlw	-1
  8130  05D6  1D03               	skipz
  8131  05D7  2DD0               	goto	u469_25
  8132  05D8  0879               	movf	??i1___flmul,w
  8133  05D9  07AF               	addwf	i1___flmul@prod,f
  8134  05DA  087A               	movf	??i1___flmul+1,w
  8135  05DB  1103               	clrz
  8136  05DC  1803               	skipnc
  8137  05DD  3E01               	addlw	1
  8138  05DE  1903               	skipnz
  8139  05DF  2DE1               	goto	u470_21
  8140  05E0  07B0               	addwf	i1___flmul@prod+1,f
  8141  05E1                     u470_21:
  8142  05E1  087B               	movf	??i1___flmul+2,w
  8143  05E2  1103               	clrz
  8144  05E3  1803               	skipnc
  8145  05E4  3E01               	addlw	1
  8146  05E5  1903               	skipnz
  8147  05E6  2DE8               	goto	u470_22
  8148  05E7  07B1               	addwf	i1___flmul@prod+2,f
  8149  05E8                     u470_22:
  8150  05E8  087C               	movf	??i1___flmul+3,w
  8151  05E9  1103               	clrz
  8152  05EA  1803               	skipnc
  8153  05EB  3E01               	addlw	1
  8154  05EC  1903               	skipnz
  8155  05ED  2DEF               	goto	u470_23
  8156  05EE  07B2               	addwf	i1___flmul@prod+3,f
  8157  05EF                     u470_23:
  8158  05EF                     i1l3224:
  8159  05EF  0829               	movf	i1___flmul@grs,w
  8160  05F0  00F9               	movwf	??i1___flmul
  8161  05F1  082A               	movf	i1___flmul@grs+1,w
  8162  05F2  00FA               	movwf	??i1___flmul+1
  8163  05F3  082B               	movf	i1___flmul@grs+2,w
  8164  05F4  00FB               	movwf	??i1___flmul+2
  8165  05F5  082C               	movf	i1___flmul@grs+3,w
  8166  05F6  00FC               	movwf	??i1___flmul+3
  8167  05F7  3018               	movlw	24
  8168  05F8                     u471_25:
  8169  05F8  1003               	clrc
  8170  05F9  0CFC               	rrf	??i1___flmul+3,f
  8171  05FA  0CFB               	rrf	??i1___flmul+2,f
  8172  05FB  0CFA               	rrf	??i1___flmul+1,f
  8173  05FC  0CF9               	rrf	??i1___flmul,f
  8174  05FD                     u471_20:
  8175  05FD  3EFF               	addlw	-1
  8176  05FE  1D03               	skipz
  8177  05FF  2DF8               	goto	u471_25
  8178  0600  0879               	movf	??i1___flmul,w
  8179  0601  07AF               	addwf	i1___flmul@prod,f
  8180  0602  087A               	movf	??i1___flmul+1,w
  8181  0603  1103               	clrz
  8182  0604  1803               	skipnc
  8183  0605  3E01               	addlw	1
  8184  0606  1903               	skipnz
  8185  0607  2E09               	goto	u472_21
  8186  0608  07B0               	addwf	i1___flmul@prod+1,f
  8187  0609                     u472_21:
  8188  0609  087B               	movf	??i1___flmul+2,w
  8189  060A  1103               	clrz
  8190  060B  1803               	skipnc
  8191  060C  3E01               	addlw	1
  8192  060D  1903               	skipnz
  8193  060E  2E10               	goto	u472_22
  8194  060F  07B1               	addwf	i1___flmul@prod+2,f
  8195  0610                     u472_22:
  8196  0610  087C               	movf	??i1___flmul+3,w
  8197  0611  1103               	clrz
  8198  0612  1803               	skipnc
  8199  0613  3E01               	addlw	1
  8200  0614  1903               	skipnz
  8201  0615  2E17               	goto	u472_23
  8202  0616  07B2               	addwf	i1___flmul@prod+3,f
  8203  0617                     u472_23:
  8204  0617                     i1l3226:
  8205  0617  3008               	movlw	8
  8206  0618  00F9               	movwf	??i1___flmul
  8207  0619                     u473_25:
  8208  0619  1003               	clrc
  8209  061A  0DA9               	rlf	i1___flmul@grs,f
  8210  061B  0DAA               	rlf	i1___flmul@grs+1,f
  8211  061C  0DAB               	rlf	i1___flmul@grs+2,f
  8212  061D  0DAC               	rlf	i1___flmul@grs+3,f
  8213  061E  0BF9               	decfsz	??i1___flmul,f
  8214  061F  2E19               	goto	u473_25
  8215  0620                     i1l3228:
  8216  0620  082E               	movf	i1___flmul@bexp,w
  8217  0621  072D               	addwf	i1___flmul@aexp,w
  8218  0622  00F9               	movwf	??i1___flmul
  8219  0623  01FA               	clrf	??i1___flmul+1
  8220  0624  0DFA               	rlf	??i1___flmul+1,f
  8221  0625  0879               	movf	??i1___flmul,w
  8222  0626  3E82               	addlw	130
  8223  0627  00B3               	movwf	i1___flmul@temp
  8224  0628  087A               	movf	??i1___flmul+1,w
  8225  0629  1803               	skipnc
  8226  062A  3E01               	addlw	1
  8227  062B  3EFF               	addlw	255
  8228  062C  00B4               	movwf	i1___flmul@temp+1
  8229  062D  2E4B               	goto	i1l3240
  8230  062E                     i1l3230:
  8231  062E  3001               	movlw	1
  8232  062F  00F9               	movwf	??i1___flmul
  8233  0630                     u474_25:
  8234  0630  1003               	clrc
  8235  0631  0DAF               	rlf	i1___flmul@prod,f
  8236  0632  0DB0               	rlf	i1___flmul@prod+1,f
  8237  0633  0DB1               	rlf	i1___flmul@prod+2,f
  8238  0634  0DB2               	rlf	i1___flmul@prod+3,f
  8239  0635  0BF9               	decfsz	??i1___flmul,f
  8240  0636  2E30               	goto	u474_25
  8241  0637                     i1l3232:
  8242  0637  1FAC               	btfss	i1___flmul@grs+3,7
  8243  0638  2E3A               	goto	u475_21
  8244  0639  2E3B               	goto	u475_20
  8245  063A                     u475_21:
  8246  063A  2E3C               	goto	i1l3236
  8247  063B                     u475_20:
  8248  063B                     i1l3234:
  8249  063B  142F               	bsf	i1___flmul@prod,0
  8250  063C                     i1l3236:
  8251  063C  3001               	movlw	1
  8252  063D  00F9               	movwf	??i1___flmul
  8253  063E                     u476_25:
  8254  063E  1003               	clrc
  8255  063F  0DA9               	rlf	i1___flmul@grs,f
  8256  0640  0DAA               	rlf	i1___flmul@grs+1,f
  8257  0641  0DAB               	rlf	i1___flmul@grs+2,f
  8258  0642  0DAC               	rlf	i1___flmul@grs+3,f
  8259  0643  0BF9               	decfsz	??i1___flmul,f
  8260  0644  2E3E               	goto	u476_25
  8261  0645                     i1l3238:
  8262  0645  30FF               	movlw	255
  8263  0646  07B3               	addwf	i1___flmul@temp,f
  8264  0647  1803               	skipnc
  8265  0648  0AB4               	incf	i1___flmul@temp+1,f
  8266  0649  30FF               	movlw	255
  8267  064A  07B4               	addwf	i1___flmul@temp+1,f
  8268  064B                     i1l3240:
  8269  064B  1FB1               	btfss	i1___flmul@prod+2,7
  8270  064C  2E4E               	goto	u477_21
  8271  064D  2E4F               	goto	u477_20
  8272  064E                     u477_21:
  8273  064E  2E2E               	goto	i1l3230
  8274  064F                     u477_20:
  8275  064F                     i1l3242:
  8276  064F  01AD               	clrf	i1___flmul@aexp
  8277  0650                     i1l3244:
  8278  0650  1FAC               	btfss	i1___flmul@grs+3,7
  8279  0651  2E53               	goto	u478_21
  8280  0652  2E54               	goto	u478_20
  8281  0653                     u478_21:
  8282  0653  2E70               	goto	i1l3252
  8283  0654                     u478_20:
  8284  0654                     i1l3246:
  8285  0654  30FF               	movlw	255
  8286  0655  0529               	andwf	i1___flmul@grs,w
  8287  0656  00F9               	movwf	??i1___flmul
  8288  0657  30FF               	movlw	255
  8289  0658  052A               	andwf	i1___flmul@grs+1,w
  8290  0659  00FA               	movwf	??i1___flmul+1
  8291  065A  30FF               	movlw	255
  8292  065B  052B               	andwf	i1___flmul@grs+2,w
  8293  065C  00FB               	movwf	??i1___flmul+2
  8294  065D  307F               	movlw	127
  8295  065E  052C               	andwf	i1___flmul@grs+3,w
  8296  065F  00FC               	movwf	??i1___flmul+3
  8297  0660  087C               	movf	??i1___flmul+3,w
  8298  0661  047B               	iorwf	??i1___flmul+2,w
  8299  0662  047A               	iorwf	??i1___flmul+1,w
  8300  0663  0479               	iorwf	??i1___flmul,w
  8301  0664  1903               	skipnz
  8302  0665  2E67               	goto	u479_21
  8303  0666  2E68               	goto	u479_20
  8304  0667                     u479_21:
  8305  0667  2E6B               	goto	i1l679
  8306  0668                     u479_20:
  8307  0668                     i1l3248:
  8308  0668  01AD               	clrf	i1___flmul@aexp
  8309  0669  0AAD               	incf	i1___flmul@aexp,f
  8310  066A  2E70               	goto	i1l3252
  8311  066B                     i1l679:
  8312  066B  1C2F               	btfss	i1___flmul@prod,0
  8313  066C  2E6E               	goto	u480_21
  8314  066D  2E6F               	goto	u480_20
  8315  066E                     u480_21:
  8316  066E  2E70               	goto	i1l3252
  8317  066F                     u480_20:
  8318  066F  2E68               	goto	i1l3248
  8319  0670                     i1l3252:
  8320  0670  082D               	movf	i1___flmul@aexp,w
  8321  0671  1903               	btfsc	3,2
  8322  0672  2E74               	goto	u481_21
  8323  0673  2E75               	goto	u481_20
  8324  0674                     u481_21:
  8325  0674  2EA6               	goto	i1l3262
  8326  0675                     u481_20:
  8327  0675                     i1l3254:
  8328  0675  3001               	movlw	1
  8329  0676  07AF               	addwf	i1___flmul@prod,f
  8330  0677  3000               	movlw	0
  8331  0678  1803               	skipnc
  8332  0679  3001               	movlw	1
  8333  067A  07B0               	addwf	i1___flmul@prod+1,f
  8334  067B  3000               	movlw	0
  8335  067C  1803               	skipnc
  8336  067D  3001               	movlw	1
  8337  067E  07B1               	addwf	i1___flmul@prod+2,f
  8338  067F  3000               	movlw	0
  8339  0680  1803               	skipnc
  8340  0681  3001               	movlw	1
  8341  0682  07B2               	addwf	i1___flmul@prod+3,f
  8342  0683                     i1l3256:
  8343  0683  1C32               	btfss	i1___flmul@prod+3,0
  8344  0684  2E86               	goto	u482_21
  8345  0685  2E87               	goto	u482_20
  8346  0686                     u482_21:
  8347  0686  2EA6               	goto	i1l3262
  8348  0687                     u482_20:
  8349  0687                     i1l3258:
  8350  0687  082F               	movf	i1___flmul@prod,w
  8351  0688  00F9               	movwf	??i1___flmul
  8352  0689  0830               	movf	i1___flmul@prod+1,w
  8353  068A  00FA               	movwf	??i1___flmul+1
  8354  068B  0831               	movf	i1___flmul@prod+2,w
  8355  068C  00FB               	movwf	??i1___flmul+2
  8356  068D  0832               	movf	i1___flmul@prod+3,w
  8357  068E  00FC               	movwf	??i1___flmul+3
  8358  068F  3001               	movlw	1
  8359  0690  00FD               	movwf	??i1___flmul+4
  8360  0691                     u483_25:
  8361  0691  0D7C               	rlf	??i1___flmul+3,w
  8362  0692  0CFC               	rrf	??i1___flmul+3,f
  8363  0693  0CFB               	rrf	??i1___flmul+2,f
  8364  0694  0CFA               	rrf	??i1___flmul+1,f
  8365  0695  0CF9               	rrf	??i1___flmul,f
  8366  0696                     u483_20:
  8367  0696  0BFD               	decfsz	??i1___flmul+4,f
  8368  0697  2E91               	goto	u483_25
  8369  0698  087C               	movf	??i1___flmul+3,w
  8370  0699  00B2               	movwf	i1___flmul@prod+3
  8371  069A  087B               	movf	??i1___flmul+2,w
  8372  069B  00B1               	movwf	i1___flmul@prod+2
  8373  069C  087A               	movf	??i1___flmul+1,w
  8374  069D  00B0               	movwf	i1___flmul@prod+1
  8375  069E  0879               	movf	??i1___flmul,w
  8376  069F  00AF               	movwf	i1___flmul@prod
  8377  06A0                     i1l3260:
  8378  06A0  3001               	movlw	1
  8379  06A1  07B3               	addwf	i1___flmul@temp,f
  8380  06A2  1803               	skipnc
  8381  06A3  0AB4               	incf	i1___flmul@temp+1,f
  8382  06A4  3000               	movlw	0
  8383  06A5  07B4               	addwf	i1___flmul@temp+1,f
  8384  06A6                     i1l3262:
  8385  06A6  0834               	movf	i1___flmul@temp+1,w
  8386  06A7  3A80               	xorlw	128
  8387  06A8  00FF               	movwf	btemp+1
  8388  06A9  3080               	movlw	128
  8389  06AA  027F               	subwf	btemp+1,w
  8390  06AB  1D03               	skipz
  8391  06AC  2EAF               	goto	u484_25
  8392  06AD  30FF               	movlw	255
  8393  06AE  0233               	subwf	i1___flmul@temp,w
  8394  06AF                     u484_25:
  8395  06AF  1C03               	skipc
  8396  06B0  2EB2               	goto	u484_21
  8397  06B1  2EB3               	goto	u484_20
  8398  06B2                     u484_21:
  8399  06B2  2EBE               	goto	i1l3266
  8400  06B3                     u484_20:
  8401  06B3                     i1l3264:
  8402  06B3  307F               	movlw	127
  8403  06B4  1283               	bcf	3,5	;RP0=0, select bank0
  8404  06B5  1303               	bcf	3,6	;RP1=0, select bank0
  8405  06B6  00B2               	movwf	i1___flmul@prod+3
  8406  06B7  3080               	movlw	128
  8407  06B8  00B1               	movwf	i1___flmul@prod+2
  8408  06B9  3000               	movlw	0
  8409  06BA  00B0               	movwf	i1___flmul@prod+1
  8410  06BB  3000               	movlw	0
  8411  06BC  00AF               	movwf	i1___flmul@prod
  8412  06BD  2EF3               	goto	i1l685
  8413  06BE                     i1l3266:
  8414  06BE  1283               	bcf	3,5	;RP0=0, select bank0
  8415  06BF  1303               	bcf	3,6	;RP1=0, select bank0
  8416  06C0  0834               	movf	i1___flmul@temp+1,w
  8417  06C1  3A80               	xorlw	128
  8418  06C2  00FF               	movwf	btemp+1
  8419  06C3  3080               	movlw	128
  8420  06C4  027F               	subwf	btemp+1,w
  8421  06C5  1D03               	skipz
  8422  06C6  2EC9               	goto	u485_25
  8423  06C7  3001               	movlw	1
  8424  06C8  0233               	subwf	i1___flmul@temp,w
  8425  06C9                     u485_25:
  8426  06C9  1803               	skipnc
  8427  06CA  2ECC               	goto	u485_21
  8428  06CB  2ECD               	goto	u485_20
  8429  06CC                     u485_21:
  8430  06CC  2ED9               	goto	i1l3272
  8431  06CD                     u485_20:
  8432  06CD                     i1l3268:
  8433  06CD  3000               	movlw	0
  8434  06CE  1283               	bcf	3,5	;RP0=0, select bank0
  8435  06CF  1303               	bcf	3,6	;RP1=0, select bank0
  8436  06D0  00B2               	movwf	i1___flmul@prod+3
  8437  06D1  3000               	movlw	0
  8438  06D2  00B1               	movwf	i1___flmul@prod+2
  8439  06D3  3000               	movlw	0
  8440  06D4  00B0               	movwf	i1___flmul@prod+1
  8441  06D5  3000               	movlw	0
  8442  06D6  00AF               	movwf	i1___flmul@prod
  8443  06D7                     i1l3270:
  8444  06D7  01A8               	clrf	i1___flmul@sign
  8445  06D8  2EF3               	goto	i1l685
  8446  06D9                     i1l3272:
  8447  06D9  1283               	bcf	3,5	;RP0=0, select bank0
  8448  06DA  1303               	bcf	3,6	;RP1=0, select bank0
  8449  06DB  0833               	movf	i1___flmul@temp,w
  8450  06DC  00FF               	movwf	btemp+1
  8451  06DD  087F               	movf	btemp+1,w
  8452  06DE  00AE               	movwf	i1___flmul@bexp
  8453  06DF                     i1l3274:
  8454  06DF  30FF               	movlw	255
  8455  06E0  05AF               	andwf	i1___flmul@prod,f
  8456  06E1  30FF               	movlw	255
  8457  06E2  05B0               	andwf	i1___flmul@prod+1,f
  8458  06E3  307F               	movlw	127
  8459  06E4  05B1               	andwf	i1___flmul@prod+2,f
  8460  06E5  3000               	movlw	0
  8461  06E6  05B2               	andwf	i1___flmul@prod+3,f
  8462  06E7                     i1l3276:
  8463  06E7  1C2E               	btfss	i1___flmul@bexp,0
  8464  06E8  2EEA               	goto	u486_21
  8465  06E9  2EEB               	goto	u486_20
  8466  06EA                     u486_21:
  8467  06EA  2EEC               	goto	i1l3280
  8468  06EB                     u486_20:
  8469  06EB                     i1l3278:
  8470  06EB  17B1               	bsf	i1___flmul@prod+2,7
  8471  06EC                     i1l3280:
  8472  06EC  082E               	movf	i1___flmul@bexp,w
  8473  06ED  00F9               	movwf	??i1___flmul
  8474  06EE  1003               	clrc
  8475  06EF  0C79               	rrf	??i1___flmul,w
  8476  06F0  00FF               	movwf	btemp+1
  8477  06F1  087F               	movf	btemp+1,w
  8478  06F2  00B2               	movwf	i1___flmul@prod+3
  8479  06F3                     i1l685:
  8480  06F3  0828               	movf	i1___flmul@sign,w
  8481  06F4  00FF               	movwf	btemp+1
  8482  06F5  087F               	movf	btemp+1,w
  8483  06F6  04B2               	iorwf	i1___flmul@prod+3,f
  8484  06F7                     i1l3282:
  8485  06F7  0832               	movf	i1___flmul@prod+3,w
  8486  06F8  00A3               	movwf	?i1___flmul+3
  8487  06F9  0831               	movf	i1___flmul@prod+2,w
  8488  06FA  00A2               	movwf	?i1___flmul+2
  8489  06FB  0830               	movf	i1___flmul@prod+1,w
  8490  06FC  00A1               	movwf	?i1___flmul+1
  8491  06FD  082F               	movf	i1___flmul@prod,w
  8492  06FE  00A0               	movwf	?i1___flmul
  8493  06FF                     i1l673:
  8494  06FF  0008               	return
  8495  0700                     __end_ofi1___flmul:
  8496                           
  8497                           	psect	text24
  8498  1268                     __ptext24:	
  8499 ;; *************** function i1__Umul8_16 *****************
  8500 ;; Defined at:
  8501 ;;		line 4 in file "C:\Program Files\Microchip\xc8\v2.20\pic\sources\c90\common\Umul8_16.c"
  8502 ;; Parameters:    Size  Location     Type
  8503 ;;  multiplier      1    wreg     unsigned char 
  8504 ;;  multiplicand    1    0[COMMON] unsigned char 
  8505 ;; Auto vars:     Size  Location     Type
  8506 ;;  multiplier      1    8[COMMON] unsigned char 
  8507 ;;  word_mpld       2    6[COMMON] unsigned int 
  8508 ;;  product         2    4[COMMON] unsigned int 
  8509 ;; Return value:  Size  Location     Type
  8510 ;;                  2    0[COMMON] unsigned int 
  8511 ;; Registers used:
  8512 ;;		wreg, status,2, status,0
  8513 ;; Tracked objects:
  8514 ;;		On entry : 0/0
  8515 ;;		On exit  : 0/0
  8516 ;;		Unchanged: 0/0
  8517 ;; Data sizes:     COMMON   BANK0   BANK1   BANK3   BANK2
  8518 ;;      Params:         2       0       0       0       0
  8519 ;;      Locals:         5       0       0       0       0
  8520 ;;      Temps:          2       0       0       0       0
  8521 ;;      Totals:         9       0       0       0       0
  8522 ;;Total ram usage:        9 bytes
  8523 ;; Hardware stack levels used:    1
  8524 ;; This function calls:
  8525 ;;		Nothing
  8526 ;; This function is called by:
  8527 ;;		i1___flmul
  8528 ;; This function uses a non-reentrant model
  8529 ;;
  8530                           
  8531                           
  8532                           ;psect for function i1__Umul8_16
  8533  1268                     i1__Umul8_16:
  8534                           
  8535                           ;incstack = 0
  8536                           ; Regs used in i1__Umul8_16: [wreg+status,2+status,0]
  8537                           ;i1__Umul8_16@multiplier stored from wreg
  8538  1268  00F8               	movwf	i1__Umul8_16@multiplier
  8539  1269                     i1l2556:
  8540  1269  01F4               	clrf	i1__Umul8_16@product
  8541  126A  01F5               	clrf	i1__Umul8_16@product+1
  8542  126B                     i1l2558:
  8543  126B  0870               	movf	i1__Umul8_16@multiplicand,w
  8544  126C  00F2               	movwf	??i1__Umul8_16
  8545  126D  01F3               	clrf	??i1__Umul8_16+1
  8546  126E  0872               	movf	??i1__Umul8_16,w
  8547  126F  00F6               	movwf	i1__Umul8_16@word_mpld
  8548  1270  0873               	movf	??i1__Umul8_16+1,w
  8549  1271  00F7               	movwf	i1__Umul8_16@word_mpld+1
  8550  1272                     i1l2560:
  8551  1272  1C78               	btfss	i1__Umul8_16@multiplier,0
  8552  1273  2A75               	goto	u342_21
  8553  1274  2A76               	goto	u342_20
  8554  1275                     u342_21:
  8555  1275  2A7C               	goto	i1l692
  8556  1276                     u342_20:
  8557  1276                     i1l2562:
  8558  1276  0876               	movf	i1__Umul8_16@word_mpld,w
  8559  1277  07F4               	addwf	i1__Umul8_16@product,f
  8560  1278  1803               	skipnc
  8561  1279  0AF5               	incf	i1__Umul8_16@product+1,f
  8562  127A  0877               	movf	i1__Umul8_16@word_mpld+1,w
  8563  127B  07F5               	addwf	i1__Umul8_16@product+1,f
  8564  127C                     i1l692:
  8565  127C  3001               	movlw	1
  8566  127D                     u343_25:
  8567  127D  1003               	clrc
  8568  127E  0DF6               	rlf	i1__Umul8_16@word_mpld,f
  8569  127F  0DF7               	rlf	i1__Umul8_16@word_mpld+1,f
  8570  1280  3EFF               	addlw	-1
  8571  1281  1D03               	skipz
  8572  1282  2A7D               	goto	u343_25
  8573  1283  1003               	clrc
  8574  1284  0CF8               	rrf	i1__Umul8_16@multiplier,f
  8575  1285                     i1l2564:
  8576  1285  0878               	movf	i1__Umul8_16@multiplier,w
  8577  1286  1D03               	btfss	3,2
  8578  1287  2A89               	goto	u344_21
  8579  1288  2A8A               	goto	u344_20
  8580  1289                     u344_21:
  8581  1289  2A72               	goto	i1l2560
  8582  128A                     u344_20:
  8583  128A                     i1l2566:
  8584  128A  0875               	movf	i1__Umul8_16@product+1,w
  8585  128B  00F1               	movwf	?i1__Umul8_16+1
  8586  128C  0874               	movf	i1__Umul8_16@product,w
  8587  128D  00F0               	movwf	?i1__Umul8_16
  8588  128E                     i1l694:
  8589  128E  0008               	return
  8590  128F                     __end_ofi1__Umul8_16:
  8591                           
  8592                           	psect	text25
  8593  0898                     __ptext25:	
  8594 ;; *************** function ___xxtofl *****************
  8595 ;; Defined at:
  8596 ;;		line 10 in file "C:\Program Files\Microchip\xc8\v2.20\pic\sources\c90\common\xxtofl.c"
  8597 ;; Parameters:    Size  Location     Type
  8598 ;;  sign            1    wreg     unsigned char 
  8599 ;;  val             4    7[COMMON] long 
  8600 ;; Auto vars:     Size  Location     Type
  8601 ;;  sign            1    4[BANK0 ] unsigned char 
  8602 ;;  arg             4    6[BANK0 ] unsigned long 
  8603 ;;  exp             1    5[BANK0 ] unsigned char 
  8604 ;; Return value:  Size  Location     Type
  8605 ;;                  4    7[COMMON] unsigned char 
  8606 ;; Registers used:
  8607 ;;		wreg, status,2, status,0, btemp+1
  8608 ;; Tracked objects:
  8609 ;;		On entry : 0/0
  8610 ;;		On exit  : 0/0
  8611 ;;		Unchanged: 0/0
  8612 ;; Data sizes:     COMMON   BANK0   BANK1   BANK3   BANK2
  8613 ;;      Params:         4       0       0       0       0
  8614 ;;      Locals:         0       6       0       0       0
  8615 ;;      Temps:          0       4       0       0       0
  8616 ;;      Totals:         4      10       0       0       0
  8617 ;;Total ram usage:       14 bytes
  8618 ;; Hardware stack levels used:    1
  8619 ;; This function calls:
  8620 ;;		Nothing
  8621 ;; This function is called by:
  8622 ;;		_ISR
  8623 ;; This function uses a non-reentrant model
  8624 ;;
  8625                           
  8626                           
  8627                           ;psect for function ___xxtofl
  8628  0898                     ___xxtofl:
  8629                           
  8630                           ;incstack = 0
  8631                           ; Regs used in ___xxtofl: [wreg+status,2+status,0+btemp+1]
  8632                           ;___xxtofl@sign stored from wreg
  8633  0898  1283               	bcf	3,5	;RP0=0, select bank0
  8634  0899  1303               	bcf	3,6	;RP1=0, select bank0
  8635  089A  00A4               	movwf	___xxtofl@sign
  8636  089B                     i1l3096:
  8637  089B  0824               	movf	___xxtofl@sign,w
  8638  089C  1903               	btfsc	3,2
  8639  089D  289F               	goto	u436_21
  8640  089E  28A0               	goto	u436_20
  8641  089F                     u436_21:
  8642  089F  28B4               	goto	i1l3102
  8643  08A0                     u436_20:
  8644  08A0                     i1l3098:
  8645  08A0  1FFA               	btfss	___xxtofl@val+3,7
  8646  08A1  28A3               	goto	u437_21
  8647  08A2  28A4               	goto	u437_20
  8648  08A3                     u437_21:
  8649  08A3  28B4               	goto	i1l3102
  8650  08A4                     u437_20:
  8651  08A4                     i1l3100:
  8652  08A4  0977               	comf	___xxtofl@val,w
  8653  08A5  00A6               	movwf	___xxtofl@arg
  8654  08A6  0978               	comf	___xxtofl@val+1,w
  8655  08A7  00A7               	movwf	___xxtofl@arg+1
  8656  08A8  0979               	comf	___xxtofl@val+2,w
  8657  08A9  00A8               	movwf	___xxtofl@arg+2
  8658  08AA  097A               	comf	___xxtofl@val+3,w
  8659  08AB  00A9               	movwf	___xxtofl@arg+3
  8660  08AC  0AA6               	incf	___xxtofl@arg,f
  8661  08AD  1903               	skipnz
  8662  08AE  0AA7               	incf	___xxtofl@arg+1,f
  8663  08AF  1903               	skipnz
  8664  08B0  0AA8               	incf	___xxtofl@arg+2,f
  8665  08B1  1903               	skipnz
  8666  08B2  0AA9               	incf	___xxtofl@arg+3,f
  8667  08B3  28BC               	goto	i1l717
  8668  08B4                     i1l3102:
  8669  08B4  087A               	movf	___xxtofl@val+3,w
  8670  08B5  00A9               	movwf	___xxtofl@arg+3
  8671  08B6  0879               	movf	___xxtofl@val+2,w
  8672  08B7  00A8               	movwf	___xxtofl@arg+2
  8673  08B8  0878               	movf	___xxtofl@val+1,w
  8674  08B9  00A7               	movwf	___xxtofl@arg+1
  8675  08BA  0877               	movf	___xxtofl@val,w
  8676  08BB  00A6               	movwf	___xxtofl@arg
  8677  08BC                     i1l717:
  8678  08BC  087A               	movf	___xxtofl@val+3,w
  8679  08BD  0479               	iorwf	___xxtofl@val+2,w
  8680  08BE  0478               	iorwf	___xxtofl@val+1,w
  8681  08BF  0477               	iorwf	___xxtofl@val,w
  8682  08C0  1D03               	skipz
  8683  08C1  28C3               	goto	u438_21
  8684  08C2  28C4               	goto	u438_20
  8685  08C3                     u438_21:
  8686  08C3  28CD               	goto	i1l3108
  8687  08C4                     u438_20:
  8688  08C4                     i1l3104:
  8689  08C4  3000               	movlw	0
  8690  08C5  00FA               	movwf	?___xxtofl+3
  8691  08C6  3000               	movlw	0
  8692  08C7  00F9               	movwf	?___xxtofl+2
  8693  08C8  3000               	movlw	0
  8694  08C9  00F8               	movwf	?___xxtofl+1
  8695  08CA  3000               	movlw	0
  8696  08CB  00F7               	movwf	?___xxtofl
  8697  08CC  2953               	goto	i1l719
  8698  08CD                     i1l3108:
  8699  08CD  3096               	movlw	150
  8700  08CE  00FF               	movwf	btemp+1
  8701  08CF  087F               	movf	btemp+1,w
  8702  08D0  00A5               	movwf	___xxtofl@exp
  8703  08D1  28DF               	goto	i1l3114
  8704  08D2                     i1l3110:
  8705  08D2  3001               	movlw	1
  8706  08D3  00FF               	movwf	btemp+1
  8707  08D4  087F               	movf	btemp+1,w
  8708  08D5  07A5               	addwf	___xxtofl@exp,f
  8709  08D6                     i1l3112:
  8710  08D6  3001               	movlw	1
  8711  08D7                     u439_25:
  8712  08D7  1003               	clrc
  8713  08D8  0CA9               	rrf	___xxtofl@arg+3,f
  8714  08D9  0CA8               	rrf	___xxtofl@arg+2,f
  8715  08DA  0CA7               	rrf	___xxtofl@arg+1,f
  8716  08DB  0CA6               	rrf	___xxtofl@arg,f
  8717  08DC  3EFF               	addlw	-1
  8718  08DD  1D03               	skipz
  8719  08DE  28D7               	goto	u439_25
  8720  08DF                     i1l3114:
  8721  08DF  30FE               	movlw	254
  8722  08E0  0529               	andwf	___xxtofl@arg+3,w
  8723  08E1  1D03               	btfss	3,2
  8724  08E2  28E4               	goto	u440_21
  8725  08E3  28E5               	goto	u440_20
  8726  08E4                     u440_21:
  8727  08E4  28D2               	goto	i1l3110
  8728  08E5                     u440_20:
  8729  08E5  2901               	goto	i1l3122
  8730  08E6                     i1l3116:
  8731  08E6  3001               	movlw	1
  8732  08E7  00FF               	movwf	btemp+1
  8733  08E8  087F               	movf	btemp+1,w
  8734  08E9  07A5               	addwf	___xxtofl@exp,f
  8735  08EA                     i1l3118:
  8736  08EA  3001               	movlw	1
  8737  08EB  07A6               	addwf	___xxtofl@arg,f
  8738  08EC  3000               	movlw	0
  8739  08ED  1803               	skipnc
  8740  08EE  3001               	movlw	1
  8741  08EF  07A7               	addwf	___xxtofl@arg+1,f
  8742  08F0  3000               	movlw	0
  8743  08F1  1803               	skipnc
  8744  08F2  3001               	movlw	1
  8745  08F3  07A8               	addwf	___xxtofl@arg+2,f
  8746  08F4  3000               	movlw	0
  8747  08F5  1803               	skipnc
  8748  08F6  3001               	movlw	1
  8749  08F7  07A9               	addwf	___xxtofl@arg+3,f
  8750  08F8                     i1l3120:
  8751  08F8  3001               	movlw	1
  8752  08F9                     u441_25:
  8753  08F9  1003               	clrc
  8754  08FA  0CA9               	rrf	___xxtofl@arg+3,f
  8755  08FB  0CA8               	rrf	___xxtofl@arg+2,f
  8756  08FC  0CA7               	rrf	___xxtofl@arg+1,f
  8757  08FD  0CA6               	rrf	___xxtofl@arg,f
  8758  08FE  3EFF               	addlw	-1
  8759  08FF  1D03               	skipz
  8760  0900  28F9               	goto	u441_25
  8761  0901                     i1l3122:
  8762  0901  30FF               	movlw	255
  8763  0902  0529               	andwf	___xxtofl@arg+3,w
  8764  0903  1D03               	btfss	3,2
  8765  0904  2906               	goto	u442_21
  8766  0905  2907               	goto	u442_20
  8767  0906                     u442_21:
  8768  0906  28E6               	goto	i1l3116
  8769  0907                     u442_20:
  8770  0907  2913               	goto	i1l3126
  8771  0908                     i1l3124:
  8772  0908  3001               	movlw	1
  8773  0909  02A5               	subwf	___xxtofl@exp,f
  8774  090A  3001               	movlw	1
  8775  090B  00A0               	movwf	??___xxtofl
  8776  090C                     u443_25:
  8777  090C  1003               	clrc
  8778  090D  0DA6               	rlf	___xxtofl@arg,f
  8779  090E  0DA7               	rlf	___xxtofl@arg+1,f
  8780  090F  0DA8               	rlf	___xxtofl@arg+2,f
  8781  0910  0DA9               	rlf	___xxtofl@arg+3,f
  8782  0911  0BA0               	decfsz	??___xxtofl,f
  8783  0912  290C               	goto	u443_25
  8784  0913                     i1l3126:
  8785  0913  1BA8               	btfsc	___xxtofl@arg+2,7
  8786  0914  2916               	goto	u444_21
  8787  0915  2917               	goto	u444_20
  8788  0916                     u444_21:
  8789  0916  291D               	goto	i1l730
  8790  0917                     u444_20:
  8791  0917                     i1l3128:
  8792  0917  3002               	movlw	2
  8793  0918  0225               	subwf	___xxtofl@exp,w
  8794  0919  1803               	skipnc
  8795  091A  291C               	goto	u445_21
  8796  091B  291D               	goto	u445_20
  8797  091C                     u445_21:
  8798  091C  2908               	goto	i1l3124
  8799  091D                     u445_20:
  8800  091D                     i1l730:
  8801  091D  1825               	btfsc	___xxtofl@exp,0
  8802  091E  2920               	goto	u446_21
  8803  091F  2921               	goto	u446_20
  8804  0920                     u446_21:
  8805  0920  2929               	goto	i1l731
  8806  0921                     u446_20:
  8807  0921                     i1l3130:
  8808  0921  30FF               	movlw	255
  8809  0922  05A6               	andwf	___xxtofl@arg,f
  8810  0923  30FF               	movlw	255
  8811  0924  05A7               	andwf	___xxtofl@arg+1,f
  8812  0925  307F               	movlw	127
  8813  0926  05A8               	andwf	___xxtofl@arg+2,f
  8814  0927  30FF               	movlw	255
  8815  0928  05A9               	andwf	___xxtofl@arg+3,f
  8816  0929                     i1l731:
  8817  0929  1003               	clrc
  8818  092A  0CA5               	rrf	___xxtofl@exp,f
  8819  092B                     i1l3132:
  8820  092B  0825               	movf	___xxtofl@exp,w
  8821  092C  00A0               	movwf	??___xxtofl
  8822  092D  01A1               	clrf	??___xxtofl+1
  8823  092E  01A2               	clrf	??___xxtofl+2
  8824  092F  01A3               	clrf	??___xxtofl+3
  8825  0930  3018               	movlw	24
  8826  0931                     u447_25:
  8827  0931  1003               	clrc
  8828  0932  0DA0               	rlf	??___xxtofl,f
  8829  0933  0DA1               	rlf	??___xxtofl+1,f
  8830  0934  0DA2               	rlf	??___xxtofl+2,f
  8831  0935  0DA3               	rlf	??___xxtofl+3,f
  8832  0936                     u447_20:
  8833  0936  3EFF               	addlw	-1
  8834  0937  1D03               	skipz
  8835  0938  2931               	goto	u447_25
  8836  0939  0820               	movf	??___xxtofl,w
  8837  093A  04A6               	iorwf	___xxtofl@arg,f
  8838  093B  0821               	movf	??___xxtofl+1,w
  8839  093C  04A7               	iorwf	___xxtofl@arg+1,f
  8840  093D  0822               	movf	??___xxtofl+2,w
  8841  093E  04A8               	iorwf	___xxtofl@arg+2,f
  8842  093F  0823               	movf	??___xxtofl+3,w
  8843  0940  04A9               	iorwf	___xxtofl@arg+3,f
  8844  0941                     i1l3134:
  8845  0941  0824               	movf	___xxtofl@sign,w
  8846  0942  1903               	btfsc	3,2
  8847  0943  2945               	goto	u448_21
  8848  0944  2946               	goto	u448_20
  8849  0945                     u448_21:
  8850  0945  294B               	goto	i1l3140
  8851  0946                     u448_20:
  8852  0946                     i1l3136:
  8853  0946  1FFA               	btfss	___xxtofl@val+3,7
  8854  0947  2949               	goto	u449_21
  8855  0948  294A               	goto	u449_20
  8856  0949                     u449_21:
  8857  0949  294B               	goto	i1l3140
  8858  094A                     u449_20:
  8859  094A                     i1l3138:
  8860  094A  17A9               	bsf	___xxtofl@arg+3,7
  8861  094B                     i1l3140:
  8862  094B  0829               	movf	___xxtofl@arg+3,w
  8863  094C  00FA               	movwf	?___xxtofl+3
  8864  094D  0828               	movf	___xxtofl@arg+2,w
  8865  094E  00F9               	movwf	?___xxtofl+2
  8866  094F  0827               	movf	___xxtofl@arg+1,w
  8867  0950  00F8               	movwf	?___xxtofl+1
  8868  0951  0826               	movf	___xxtofl@arg,w
  8869  0952  00F7               	movwf	?___xxtofl
  8870  0953                     i1l719:
  8871  0953  0008               	return
  8872  0954                     __end_of___xxtofl:
  8873                           
  8874                           	psect	text26
  8875  12ED                     __ptext26:	
  8876 ;; *************** function _ADC_Read *****************
  8877 ;; Defined at:
  8878 ;;		line 11 in file "./adc_thay_hai.h"
  8879 ;; Parameters:    Size  Location     Type
  8880 ;;  Channel         1    wreg     unsigned char 
  8881 ;; Auto vars:     Size  Location     Type
  8882 ;;  Channel         1    6[COMMON] unsigned char 
  8883 ;;  value           2    4[COMMON] unsigned int 
  8884 ;; Return value:  Size  Location     Type
  8885 ;;                  2    0[COMMON] unsigned int 
  8886 ;; Registers used:
  8887 ;;		wreg, fsr0l, fsr0h, status,2, status,0
  8888 ;; Tracked objects:
  8889 ;;		On entry : 0/0
  8890 ;;		On exit  : 0/0
  8891 ;;		Unchanged: 0/0
  8892 ;; Data sizes:     COMMON   BANK0   BANK1   BANK3   BANK2
  8893 ;;      Params:         2       0       0       0       0
  8894 ;;      Locals:         3       0       0       0       0
  8895 ;;      Temps:          2       0       0       0       0
  8896 ;;      Totals:         7       0       0       0       0
  8897 ;;Total ram usage:        7 bytes
  8898 ;; Hardware stack levels used:    1
  8899 ;; This function calls:
  8900 ;;		Nothing
  8901 ;; This function is called by:
  8902 ;;		_ISR
  8903 ;; This function uses a non-reentrant model
  8904 ;;
  8905                           
  8906                           
  8907                           ;psect for function _ADC_Read
  8908  12ED                     _ADC_Read:
  8909                           
  8910                           ;incstack = 0
  8911                           ; Regs used in _ADC_Read: [wreg-fsr0h+status,2+status,0]
  8912                           ;ADC_Read@Channel stored from wreg
  8913  12ED  00F6               	movwf	ADC_Read@Channel
  8914  12EE                     i1l2572:
  8915                           
  8916                           ;./adc_thay_hai.h: 11: unsigned int ADC_Read(unsigned char Channel);./adc_thay_hai.h: 12
      +                          : {;./adc_thay_hai.h: 13:     unsigned int value;;./adc_thay_hai.h: 14:     switch(Chann
      +                          el)
  8917  12EE  2AFB               	goto	i1l2574
  8918  12EF                     i1l67:	
  8919                           ;./adc_thay_hai.h: 15:  {;./adc_thay_hai.h: 16:  case 0: CHS0 = 0; CHS1 = 0; CHS2 = 0; b
      +                          reak;
  8920                           
  8921  12EF  1283               	bcf	3,5	;RP0=0, select bank0
  8922  12F0  1303               	bcf	3,6	;RP1=0, select bank0
  8923  12F1  119F               	bcf	31,3	;volatile
  8924  12F2  121F               	bcf	31,4	;volatile
  8925  12F3  129F               	bcf	31,5	;volatile
  8926  12F4  2B0B               	goto	i1l68
  8927  12F5                     i1l69:	
  8928                           ;./adc_thay_hai.h: 17:     case 1: CHS0 = 1; CHS1 = 0; CHS2 = 0;
  8929                           
  8930  12F5  1283               	bcf	3,5	;RP0=0, select bank0
  8931  12F6  1303               	bcf	3,6	;RP1=0, select bank0
  8932  12F7  159F               	bsf	31,3	;volatile
  8933  12F8  121F               	bcf	31,4	;volatile
  8934  12F9  129F               	bcf	31,5	;volatile
  8935                           
  8936                           ;./adc_thay_hai.h: 18:     }
  8937  12FA  2B0B               	goto	i1l68
  8938  12FB                     i1l2574:
  8939  12FB  0876               	movf	ADC_Read@Channel,w
  8940  12FC  00F2               	movwf	??_ADC_Read
  8941  12FD  01F3               	clrf	??_ADC_Read+1
  8942                           
  8943                           ; Switch on 2 bytes has been partitioned into a top level switch of size 1, and 1 sub-sw
      +                          itches
  8944                           ; Switch size 1, requested type "simple"
  8945                           ; Number of cases is 1, Range of values is 0 to 0
  8946                           ; switch strategies available:
  8947                           ; Name         Instructions Cycles
  8948                           ; simple_byte            4     3 (average)
  8949                           ; direct_byte           11     8 (fixed)
  8950                           ; jumptable            260     6 (fixed)
  8951                           ;	Chosen strategy is simple_byte
  8952  12FE  0873               	movf	??_ADC_Read+1,w
  8953  12FF  3A00               	xorlw	0	; case 0
  8954  1300  1903               	skipnz
  8955  1301  2B03               	goto	i1l4476
  8956  1302  2B0B               	goto	i1l68
  8957  1303                     i1l4476:
  8958                           
  8959                           ; Switch size 1, requested type "simple"
  8960                           ; Number of cases is 2, Range of values is 0 to 1
  8961                           ; switch strategies available:
  8962                           ; Name         Instructions Cycles
  8963                           ; simple_byte            7     4 (average)
  8964                           ; direct_byte           14     8 (fixed)
  8965                           ; jumptable            260     6 (fixed)
  8966                           ;	Chosen strategy is simple_byte
  8967  1303  0872               	movf	??_ADC_Read,w
  8968  1304  3A00               	xorlw	0	; case 0
  8969  1305  1903               	skipnz
  8970  1306  2AEF               	goto	i1l67
  8971  1307  3A01               	xorlw	1	; case 1
  8972  1308  1903               	skipnz
  8973  1309  2AF5               	goto	i1l69
  8974  130A  2B0B               	goto	i1l68
  8975  130B                     i1l68:
  8976                           
  8977                           ;./adc_thay_hai.h: 19:     ADON=1;
  8978  130B  1283               	bcf	3,5	;RP0=0, select bank0
  8979  130C  1303               	bcf	3,6	;RP1=0, select bank0
  8980  130D  141F               	bsf	31,0	;volatile
  8981  130E                     i1l2576:
  8982                           
  8983                           ;./adc_thay_hai.h: 20:     _delay((unsigned long)((5)*(16000000/4000000.0)));
  8984  130E  3006               	movlw	6
  8985  130F  00F2               	movwf	??_ADC_Read
  8986  1310                     u682_27:
  8987  1310  0BF2               	decfsz	??_ADC_Read,f
  8988  1311  2B10               	goto	u682_27
  8989  1312  0000               	nop
  8990  1313                     i1l2578:
  8991                           
  8992                           ;./adc_thay_hai.h: 21:     GO_DONE=1;
  8993  1313  1283               	bcf	3,5	;RP0=0, select bank0
  8994  1314  1303               	bcf	3,6	;RP1=0, select bank0
  8995  1315  151F               	bsf	31,2	;volatile
  8996  1316                     i1l70:	
  8997                           ;./adc_thay_hai.h: 22:     while(GO_DONE);
  8998                           
  8999  1316  191F               	btfsc	31,2	;volatile
  9000  1317  2B19               	goto	u345_21
  9001  1318  2B1A               	goto	u345_20
  9002  1319                     u345_21:
  9003  1319  2B16               	goto	i1l70
  9004  131A                     u345_20:
  9005  131A                     i1l2580:
  9006                           
  9007                           ;./adc_thay_hai.h: 23:     value=(unsigned int)ADRESH*256+ADRESL;
  9008  131A  081E               	movf	30,w	;volatile
  9009  131B  00F5               	movwf	ADC_Read@value+1
  9010  131C  1683               	bsf	3,5	;RP0=1, select bank1
  9011  131D  1303               	bcf	3,6	;RP1=0, select bank1
  9012  131E  081E               	movf	30,w	;volatile
  9013  131F  00F4               	movwf	ADC_Read@value
  9014  1320                     i1l2582:
  9015                           
  9016                           ;./adc_thay_hai.h: 24:     ADON=0;
  9017  1320  1283               	bcf	3,5	;RP0=0, select bank0
  9018  1321  1303               	bcf	3,6	;RP1=0, select bank0
  9019  1322  101F               	bcf	31,0	;volatile
  9020                           
  9021                           ;./adc_thay_hai.h: 26:     return value;
  9022  1323  0875               	movf	ADC_Read@value+1,w
  9023  1324  00F1               	movwf	?_ADC_Read+1
  9024  1325  0874               	movf	ADC_Read@value,w
  9025  1326  00F0               	movwf	?_ADC_Read
  9026  1327                     i1l73:
  9027  1327  0008               	return
  9028  1328                     __end_of_ADC_Read:
  9029  007E                     btemp	set	126	;btemp
  9030  007E                     wtemp0	set	126
  9031                           
  9032                           	psect	config
  9033                           
  9034                           ;Config register CONFIG @ 0x2007
  9035                           ;	Oscillator Selection bits
  9036                           ;	FOSC = HS, HS oscillator
  9037                           ;	Watchdog Timer Enable bit
  9038                           ;	WDTE = OFF, WDT disabled
  9039                           ;	Power-up Timer Enable bit
  9040                           ;	PWRTE = ON, PWRT enabled
  9041                           ;	Brown-out Reset Enable bit
  9042                           ;	BOREN = ON, BOR enabled
  9043                           ;	Low-Voltage (Single-Supply) In-Circuit Serial Programming Enable bit
  9044                           ;	LVP = ON, RB3/PGM pin has PGM function; low-voltage programming enabled
  9045                           ;	Data EEPROM Memory Code Protection bit
  9046                           ;	CPD = OFF, Data EEPROM code protection off
  9047                           ;	Flash Program Memory Write Enable bits
  9048                           ;	WRT = OFF, Write protection off; all program memory may be written to by EECON control
  9049                           ;	In-Circuit Debugger Mode bit
  9050                           ;	DEBUG = 0x1, unprogrammed default
  9051                           ;	Flash Program Memory Code Protection bit
  9052                           ;	CP = OFF, Code protection off
  9053  2007                     	org	8199
  9054  2007  3FF2               	dw	16370

Data Sizes:
    Strings     27
    Constant    0
    Data        64
    BSS         45
    Persistent  0
    Stack       0

Auto Spaces:
    Space          Size  Autos    Used
    COMMON           14     14      14
    BANK0            80     30      51
    BANK1            80     75      79
    BANK3            96      7      91
    BANK2            96     14      14

Pointer List with Targets:

    LCDWriteString@msg	PTR const unsigned char  size(1) Largest target is 17
		 -> STR_2(CODE[10]), STR_1(CODE[17]), 


Critical Paths under _main in COMMON

    None.

Critical Paths under _ISR in COMMON

    _ISR->i1___flmul
    i1___flmul->i1__Umul8_16
    ___xxtofl->_ADC_Read

Critical Paths under _main in BANK0

    _main->___lwmod
    _Send_data->___almod
    _Send_data->___lwmod
    ___lwdiv->___lwmod
    _LCDInit->_LCDBusyLoop
    _LCDByte->_LCDBusyLoop

Critical Paths under _ISR in BANK0

    _ISR->i1___flmul

Critical Paths under _main in BANK1

    _main->___fltol
    ___fltol->___flsub
    ___flsub->___fldiv
    ___flmul->__Umul8_16
    ___fldiv->___flmul
    _Send_data->___lwdiv
    ___lwdiv->___lwmod
    _LCDWriteString->_LCDByte
    _LCDWriteInt->_LCDByte
    _LCDInit->_LCDByte
    _LCDGotoXY->_LCDByte
    _LCDByte->_LCDBusyLoop

Critical Paths under _ISR in BANK1

    None.

Critical Paths under _main in BANK3

    _main->___fltol

Critical Paths under _ISR in BANK3

    None.

Critical Paths under _main in BANK2

    None.

Critical Paths under _ISR in BANK2

    None.

Call Graph Tables:

 ---------------------------------------------------------------------------------
 (Depth) Function   	        Calls       Base Space   Used Autos Params    Refs
 ---------------------------------------------------------------------------------
 (0) _main                                                17    17      0   28469
                                              4 BANK3      3     3      0
                                              0 BANK2     14    14      0
                           _ADC_Init
                          _Init_uart
                            _LCDByte
                          _LCDGotoXY
                            _LCDInit
                        _LCDWriteInt
                     _LCDWriteString
                          _Send_data
                        _TIMER1_Init
                            ___fldiv
                            ___flmul
                            ___flsub
                            ___fltol
                            ___lwdiv
                            ___lwmod
 ---------------------------------------------------------------------------------
 (1) ___fltol                                             10     6      4     517
                                             69 BANK1      6     2      4
                                              0 BANK3      4     4      0
                            ___fldiv (ARG)
                            ___flmul (ARG)
                            ___flsub (ARG)
 ---------------------------------------------------------------------------------
 (1) ___flsub                                              8     0      8    3367
                                             61 BANK1      8     0      8
                            ___fladd
                            ___fldiv (ARG)
 ---------------------------------------------------------------------------------
 (2) ___fladd                                             20    12      8    3122
                                              0 BANK1     20    12      8
 ---------------------------------------------------------------------------------
 (1) ___flmul                                             26    18      8    3463
                                              9 BANK1     26    18      8
                          __Umul8_16
 ---------------------------------------------------------------------------------
 (2) __Umul8_16                                            9     7      2     980
                                              0 BANK1      9     7      2
 ---------------------------------------------------------------------------------
 (1) ___fldiv                                             26    18      8    2223
                                             35 BANK1     26    18      8
                            ___fladd (ARG)
                            ___flmul (ARG)
 ---------------------------------------------------------------------------------
 (1) _TIMER1_Init                                          0     0      0       0
 ---------------------------------------------------------------------------------
 (1) _Send_data                                            7     5      2    3732
                                             11 BANK1      7     5      2
                            ___almod
                            ___lwdiv
                            ___lwmod
 ---------------------------------------------------------------------------------
 (1) ___lwmod                                              5     1      4    1312
                                             29 BANK0      1     1      0
                                              0 BANK1      4     0      4
 ---------------------------------------------------------------------------------
 (1) ___lwdiv                                              7     3      4    1321
                                              4 BANK1      7     3      4
                            ___lwmod (ARG)
 ---------------------------------------------------------------------------------
 (2) ___almod                                             11     3      8     613
                                             29 BANK0      1     1      0
                                              0 BANK1     10     2      8
 ---------------------------------------------------------------------------------
 (1) _LCDWriteString                                       2     2      0    2174
                                              9 BANK1      2     2      0
                            _LCDByte
 ---------------------------------------------------------------------------------
 (1) _LCDWriteInt                                         20    17      3    3801
                                              9 BANK1     20    17      3
                            _LCDByte
                            ___awdiv
                            ___awmod
 ---------------------------------------------------------------------------------
 (2) ___awmod                                              6     2      4     613
                                              0 BANK1      6     2      4
 ---------------------------------------------------------------------------------
 (2) ___awdiv                                              8     4      4     625
                                              0 BANK1      8     4      4
 ---------------------------------------------------------------------------------
 (1) _LCDInit                                              4     4      0    2151
                                              9 BANK1      4     4      0
                        _LCDBusyLoop
                            _LCDByte
 ---------------------------------------------------------------------------------
 (1) _LCDGotoXY                                            4     3      1    2220
                                              9 BANK1      4     3      1
                            _LCDByte
 ---------------------------------------------------------------------------------
 (2) _LCDByte                                              6     5      1    1845
                                              3 BANK1      6     5      1
                        _LCDBusyLoop
 ---------------------------------------------------------------------------------
 (3) _LCDBusyLoop                                          4     4      0     176
                                             29 BANK0      1     1      0
                                              0 BANK1      3     3      0
 ---------------------------------------------------------------------------------
 (1) _Init_uart                                            0     0      0       0
 ---------------------------------------------------------------------------------
 (1) _ADC_Init                                             0     0      0       0
 ---------------------------------------------------------------------------------
 Estimated maximum stack depth 3
 ---------------------------------------------------------------------------------
 (Depth) Function   	        Calls       Base Space   Used Autos Params    Refs
 ---------------------------------------------------------------------------------
 (4) _ISR                                                  8     8      0    2310
                                             21 BANK0      8     8      0
                           _ADC_Read
                           ___xxtofl
                          i1___flmul
 ---------------------------------------------------------------------------------
 (5) i1___flmul                                           26    18      8    1867
                                              9 COMMON     5     5      0
                                              0 BANK0     21    13      8
                        i1__Umul8_16
 ---------------------------------------------------------------------------------
 (6) i1__Umul8_16                                          9     7      2     349
                                              0 COMMON     9     7      2
 ---------------------------------------------------------------------------------
 (5) ___xxtofl                                            14    10      4     398
                                              7 COMMON     4     0      4
                                              0 BANK0     10    10      0
                           _ADC_Read (ARG)
 ---------------------------------------------------------------------------------
 (5) _ADC_Read                                             7     5      2      45
                                              0 COMMON     7     5      2
 ---------------------------------------------------------------------------------
 Estimated maximum stack depth 6
 ---------------------------------------------------------------------------------

 Call Graph Graphs:

 _main (ROOT)
   _ADC_Init
   _Init_uart
   _LCDByte
     _LCDBusyLoop
   _LCDGotoXY
     _LCDByte
       _LCDBusyLoop
   _LCDInit
     _LCDBusyLoop
     _LCDByte
       _LCDBusyLoop
   _LCDWriteInt
     _LCDByte
       _LCDBusyLoop
     ___awdiv
     ___awmod
   _LCDWriteString
     _LCDByte
       _LCDBusyLoop
   _Send_data
     ___almod
     ___lwdiv
       ___lwmod (ARG)
     ___lwmod
   _TIMER1_Init
   ___fldiv
     ___fladd (ARG)
     ___flmul (ARG)
       __Umul8_16
   ___flmul
     __Umul8_16
   ___flsub
     ___fladd
     ___fldiv (ARG)
       ___fladd (ARG)
       ___flmul (ARG)
         __Umul8_16
   ___fltol
     ___fldiv (ARG)
       ___fladd (ARG)
       ___flmul (ARG)
         __Umul8_16
     ___flmul (ARG)
       __Umul8_16
     ___flsub (ARG)
       ___fladd
       ___fldiv (ARG)
         ___fladd (ARG)
         ___flmul (ARG)
           __Umul8_16
   ___lwdiv
     ___lwmod (ARG)
   ___lwmod

 _ISR (ROOT)
   _ADC_Read
   ___xxtofl
     _ADC_Read (ARG)
   i1___flmul
     i1__Umul8_16

 Address spaces:
Name               Size   Autos  Total    Cost      Usage
BANK3               60      7      5B       9       94.8%
BITBANK3            60      0       0       8        0.0%
SFR3                 0      0       0       4        0.0%
BITSFR3              0      0       0       4        0.0%
BANK2               60      E       E      11       14.6%
BITBANK2            60      0       0      10        0.0%
SFR2                 0      0       0       5        0.0%
BITSFR2              0      0       0       5        0.0%
BANK1               50     4B      4F       7       98.8%
BITBANK1            50      0       0       6        0.0%
SFR1                 0      0       0       2        0.0%
BITSFR1              0      0       0       2        0.0%
BANK0               50     1E      33       5       63.7%
BITBANK0            50      0       0       4        0.0%
SFR0                 0      0       0       1        0.0%
BITSFR0              0      0       0       1        0.0%
COMMON               E      E       E       1      100.0%
BITCOMMON            E      0       0       0        0.0%
CODE                 0      0       0       0        0.0%
DATA                 0      0      F9      12        0.0%
ABS                  0      0      F9       3        0.0%
NULL                 0      0       0       0        0.0%
STACK                0      0       0       2        0.0%
EEDATA             100      0       0       0        0.0%


Microchip Technology PIC Macro Assembler V2.20 build 20200408173844 
Symbol Table                                                                                   Wed Dec 01 21:02:17 2021

            ?_LCDBusyLoop 0070              ___fldiv@aexp 00DC              ___fldiv@bexp 00DB  
                       pc 0002              ___fldiv@sign 00D4                        l63 120D  
                      l88 1243              ___awdiv@sign 00A5               i1___flmul@a 0024  
             i1___flmul@b 0020                        fsr 0004       __Umul8_16@word_mpld 00A6  
                     l130 1413                       l131 1416                       l132 1448  
                     l126 14F9                       l127 1502                       l160 17D5  
                     l137 156B                       l170 12E4                       l171 12C2  
                     l163 17FF                       l147 1641                       l190 121B  
                     l167 12EC                       l450 14A3                       l362 16DB  
                     l602 0F71                       l195 07E7                       l372 1755  
                     l620 0FFF                       l437 15D4                       l198 07F7  
                     l470 0897                       l623 1267                       l608 0F93  
                     l480 0897                       l633 09B0                       l635 0B30  
                     l619 0FF3                       l556 13AD                       l581 0E82  
                     l477 0882                       l566 13F5                       l590 0FFF  
                     l583 0E59                       l657 0B24                       l649 0AA2  
                     l673 039E                       l577 0DDB                       l692 12A5  
                     l685 0392                       l694 12B7                       l598 0F4D  
                     l679 030A                       _GIE 005F                       _RD4 0044  
                     _RD5 0045                       _RD6 0046                       _ISR 1642  
                     fsr0 0004                       indf 0000              ___awmod@sign 00A5  
            ___flmul@aexp 00B7              ___flmul@bexp 00BC              ___flmul@sign 00B6  
            ___flmul@temp 00C1              ___flmul@prod 00BD   LCDWriteInt@field_length 00AB  
         __end_of_LCDByte 1449           __end_of_LCDInit 156C              ?_LCDWriteInt 00A9  
                    ?_ISR 0070               LCDByte@temp 00A8              ___fltol@exp1 00EA  
                    l4000 07ED                      l4010 1767                      l4002 07F1  
                    l4020 17A5                      l4012 176B                      l4004 1756  
                    l4100 0970                      l4030 17BD                      l4014 1773  
                    l4022 17AB                      l4006 175F                      l4110 0988  
                    l4102 0978                      l4040 17F6                      l4032 17C7  
                    l4024 17B1                      l4016 177B                      l4008 1765  
                    l4200 0AAC                      l4120 099D                      l4112 098E  
                    l4104 0979                      l3410 14A4                      l4034 17D9  
                    l4018 1792                      l4210 0AEA                      l4202 0ABA  
                    l4130 09C4                      l4122 09A5                      l4114 0992  
                    l4106 097B                      l4050 081A                      l3420 14AF  
                    l3412 14A4                      l4028 17B7                      l3500 1704  
                    l4220 0B14                      l4212 0AF8                      l4204 0ABE  
                    l4132 09C8                      l4124 09A6                      l4116 0993  
                    l4108 0983                      l4300 01C8                      l4060 084E  
                    l4052 083F                      l4044 0804                      l3430 14CD  
                    l3422 14B2                      l3414 14AA                      l4038 17E7  
                    l3510 1737                      l3502 170A                      l4222 0B1A  
                    l4214 0B07                      l4206 0AD7                      l4150 0A09  
                    l4142 09DF                      l4118 0998                      l4126 09A8  
                    l4310 0268                      l4302 01E1                      l4070 0868  
                    l4054 0840                      l4046 0811                      l3440 14DE  
                    l3432 14D0                      l3424 14B3                      l3416 14AD  
                    l3520 156C                      l3504 170E                      l3512 173D  
                    l4224 0B1E                      l4216 0B0B                      l4208 0ADD  
                    l4160 0A27                      l4152 0A0B                      l4144 09F1  
                    l4128 09B8                      l4136 09D1                      l4320 02D6  
                    l4312 028E                      l4304 01FE                      l4240 0050  
                    l4232 003E                      l4080 088C                      l4056 0848  
                    l4400 0B8A                      l3450 14F0                      l3442 14E2  
                    l3434 14D2                      l3426 14BB                      l3418 14AE  
                    l3530 157E                      l3522 156F                      l3514 1742  
                    l3506 1720                      l3610 137C                      l3602 1368  
                    l4226 0B20                      l4218 0B13                      l4154 0A10  
                    l4162 0A30                      l4170 0A55                      l4146 09F9  
                    l4138 09D6                      l4090 095B                      l4330 02EE  
                    l4322 02DA                      l4314 02B6                      l4306 022B  
                    l4250 006C                      l4242 0055                      l4234 0045  
                    l4082 1244                      l4066 0856                      l4058 084A  
                    l4410 0C20                      l4402 0B8B                      l3452 14F2  
                    l3444 14E7                      l3436 14D5                      l3428 14CC  
                    l3460 140A                      l3540 1592                      l3532 1583  
                    l3524 1573                      l3516 174D                      l3508 172E  
                    l3620 139C                      l3612 1380                      l3604 136C  
                    l4180 0A72                      l4172 0A5B                      l4164 0A42  
                    l4156 0A22                      l4148 0A01                      l4092 0961  
                    l4340 030F                      l4332 02EF                      l4324 02DB  
                    l4316 02BF                      l4308 023B                      l4260 0081  
                    l4252 0071                      l4244 005A                      l4236 004B  
                    l3700 0DED                      l4084 1248                      l4076 086F  
                    l4068 085F                      l4420 0C53                      l4412 0C29  
                    l4404 0BB4                      l3454 14FC                      l3446 14EC  
                    l3438 14D6                      l3470 1428                      l3462 140F  
                    l3550 15B8                      l3542 1599                      l3534 1587  
                    l3526 1578                      l3622 13A3                      l3614 1384  
                    l3606 1372                      l3630 13B6                      l4190 0A87  
                    l4182 0A73                      l4174 0A63                      l4166 0A43  
                    l4158 0A26                      l4094 0965                      l4342 0314  
                    l4350 0345                      l4334 02F3                      l4326 02E4  
                    l4318 02CD                      l4270 009D                      l4262 0086  
                    l4254 0077                      l4246 0062                      l4238 004F  
                    l3710 0E01                      l3702 0DF1                      l4078 0887  
                    l4430 0D5B                      l4422 0C60                      l4414 0C2F  
                    l4406 0BD3                      l3448 14ED                      l3480 143E  
                    l3472 142B                      l3464 141A                      l3456 13F9  
                    l3560 15D0                      l3552 15B9                      l3544 159D  
                    l3536 1589                      l3528 157A                      l3616 1395  
                    l3608 1375                      l3624 13A9                      l3640 13DA  
                    l3632 13BB                      l4192 0A8B                      l4184 0A7C  
                    l4176 0A65                      l4168 0A51                      l4096 0966  
                    l4088 0954                      l4360 0378                      l4352 0352  
                    l4344 0322                      l4336 0307                      l4328 02EA  
                    l4280 00C8                      l4272 00A2                      l4264 008E  
                    l4256 007B                      l4248 0064                      l3800 0F70  
                    l3720 0E15                      l3712 0E05                      l3704 0DF5  
                    l4432 0D65                      l4424 0CB4                      l4416 0C3C  
                    l4408 0C01                      l3482 1441                      l3474 142D  
                    l3466 1422                      l3458 1405                      l3554 15C0  
                    l3546 15A1                      l3538 158F                      l3570 1455  
                    l3490 16CE                      l3618 139B                      l3642 13E0  
                    l3634 13C2                      l4194 0A9F                      l4178 0A6E  
                    l4186 0A82                      l4098 096B                      l4370 0396  
                    l4362 037E                      l4354 035D                      l4346 0326  
                    l4290 0165                      l4282 00E5                      l4266 0090  
                    l4258 007C                      l3802 0F75                      l3810 0F81  
                    l3730 0E26                      l3722 0E19                      l3714 0E09  
                    l3706 0DF9                      l3650 0D78                      l4426 0D0A  
                    l4418 0C46                      l3484 1443                      l3476 1430  
                    l3468 1426                      l3900 152A                      l3548 15B2  
                    l3556 15C6                      l3580 1469                      l3572 1457  
                    l3564 1449                      l3492 16DF                      l3644 13E7  
                    l3636 13C8                      l3628 13AE                      l4188 0A86  
                    l4364 0386                      l4356 036C                      l4348 033F  
                    l4292 016E                      l4284 0101                      l4276 00AB  
                    l4268 0098                      l3804 0F78                      l3812 0F85  
                    l3740 0E66                      l3732 0E3D                      l3724 0E1D  
                    l3716 0E0D                      l3708 0DFD                      l3660 0D8F  
                    l3652 0D7F                      l4428 0D52                      l4380 0B41  
                    l3478 143C                      l3910 1547                      l3902 152D  
                    l3558 15CB                      l3590 1488                      l3582 1470  
                    l3574 145B                      l3566 144C                      l3494 16EA  
                    l3486 16C7                      l3638 13CE                      l3646 13EF  
                    l4198 0AA7                      l4366 038A                      l4358 0376  
                    l4294 017E                      l4286 012D                      l4278 00BB  
                    l3830 0FCD                      l3822 0F98                      l3814 0F86  
                    l3806 0F7A                      l3742 0E68                      l3734 0E4C  
                    l3750 0E7A                      l3726 0E21                      l3718 0E11  
                    l3670 0DA7                      l3662 0D94                      l3654 0D85  
                    l4390 0B60                      l4382 0B46                      l4374 0B31  
                    l3920 155F                      l3912 1550                      l3904 152F  
                    l3592 148F                      l3584 1474                      l3576 1460  
                    l3568 1450                      l3496 16F2                      l3488 16CA  
                    l4368 038B                      l4296 019B                      l4288 0149  
                    l3840 0FE8                      l3824 0F9D                      l3832 0FD1  
                    l3816 0F8A                      l3808 0F7F                      l3760 0EAB  
                    l3752 0E86                      l3744 0E6C                      l3736 0E54  
                    l3728 0E25                      l3680 0DBD                      l3672 0DAC  
                    l3664 0D9C                      l3656 0D89                      l4392 0B6F  
                    l4384 0B4B                      l4376 0B3B                      l4474 12D6  
                    l3930 12C9                      l3922 1565                      l3906 1534  
                    l3586 1478                      l3578 1466                      l3594 1495  
                    l3498 16F5                      l4298 01AB                      l3850 0FFE  
                    l3842 0FE9                      l3834 0FD6                      l3826 0FAB  
                    l3818 0F90                      l3770 0EC2                      l3762 0EAF  
                    l3754 0E8B                      l3746 0E6D                      l3738 0E5D  
                    l3690 0DD1                      l3682 0DBE                      l3674 0DB2  
                    l3666 0D9D                      l3658 0D8A                      l4394 0B78  
                    l4386 0B51                      l4378 0B3E                      l3924 12BB  
                    l3908 153D                      l3596 149A                      l3588 1482  
                    l3860 12AE                      l3852 1292                      l3844 0FED  
                    l3836 0FDB                      l3828 0FAF                      l3780 0F25  
                    l3772 0EC3                      l3764 0EB3                      l3748 0E76  
                    l3684 0DC3                      l3692 0DD3                      l3676 0DB3  
                    l3668 0D9F                      l4396 0B7D                      l4388 0B5A  
                    l3870 120E                      l3934 12CE                      l3918 1553  
                    l3598 149F                      l3950 15F4                      l3942 15D8  
                    l3862 12B3                      l3854 1294                      l3846 0FEF  
                    l3838 0FE3                      l3790 0F55                      l3782 0F29  
                    l3774 0ECC                      l3766 0EBC                      l3758 0E94  
                    l3694 0DE1                      l3686 0DC8                      l3678 0DB9  
                    l4398 0B84                      l3872 121A                      l3936 12E5  
                    l3928 12C4                      l3880 1518                      l3952 15F8  
                    l3960 1621                      l3944 15D9                      l3856 129B  
                    l3848 0FFA                      l3792 0F5A                      l3784 0F2B  
                    l3768 0EBE                      l3776 0ED1                      l3696 0DE5  
                    l3688 0DD0                      l3866 1205                      l3890 1522  
                    l3882 1519                      l3874 1506                      l3962 162F  
                    l3954 15FF                      l3946 15E5                      l3970 071D  
                    l3858 129F                      l3786 0F30                      l3778 0EE7  
                    l3698 0DE9                      l3892 1523                      l3884 151A  
                    l3876 1511                      l3956 1608                      l3948 15E9  
                    l3964 1635                      l3980 077B                      l3972 0723  
                    l3868 122F                      l3796 0F63                      l3788 0F3F  
                    l3894 1524                      l3886 1520                      l3878 1517  
                    l3958 1610                      l3990 07D8                      l3982 0791  
                    l3974 073B                      l3966 0700                      l3798 0F6C  
                    l3896 1527                      l3888 1521                      l3992 07DC  
                    l3984 07A6                      l3976 0750                      l3968 0704  
                    l3898 1528                      l3986 07BC                      l3978 0766  
                    l3988 07D4                      l3998 07DF                      _ADON 00F8  
                    _CHS0 00FB                      _CHS1 00FC                      _CHS2 00FD  
                    STR_1 1006                      STR_2 1017                      u5000 16F2  
                    u5001 16F1                      u5020 170E                      u5021 170D  
                    u5110 15A1                      u5030 1720                      u5111 15A0  
                    u5031 171F                      u5015 16F9                      u6000 17C6  
                    u5105 1593                      u6001 17C5                      u5130 15B2  
                    u5210 1478                      u6010 17E6                      u5050 173D  
                    u5131 15B1                      u5211 1477                      u6011 17E5  
                    u5051 173C                      u5035 171C                      u5220 1482  
                    u5060 1742                      u5300 1395                      u6100 0887  
                    u6020 0811                      u5125 15A2                      u5221 1481  
                    u5205 146A                      u5061 1741                      u5045 172F  
                    u5301 1394                      u6101 0886                      u6021 0810  
                    u5150 15C6                      u5070 1573                      u6110 088C  
                    u6030 0836                      u5151 15C5                      u5135 15AE  
                    u5071 1572                      u6015 17E2                      u6111 088B  
                    u5160 15CB                      u5080 157E                      u5240 1495  
                    u5320 13A9                      u6200 0A10                      u6120 0965  
                    u5400 0D8F                      u6040 084E                      u5161 15CA  
                    u5145 15BA                      u5081 157D                      u5241 1494  
                    u5225 147E                      u5321 13A8                      u5305 1391  
                    u6201 0A0F                      u6121 0964                      u5401 0D8E  
                    u6041 084D                      u5090 158F                      u5250 149A  
                    u5170 1450                      u5330 13B6                      u6130 096B  
                    u5410 0D94                      u6050 0855                      u5091 158E  
                    u5251 1499                      u5235 1489                      u5171 144F  
                    u5315 139D                      u5331 13B5                      u6131 096A  
                    u5411 0D93                      u6051 0854                      u6035 0831  
                    _PEIE 005E                      u5180 145B                      u5260 1372  
                    u6140 0970                      u5500 0E49                      u5420 0DB2  
                    u5181 145A                      u5261 1371                      u6141 096F  
                    u5421 0DB1                      u5190 1466                      u5350 13CE  
                    u6310 0A86                      u6230 0A26                      u6150 0992  
                    u5510 0E5D                      u5430 0DBD                      u6070 0867  
                    u5191 1465                      u5351 13CD                      u6311 0A85  
                    u6231 0A25                      u6215 0A12                      u6151 0991  
                    u5511 0E5C                      u5431 0DBC                      u6071 0866  
                    u5280 1384                      u5360 13DA                      u6400 0B1E  
                    u6320 0A8B                      u6160 0998                      u5600 0EC2  
                    u5520 0E6C                      u5440 0DC3                      u6080 086E  
                    u5281 1383                      u5361 13D9                      u5345 13BC  
                    u6401 0B1D                      u6321 0A8A                      u6305 0A75  
                    u6225 0A1B                      u6161 0997                      u5601 0EC1  
                    u5521 0E6B                      u5441 0DC2                      u6081 086D  
                    u6065 0857                      u6330 0A9F                      u6250 0A42  
                    u6170 099D                      u6410 004F                      u5450 0DC8  
                    u5275 1376                      u6331 0A9E                      u6251 0A41  
                    u6171 099C                      u6411 004E                      u5451 0DC7  
                    _RCIE 0465                      u5380 13EF                      u6340 0AA6  
                    u6260 0A5B                      u6180 09B8                      u6420 0055  
                    u5700 0F75                      u5620 0EE7                      u5540 0E82  
                    u5460 0DE1                      u5381 13EE                      u5365 13D6  
                    u6341 0AA5                      u6261 0A5A                      u6245 0A29  
                    u6181 09B7                      u6501 010F                      u6421 0054  
                    u5701 0F74                      u5621 0EE6                      u5541 0E81  
                    u5461 0DE0                      i1l70 1316                      u6350 0AAC  
                    u6270 0A63                      u6190 09D6                      u6502 0116  
                    u6430 005A                      u5710 0F7F                      u5550 0E86  
                    u5470 0DE5                      u5390 0D89                      u5295 1385  
                    u5375 13E1                      u6351 0AAB                      u6271 0A62  
                    u6255 0A3E                      u6191 09D5                      u6511 013B  
                    u6503 011D                      u6431 0059                      u5711 0F7E  
                    u5631 0EFE                      u5623 0EE3                      u5615 0EC5  
                    u5551 0E85                      u5535 0E6F                      u5471 0DE4  
                    u5391 0D88                      u6095 0873                      u6360 0ABE  
                    u6600 0274                      u6512 0142                      u6440 007B  
                    u5800 0FD6                      u5720 0F85                      u5640 0F12  
                    u5632 0EFF                      u5560 0E8B                      u5480 0E3D  
                    i1l73 1327                      u6361 0ABD                      u6521 0157  
                    u6513 0149                      u6441 007A                      u5801 0FD5  
                    u5721 0F84                      u5641 0F13                      u5633 0F04  
                    u5561 0E8A                      u5481 0E3C                      u6370 0ACD  
                    u6290 0A72                      u6522 015E                      u6450 0081  
                    u5810 0FDB                      u5730 0F8A                      u5650 0F30  
                    u5642 0F18                      u5634 0F05                      u5490 0E48  
                    i1l67 12EF                      u6291 0A71                      u6611 0280  
                    u6523 0165                      u6451 0080                      u5811 0FDA  
                    u5731 0F89                      u5651 0F2F                      u5643 0F19  
                    u5635 0F0A                      u5571 0E9D                      u5491 0E46  
                    i1l68 130B                      u5900 15E5                      u6380 0AEA  
                    u6700 0307                      u6620 029C                      u6612 0287  
                    u6460 0086                      u5820 0FE8                      u5740 0F90  
                    u5660 0F55                      u5636 0F0B                      u5580 0EAF  
                    u5572 0EA4                      i1l69 12F5                      u5901 15E4  
                    u6381 0AE9                      u6285 0A67                      u6701 0306  
                    u6613 028E                      u6605 026F                      u6541 018D  
                    u6461 0085                      u5821 0FE7                      u5741 0F8F  
                    u5661 0F54                      u5581 0EAE                      u5573 0EAB  
                    u5485 0E39                      u4950 14F9                      u5910 15F8  
                    u6390 0B07                      u6710 030E                      u6542 0194  
                    u6470 009D                      u5830 0FED                      u5750 0F97  
                    u5670 0F5A                      u5590 0EB3                      i1l95 16BB  
                    u4951 14F8                      u5911 15F7                      u6391 0B06  
                    u6375 0AC8                      u6711 030D                      u6631 02A8  
                    u6551 01BA                      u6543 019B                      u6535 0167  
                    u6471 009C                      u5831 0FEC                      u5751 0F96  
                    u5671 0F59                      u5591 0EB2                      u5920 15FF  
                    u6720 0314                      u6632 02AF                      u6552 01C1  
                    u6480 00A2                      u5840 0FFE                      u5760 0F9D  
                    u4945 14C0                      u5921 15FE                      u6385 0AE6  
                    u6721 0313                      u6633 02B6                      u6625 0297  
                    u6553 01C8                      u6481 00A1                      u5841 0FFD  
                    u5761 0F9C                      u4970 140F                      u5930 1641  
                    u5850 129F                      u6730 0326                      u5770 0FAF  
                    u5690 0F70                      u4971 140E                      u5931 1640  
                    u6395 0B03                      u5851 129E                      u6731 0325  
                    u6571 01F0                      u6491 00F3                      u5771 0FAE  
                    u5691 0F6F                      u4980 16CE                      u5940 07ED  
                    u6740 0335                      u6660 02DA                      u6572 01F7  
                    u6492 00FA                      u5780 0FBE                      u4965 13FC  
                    u4981 16CD                      u5941 07EC                      u6661 02D9  
                    u6645 02B8                      u6581 021D                      u6573 01FE  
                    u6565 01CA                      u6493 0101                      u5685 0F65  
                    u4990 16DF                      u5950 07F7                      u5870 12B3  
                    u6750 0352                      u6582 0224                      u5790 0FCD  
                    u4991 16DE                      u5951 07F6                      u5871 12B2  
                    u6751 0351                      u6655 02CF                      u6591 024A  
                    u6583 022B                      u5791 0FCC                      u6807 0B68  
                    u5880 156B                      u5960 175A                      u6760 036C  
                    u6680 02EE                      u6592 0251                      u5881 156A  
                    u6817 150C                      u5865 12A6                      u6761 036B  
                    u6745 0330                      u6681 02ED                      u6593 0258  
                    u5785 0FB9                      u5890 12C1                      u5970 176B  
                    u6770 038A                      u6690 02F3                      u5891 12C0  
                    u5971 176A                      u6771 0389                      u6755 034E  
                    u6691 02F2                      u6675 02DD                      u5980 17B1  
                    u6780 0B84                      u5981 17B0                      u6765 0368  
                    u6781 0B83                      u5990 17B6                      u6790 0B8A  
                    u5991 17B5                      u6791 0B89                      _TMR1 000E  
                    _TRMT 04C1                      _main 0B31        __size_of_LCDGotoXY 0035  
           i1___flmul@grs 0029                      btemp 007E          __end_of_ADC_Init 120E  
        __end_of_ADC_Read 1328                      start 0012           ___fldiv@new_exp 00D5  
                   ??_ISR 0035             ___fltol@sign1 00E9           __end_of___almod 1756  
         __end_of___fladd 1000                     ?_main 0070           __end_of___fldiv 0B31  
         __end_of___awdiv 15D5           __end_of___awmod 14A4           __end_of___flmul 039F  
         __end_of___flsub 1268           __end_of___fltol 0898              LCDInit@style 00AB  
         ___awdiv@divisor 00A0           __end_of___lwdiv 13AE           __end_of___lwmod 13F6  
                   i1l730 091D                     i1l731 0929                     i1l717 08BC  
                   i1l719 0953                     i1l673 06FF                     i1l692 127C  
                   i1l685 06F3                     i1l694 128E                     i1l679 066B  
         ___awdiv@counter 00A4                     _RCSTA 0018                     _SPBRG 0099  
                   _PORTD 0008                     _TRISD 0088                     _TXREG 0019  
                   _TXSTA 0098                     _count 004E            i1___flmul@aexp 002D  
          i1___flmul@bexp 002E            i1___flmul@sign 0028            i1___flmul@temp 0033  
          i1___flmul@prod 002F                     pclath 000A                     status 0003  
                   wtemp0 007E        __size_ofi1___flmul 0361           __initialization 0015  
            __end_of_main 0D78                Send_data@i 00AF                Send_data@k 00AD  
           Send_data@temp 00B0                    ??_main 01E8              ?_TIMER1_Init 0070  
       __end_of_LCDGotoXY 12ED             LCDByte@isdata 00A3                 ??_LCDByte 00A4  
               ??_LCDInit 00A9                    _ADCON0 001F                    _ADCON1 009F  
                  _ADRESH 001E                    _ADRESL 009E          ___awdiv@dividend 00A2  
         ADC_Read@Channel 0076                    i1l3100 08A4                    i1l3110 08D2  
                  i1l3102 08B4                    i1l3120 08F8                    i1l3112 08D6  
                  i1l3104 08C4                    i1l3200 04AA                    i1l3130 0921  
                  i1l3122 0901                    i1l3114 08DF                    i1l3210 050C  
                  i1l3202 04C6                    i1l3140 094B                    i1l3132 092B  
                  i1l3124 0908                    i1l3116 08E6                    i1l3108 08CD  
                  i1l3220 059C                    i1l3212 0529                    i1l3204 04CF  
                  i1l3300 1685                    i1l3134 0941                    i1l3126 0913  
                  i1l3118 08EA                    i1l3230 062E                    i1l3222 05C9  
                  i1l3214 0542                    i1l3206 04DF                    i1l3150 03B0  
                  i1l3302 16A4                    i1l3136 0946                    i1l3128 0917  
                  i1l3232 0637                    i1l3240 064B                    i1l3224 05EF  
                  i1l3216 055F                    i1l3208 04FC                    i1l3160 03C5  
                  i1l3152 03B1                    i1l3144 039F                    i1l3304 16A8  
                  i1l3138 094A                    i1l3242 064F                    i1l3234 063B  
                  i1l3226 0617                    i1l3218 058C                    i1l3170 03DD  
                  i1l3162 03CD                    i1l3154 03B6                    i1l3146 03A6  
                  i1l3306 16B6                    i1l3260 06A0                    i1l3252 0670  
                  i1l3244 0650                    i1l3236 063C                    i1l3228 0620  
                  i1l3180 03F9                    i1l3172 03E2                    i1l3164 03D2  
                  i1l3156 03BB                    i1l3148 03AC                    i1l3308 16BA  
                  i1l3270 06D7                    i1l3254 0675                    i1l3262 06A6  
                  i1l3246 0654                    i1l3238 0645                    i1l3190 041C  
                  i1l3182 03FE                    i1l3174 03E7                    i1l3166 03D8  
                  i1l3158 03C3                    i1l3096 089B                    i1l2560 1272  
                  i1l3280 06EC                    i1l3272 06D9                    i1l3264 06B3  
                  i1l3256 0683                    i1l3248 0668                    i1l3192 0429  
                  i1l3184 0403                    i1l3176 03EF                    i1l3168 03DC  
                  i1l3098 08A0                    i1l2562 1276                    i1l3282 06F7  
                  i1l3274 06DF                    i1l3266 06BE                    i1l3258 0687  
                  i1l3194 0446                    i1l3178 03F1                    i1l3290 164E  
                  i1l2580 131A                    i1l2572 12EE                    i1l2564 1285  
                  i1l2556 1269                    i1l3276 06E7                    i1l3268 06CD  
                  i1l3196 0462                    i1l3188 040C                    i1l3292 1652  
                  i1l2582 1320                    i1l2574 12FB                    i1l2566 128A  
                  i1l2558 126B                    i1l3278 06EB                    i1l3198 048E  
                  i1l3294 1658                    i1l3286 1642                    i1l2576 130E  
                  i1l3296 1659                    i1l3288 1648                    i1l2578 1313  
                  i1l3298 165F                    _T1SYNC 0082                    i1l4476 1303  
                  u342_20 1276                    u342_21 1275                    u343_25 127D  
                  u440_20 08E5                    u344_20 128A                    u440_21 08E4  
                  u344_21 1289                    u345_20 131A                    u345_21 1319  
                  u441_25 08F9                    u442_20 0907                    u450_20 03B0  
                  u442_21 0906                    u450_21 03AF                    u451_20 03B6  
                  u451_21 03B5                    u443_25 090C                    u444_20 0917  
                  u436_20 08A0                    u452_20 03BB                    u444_21 0916  
                  u436_21 089F                    u460_21 049C                    u452_21 03BA  
                  u460_22 04A3                    u460_23 04AA                    u445_20 091D  
                  u437_20 08A4                    u453_20 03DC                    u445_21 091C  
                  u437_21 08A3                    u461_21 04B8                    u453_21 03DB  
                  u461_22 04BF                    u461_23 04C6                    u446_20 0921  
                  u438_20 08C4                    u454_20 03E2                    u446_21 0920  
                  u438_21 08C3                    u470_21 05E1                    u454_21 03E1  
                  u470_22 05E8                    u470_23 05EF                    u462_25 04C8  
                  u447_20 0936                    u471_20 05FD                    u455_20 03E7  
                  u463_21 04EE                    u455_21 03E6                    u463_22 04F5  
                  u463_23 04FC                    u447_25 0931                    u439_25 08D7  
                  u471_25 05F8                    u448_20 0946                    u480_20 066F  
                  u456_20 03FE                    u448_21 0945                    u480_21 066E  
                  u472_21 0609                    u464_21 051B                    u456_21 03FD  
                  u472_22 0610                    u464_22 0522                    u472_23 0617  
                  u464_23 0529                    u449_20 094A                    u481_20 0675  
                  u457_20 0403                    u449_21 0949                    u481_21 0674  
                  u457_21 0402                    u473_25 0619                    u465_25 052B  
                  u482_20 0687                    u490_20 16B3                    u482_21 0686  
                  u466_21 0551                    u458_21 0454                    u490_21 16AF  
                  u466_22 0558                    u458_22 045B                    u466_23 055F  
                  u458_23 0462                    u474_25 0630                    u483_20 0696  
                  u475_20 063B                    u475_21 063A                    u467_21 057E  
                  u459_21 0470                    u467_22 0585                    u459_22 0477  
                  u467_23 058C                    u459_23 047E                    u491_24 16B6  
                  u483_25 0691                    u484_20 06B3                    u484_21 06B2  
                  u468_21 05AB                    u468_22 05B2                    u468_23 05B9  
                  u484_25 06AF                    u476_25 063E                    u485_20 06CD  
                  u477_20 064F                    u469_20 05D5                    u485_21 06CC  
                  u477_21 064E                    u485_25 06C9                    u469_25 05D0  
                  u486_20 06EB                    u478_20 0654                    u486_21 06EA  
                  u478_21 0653                    u479_20 0668                    u487_20 1648  
                  u479_21 0667                    u487_21 1647                    u488_20 164E  
                  u488_21 164D                    u489_20 1658                    u489_21 1657  
                  u682_27 1310                    _TMR1IE 0460                    _TMR1IF 0060  
                  _TMR1CS 0081                    _TMR1ON 0080          __end_of___xxtofl 0954  
      __size_of_Init_uart 000E            _LCDWriteString 15D5                    _adc_ok 00ED  
               ??___almod 003D                 ??___fladd 00A8                 ??___fldiv 00CB  
               ??___awdiv 003D                 ??___awmod 003D                 ??___flmul 00B1  
               ??___flsub 003D                 ??___fltol 01E4                    _dienap 004F  
      __size_of_Send_data 00F8                 ??___lwdiv 003E                 ??___lwmod 003D  
                  _count1 00EE      __size_of_LCDBusyLoop 005F          ___awdiv@quotient 00A6  
         ___awmod@divisor 00A0           ___awmod@counter 00A4         __end_ofi1___flmul 0700  
      __size_of__Umul8_16 0029                 ?_ADC_Init 0070                 ?_ADC_Read 0070  
            LCDWriteInt@i 00BB              LCDWriteInt@j 00B9                    saved_w 007E  
            ___xxtofl@arg 0026              ___xxtofl@exp 0025              ___xxtofl@val 0077  
    __size_of_LCDWriteInt 00AA   __end_of__initialization 003A    __end_of_LCDWriteString 1642  
              ___fltol@f1 00E5              ?i1__Umul8_16 0070                 LCDByte@hn 00A5  
               LCDByte@ln 00A6            __pcstackCOMMON 0070              __pidataBANK3 1328  
          Send_data@Value 00AB         __end_of_Init_uart 121C                ??_ADC_Init 003D  
              ??_ADC_Read 0072         __end_of_Send_data 07F8                __pbssBANK0 003E  
              __pbssBANK1 00EB                __pbssBANK3 01D0           ?_LCDWriteString 0070  
       __end_of__Umul8_16 12B8                __pmaintext 0B31                __pintentry 0004  
                 _T1CKPS0 0084                   _T1CKPS1 0085                   _T1OSCEN 0083  
                 _LCDByte 13F6                   _LCDInit 1503                 ?___xxtofl 0077  
                 _GO_DONE 00FA      __size_of_TIMER1_Init 0015       i1__Umul8_16@product 0074  
              _commbuffer 01D0                __stringtab 1000                   ___cgram 0190  
                 ___almod 16C7                   ___fladd 0D78                   ___fldiv 0954  
                 ___awdiv 156C                   ___awmod 1449                   ___flmul 003E  
                 ___flsub 1244                   ___fltol 0804                   ___lwdiv 1368  
                 ___lwmod 13AE                   __ptext1 0804                   __ptext2 1244  
                 __ptext3 0D78                   __ptext4 003E                   __ptext5 128F  
                 __ptext6 0954                   __ptext7 122F                   __ptext8 0700  
                 __ptext9 13AE              __size_of_ISR 0085                ??___xxtofl 0020  
        ___awmod@dividend 00A2                 _LCDGotoXY 12B8                   clrloop0 07F9  
    end_of_initialization 003A      __size_ofi1__Umul8_16 0027     i1__Umul8_16@word_mpld 0076  
               _PORTBbits 0006         LCDWriteString@msg 00AA               ___fladd@grs 00B3  
           ___xxtofl@sign 0024                 _TRISBbits 0086                 _TRISDbits 0088  
              ?_LCDGotoXY 00A9                 i1___flmul 039F               ___fldiv@grs 00D7  
             ___fldiv@rem 00D0         __size_of_ADC_Init 0009         __size_of_ADC_Read 003B  
             ___flmul@grs 00B8                LCDInit@__i 00AC                LCDGotoXY@x 00AC  
              LCDGotoXY@y 00A9             ??_LCDBusyLoop 003D       start_initialization 0015  
             __end_of_ISR 16C7                ?i1___flmul 0020             ??_LCDWriteInt 00AC  
               _Init_uart 120E          ??_LCDWriteString 003E                 _Send_data 0700  
              init_fetch0 121C                 __Umul8_16 128F               __pdataBANK3 0190  
     __end_of_LCDBusyLoop 1503                 ___fladd@a 00A4                 ___fladd@b 00A0  
                ?_LCDByte 00A3                  ?_LCDInit 0070                 ___fldiv@a 00C3  
               ___fldiv@b 00C7                 ___flmul@a 00AD                 ___flmul@b 00A9  
                LCDByte@c 00A7                 ___flsub@a 00DD                 ___flsub@b 00E1  
               ___latbits 0002             __pcstackBANK0 0020             __pcstackBANK1 00A0  
           __pcstackBANK2 0110             __pcstackBANK3 01E4               ??_LCDGotoXY 00AA  
       __size_of___xxtofl 00BC                ?_Init_uart 0070       __end_of_LCDWriteInt 1800  
              ?_Send_data 00AB          ___lwdiv@dividend 00A6  i1__Umul8_16@multiplicand 0070  
                ?___almod 00A0                  ?___fladd 00A0                  ?___fldiv 00C3  
                ?___awdiv 00A0                  ?___awmod 00A0                  ?___flmul 00A9  
                ?___flsub 00DD                  ?___fltol 00E5                ?__Umul8_16 00A0  
                ?___lwdiv 00A4                  ?___lwmod 00A0          ___almod@dividend 00A4  
               __pstrings 1000             ??_TIMER1_Init 003D                  _ADC_Init 1205  
                _ADC_Read 12ED           LCDBusyLoop@busy 00A0           LCDBusyLoop@temp 00A1  
             ??i1___flmul 0079          ___lwdiv@quotient 00A9         interrupt_function 0004  
               clear_ram0 07F8                 _value_adc 004C               _LCDBusyLoop 14A4  
        LCDWriteString@cc 00A9               __stringbase 1005                 main@digit 0118  
        __size_of_LCDByte 0053          __size_of_LCDInit 0069                 main@value 011C  
             ??_Init_uart 003D       __end_of_TIMER1_Init 1244               _LCDWriteInt 1756  
             ??_Send_data 003E             ??i1__Umul8_16 0072             ADC_Read@value 0074  
             ??__Umul8_16 00A2          __size_of___almod 008F          __size_of___fladd 0288  
        __size_of___fldiv 01DD          __size_of___awdiv 0069          __size_of___awmod 005B  
        __size_of___flmul 0361          __size_of___flsub 0024          __size_of___fltol 0094  
       LCDBusyLoop@status 00A2          __size_of___lwdiv 0046          __size_of___lwmod 0048  
      __end_of__stringtab 1006           LCDWriteInt@F912 003E                  ___xxtofl 0898  
                _main$860 0110                  _main$861 0114           ___lwdiv@divisor 00A4  
         ___lwdiv@counter 00A8                  __ptext10 1368                  __ptext11 16C7  
                __ptext20 120E                  __ptext12 15D5                  __ptext21 1205  
                __ptext13 1756                  __ptext22 1642                  __ptext14 1449  
                __ptext23 039F                  __ptext15 156C                  __ptext24 1268  
                __ptext16 1503                  __ptext25 0898                  __ptext17 12B8  
                __ptext26 12ED                  __ptext18 13F6                  __ptext19 14A4  
         ___almod@divisor 00A0           ___almod@counter 00A8             __size_of_main 0247  
                _resister 00EB                  main@F911 0048       __end_ofi1__Umul8_16 128F  
             _TIMER1_Init 122F                  init_ram0 1220                  intlevel1 0000  
  i1__Umul8_16@multiplier 0078          ___lwmod@dividend 00A2            LCDWriteInt@val 00A9  
          LCDWriteInt@str 00AF                 stringcode 1000    __Umul8_16@multiplicand 00A0  
         ___lwmod@divisor 00A0           ___lwmod@counter 003D                  stringdir 1000  
                stringtab 1000             ___fladd@signs 00B0              ___almod@sign 00A9  
            ___fladd@aexp 00B1              ___fladd@bexp 00B2      __Umul8_16@multiplier 00A8  
             i1__Umul8_16 1268         __Umul8_16@product 00A4   __size_of_LCDWriteString 006D  
