

Microchip MPLAB XC8 Assembler V2.20 build 20200408173844 
                                                                                               Thu Nov 25 06:05:15 2021

Microchip MPLAB XC8 C Compiler v2.20 (Free license) build 20200408173844 Og1 
     1                           	processor	16F877A
     2                           	pagewidth 120
     3                           	opt	flic
     4                           	psect	idataBANK1,global,class=CODE,delta=2,noexec
     5                           	psect	nvBANK1,global,class=BANK1,space=1,delta=1,noexec
     6                           	psect	cinit,global,class=CODE,merge=1,delta=2
     7                           	psect	dataBANK1,global,class=BANK1,space=1,delta=1,noexec
     8                           	psect	inittext,global,class=CODE,delta=2
     9                           	psect	cstackBANK1,global,class=BANK1,space=1,delta=1,noexec
    10                           	psect	cstackCOMMON,global,class=COMMON,space=1,delta=1,noexec
    11                           	psect	cstackBANK0,global,class=BANK0,space=1,delta=1,noexec
    12                           	psect	maintext,global,class=CODE,split=1,delta=2
    13                           	psect	text1,local,class=CODE,merge=1,delta=2,group=1
    14                           	psect	text2,local,class=CODE,merge=1,delta=2,group=1
    15                           	psect	text3,local,class=CODE,merge=1,delta=2,group=1
    16                           	psect	text4,local,class=CODE,merge=1,delta=2,group=1
    17                           	psect	text5,local,class=CODE,merge=1,delta=2
    18                           	psect	text6,local,class=CODE,merge=1,delta=2
    19                           	psect	text7,local,class=CODE,merge=1,delta=2,group=1
    20                           	psect	text8,local,class=CODE,merge=1,delta=2,group=1
    21                           	psect	text9,local,class=CODE,merge=1,delta=2,group=1
    22                           	psect	text10,local,class=CODE,merge=1,delta=2,group=1
    23                           	psect	text11,local,class=CODE,merge=1,delta=2,group=1
    24                           	psect	text12,local,class=CODE,merge=1,delta=2
    25                           	psect	text13,local,class=CODE,merge=1,delta=2
    26                           	psect	text14,local,class=CODE,merge=1,delta=2,group=1
    27                           	psect	text15,local,class=CODE,merge=1,delta=2
    28                           	psect	text16,local,class=CODE,merge=1,delta=2
    29                           	psect	config,global,abs,ovrld,class=CONFIG,space=4,delta=2,noexec
    30                           	dabs	1,0x7E,2
    31  0000                     
    32                           ; Version 2.20
    33                           ; Generated 12/02/2020 GMT
    34                           ; 
    35                           ; Copyright © 2020, Microchip Technology Inc. and its subsidiaries ("Microchip")
    36                           ; All rights reserved.
    37                           ; 
    38                           ; This software is developed by Microchip Technology Inc. and its subsidiaries ("Microch
      +                          ip").
    39                           ; 
    40                           ; Redistribution and use in source and binary forms, with or without modification, are
    41                           ; permitted provided that the following conditions are met:
    42                           ; 
    43                           ;     1. Redistributions of source code must retain the above copyright notice, this lis
      +                          t of
    44                           ;        conditions and the following disclaimer.
    45                           ; 
    46                           ;     2. Redistributions in binary form must reproduce the above copyright notice, this 
      +                          list
    47                           ;        of conditions and the following disclaimer in the documentation and/or other
    48                           ;        materials provided with the distribution.
    49                           ; 
    50                           ;     3. Microchip's name may not be used to endorse or promote products derived from th
      +                          is
    51                           ;        software without specific prior written permission.
    52                           ; 
    53                           ; THIS SOFTWARE IS PROVIDED BY MICROCHIP "AS IS" AND ANY EXPRESS OR IMPLIED WARRANTIES,
    54                           ; INCLUDING, BUT NOT LIMITED TO, THE IMPLIED WARRANTIES OF MERCHANTABILITY AND FITNESS F
      +                          OR
    55                           ; PURPOSE ARE DISCLAIMED.  IN NO EVENT SHALL MICROCHIP BE LIABLE FOR ANY DIRECT, INDIREC
      +                          T,
    56                           ; INCIDENTAL, SPECIAL, EXEMPLARY, OR CONSEQUENTIAL DAMAGES (INCLUDING BUT NOT LIMITED TO
    57                           ; PROCUREMENT OF SUBSTITUTE GOODS OR SERVICES; LOSS OF USE, DATA OR PROFITS; OR BUSINESS
    58                           ; INTERRUPTION) HOWSOEVER CAUSED AND ON ANY THEORY OF LIABILITY, WHETHER IN CONTRACT, ST
      +                          RICT
    59                           ; LIABILITY, OR TORT (INCLUDING NEGLIGENCE OR OTHERWISE) ARISING IN ANY WAY OUT OF THE U
      +                          SE OF
    60                           ; THIS SOFTWARE, EVEN IF ADVISED OF THE POSSIBILITY OF SUCH DAMAGE.
    61                           ; 
    62                           ; 
    63                           ; Code-generator required, PIC16F877A Definitions
    64                           ; 
    65                           ; SFR Addresses
    66  0000                     	;# 
    67  0001                     	;# 
    68  0002                     	;# 
    69  0003                     	;# 
    70  0004                     	;# 
    71  0005                     	;# 
    72  0006                     	;# 
    73  0007                     	;# 
    74  0008                     	;# 
    75  0009                     	;# 
    76  000A                     	;# 
    77  000B                     	;# 
    78  000C                     	;# 
    79  000D                     	;# 
    80  000E                     	;# 
    81  000E                     	;# 
    82  000F                     	;# 
    83  0010                     	;# 
    84  0011                     	;# 
    85  0012                     	;# 
    86  0013                     	;# 
    87  0014                     	;# 
    88  0015                     	;# 
    89  0015                     	;# 
    90  0016                     	;# 
    91  0017                     	;# 
    92  0018                     	;# 
    93  0019                     	;# 
    94  001A                     	;# 
    95  001B                     	;# 
    96  001B                     	;# 
    97  001C                     	;# 
    98  001D                     	;# 
    99  001E                     	;# 
   100  001F                     	;# 
   101  0081                     	;# 
   102  0085                     	;# 
   103  0086                     	;# 
   104  0087                     	;# 
   105  0088                     	;# 
   106  0089                     	;# 
   107  008C                     	;# 
   108  008D                     	;# 
   109  008E                     	;# 
   110  0091                     	;# 
   111  0092                     	;# 
   112  0093                     	;# 
   113  0094                     	;# 
   114  0098                     	;# 
   115  0099                     	;# 
   116  009C                     	;# 
   117  009D                     	;# 
   118  009E                     	;# 
   119  009F                     	;# 
   120  010C                     	;# 
   121  010D                     	;# 
   122  010E                     	;# 
   123  010F                     	;# 
   124  018C                     	;# 
   125  018D                     	;# 
   126  0000                     	;# 
   127  0001                     	;# 
   128  0002                     	;# 
   129  0003                     	;# 
   130  0004                     	;# 
   131  0005                     	;# 
   132  0006                     	;# 
   133  0007                     	;# 
   134  0008                     	;# 
   135  0009                     	;# 
   136  000A                     	;# 
   137  000B                     	;# 
   138  000C                     	;# 
   139  000D                     	;# 
   140  000E                     	;# 
   141  000E                     	;# 
   142  000F                     	;# 
   143  0010                     	;# 
   144  0011                     	;# 
   145  0012                     	;# 
   146  0013                     	;# 
   147  0014                     	;# 
   148  0015                     	;# 
   149  0015                     	;# 
   150  0016                     	;# 
   151  0017                     	;# 
   152  0018                     	;# 
   153  0019                     	;# 
   154  001A                     	;# 
   155  001B                     	;# 
   156  001B                     	;# 
   157  001C                     	;# 
   158  001D                     	;# 
   159  001E                     	;# 
   160  001F                     	;# 
   161  0081                     	;# 
   162  0085                     	;# 
   163  0086                     	;# 
   164  0087                     	;# 
   165  0088                     	;# 
   166  0089                     	;# 
   167  008C                     	;# 
   168  008D                     	;# 
   169  008E                     	;# 
   170  0091                     	;# 
   171  0092                     	;# 
   172  0093                     	;# 
   173  0094                     	;# 
   174  0098                     	;# 
   175  0099                     	;# 
   176  009C                     	;# 
   177  009D                     	;# 
   178  009E                     	;# 
   179  009F                     	;# 
   180  010C                     	;# 
   181  010D                     	;# 
   182  010E                     	;# 
   183  010F                     	;# 
   184  018C                     	;# 
   185  018D                     	;# 
   186  0000                     	;# 
   187  0001                     	;# 
   188  0002                     	;# 
   189  0003                     	;# 
   190  0004                     	;# 
   191  0005                     	;# 
   192  0006                     	;# 
   193  0007                     	;# 
   194  0008                     	;# 
   195  0009                     	;# 
   196  000A                     	;# 
   197  000B                     	;# 
   198  000C                     	;# 
   199  000D                     	;# 
   200  000E                     	;# 
   201  000E                     	;# 
   202  000F                     	;# 
   203  0010                     	;# 
   204  0011                     	;# 
   205  0012                     	;# 
   206  0013                     	;# 
   207  0014                     	;# 
   208  0015                     	;# 
   209  0015                     	;# 
   210  0016                     	;# 
   211  0017                     	;# 
   212  0018                     	;# 
   213  0019                     	;# 
   214  001A                     	;# 
   215  001B                     	;# 
   216  001B                     	;# 
   217  001C                     	;# 
   218  001D                     	;# 
   219  001E                     	;# 
   220  001F                     	;# 
   221  0081                     	;# 
   222  0085                     	;# 
   223  0086                     	;# 
   224  0087                     	;# 
   225  0088                     	;# 
   226  0089                     	;# 
   227  008C                     	;# 
   228  008D                     	;# 
   229  008E                     	;# 
   230  0091                     	;# 
   231  0092                     	;# 
   232  0093                     	;# 
   233  0094                     	;# 
   234  0098                     	;# 
   235  0099                     	;# 
   236  009C                     	;# 
   237  009D                     	;# 
   238  009E                     	;# 
   239  009F                     	;# 
   240  010C                     	;# 
   241  010D                     	;# 
   242  010E                     	;# 
   243  010F                     	;# 
   244  018C                     	;# 
   245  018D                     	;# 
   246                           
   247                           	psect	idataBANK1
   248  0C40                     __pidataBANK1:
   249                           
   250                           ;initializer for _seg
   251  0C40  34C0               	retlw	192
   252  0C41  34F9               	retlw	249
   253  0C42  34A4               	retlw	164
   254  0C43  34B0               	retlw	176
   255  0C44  3499               	retlw	153
   256  0C45  3492               	retlw	146
   257  0C46  3482               	retlw	130
   258  0C47  34CE               	retlw	206
   259  0C48  3480               	retlw	128
   260  0C49  3490               	retlw	144
   261                           
   262                           	psect	nvBANK1
   263  00C8                     __pnvBANK1:
   264  00C8                     _frequency:
   265  00C8                     	ds	4
   266  0012                     _T2CONbits	set	18
   267  001B                     _CCPR2L	set	27
   268  001D                     _CCP2CONbits	set	29
   269  0015                     _CCPR1L	set	21
   270  0017                     _CCP1CONbits	set	23
   271  0008                     _PORTD	set	8
   272  0006                     _PORTB	set	6
   273  001E                     _ADRESH	set	30
   274  001F                     _ADCON0	set	31
   275  0043                     _RD3	set	67
   276  0042                     _RD2	set	66
   277  0041                     _RD1	set	65
   278  0047                     _RD7	set	71
   279  0040                     _RD0	set	64
   280  00FA                     _GO_DONE	set	250
   281  00F8                     _ADON	set	248
   282  00FD                     _CHS2	set	253
   283  00FC                     _CHS1	set	252
   284  00FB                     _CHS0	set	251
   285  0092                     _PR2	set	146
   286  0088                     _TRISD	set	136
   287  0086                     _TRISB	set	134
   288  009E                     _ADRESL	set	158
   289  009F                     _ADCON1	set	159
   290  0439                     _TRISC1	set	1081
   291  043A                     _TRISC2	set	1082
   292                           
   293                           	psect	cinit
   294  07EE                     start_initialization:	
   295                           ; #config settings
   296                           
   297  07EE                     __initialization:
   298                           
   299                           ; Initialize objects allocated to BANK1
   300  07EE  1383               	bcf	3,7	;select IRP bank0
   301  07EF  30C8               	movlw	low (__pdataBANK1+10)
   302  07F0  00FD               	movwf	btemp+-1
   303  07F1  300C               	movlw	high __pidataBANK1
   304  07F2  00FE               	movwf	btemp
   305  07F3  3040               	movlw	low __pidataBANK1
   306  07F4  00FF               	movwf	btemp+1
   307  07F5  30BE               	movlw	low __pdataBANK1
   308  07F6  0084               	movwf	4
   309  07F7  120A  158A  244E  120A  118A  	fcall	init_ram0
   310  07FC                     end_of_initialization:	
   311                           ;End of C runtime variable initialization code
   312                           
   313  07FC                     __end_of__initialization:
   314  07FC  0183               	clrf	3
   315  07FD  120A  118A  2979   	ljmp	_main	;jump to C main() function
   316                           
   317                           	psect	dataBANK1
   318  00BE                     __pdataBANK1:
   319  00BE                     _seg:
   320  00BE                     	ds	10
   321                           
   322                           	psect	inittext
   323  0C4A                     init_fetch0:	
   324                           ;	Called with low address in FSR and high address in W
   325                           
   326  0C4A  087E               	movf	btemp,w
   327  0C4B  008A               	movwf	10
   328  0C4C  087F               	movf	btemp+1,w
   329  0C4D  0082               	movwf	2
   330  0C4E                     init_ram0:	
   331                           ;Called with:
   332                           ;	high address of idata address in btemp 
   333                           ;	low address of idata address in btemp+1 
   334                           ;	low address of data in FSR
   335                           ;	high address + 1 of data in btemp-1
   336                           
   337  0C4E  120A  158A  244A  120A  158A  	fcall	init_fetch0
   338  0C53  0080               	movwf	0
   339  0C54  0A84               	incf	4,f
   340  0C55  0804               	movf	4,w
   341  0C56  067D               	xorwf	btemp+-1,w
   342  0C57  1903               	btfsc	3,2
   343  0C58  3400               	retlw	0
   344  0C59  0AFF               	incf	btemp+1,f
   345  0C5A  1903               	btfsc	3,2
   346  0C5B  0AFE               	incf	btemp,f
   347  0C5C  2C4E               	goto	init_ram0
   348                           
   349                           	psect	cstackBANK1
   350  00A0                     __pcstackBANK1:
   351  00A0                     ??___fltol:
   352                           
   353                           ; 1 bytes @ 0x0
   354  00A0                     	ds	4
   355  00A4                     ?_PWM1_Set_Duty:
   356  00A4                     PWM1_Set_Duty@duty:	
   357                           ; 1 bytes @ 0x4
   358                           
   359                           
   360                           ; 2 bytes @ 0x4
   361  00A4                     	ds	2
   362  00A6                     ??_PWM1_Set_Duty:
   363                           
   364                           ; 1 bytes @ 0x6
   365  00A6                     	ds	2
   366  00A8                     ??_main:
   367                           
   368                           ; 1 bytes @ 0x8
   369  00A8                     	ds	4
   370  00AC                     main@a:
   371                           
   372                           ; 2 bytes @ 0xC
   373  00AC                     	ds	2
   374  00AE                     main@c:
   375                           
   376                           ; 2 bytes @ 0xE
   377  00AE                     	ds	2
   378  00B0                     main@e:
   379                           
   380                           ; 2 bytes @ 0x10
   381  00B0                     	ds	2
   382  00B2                     main@g:
   383                           
   384                           ; 2 bytes @ 0x12
   385  00B2                     	ds	2
   386  00B4                     main@adc:
   387                           
   388                           ; 2 bytes @ 0x14
   389  00B4                     	ds	2
   390  00B6                     main@b:
   391                           
   392                           ; 2 bytes @ 0x16
   393  00B6                     	ds	2
   394  00B8                     main@d:
   395                           
   396                           ; 2 bytes @ 0x18
   397  00B8                     	ds	2
   398  00BA                     main@f:
   399                           
   400                           ; 2 bytes @ 0x1A
   401  00BA                     	ds	2
   402  00BC                     main@i:
   403                           
   404                           ; 2 bytes @ 0x1C
   405  00BC                     	ds	2
   406                           
   407                           	psect	cstackCOMMON
   408  0070                     __pcstackCOMMON:
   409  0070                     ?_PWM1_Start:
   410  0070                     ??_PWM1_Start:	
   411                           ; 1 bytes @ 0x0
   412                           
   413  0070                     ?_ADC_Init:	
   414                           ; 1 bytes @ 0x0
   415                           
   416  0070                     ??_ADC_Init:	
   417                           ; 1 bytes @ 0x0
   418                           
   419  0070                     ?_main:	
   420                           ; 1 bytes @ 0x0
   421                           
   422  0070                     ?__Umul8_16:	
   423                           ; 1 bytes @ 0x0
   424                           
   425  0070                     ?_ADC_Read:	
   426                           ; 2 bytes @ 0x0
   427                           
   428  0070                     ?___awdiv:	
   429                           ; 2 bytes @ 0x0
   430                           
   431  0070                     ?___awmod:	
   432                           ; 2 bytes @ 0x0
   433                           
   434  0070                     ?___lwdiv:	
   435                           ; 2 bytes @ 0x0
   436                           
   437  0070                     ?___lwmod:	
   438                           ; 2 bytes @ 0x0
   439                           
   440  0070                     ?___aldiv:	
   441                           ; 2 bytes @ 0x0
   442                           
   443  0070                     __Umul8_16@multiplicand:	
   444                           ; 4 bytes @ 0x0
   445                           
   446  0070                     ___awdiv@divisor:	
   447                           ; 1 bytes @ 0x0
   448                           
   449  0070                     ___awmod@divisor:	
   450                           ; 2 bytes @ 0x0
   451                           
   452  0070                     ___lwdiv@divisor:	
   453                           ; 2 bytes @ 0x0
   454                           
   455  0070                     ___lwmod@divisor:	
   456                           ; 2 bytes @ 0x0
   457                           
   458  0070                     ___aldiv@divisor:	
   459                           ; 2 bytes @ 0x0
   460                           
   461                           
   462                           ; 4 bytes @ 0x0
   463  0070                     	ds	2
   464  0072                     ??__Umul8_16:
   465  0072                     ??_ADC_Read:	
   466                           ; 1 bytes @ 0x2
   467                           
   468  0072                     ___awdiv@dividend:	
   469                           ; 1 bytes @ 0x2
   470                           
   471  0072                     ___awmod@dividend:	
   472                           ; 2 bytes @ 0x2
   473                           
   474  0072                     ___lwdiv@dividend:	
   475                           ; 2 bytes @ 0x2
   476                           
   477  0072                     ___lwmod@dividend:	
   478                           ; 2 bytes @ 0x2
   479                           
   480                           
   481                           ; 2 bytes @ 0x2
   482  0072                     	ds	2
   483  0074                     ??___awdiv:
   484  0074                     ??___awmod:	
   485                           ; 1 bytes @ 0x4
   486                           
   487  0074                     ??___lwdiv:	
   488                           ; 1 bytes @ 0x4
   489                           
   490  0074                     ??___lwmod:	
   491                           ; 1 bytes @ 0x4
   492                           
   493  0074                     ___awdiv@counter:	
   494                           ; 1 bytes @ 0x4
   495                           
   496  0074                     ___awmod@counter:	
   497                           ; 1 bytes @ 0x4
   498                           
   499  0074                     ___lwmod@counter:	
   500                           ; 1 bytes @ 0x4
   501                           
   502  0074                     ADC_Read@value:	
   503                           ; 1 bytes @ 0x4
   504                           
   505  0074                     ___lwdiv@quotient:	
   506                           ; 2 bytes @ 0x4
   507                           
   508  0074                     __Umul8_16@product:	
   509                           ; 2 bytes @ 0x4
   510                           
   511  0074                     ___aldiv@dividend:	
   512                           ; 2 bytes @ 0x4
   513                           
   514                           
   515                           ; 4 bytes @ 0x4
   516  0074                     	ds	1
   517  0075                     ___awdiv@sign:
   518  0075                     ___awmod@sign:	
   519                           ; 1 bytes @ 0x5
   520                           
   521                           
   522                           ; 1 bytes @ 0x5
   523  0075                     	ds	1
   524  0076                     ADC_Read@Channel:
   525  0076                     ___lwdiv@counter:	
   526                           ; 1 bytes @ 0x6
   527                           
   528  0076                     ___awdiv@quotient:	
   529                           ; 1 bytes @ 0x6
   530                           
   531  0076                     __Umul8_16@word_mpld:	
   532                           ; 2 bytes @ 0x6
   533                           
   534                           
   535                           ; 2 bytes @ 0x6
   536  0076                     	ds	2
   537  0078                     ??___aldiv:
   538  0078                     __Umul8_16@multiplier:	
   539                           ; 1 bytes @ 0x8
   540                           
   541                           
   542                           ; 1 bytes @ 0x8
   543  0078                     	ds	1
   544  0079                     ??_PWM1_Init:
   545  0079                     ??_PWM_Max_Duty:	
   546                           ; 1 bytes @ 0x9
   547                           
   548                           
   549                           ; 1 bytes @ 0x9
   550  0079                     	ds	4
   551                           
   552                           	psect	cstackBANK0
   553  0020                     __pcstackBANK0:
   554  0020                     ___aldiv@counter:
   555                           
   556                           ; 1 bytes @ 0x0
   557  0020                     	ds	1
   558  0021                     ___aldiv@sign:
   559                           
   560                           ; 1 bytes @ 0x1
   561  0021                     	ds	1
   562  0022                     ___aldiv@quotient:
   563                           
   564                           ; 4 bytes @ 0x2
   565  0022                     	ds	4
   566  0026                     ?_PWM1_Init:
   567  0026                     ?_PWM_Max_Duty:	
   568                           ; 1 bytes @ 0x6
   569                           
   570  0026                     PWM1_Init@freq:	
   571                           ; 2 bytes @ 0x6
   572                           
   573                           
   574                           ; 4 bytes @ 0x6
   575  0026                     	ds	2
   576  0028                     ?___xxtofl:
   577  0028                     ___xxtofl@val:	
   578                           ; 4 bytes @ 0x8
   579                           
   580                           
   581                           ; 4 bytes @ 0x8
   582  0028                     	ds	4
   583  002C                     ??___xxtofl:
   584                           
   585                           ; 1 bytes @ 0xC
   586  002C                     	ds	4
   587  0030                     ___xxtofl@sign:
   588                           
   589                           ; 1 bytes @ 0x10
   590  0030                     	ds	1
   591  0031                     ___xxtofl@exp:
   592                           
   593                           ; 1 bytes @ 0x11
   594  0031                     	ds	1
   595  0032                     ___xxtofl@arg:
   596                           
   597                           ; 4 bytes @ 0x12
   598  0032                     	ds	4
   599  0036                     ?___fldiv:
   600  0036                     ___fldiv@a:	
   601                           ; 4 bytes @ 0x16
   602                           
   603                           
   604                           ; 4 bytes @ 0x16
   605  0036                     	ds	4
   606  003A                     ___fldiv@b:
   607                           
   608                           ; 4 bytes @ 0x1A
   609  003A                     	ds	4
   610  003E                     ??___fldiv:
   611                           
   612                           ; 1 bytes @ 0x1E
   613  003E                     	ds	5
   614  0043                     ___fldiv@rem:
   615                           
   616                           ; 4 bytes @ 0x23
   617  0043                     	ds	4
   618  0047                     ___fldiv@sign:
   619                           
   620                           ; 1 bytes @ 0x27
   621  0047                     	ds	1
   622  0048                     ___fldiv@new_exp:
   623                           
   624                           ; 2 bytes @ 0x28
   625  0048                     	ds	2
   626  004A                     ___fldiv@grs:
   627                           
   628                           ; 4 bytes @ 0x2A
   629  004A                     	ds	4
   630  004E                     ___fldiv@bexp:
   631                           
   632                           ; 1 bytes @ 0x2E
   633  004E                     	ds	1
   634  004F                     ___fldiv@aexp:
   635                           
   636                           ; 1 bytes @ 0x2F
   637  004F                     	ds	1
   638  0050                     ?___flmul:
   639  0050                     ___flmul@b:	
   640                           ; 4 bytes @ 0x30
   641                           
   642                           
   643                           ; 4 bytes @ 0x30
   644  0050                     	ds	4
   645  0054                     ___flmul@a:
   646                           
   647                           ; 4 bytes @ 0x34
   648  0054                     	ds	4
   649  0058                     ??___flmul:
   650                           
   651                           ; 1 bytes @ 0x38
   652  0058                     	ds	5
   653  005D                     ___flmul@sign:
   654                           
   655                           ; 1 bytes @ 0x3D
   656  005D                     	ds	1
   657  005E                     ___flmul@grs:
   658                           
   659                           ; 4 bytes @ 0x3E
   660  005E                     	ds	4
   661  0062                     ___flmul@aexp:
   662                           
   663                           ; 1 bytes @ 0x42
   664  0062                     	ds	1
   665  0063                     ___flmul@bexp:
   666                           
   667                           ; 1 bytes @ 0x43
   668  0063                     	ds	1
   669  0064                     ___flmul@prod:
   670                           
   671                           ; 4 bytes @ 0x44
   672  0064                     	ds	4
   673  0068                     ___flmul@temp:
   674                           
   675                           ; 2 bytes @ 0x48
   676  0068                     	ds	2
   677  006A                     ?___fltol:
   678  006A                     ___fltol@f1:	
   679                           ; 4 bytes @ 0x4A
   680                           
   681                           
   682                           ; 4 bytes @ 0x4A
   683  006A                     	ds	4
   684  006E                     ___fltol@sign1:
   685                           
   686                           ; 1 bytes @ 0x4E
   687  006E                     	ds	1
   688  006F                     ___fltol@exp1:
   689                           
   690                           ; 1 bytes @ 0x4F
   691  006F                     	ds	1
   692                           
   693                           	psect	maintext
   694  0179                     __pmaintext:	
   695 ;;
   696 ;;Main: autosize = 0, tempsize = 2, incstack = 0, save=0
   697 ;;
   698 ;; *************** function _main *****************
   699 ;; Defined at:
   700 ;;		line 31 in file "main.c"
   701 ;; Parameters:    Size  Location     Type
   702 ;;		None
   703 ;; Auto vars:     Size  Location     Type
   704 ;;  i               2   28[BANK1 ] unsigned int 
   705 ;;  f               2   26[BANK1 ] int 
   706 ;;  d               2   24[BANK1 ] int 
   707 ;;  b               2   22[BANK1 ] int 
   708 ;;  adc             2   20[BANK1 ] int 
   709 ;;  g               2   18[BANK1 ] int 
   710 ;;  e               2   16[BANK1 ] int 
   711 ;;  c               2   14[BANK1 ] int 
   712 ;;  a               2   12[BANK1 ] int 
   713 ;;  h               2    0        int 
   714 ;; Return value:  Size  Location     Type
   715 ;;                  1    wreg      void 
   716 ;; Registers used:
   717 ;;		wreg, fsr0l, fsr0h, status,2, status,0, btemp+1, pclath, cstack
   718 ;; Tracked objects:
   719 ;;		On entry : B00/0
   720 ;;		On exit  : 0/0
   721 ;;		Unchanged: 0/0
   722 ;; Data sizes:     COMMON   BANK0   BANK1   BANK3   BANK2
   723 ;;      Params:         0       0       0       0       0
   724 ;;      Locals:         0       0      20       0       0
   725 ;;      Temps:          0       0       2       0       0
   726 ;;      Totals:         0       0      22       0       0
   727 ;;Total ram usage:       22 bytes
   728 ;; Hardware stack levels required when called:    3
   729 ;; This function calls:
   730 ;;		_ADC_Init
   731 ;;		_ADC_Read
   732 ;;		_PWM1_Init
   733 ;;		_PWM1_Set_Duty
   734 ;;		_PWM1_Start
   735 ;;		___awdiv
   736 ;;		___awmod
   737 ;;		___lwdiv
   738 ;;		___lwmod
   739 ;; This function is called by:
   740 ;;		Startup code after reset
   741 ;; This function uses a non-reentrant model
   742 ;;
   743                           
   744                           
   745                           ;psect for function _main
   746  0179                     _main:
   747  0179                     l2014:	
   748                           ;incstack = 0
   749                           ; Regs used in _main: [wreg-fsr0h+status,2+status,0+btemp+1+pclath+cstack]
   750                           
   751                           
   752                           ;main.c: 35:     int a,b,c,d,e,f,g,h,adc;;main.c: 38:     TRISB=0X00;
   753  0179  1683               	bsf	3,5	;RP0=1, select bank1
   754  017A  1303               	bcf	3,6	;RP1=0, select bank1
   755  017B  0186               	clrf	6	;volatile
   756                           
   757                           ;main.c: 39:     PORTB=0X00;
   758  017C  1283               	bcf	3,5	;RP0=0, select bank0
   759  017D  1303               	bcf	3,6	;RP1=0, select bank0
   760  017E  0186               	clrf	6	;volatile
   761                           
   762                           ;main.c: 40:     TRISD=0x00;
   763  017F  1683               	bsf	3,5	;RP0=1, select bank1
   764  0180  1303               	bcf	3,6	;RP1=0, select bank1
   765  0181  0188               	clrf	8	;volatile
   766                           
   767                           ;main.c: 41:     PORTD=0X00;
   768  0182  1283               	bcf	3,5	;RP0=0, select bank0
   769  0183  1303               	bcf	3,6	;RP1=0, select bank0
   770  0184  0188               	clrf	8	;volatile
   771  0185                     l2016:
   772                           
   773                           ;main.c: 43:     ADC_Init();
   774  0185  120A  158A  242E  120A  118A  	fcall	_ADC_Init
   775  018A                     l2018:
   776                           
   777                           ;main.c: 44:     PWM1_Init(5000);
   778  018A  3000               	movlw	0
   779  018B  1283               	bcf	3,5	;RP0=0, select bank0
   780  018C  1303               	bcf	3,6	;RP1=0, select bank0
   781  018D  00A9               	movwf	PWM1_Init@freq+3
   782  018E  3000               	movlw	0
   783  018F  00A8               	movwf	PWM1_Init@freq+2
   784  0190  3013               	movlw	19
   785  0191  00A7               	movwf	PWM1_Init@freq+1
   786  0192  3088               	movlw	136
   787  0193  00A6               	movwf	PWM1_Init@freq
   788  0194  120A  158A  256B  120A  118A  	fcall	_PWM1_Init
   789  0199                     l2020:
   790                           
   791                           ;main.c: 45:     PWM1_Start();
   792  0199  120A  158A  2437  120A  118A  	fcall	_PWM1_Start
   793  019E                     l2022:
   794                           
   795                           ;main.c: 47:     {;main.c: 48:         adc=ADC_Read(0);
   796  019E  3000               	movlw	0
   797  019F  120A  158A  24B3  120A  118A  	fcall	_ADC_Read
   798  01A4  0871               	movf	?_ADC_Read+1,w
   799  01A5  1683               	bsf	3,5	;RP0=1, select bank1
   800  01A6  1303               	bcf	3,6	;RP1=0, select bank1
   801  01A7  00B5               	movwf	(main@adc+1)^(0+128)
   802  01A8  0870               	movf	?_ADC_Read,w
   803  01A9  00B4               	movwf	main@adc^(0+128)
   804  01AA                     l2024:
   805                           
   806                           ;main.c: 49:         i=adc;
   807  01AA  0835               	movf	(main@adc+1)^(0+128),w
   808  01AB  00BD               	movwf	(main@i+1)^(0+128)
   809  01AC  0834               	movf	main@adc^(0+128),w
   810  01AD  00BC               	movwf	main@i^(0+128)
   811  01AE                     l2026:
   812                           
   813                           ;main.c: 50:         PWM1_Set_Duty(i);
   814  01AE  083D               	movf	(main@i+1)^(0+128),w
   815  01AF  00A5               	movwf	(PWM1_Set_Duty@duty+1)^(0+128)
   816  01B0  083C               	movf	main@i^(0+128),w
   817  01B1  00A4               	movwf	PWM1_Set_Duty@duty^(0+128)
   818  01B2  120A  118A  206E  120A  118A  	fcall	_PWM1_Set_Duty
   819  01B7                     l2028:
   820                           
   821                           ;main.c: 53:         a=i%10;
   822  01B7  300A               	movlw	10
   823  01B8  00F0               	movwf	___lwmod@divisor
   824  01B9  3000               	movlw	0
   825  01BA  00F1               	movwf	___lwmod@divisor+1
   826  01BB  1683               	bsf	3,5	;RP0=1, select bank1
   827  01BC  1303               	bcf	3,6	;RP1=0, select bank1
   828  01BD  083D               	movf	(main@i+1)^(0+128),w
   829  01BE  00F3               	movwf	___lwmod@dividend+1
   830  01BF  083C               	movf	main@i^(0+128),w
   831  01C0  00F2               	movwf	___lwmod@dividend
   832  01C1  120A  158A  24ED  120A  118A  	fcall	___lwmod
   833  01C6  0871               	movf	?___lwmod+1,w
   834  01C7  1683               	bsf	3,5	;RP0=1, select bank1
   835  01C8  1303               	bcf	3,6	;RP1=0, select bank1
   836  01C9  00AD               	movwf	(main@a+1)^(0+128)
   837  01CA  0870               	movf	?___lwmod,w
   838  01CB  00AC               	movwf	main@a^(0+128)
   839  01CC                     l2030:
   840                           
   841                           ;main.c: 54:         b=i/10;
   842  01CC  300A               	movlw	10
   843  01CD  00F0               	movwf	___lwdiv@divisor
   844  01CE  3000               	movlw	0
   845  01CF  00F1               	movwf	___lwdiv@divisor+1
   846  01D0  083D               	movf	(main@i+1)^(0+128),w
   847  01D1  00F3               	movwf	___lwdiv@dividend+1
   848  01D2  083C               	movf	main@i^(0+128),w
   849  01D3  00F2               	movwf	___lwdiv@dividend
   850  01D4  120A  158A  2527  120A  118A  	fcall	___lwdiv
   851  01D9  0871               	movf	?___lwdiv+1,w
   852  01DA  1683               	bsf	3,5	;RP0=1, select bank1
   853  01DB  1303               	bcf	3,6	;RP1=0, select bank1
   854  01DC  00B7               	movwf	(main@b+1)^(0+128)
   855  01DD  0870               	movf	?___lwdiv,w
   856  01DE  00B6               	movwf	main@b^(0+128)
   857  01DF                     l2032:
   858                           
   859                           ;main.c: 55:         c=b%10;
   860  01DF  300A               	movlw	10
   861  01E0  00F0               	movwf	___awmod@divisor
   862  01E1  3000               	movlw	0
   863  01E2  00F1               	movwf	___awmod@divisor+1
   864  01E3  0837               	movf	(main@b+1)^(0+128),w
   865  01E4  00F3               	movwf	___awmod@dividend+1
   866  01E5  0836               	movf	main@b^(0+128),w
   867  01E6  00F2               	movwf	___awmod@dividend
   868  01E7  120A  158A  25BA  120A  118A  	fcall	___awmod
   869  01EC  0871               	movf	?___awmod+1,w
   870  01ED  1683               	bsf	3,5	;RP0=1, select bank1
   871  01EE  1303               	bcf	3,6	;RP1=0, select bank1
   872  01EF  00AF               	movwf	(main@c+1)^(0+128)
   873  01F0  0870               	movf	?___awmod,w
   874  01F1  00AE               	movwf	main@c^(0+128)
   875  01F2                     l2034:
   876                           
   877                           ;main.c: 56:         d=b/10;
   878  01F2  300A               	movlw	10
   879  01F3  00F0               	movwf	___awdiv@divisor
   880  01F4  3000               	movlw	0
   881  01F5  00F1               	movwf	___awdiv@divisor+1
   882  01F6  0837               	movf	(main@b+1)^(0+128),w
   883  01F7  00F3               	movwf	___awdiv@dividend+1
   884  01F8  0836               	movf	main@b^(0+128),w
   885  01F9  00F2               	movwf	___awdiv@dividend
   886  01FA  120A  118A  2007  120A  118A  	fcall	___awdiv
   887  01FF  0871               	movf	?___awdiv+1,w
   888  0200  1683               	bsf	3,5	;RP0=1, select bank1
   889  0201  1303               	bcf	3,6	;RP1=0, select bank1
   890  0202  00B9               	movwf	(main@d+1)^(0+128)
   891  0203  0870               	movf	?___awdiv,w
   892  0204  00B8               	movwf	main@d^(0+128)
   893  0205                     l2036:
   894                           
   895                           ;main.c: 57:         e=d%10;
   896  0205  300A               	movlw	10
   897  0206  00F0               	movwf	___awmod@divisor
   898  0207  3000               	movlw	0
   899  0208  00F1               	movwf	___awmod@divisor+1
   900  0209  0839               	movf	(main@d+1)^(0+128),w
   901  020A  00F3               	movwf	___awmod@dividend+1
   902  020B  0838               	movf	main@d^(0+128),w
   903  020C  00F2               	movwf	___awmod@dividend
   904  020D  120A  158A  25BA  120A  118A  	fcall	___awmod
   905  0212  0871               	movf	?___awmod+1,w
   906  0213  1683               	bsf	3,5	;RP0=1, select bank1
   907  0214  1303               	bcf	3,6	;RP1=0, select bank1
   908  0215  00B1               	movwf	(main@e+1)^(0+128)
   909  0216  0870               	movf	?___awmod,w
   910  0217  00B0               	movwf	main@e^(0+128)
   911  0218                     l2038:
   912                           
   913                           ;main.c: 58:         f=d/10;
   914  0218  300A               	movlw	10
   915  0219  00F0               	movwf	___awdiv@divisor
   916  021A  3000               	movlw	0
   917  021B  00F1               	movwf	___awdiv@divisor+1
   918  021C  0839               	movf	(main@d+1)^(0+128),w
   919  021D  00F3               	movwf	___awdiv@dividend+1
   920  021E  0838               	movf	main@d^(0+128),w
   921  021F  00F2               	movwf	___awdiv@dividend
   922  0220  120A  118A  2007  120A  118A  	fcall	___awdiv
   923  0225  0871               	movf	?___awdiv+1,w
   924  0226  1683               	bsf	3,5	;RP0=1, select bank1
   925  0227  1303               	bcf	3,6	;RP1=0, select bank1
   926  0228  00BB               	movwf	(main@f+1)^(0+128)
   927  0229  0870               	movf	?___awdiv,w
   928  022A  00BA               	movwf	main@f^(0+128)
   929  022B                     l2040:
   930                           
   931                           ;main.c: 59:         g=f%10;
   932  022B  300A               	movlw	10
   933  022C  00F0               	movwf	___awmod@divisor
   934  022D  3000               	movlw	0
   935  022E  00F1               	movwf	___awmod@divisor+1
   936  022F  083B               	movf	(main@f+1)^(0+128),w
   937  0230  00F3               	movwf	___awmod@dividend+1
   938  0231  083A               	movf	main@f^(0+128),w
   939  0232  00F2               	movwf	___awmod@dividend
   940  0233  120A  158A  25BA  120A  118A  	fcall	___awmod
   941  0238  0871               	movf	?___awmod+1,w
   942  0239  1683               	bsf	3,5	;RP0=1, select bank1
   943  023A  1303               	bcf	3,6	;RP1=0, select bank1
   944  023B  00B3               	movwf	(main@g+1)^(0+128)
   945  023C  0870               	movf	?___awmod,w
   946  023D  00B2               	movwf	main@g^(0+128)
   947  023E                     l2042:
   948  023E  300A               	movlw	10
   949  023F  00F0               	movwf	___awdiv@divisor
   950  0240  3000               	movlw	0
   951  0241  00F1               	movwf	___awdiv@divisor+1
   952  0242  083B               	movf	(main@f+1)^(0+128),w
   953  0243  00F3               	movwf	___awdiv@dividend+1
   954  0244  083A               	movf	main@f^(0+128),w
   955  0245  00F2               	movwf	___awdiv@dividend
   956  0246  120A  118A  2007  120A  118A  	fcall	___awdiv
   957  024B                     l2044:
   958                           
   959                           ;main.c: 63:         PORTB=seg[g];RD0=1;
   960  024B  1683               	bsf	3,5	;RP0=1, select bank1
   961  024C  1303               	bcf	3,6	;RP1=0, select bank1
   962  024D  0832               	movf	main@g^(0+128),w
   963  024E  3EBE               	addlw	(low (_seg| 0))& (0+255)
   964  024F  0084               	movwf	4
   965  0250  1383               	bcf	3,7	;select IRP bank1
   966  0251  0800               	movf	0,w
   967  0252  1283               	bcf	3,5	;RP0=0, select bank0
   968  0253  1303               	bcf	3,6	;RP1=0, select bank0
   969  0254  0086               	movwf	6	;volatile
   970  0255                     l2046:
   971  0255  1408               	bsf	8,0	;volatile
   972  0256                     l2048:
   973                           
   974                           ;main.c: 64:         _delay((unsigned long)((5)*(8000000/4000.0)));RD0=0;
   975  0256  300D               	movlw	13
   976  0257  1683               	bsf	3,5	;RP0=1, select bank1
   977  0258  1303               	bcf	3,6	;RP1=0, select bank1
   978  0259  00A9               	movwf	(??_main^(0+128)+1)
   979  025A  30FB               	movlw	251
   980  025B  00A8               	movwf	??_main^(0+128)
   981  025C                     u2877:
   982  025C  0BA8               	decfsz	??_main^(0+128),f
   983  025D  2A5C               	goto	u2877
   984  025E  0BA9               	decfsz	(??_main^(0+128)+1),f
   985  025F  2A5C               	goto	u2877
   986  0260                     l2050:
   987  0260  1283               	bcf	3,5	;RP0=0, select bank0
   988  0261  1303               	bcf	3,6	;RP1=0, select bank0
   989  0262  1008               	bcf	8,0	;volatile
   990  0263                     l2052:
   991                           
   992                           ;main.c: 65:         PORTB=seg[e];RD7=1;RD1=1;
   993  0263  1683               	bsf	3,5	;RP0=1, select bank1
   994  0264  1303               	bcf	3,6	;RP1=0, select bank1
   995  0265  0830               	movf	main@e^(0+128),w
   996  0266  3EBE               	addlw	(low (_seg| 0))& (0+255)
   997  0267  0084               	movwf	4
   998  0268  1383               	bcf	3,7	;select IRP bank1
   999  0269  0800               	movf	0,w
  1000  026A  1283               	bcf	3,5	;RP0=0, select bank0
  1001  026B  1303               	bcf	3,6	;RP1=0, select bank0
  1002  026C  0086               	movwf	6	;volatile
  1003  026D                     l2054:
  1004  026D  1788               	bsf	8,7	;volatile
  1005  026E                     l2056:
  1006  026E  1488               	bsf	8,1	;volatile
  1007  026F                     l2058:
  1008                           
  1009                           ;main.c: 66:         _delay((unsigned long)((5)*(8000000/4000.0)));RD1=0;
  1010  026F  300D               	movlw	13
  1011  0270  1683               	bsf	3,5	;RP0=1, select bank1
  1012  0271  1303               	bcf	3,6	;RP1=0, select bank1
  1013  0272  00A9               	movwf	(??_main^(0+128)+1)
  1014  0273  30FB               	movlw	251
  1015  0274  00A8               	movwf	??_main^(0+128)
  1016  0275                     u2887:
  1017  0275  0BA8               	decfsz	??_main^(0+128),f
  1018  0276  2A75               	goto	u2887
  1019  0277  0BA9               	decfsz	(??_main^(0+128)+1),f
  1020  0278  2A75               	goto	u2887
  1021  0279                     l2060:
  1022  0279  1283               	bcf	3,5	;RP0=0, select bank0
  1023  027A  1303               	bcf	3,6	;RP1=0, select bank0
  1024  027B  1088               	bcf	8,1	;volatile
  1025  027C                     l2062:
  1026                           
  1027                           ;main.c: 67:         PORTB=seg[c];RD2=1;
  1028  027C  1683               	bsf	3,5	;RP0=1, select bank1
  1029  027D  1303               	bcf	3,6	;RP1=0, select bank1
  1030  027E  082E               	movf	main@c^(0+128),w
  1031  027F  3EBE               	addlw	(low (_seg| 0))& (0+255)
  1032  0280  0084               	movwf	4
  1033  0281  1383               	bcf	3,7	;select IRP bank1
  1034  0282  0800               	movf	0,w
  1035  0283  1283               	bcf	3,5	;RP0=0, select bank0
  1036  0284  1303               	bcf	3,6	;RP1=0, select bank0
  1037  0285  0086               	movwf	6	;volatile
  1038  0286                     l2064:
  1039  0286  1508               	bsf	8,2	;volatile
  1040  0287                     l2066:
  1041                           
  1042                           ;main.c: 68:         _delay((unsigned long)((5)*(8000000/4000.0)));RD2=0;
  1043  0287  300D               	movlw	13
  1044  0288  1683               	bsf	3,5	;RP0=1, select bank1
  1045  0289  1303               	bcf	3,6	;RP1=0, select bank1
  1046  028A  00A9               	movwf	(??_main^(0+128)+1)
  1047  028B  30FB               	movlw	251
  1048  028C  00A8               	movwf	??_main^(0+128)
  1049  028D                     u2897:
  1050  028D  0BA8               	decfsz	??_main^(0+128),f
  1051  028E  2A8D               	goto	u2897
  1052  028F  0BA9               	decfsz	(??_main^(0+128)+1),f
  1053  0290  2A8D               	goto	u2897
  1054  0291                     l2068:
  1055  0291  1283               	bcf	3,5	;RP0=0, select bank0
  1056  0292  1303               	bcf	3,6	;RP1=0, select bank0
  1057  0293  1108               	bcf	8,2	;volatile
  1058  0294                     l2070:
  1059                           
  1060                           ;main.c: 69:         PORTB=seg[a];RD3=1;
  1061  0294  1683               	bsf	3,5	;RP0=1, select bank1
  1062  0295  1303               	bcf	3,6	;RP1=0, select bank1
  1063  0296  082C               	movf	main@a^(0+128),w
  1064  0297  3EBE               	addlw	(low (_seg| 0))& (0+255)
  1065  0298  0084               	movwf	4
  1066  0299  1383               	bcf	3,7	;select IRP bank1
  1067  029A  0800               	movf	0,w
  1068  029B  1283               	bcf	3,5	;RP0=0, select bank0
  1069  029C  1303               	bcf	3,6	;RP1=0, select bank0
  1070  029D  0086               	movwf	6	;volatile
  1071  029E                     l2072:
  1072  029E  1588               	bsf	8,3	;volatile
  1073  029F                     l2074:
  1074                           
  1075                           ;main.c: 70:         _delay((unsigned long)((5)*(8000000/4000.0)));RD3=0;
  1076  029F  300D               	movlw	13
  1077  02A0  1683               	bsf	3,5	;RP0=1, select bank1
  1078  02A1  1303               	bcf	3,6	;RP1=0, select bank1
  1079  02A2  00A9               	movwf	(??_main^(0+128)+1)
  1080  02A3  30FB               	movlw	251
  1081  02A4  00A8               	movwf	??_main^(0+128)
  1082  02A5                     u2907:
  1083  02A5  0BA8               	decfsz	??_main^(0+128),f
  1084  02A6  2AA5               	goto	u2907
  1085  02A7  0BA9               	decfsz	(??_main^(0+128)+1),f
  1086  02A8  2AA5               	goto	u2907
  1087  02A9                     l2076:
  1088  02A9  1283               	bcf	3,5	;RP0=0, select bank0
  1089  02AA  1303               	bcf	3,6	;RP1=0, select bank0
  1090  02AB  1188               	bcf	8,3	;volatile
  1091  02AC  299E               	goto	l2022
  1092  02AD  120A  118A  2800   	ljmp	start
  1093  02B0                     __end_of_main:
  1094                           
  1095                           	psect	text1
  1096  0CED                     __ptext1:	
  1097 ;; *************** function ___lwmod *****************
  1098 ;; Defined at:
  1099 ;;		line 5 in file "C:\Program Files\Microchip\xc8\v2.20\pic\sources\c90\common\lwmod.c"
  1100 ;; Parameters:    Size  Location     Type
  1101 ;;  divisor         2    0[COMMON] unsigned int 
  1102 ;;  dividend        2    2[COMMON] unsigned int 
  1103 ;; Auto vars:     Size  Location     Type
  1104 ;;  counter         1    4[COMMON] unsigned char 
  1105 ;; Return value:  Size  Location     Type
  1106 ;;                  2    0[COMMON] unsigned int 
  1107 ;; Registers used:
  1108 ;;		wreg, status,2, status,0, btemp+1
  1109 ;; Tracked objects:
  1110 ;;		On entry : 0/0
  1111 ;;		On exit  : 0/0
  1112 ;;		Unchanged: 0/0
  1113 ;; Data sizes:     COMMON   BANK0   BANK1   BANK3   BANK2
  1114 ;;      Params:         4       0       0       0       0
  1115 ;;      Locals:         1       0       0       0       0
  1116 ;;      Temps:          0       0       0       0       0
  1117 ;;      Totals:         5       0       0       0       0
  1118 ;;Total ram usage:        5 bytes
  1119 ;; Hardware stack levels used:    1
  1120 ;; This function calls:
  1121 ;;		Nothing
  1122 ;; This function is called by:
  1123 ;;		_main
  1124 ;; This function uses a non-reentrant model
  1125 ;;
  1126                           
  1127                           
  1128                           ;psect for function ___lwmod
  1129  0CED                     ___lwmod:
  1130  0CED                     l1992:	
  1131                           ;incstack = 0
  1132                           ; Regs used in ___lwmod: [wreg+status,2+status,0+btemp+1]
  1133                           
  1134  0CED  0870               	movf	___lwmod@divisor,w
  1135  0CEE  0471               	iorwf	___lwmod@divisor+1,w
  1136  0CEF  1903               	btfsc	3,2
  1137  0CF0  2CF2               	goto	u2781
  1138  0CF1  2CF3               	goto	u2780
  1139  0CF2                     u2781:
  1140  0CF2  2D22               	goto	l2010
  1141  0CF3                     u2780:
  1142  0CF3                     l1994:
  1143  0CF3  01F4               	clrf	___lwmod@counter
  1144  0CF4  0AF4               	incf	___lwmod@counter,f
  1145  0CF5  2D01               	goto	l2000
  1146  0CF6                     l1996:
  1147  0CF6  3001               	movlw	1
  1148  0CF7                     u2795:
  1149  0CF7  1003               	clrc
  1150  0CF8  0DF0               	rlf	___lwmod@divisor,f
  1151  0CF9  0DF1               	rlf	___lwmod@divisor+1,f
  1152  0CFA  3EFF               	addlw	-1
  1153  0CFB  1D03               	skipz
  1154  0CFC  2CF7               	goto	u2795
  1155  0CFD                     l1998:
  1156  0CFD  3001               	movlw	1
  1157  0CFE  00FF               	movwf	btemp+1
  1158  0CFF  087F               	movf	btemp+1,w
  1159  0D00  07F4               	addwf	___lwmod@counter,f
  1160  0D01                     l2000:
  1161  0D01  1FF1               	btfss	___lwmod@divisor+1,7
  1162  0D02  2D04               	goto	u2801
  1163  0D03  2D05               	goto	u2800
  1164  0D04                     u2801:
  1165  0D04  2CF6               	goto	l1996
  1166  0D05                     u2800:
  1167  0D05                     l2002:
  1168  0D05  0871               	movf	___lwmod@divisor+1,w
  1169  0D06  0273               	subwf	___lwmod@dividend+1,w
  1170  0D07  1D03               	skipz
  1171  0D08  2D0B               	goto	u2815
  1172  0D09  0870               	movf	___lwmod@divisor,w
  1173  0D0A  0272               	subwf	___lwmod@dividend,w
  1174  0D0B                     u2815:
  1175  0D0B  1C03               	skipc
  1176  0D0C  2D0E               	goto	u2811
  1177  0D0D  2D0F               	goto	u2810
  1178  0D0E                     u2811:
  1179  0D0E  2D15               	goto	l2006
  1180  0D0F                     u2810:
  1181  0D0F                     l2004:
  1182  0D0F  0870               	movf	___lwmod@divisor,w
  1183  0D10  02F2               	subwf	___lwmod@dividend,f
  1184  0D11  0871               	movf	___lwmod@divisor+1,w
  1185  0D12  1C03               	skipc
  1186  0D13  03F3               	decf	___lwmod@dividend+1,f
  1187  0D14  02F3               	subwf	___lwmod@dividend+1,f
  1188  0D15                     l2006:
  1189  0D15  3001               	movlw	1
  1190  0D16                     u2825:
  1191  0D16  1003               	clrc
  1192  0D17  0CF1               	rrf	___lwmod@divisor+1,f
  1193  0D18  0CF0               	rrf	___lwmod@divisor,f
  1194  0D19  3EFF               	addlw	-1
  1195  0D1A  1D03               	skipz
  1196  0D1B  2D16               	goto	u2825
  1197  0D1C                     l2008:
  1198  0D1C  3001               	movlw	1
  1199  0D1D  02F4               	subwf	___lwmod@counter,f
  1200  0D1E  1D03               	btfss	3,2
  1201  0D1F  2D21               	goto	u2831
  1202  0D20  2D22               	goto	u2830
  1203  0D21                     u2831:
  1204  0D21  2D05               	goto	l2002
  1205  0D22                     u2830:
  1206  0D22                     l2010:
  1207  0D22  0873               	movf	___lwmod@dividend+1,w
  1208  0D23  00F1               	movwf	?___lwmod+1
  1209  0D24  0872               	movf	___lwmod@dividend,w
  1210  0D25  00F0               	movwf	?___lwmod
  1211  0D26                     l484:
  1212  0D26  0008               	return
  1213  0D27                     __end_of___lwmod:
  1214                           
  1215                           	psect	text2
  1216  0D27                     __ptext2:	
  1217 ;; *************** function ___lwdiv *****************
  1218 ;; Defined at:
  1219 ;;		line 5 in file "C:\Program Files\Microchip\xc8\v2.20\pic\sources\c90\common\lwdiv.c"
  1220 ;; Parameters:    Size  Location     Type
  1221 ;;  divisor         2    0[COMMON] unsigned int 
  1222 ;;  dividend        2    2[COMMON] unsigned int 
  1223 ;; Auto vars:     Size  Location     Type
  1224 ;;  quotient        2    4[COMMON] unsigned int 
  1225 ;;  counter         1    6[COMMON] unsigned char 
  1226 ;; Return value:  Size  Location     Type
  1227 ;;                  2    0[COMMON] unsigned int 
  1228 ;; Registers used:
  1229 ;;		wreg, status,2, status,0, btemp+1
  1230 ;; Tracked objects:
  1231 ;;		On entry : 0/0
  1232 ;;		On exit  : 0/0
  1233 ;;		Unchanged: 0/0
  1234 ;; Data sizes:     COMMON   BANK0   BANK1   BANK3   BANK2
  1235 ;;      Params:         4       0       0       0       0
  1236 ;;      Locals:         3       0       0       0       0
  1237 ;;      Temps:          0       0       0       0       0
  1238 ;;      Totals:         7       0       0       0       0
  1239 ;;Total ram usage:        7 bytes
  1240 ;; Hardware stack levels used:    1
  1241 ;; This function calls:
  1242 ;;		Nothing
  1243 ;; This function is called by:
  1244 ;;		_main
  1245 ;; This function uses a non-reentrant model
  1246 ;;
  1247                           
  1248                           
  1249                           ;psect for function ___lwdiv
  1250  0D27                     ___lwdiv:
  1251  0D27                     l1966:	
  1252                           ;incstack = 0
  1253                           ; Regs used in ___lwdiv: [wreg+status,2+status,0+btemp+1]
  1254                           
  1255  0D27  01F4               	clrf	___lwdiv@quotient
  1256  0D28  01F5               	clrf	___lwdiv@quotient+1
  1257  0D29                     l1968:
  1258  0D29  0870               	movf	___lwdiv@divisor,w
  1259  0D2A  0471               	iorwf	___lwdiv@divisor+1,w
  1260  0D2B  1903               	btfsc	3,2
  1261  0D2C  2D2E               	goto	u2711
  1262  0D2D  2D2F               	goto	u2710
  1263  0D2E                     u2711:
  1264  0D2E  2D66               	goto	l1988
  1265  0D2F                     u2710:
  1266  0D2F                     l1970:
  1267  0D2F  01F6               	clrf	___lwdiv@counter
  1268  0D30  0AF6               	incf	___lwdiv@counter,f
  1269  0D31  2D3D               	goto	l1976
  1270  0D32                     l1972:
  1271  0D32  3001               	movlw	1
  1272  0D33                     u2725:
  1273  0D33  1003               	clrc
  1274  0D34  0DF0               	rlf	___lwdiv@divisor,f
  1275  0D35  0DF1               	rlf	___lwdiv@divisor+1,f
  1276  0D36  3EFF               	addlw	-1
  1277  0D37  1D03               	skipz
  1278  0D38  2D33               	goto	u2725
  1279  0D39                     l1974:
  1280  0D39  3001               	movlw	1
  1281  0D3A  00FF               	movwf	btemp+1
  1282  0D3B  087F               	movf	btemp+1,w
  1283  0D3C  07F6               	addwf	___lwdiv@counter,f
  1284  0D3D                     l1976:
  1285  0D3D  1FF1               	btfss	___lwdiv@divisor+1,7
  1286  0D3E  2D40               	goto	u2731
  1287  0D3F  2D41               	goto	u2730
  1288  0D40                     u2731:
  1289  0D40  2D32               	goto	l1972
  1290  0D41                     u2730:
  1291  0D41                     l1978:
  1292  0D41  3001               	movlw	1
  1293  0D42                     u2745:
  1294  0D42  1003               	clrc
  1295  0D43  0DF4               	rlf	___lwdiv@quotient,f
  1296  0D44  0DF5               	rlf	___lwdiv@quotient+1,f
  1297  0D45  3EFF               	addlw	-1
  1298  0D46  1D03               	skipz
  1299  0D47  2D42               	goto	u2745
  1300  0D48  0871               	movf	___lwdiv@divisor+1,w
  1301  0D49  0273               	subwf	___lwdiv@dividend+1,w
  1302  0D4A  1D03               	skipz
  1303  0D4B  2D4E               	goto	u2755
  1304  0D4C  0870               	movf	___lwdiv@divisor,w
  1305  0D4D  0272               	subwf	___lwdiv@dividend,w
  1306  0D4E                     u2755:
  1307  0D4E  1C03               	skipc
  1308  0D4F  2D51               	goto	u2751
  1309  0D50  2D52               	goto	u2750
  1310  0D51                     u2751:
  1311  0D51  2D59               	goto	l1984
  1312  0D52                     u2750:
  1313  0D52                     l1980:
  1314  0D52  0870               	movf	___lwdiv@divisor,w
  1315  0D53  02F2               	subwf	___lwdiv@dividend,f
  1316  0D54  0871               	movf	___lwdiv@divisor+1,w
  1317  0D55  1C03               	skipc
  1318  0D56  03F3               	decf	___lwdiv@dividend+1,f
  1319  0D57  02F3               	subwf	___lwdiv@dividend+1,f
  1320  0D58                     l1982:
  1321  0D58  1474               	bsf	___lwdiv@quotient,0
  1322  0D59                     l1984:
  1323  0D59  3001               	movlw	1
  1324  0D5A                     u2765:
  1325  0D5A  1003               	clrc
  1326  0D5B  0CF1               	rrf	___lwdiv@divisor+1,f
  1327  0D5C  0CF0               	rrf	___lwdiv@divisor,f
  1328  0D5D  3EFF               	addlw	-1
  1329  0D5E  1D03               	skipz
  1330  0D5F  2D5A               	goto	u2765
  1331  0D60                     l1986:
  1332  0D60  3001               	movlw	1
  1333  0D61  02F6               	subwf	___lwdiv@counter,f
  1334  0D62  1D03               	btfss	3,2
  1335  0D63  2D65               	goto	u2771
  1336  0D64  2D66               	goto	u2770
  1337  0D65                     u2771:
  1338  0D65  2D41               	goto	l1978
  1339  0D66                     u2770:
  1340  0D66                     l1988:
  1341  0D66  0875               	movf	___lwdiv@quotient+1,w
  1342  0D67  00F1               	movwf	?___lwdiv+1
  1343  0D68  0874               	movf	___lwdiv@quotient,w
  1344  0D69  00F0               	movwf	?___lwdiv
  1345  0D6A                     l474:
  1346  0D6A  0008               	return
  1347  0D6B                     __end_of___lwdiv:
  1348                           
  1349                           	psect	text3
  1350  0DBA                     __ptext3:	
  1351 ;; *************** function ___awmod *****************
  1352 ;; Defined at:
  1353 ;;		line 5 in file "C:\Program Files\Microchip\xc8\v2.20\pic\sources\c90\common\awmod.c"
  1354 ;; Parameters:    Size  Location     Type
  1355 ;;  divisor         2    0[COMMON] int 
  1356 ;;  dividend        2    2[COMMON] int 
  1357 ;; Auto vars:     Size  Location     Type
  1358 ;;  sign            1    5[COMMON] unsigned char 
  1359 ;;  counter         1    4[COMMON] unsigned char 
  1360 ;; Return value:  Size  Location     Type
  1361 ;;                  2    0[COMMON] int 
  1362 ;; Registers used:
  1363 ;;		wreg, status,2, status,0, btemp+1
  1364 ;; Tracked objects:
  1365 ;;		On entry : 0/0
  1366 ;;		On exit  : 0/0
  1367 ;;		Unchanged: 0/0
  1368 ;; Data sizes:     COMMON   BANK0   BANK1   BANK3   BANK2
  1369 ;;      Params:         4       0       0       0       0
  1370 ;;      Locals:         2       0       0       0       0
  1371 ;;      Temps:          0       0       0       0       0
  1372 ;;      Totals:         6       0       0       0       0
  1373 ;;Total ram usage:        6 bytes
  1374 ;; Hardware stack levels used:    1
  1375 ;; This function calls:
  1376 ;;		Nothing
  1377 ;; This function is called by:
  1378 ;;		_main
  1379 ;; This function uses a non-reentrant model
  1380 ;;
  1381                           
  1382                           
  1383                           ;psect for function ___awmod
  1384  0DBA                     ___awmod:
  1385  0DBA                     l1928:	
  1386                           ;incstack = 0
  1387                           ; Regs used in ___awmod: [wreg+status,2+status,0+btemp+1]
  1388                           
  1389  0DBA  01F5               	clrf	___awmod@sign
  1390  0DBB                     l1930:
  1391  0DBB  1FF3               	btfss	___awmod@dividend+1,7
  1392  0DBC  2DBE               	goto	u2621
  1393  0DBD  2DBF               	goto	u2620
  1394  0DBE                     u2621:
  1395  0DBE  2DC6               	goto	l1936
  1396  0DBF                     u2620:
  1397  0DBF                     l1932:
  1398  0DBF  09F2               	comf	___awmod@dividend,f
  1399  0DC0  09F3               	comf	___awmod@dividend+1,f
  1400  0DC1  0AF2               	incf	___awmod@dividend,f
  1401  0DC2  1903               	skipnz
  1402  0DC3  0AF3               	incf	___awmod@dividend+1,f
  1403  0DC4                     l1934:
  1404  0DC4  01F5               	clrf	___awmod@sign
  1405  0DC5  0AF5               	incf	___awmod@sign,f
  1406  0DC6                     l1936:
  1407  0DC6  1FF1               	btfss	___awmod@divisor+1,7
  1408  0DC7  2DC9               	goto	u2631
  1409  0DC8  2DCA               	goto	u2630
  1410  0DC9                     u2631:
  1411  0DC9  2DCF               	goto	l1940
  1412  0DCA                     u2630:
  1413  0DCA                     l1938:
  1414  0DCA  09F0               	comf	___awmod@divisor,f
  1415  0DCB  09F1               	comf	___awmod@divisor+1,f
  1416  0DCC  0AF0               	incf	___awmod@divisor,f
  1417  0DCD  1903               	skipnz
  1418  0DCE  0AF1               	incf	___awmod@divisor+1,f
  1419  0DCF                     l1940:
  1420  0DCF  0870               	movf	___awmod@divisor,w
  1421  0DD0  0471               	iorwf	___awmod@divisor+1,w
  1422  0DD1  1903               	btfsc	3,2
  1423  0DD2  2DD4               	goto	u2641
  1424  0DD3  2DD5               	goto	u2640
  1425  0DD4                     u2641:
  1426  0DD4  2E04               	goto	l1958
  1427  0DD5                     u2640:
  1428  0DD5                     l1942:
  1429  0DD5  01F4               	clrf	___awmod@counter
  1430  0DD6  0AF4               	incf	___awmod@counter,f
  1431  0DD7  2DE3               	goto	l1948
  1432  0DD8                     l1944:
  1433  0DD8  3001               	movlw	1
  1434  0DD9                     u2655:
  1435  0DD9  1003               	clrc
  1436  0DDA  0DF0               	rlf	___awmod@divisor,f
  1437  0DDB  0DF1               	rlf	___awmod@divisor+1,f
  1438  0DDC  3EFF               	addlw	-1
  1439  0DDD  1D03               	skipz
  1440  0DDE  2DD9               	goto	u2655
  1441  0DDF                     l1946:
  1442  0DDF  3001               	movlw	1
  1443  0DE0  00FF               	movwf	btemp+1
  1444  0DE1  087F               	movf	btemp+1,w
  1445  0DE2  07F4               	addwf	___awmod@counter,f
  1446  0DE3                     l1948:
  1447  0DE3  1FF1               	btfss	___awmod@divisor+1,7
  1448  0DE4  2DE6               	goto	u2661
  1449  0DE5  2DE7               	goto	u2660
  1450  0DE6                     u2661:
  1451  0DE6  2DD8               	goto	l1944
  1452  0DE7                     u2660:
  1453  0DE7                     l1950:
  1454  0DE7  0871               	movf	___awmod@divisor+1,w
  1455  0DE8  0273               	subwf	___awmod@dividend+1,w
  1456  0DE9  1D03               	skipz
  1457  0DEA  2DED               	goto	u2675
  1458  0DEB  0870               	movf	___awmod@divisor,w
  1459  0DEC  0272               	subwf	___awmod@dividend,w
  1460  0DED                     u2675:
  1461  0DED  1C03               	skipc
  1462  0DEE  2DF0               	goto	u2671
  1463  0DEF  2DF1               	goto	u2670
  1464  0DF0                     u2671:
  1465  0DF0  2DF7               	goto	l1954
  1466  0DF1                     u2670:
  1467  0DF1                     l1952:
  1468  0DF1  0870               	movf	___awmod@divisor,w
  1469  0DF2  02F2               	subwf	___awmod@dividend,f
  1470  0DF3  0871               	movf	___awmod@divisor+1,w
  1471  0DF4  1C03               	skipc
  1472  0DF5  03F3               	decf	___awmod@dividend+1,f
  1473  0DF6  02F3               	subwf	___awmod@dividend+1,f
  1474  0DF7                     l1954:
  1475  0DF7  3001               	movlw	1
  1476  0DF8                     u2685:
  1477  0DF8  1003               	clrc
  1478  0DF9  0CF1               	rrf	___awmod@divisor+1,f
  1479  0DFA  0CF0               	rrf	___awmod@divisor,f
  1480  0DFB  3EFF               	addlw	-1
  1481  0DFC  1D03               	skipz
  1482  0DFD  2DF8               	goto	u2685
  1483  0DFE                     l1956:
  1484  0DFE  3001               	movlw	1
  1485  0DFF  02F4               	subwf	___awmod@counter,f
  1486  0E00  1D03               	btfss	3,2
  1487  0E01  2E03               	goto	u2691
  1488  0E02  2E04               	goto	u2690
  1489  0E03                     u2691:
  1490  0E03  2DE7               	goto	l1950
  1491  0E04                     u2690:
  1492  0E04                     l1958:
  1493  0E04  0875               	movf	___awmod@sign,w
  1494  0E05  1903               	btfsc	3,2
  1495  0E06  2E08               	goto	u2701
  1496  0E07  2E09               	goto	u2700
  1497  0E08                     u2701:
  1498  0E08  2E0E               	goto	l1962
  1499  0E09                     u2700:
  1500  0E09                     l1960:
  1501  0E09  09F2               	comf	___awmod@dividend,f
  1502  0E0A  09F3               	comf	___awmod@dividend+1,f
  1503  0E0B  0AF2               	incf	___awmod@dividend,f
  1504  0E0C  1903               	skipnz
  1505  0E0D  0AF3               	incf	___awmod@dividend+1,f
  1506  0E0E                     l1962:
  1507  0E0E  0873               	movf	___awmod@dividend+1,w
  1508  0E0F  00F1               	movwf	?___awmod+1
  1509  0E10  0872               	movf	___awmod@dividend,w
  1510  0E11  00F0               	movwf	?___awmod
  1511  0E12                     l368:
  1512  0E12  0008               	return
  1513  0E13                     __end_of___awmod:
  1514                           
  1515                           	psect	text4
  1516  0007                     __ptext4:	
  1517 ;; *************** function ___awdiv *****************
  1518 ;; Defined at:
  1519 ;;		line 5 in file "C:\Program Files\Microchip\xc8\v2.20\pic\sources\c90\common\awdiv.c"
  1520 ;; Parameters:    Size  Location     Type
  1521 ;;  divisor         2    0[COMMON] int 
  1522 ;;  dividend        2    2[COMMON] int 
  1523 ;; Auto vars:     Size  Location     Type
  1524 ;;  quotient        2    6[COMMON] int 
  1525 ;;  sign            1    5[COMMON] unsigned char 
  1526 ;;  counter         1    4[COMMON] unsigned char 
  1527 ;; Return value:  Size  Location     Type
  1528 ;;                  2    0[COMMON] int 
  1529 ;; Registers used:
  1530 ;;		wreg, status,2, status,0, btemp+1
  1531 ;; Tracked objects:
  1532 ;;		On entry : 0/0
  1533 ;;		On exit  : 0/0
  1534 ;;		Unchanged: 0/0
  1535 ;; Data sizes:     COMMON   BANK0   BANK1   BANK3   BANK2
  1536 ;;      Params:         4       0       0       0       0
  1537 ;;      Locals:         4       0       0       0       0
  1538 ;;      Temps:          0       0       0       0       0
  1539 ;;      Totals:         8       0       0       0       0
  1540 ;;Total ram usage:        8 bytes
  1541 ;; Hardware stack levels used:    1
  1542 ;; This function calls:
  1543 ;;		Nothing
  1544 ;; This function is called by:
  1545 ;;		_main
  1546 ;; This function uses a non-reentrant model
  1547 ;;
  1548                           
  1549                           
  1550                           ;psect for function ___awdiv
  1551  0007                     ___awdiv:
  1552  0007                     l1884:	
  1553                           ;incstack = 0
  1554                           ; Regs used in ___awdiv: [wreg+status,2+status,0+btemp+1]
  1555                           
  1556  0007  01F5               	clrf	___awdiv@sign
  1557  0008                     l1886:
  1558  0008  1FF1               	btfss	___awdiv@divisor+1,7
  1559  0009  280B               	goto	u2521
  1560  000A  280C               	goto	u2520
  1561  000B                     u2521:
  1562  000B  2813               	goto	l1892
  1563  000C                     u2520:
  1564  000C                     l1888:
  1565  000C  09F0               	comf	___awdiv@divisor,f
  1566  000D  09F1               	comf	___awdiv@divisor+1,f
  1567  000E  0AF0               	incf	___awdiv@divisor,f
  1568  000F  1903               	skipnz
  1569  0010  0AF1               	incf	___awdiv@divisor+1,f
  1570  0011                     l1890:
  1571  0011  01F5               	clrf	___awdiv@sign
  1572  0012  0AF5               	incf	___awdiv@sign,f
  1573  0013                     l1892:
  1574  0013  1FF3               	btfss	___awdiv@dividend+1,7
  1575  0014  2816               	goto	u2531
  1576  0015  2817               	goto	u2530
  1577  0016                     u2531:
  1578  0016  2820               	goto	l1898
  1579  0017                     u2530:
  1580  0017                     l1894:
  1581  0017  09F2               	comf	___awdiv@dividend,f
  1582  0018  09F3               	comf	___awdiv@dividend+1,f
  1583  0019  0AF2               	incf	___awdiv@dividend,f
  1584  001A  1903               	skipnz
  1585  001B  0AF3               	incf	___awdiv@dividend+1,f
  1586  001C                     l1896:
  1587  001C  3001               	movlw	1
  1588  001D  00FF               	movwf	btemp+1
  1589  001E  087F               	movf	btemp+1,w
  1590  001F  06F5               	xorwf	___awdiv@sign,f
  1591  0020                     l1898:
  1592  0020  01F6               	clrf	___awdiv@quotient
  1593  0021  01F7               	clrf	___awdiv@quotient+1
  1594  0022                     l1900:
  1595  0022  0870               	movf	___awdiv@divisor,w
  1596  0023  0471               	iorwf	___awdiv@divisor+1,w
  1597  0024  1903               	btfsc	3,2
  1598  0025  2827               	goto	u2541
  1599  0026  2828               	goto	u2540
  1600  0027                     u2541:
  1601  0027  285F               	goto	l1920
  1602  0028                     u2540:
  1603  0028                     l1902:
  1604  0028  01F4               	clrf	___awdiv@counter
  1605  0029  0AF4               	incf	___awdiv@counter,f
  1606  002A  2836               	goto	l1908
  1607  002B                     l1904:
  1608  002B  3001               	movlw	1
  1609  002C                     u2555:
  1610  002C  1003               	clrc
  1611  002D  0DF0               	rlf	___awdiv@divisor,f
  1612  002E  0DF1               	rlf	___awdiv@divisor+1,f
  1613  002F  3EFF               	addlw	-1
  1614  0030  1D03               	skipz
  1615  0031  282C               	goto	u2555
  1616  0032                     l1906:
  1617  0032  3001               	movlw	1
  1618  0033  00FF               	movwf	btemp+1
  1619  0034  087F               	movf	btemp+1,w
  1620  0035  07F4               	addwf	___awdiv@counter,f
  1621  0036                     l1908:
  1622  0036  1FF1               	btfss	___awdiv@divisor+1,7
  1623  0037  2839               	goto	u2561
  1624  0038  283A               	goto	u2560
  1625  0039                     u2561:
  1626  0039  282B               	goto	l1904
  1627  003A                     u2560:
  1628  003A                     l1910:
  1629  003A  3001               	movlw	1
  1630  003B                     u2575:
  1631  003B  1003               	clrc
  1632  003C  0DF6               	rlf	___awdiv@quotient,f
  1633  003D  0DF7               	rlf	___awdiv@quotient+1,f
  1634  003E  3EFF               	addlw	-1
  1635  003F  1D03               	skipz
  1636  0040  283B               	goto	u2575
  1637  0041  0871               	movf	___awdiv@divisor+1,w
  1638  0042  0273               	subwf	___awdiv@dividend+1,w
  1639  0043  1D03               	skipz
  1640  0044  2847               	goto	u2585
  1641  0045  0870               	movf	___awdiv@divisor,w
  1642  0046  0272               	subwf	___awdiv@dividend,w
  1643  0047                     u2585:
  1644  0047  1C03               	skipc
  1645  0048  284A               	goto	u2581
  1646  0049  284B               	goto	u2580
  1647  004A                     u2581:
  1648  004A  2852               	goto	l1916
  1649  004B                     u2580:
  1650  004B                     l1912:
  1651  004B  0870               	movf	___awdiv@divisor,w
  1652  004C  02F2               	subwf	___awdiv@dividend,f
  1653  004D  0871               	movf	___awdiv@divisor+1,w
  1654  004E  1C03               	skipc
  1655  004F  03F3               	decf	___awdiv@dividend+1,f
  1656  0050  02F3               	subwf	___awdiv@dividend+1,f
  1657  0051                     l1914:
  1658  0051  1476               	bsf	___awdiv@quotient,0
  1659  0052                     l1916:
  1660  0052  3001               	movlw	1
  1661  0053                     u2595:
  1662  0053  1003               	clrc
  1663  0054  0CF1               	rrf	___awdiv@divisor+1,f
  1664  0055  0CF0               	rrf	___awdiv@divisor,f
  1665  0056  3EFF               	addlw	-1
  1666  0057  1D03               	skipz
  1667  0058  2853               	goto	u2595
  1668  0059                     l1918:
  1669  0059  3001               	movlw	1
  1670  005A  02F4               	subwf	___awdiv@counter,f
  1671  005B  1D03               	btfss	3,2
  1672  005C  285E               	goto	u2601
  1673  005D  285F               	goto	u2600
  1674  005E                     u2601:
  1675  005E  283A               	goto	l1910
  1676  005F                     u2600:
  1677  005F                     l1920:
  1678  005F  0875               	movf	___awdiv@sign,w
  1679  0060  1903               	btfsc	3,2
  1680  0061  2863               	goto	u2611
  1681  0062  2864               	goto	u2610
  1682  0063                     u2611:
  1683  0063  2869               	goto	l1924
  1684  0064                     u2610:
  1685  0064                     l1922:
  1686  0064  09F6               	comf	___awdiv@quotient,f
  1687  0065  09F7               	comf	___awdiv@quotient+1,f
  1688  0066  0AF6               	incf	___awdiv@quotient,f
  1689  0067  1903               	skipnz
  1690  0068  0AF7               	incf	___awdiv@quotient+1,f
  1691  0069                     l1924:
  1692  0069  0877               	movf	___awdiv@quotient+1,w
  1693  006A  00F1               	movwf	?___awdiv+1
  1694  006B  0876               	movf	___awdiv@quotient,w
  1695  006C  00F0               	movwf	?___awdiv
  1696  006D                     l355:
  1697  006D  0008               	return
  1698  006E                     __end_of___awdiv:
  1699                           
  1700                           	psect	text5
  1701  0C37                     __ptext5:	
  1702 ;; *************** function _PWM1_Start *****************
  1703 ;; Defined at:
  1704 ;;		line 47 in file "pwm.c"
  1705 ;; Parameters:    Size  Location     Type
  1706 ;;		None
  1707 ;; Auto vars:     Size  Location     Type
  1708 ;;		None
  1709 ;; Return value:  Size  Location     Type
  1710 ;;                  1    wreg      void 
  1711 ;; Registers used:
  1712 ;;		None
  1713 ;; Tracked objects:
  1714 ;;		On entry : 0/0
  1715 ;;		On exit  : 0/0
  1716 ;;		Unchanged: 0/0
  1717 ;; Data sizes:     COMMON   BANK0   BANK1   BANK3   BANK2
  1718 ;;      Params:         0       0       0       0       0
  1719 ;;      Locals:         0       0       0       0       0
  1720 ;;      Temps:          0       0       0       0       0
  1721 ;;      Totals:         0       0       0       0       0
  1722 ;;Total ram usage:        0 bytes
  1723 ;; Hardware stack levels used:    1
  1724 ;; This function calls:
  1725 ;;		Nothing
  1726 ;; This function is called by:
  1727 ;;		_main
  1728 ;; This function uses a non-reentrant model
  1729 ;;
  1730                           
  1731                           
  1732                           ;psect for function _PWM1_Start
  1733  0C37                     _PWM1_Start:
  1734  0C37                     l1870:	
  1735                           ;incstack = 0
  1736                           ; Regs used in _PWM1_Start: []
  1737                           
  1738                           
  1739                           ;pwm.c: 49:   CCP1CONbits.CCP1M3 = 1;
  1740  0C37  1283               	bcf	3,5	;RP0=0, select bank0
  1741  0C38  1303               	bcf	3,6	;RP1=0, select bank0
  1742  0C39  1597               	bsf	23,3	;volatile
  1743                           
  1744                           ;pwm.c: 50:   CCP1CONbits.CCP1M2 = 1;
  1745  0C3A  1517               	bsf	23,2	;volatile
  1746                           
  1747                           ;pwm.c: 64:   T2CONbits.TMR2ON = 1;
  1748  0C3B  1512               	bsf	18,2	;volatile
  1749                           
  1750                           ;pwm.c: 65:   TRISC2 = 0;
  1751  0C3C  1683               	bsf	3,5	;RP0=1, select bank1
  1752  0C3D  1303               	bcf	3,6	;RP1=0, select bank1
  1753  0C3E  1107               	bcf	7,2	;volatile
  1754  0C3F                     l107:
  1755  0C3F  0008               	return
  1756  0C40                     __end_of_PWM1_Start:
  1757                           
  1758                           	psect	text6
  1759  006E                     __ptext6:	
  1760 ;; *************** function _PWM1_Set_Duty *****************
  1761 ;; Defined at:
  1762 ;;		line 22 in file "pwm.c"
  1763 ;; Parameters:    Size  Location     Type
  1764 ;;  duty            2    4[BANK1 ] unsigned int 
  1765 ;; Auto vars:     Size  Location     Type
  1766 ;;		None
  1767 ;; Return value:  Size  Location     Type
  1768 ;;                  1    wreg      void 
  1769 ;; Registers used:
  1770 ;;		wreg, status,2, status,0, btemp+1, pclath, cstack
  1771 ;; Tracked objects:
  1772 ;;		On entry : 0/0
  1773 ;;		On exit  : 0/0
  1774 ;;		Unchanged: 0/0
  1775 ;; Data sizes:     COMMON   BANK0   BANK1   BANK3   BANK2
  1776 ;;      Params:         0       0       2       0       0
  1777 ;;      Locals:         0       0       0       0       0
  1778 ;;      Temps:          0       0       2       0       0
  1779 ;;      Totals:         0       0       4       0       0
  1780 ;;Total ram usage:        4 bytes
  1781 ;; Hardware stack levels used:    1
  1782 ;; Hardware stack levels required when called:    2
  1783 ;; This function calls:
  1784 ;;		_PWM_Max_Duty
  1785 ;;		___fldiv
  1786 ;;		___flmul
  1787 ;;		___fltol
  1788 ;;		___xxtofl
  1789 ;; This function is called by:
  1790 ;;		_main
  1791 ;; This function uses a non-reentrant model
  1792 ;;
  1793                           
  1794                           
  1795                           ;psect for function _PWM1_Set_Duty
  1796  006E                     _PWM1_Set_Duty:
  1797  006E                     l1872:	
  1798                           ;incstack = 0
  1799                           ; Regs used in _PWM1_Set_Duty: [wreg+status,2+status,0+btemp+1+pclath+cstack]
  1800                           
  1801                           
  1802                           ;pwm.c: 22: void PWM1_Set_Duty(unsigned int duty);pwm.c: 23: {;pwm.c: 24:   duty = ((flo
      +                          at)duty/100) * 1023;
  1803  006E  1683               	bsf	3,5	;RP0=1, select bank1
  1804  006F  1303               	bcf	3,6	;RP1=0, select bank1
  1805  0070  0824               	movf	PWM1_Set_Duty@duty^(0+128),w
  1806  0071  1283               	bcf	3,5	;RP0=0, select bank0
  1807  0072  1303               	bcf	3,6	;RP1=0, select bank0
  1808  0073  00A8               	movwf	___xxtofl@val
  1809  0074  1683               	bsf	3,5	;RP0=1, select bank1
  1810  0075  1303               	bcf	3,6	;RP1=0, select bank1
  1811  0076  0825               	movf	(PWM1_Set_Duty@duty+1)^(0+128),w
  1812  0077  1283               	bcf	3,5	;RP0=0, select bank0
  1813  0078  1303               	bcf	3,6	;RP1=0, select bank0
  1814  0079  00A9               	movwf	___xxtofl@val+1
  1815  007A  01AA               	clrf	___xxtofl@val+2
  1816  007B  01AB               	clrf	___xxtofl@val+3
  1817  007C  3000               	movlw	0
  1818  007D  120A  158A  2744  120A  118A  	fcall	___xxtofl
  1819  0082  1283               	bcf	3,5	;RP0=0, select bank0
  1820  0083  1303               	bcf	3,6	;RP1=0, select bank0
  1821  0084  082B               	movf	?___xxtofl+3,w
  1822  0085  00BD               	movwf	___fldiv@b+3
  1823  0086  082A               	movf	?___xxtofl+2,w
  1824  0087  00BC               	movwf	___fldiv@b+2
  1825  0088  0829               	movf	?___xxtofl+1,w
  1826  0089  00BB               	movwf	___fldiv@b+1
  1827  008A  0828               	movf	?___xxtofl,w
  1828  008B  00BA               	movwf	___fldiv@b
  1829  008C  3042               	movlw	66
  1830  008D  00B9               	movwf	___fldiv@a+3
  1831  008E  30C8               	movlw	200
  1832  008F  00B8               	movwf	___fldiv@a+2
  1833  0090  3000               	movlw	0
  1834  0091  00B7               	movwf	___fldiv@a+1
  1835  0092  3000               	movlw	0
  1836  0093  00B6               	movwf	___fldiv@a
  1837  0094  120A  118A  22B0  120A  118A  	fcall	___fldiv
  1838  0099  1283               	bcf	3,5	;RP0=0, select bank0
  1839  009A  1303               	bcf	3,6	;RP1=0, select bank0
  1840  009B  0839               	movf	?___fldiv+3,w
  1841  009C  00D7               	movwf	___flmul@a+3
  1842  009D  0838               	movf	?___fldiv+2,w
  1843  009E  00D6               	movwf	___flmul@a+2
  1844  009F  0837               	movf	?___fldiv+1,w
  1845  00A0  00D5               	movwf	___flmul@a+1
  1846  00A1  0836               	movf	?___fldiv,w
  1847  00A2  00D4               	movwf	___flmul@a
  1848  00A3  3044               	movlw	68
  1849  00A4  00D3               	movwf	___flmul@b+3
  1850  00A5  307F               	movlw	127
  1851  00A6  00D2               	movwf	___flmul@b+2
  1852  00A7  30C0               	movlw	192
  1853  00A8  00D1               	movwf	___flmul@b+1
  1854  00A9  3000               	movlw	0
  1855  00AA  00D0               	movwf	___flmul@b
  1856  00AB  120A  118A  248D  120A  118A  	fcall	___flmul
  1857  00B0  1283               	bcf	3,5	;RP0=0, select bank0
  1858  00B1  1303               	bcf	3,6	;RP1=0, select bank0
  1859  00B2  0853               	movf	?___flmul+3,w
  1860  00B3  00ED               	movwf	___fltol@f1+3
  1861  00B4  0852               	movf	?___flmul+2,w
  1862  00B5  00EC               	movwf	___fltol@f1+2
  1863  00B6  0851               	movf	?___flmul+1,w
  1864  00B7  00EB               	movwf	___fltol@f1+1
  1865  00B8  0850               	movf	?___flmul,w
  1866  00B9  00EA               	movwf	___fltol@f1
  1867  00BA  120A  158A  2613  120A  118A  	fcall	___fltol
  1868  00BF  1283               	bcf	3,5	;RP0=0, select bank0
  1869  00C0  1303               	bcf	3,6	;RP1=0, select bank0
  1870  00C1  086B               	movf	?___fltol+1,w
  1871  00C2  1683               	bsf	3,5	;RP0=1, select bank1
  1872  00C3  1303               	bcf	3,6	;RP1=0, select bank1
  1873  00C4  00A5               	movwf	(PWM1_Set_Duty@duty+1)^(0+128)
  1874  00C5  1283               	bcf	3,5	;RP0=0, select bank0
  1875  00C6  1303               	bcf	3,6	;RP1=0, select bank0
  1876  00C7  086A               	movf	?___fltol,w
  1877  00C8  1683               	bsf	3,5	;RP0=1, select bank1
  1878  00C9  1303               	bcf	3,6	;RP1=0, select bank1
  1879  00CA  00A4               	movwf	PWM1_Set_Duty@duty^(0+128)
  1880  00CB                     l1874:
  1881                           
  1882                           ;pwm.c: 26:   if(duty<1024)
  1883  00CB  3004               	movlw	4
  1884  00CC  0225               	subwf	(PWM1_Set_Duty@duty+1)^(0+128),w
  1885  00CD  3000               	movlw	0
  1886  00CE  1903               	skipnz
  1887  00CF  0224               	subwf	PWM1_Set_Duty@duty^(0+128),w
  1888  00D0  1803               	skipnc
  1889  00D1  28D3               	goto	u2511
  1890  00D2  28D4               	goto	u2510
  1891  00D3                     u2511:
  1892  00D3  2978               	goto	l100
  1893  00D4                     u2510:
  1894  00D4                     l1876:
  1895                           
  1896                           ;pwm.c: 27:   {;pwm.c: 28:     duty = ((float)duty/1023)*PWM_Max_Duty();
  1897  00D4  0824               	movf	PWM1_Set_Duty@duty^(0+128),w
  1898  00D5  1283               	bcf	3,5	;RP0=0, select bank0
  1899  00D6  1303               	bcf	3,6	;RP1=0, select bank0
  1900  00D7  00A8               	movwf	___xxtofl@val
  1901  00D8  1683               	bsf	3,5	;RP0=1, select bank1
  1902  00D9  1303               	bcf	3,6	;RP1=0, select bank1
  1903  00DA  0825               	movf	(PWM1_Set_Duty@duty+1)^(0+128),w
  1904  00DB  1283               	bcf	3,5	;RP0=0, select bank0
  1905  00DC  1303               	bcf	3,6	;RP1=0, select bank0
  1906  00DD  00A9               	movwf	___xxtofl@val+1
  1907  00DE  01AA               	clrf	___xxtofl@val+2
  1908  00DF  01AB               	clrf	___xxtofl@val+3
  1909  00E0  3000               	movlw	0
  1910  00E1  120A  158A  2744  120A  118A  	fcall	___xxtofl
  1911  00E6  1283               	bcf	3,5	;RP0=0, select bank0
  1912  00E7  1303               	bcf	3,6	;RP1=0, select bank0
  1913  00E8  082B               	movf	?___xxtofl+3,w
  1914  00E9  00BD               	movwf	___fldiv@b+3
  1915  00EA  082A               	movf	?___xxtofl+2,w
  1916  00EB  00BC               	movwf	___fldiv@b+2
  1917  00EC  0829               	movf	?___xxtofl+1,w
  1918  00ED  00BB               	movwf	___fldiv@b+1
  1919  00EE  0828               	movf	?___xxtofl,w
  1920  00EF  00BA               	movwf	___fldiv@b
  1921  00F0  3044               	movlw	68
  1922  00F1  00B9               	movwf	___fldiv@a+3
  1923  00F2  307F               	movlw	127
  1924  00F3  00B8               	movwf	___fldiv@a+2
  1925  00F4  30C0               	movlw	192
  1926  00F5  00B7               	movwf	___fldiv@a+1
  1927  00F6  3000               	movlw	0
  1928  00F7  00B6               	movwf	___fldiv@a
  1929  00F8  120A  118A  22B0  120A  118A  	fcall	___fldiv
  1930  00FD  1283               	bcf	3,5	;RP0=0, select bank0
  1931  00FE  1303               	bcf	3,6	;RP1=0, select bank0
  1932  00FF  0839               	movf	?___fldiv+3,w
  1933  0100  00D7               	movwf	___flmul@a+3
  1934  0101  0838               	movf	?___fldiv+2,w
  1935  0102  00D6               	movwf	___flmul@a+2
  1936  0103  0837               	movf	?___fldiv+1,w
  1937  0104  00D5               	movwf	___flmul@a+1
  1938  0105  0836               	movf	?___fldiv,w
  1939  0106  00D4               	movwf	___flmul@a
  1940  0107  120A  158A  2484  120A  118A  	fcall	_PWM_Max_Duty
  1941  010C  1283               	bcf	3,5	;RP0=0, select bank0
  1942  010D  1303               	bcf	3,6	;RP1=0, select bank0
  1943  010E  0826               	movf	?_PWM_Max_Duty,w
  1944  010F  00A8               	movwf	___xxtofl@val
  1945  0110  0827               	movf	?_PWM_Max_Duty+1,w
  1946  0111  00A9               	movwf	___xxtofl@val+1
  1947  0112  3000               	movlw	0
  1948  0113  1BA9               	btfsc	___xxtofl@val+1,7
  1949  0114  30FF               	movlw	255
  1950  0115  00AA               	movwf	___xxtofl@val+2
  1951  0116  00AB               	movwf	___xxtofl@val+3
  1952  0117  3001               	movlw	1
  1953  0118  120A  158A  2744  120A  118A  	fcall	___xxtofl
  1954  011D  1283               	bcf	3,5	;RP0=0, select bank0
  1955  011E  1303               	bcf	3,6	;RP1=0, select bank0
  1956  011F  082B               	movf	?___xxtofl+3,w
  1957  0120  00D3               	movwf	___flmul@b+3
  1958  0121  082A               	movf	?___xxtofl+2,w
  1959  0122  00D2               	movwf	___flmul@b+2
  1960  0123  0829               	movf	?___xxtofl+1,w
  1961  0124  00D1               	movwf	___flmul@b+1
  1962  0125  0828               	movf	?___xxtofl,w
  1963  0126  00D0               	movwf	___flmul@b
  1964  0127  120A  118A  248D  120A  118A  	fcall	___flmul
  1965  012C  1283               	bcf	3,5	;RP0=0, select bank0
  1966  012D  1303               	bcf	3,6	;RP1=0, select bank0
  1967  012E  0853               	movf	?___flmul+3,w
  1968  012F  00ED               	movwf	___fltol@f1+3
  1969  0130  0852               	movf	?___flmul+2,w
  1970  0131  00EC               	movwf	___fltol@f1+2
  1971  0132  0851               	movf	?___flmul+1,w
  1972  0133  00EB               	movwf	___fltol@f1+1
  1973  0134  0850               	movf	?___flmul,w
  1974  0135  00EA               	movwf	___fltol@f1
  1975  0136  120A  158A  2613  120A  118A  	fcall	___fltol
  1976  013B  1283               	bcf	3,5	;RP0=0, select bank0
  1977  013C  1303               	bcf	3,6	;RP1=0, select bank0
  1978  013D  086B               	movf	?___fltol+1,w
  1979  013E  1683               	bsf	3,5	;RP0=1, select bank1
  1980  013F  1303               	bcf	3,6	;RP1=0, select bank1
  1981  0140  00A5               	movwf	(PWM1_Set_Duty@duty+1)^(0+128)
  1982  0141  1283               	bcf	3,5	;RP0=0, select bank0
  1983  0142  1303               	bcf	3,6	;RP1=0, select bank0
  1984  0143  086A               	movf	?___fltol,w
  1985  0144  1683               	bsf	3,5	;RP0=1, select bank1
  1986  0145  1303               	bcf	3,6	;RP1=0, select bank1
  1987  0146  00A4               	movwf	PWM1_Set_Duty@duty^(0+128)
  1988  0147                     l1878:
  1989                           
  1990                           ;pwm.c: 29:     CCP1CONbits.CCP1X = duty & 0x02;
  1991  0147  0824               	movf	PWM1_Set_Duty@duty^(0+128),w
  1992  0148  3902               	andlw	2
  1993  0149  00A6               	movwf	??_PWM1_Set_Duty^(0+128)
  1994  014A  0EA6               	swapf	??_PWM1_Set_Duty^(0+128),f
  1995  014B  0DA6               	rlf	??_PWM1_Set_Duty^(0+128),f
  1996  014C  1283               	bcf	3,5	;RP0=0, select bank0
  1997  014D  1303               	bcf	3,6	;RP1=0, select bank0
  1998  014E  0817               	movf	23,w	;volatile
  1999  014F  1683               	bsf	3,5	;RP0=1, select bank1
  2000  0150  1303               	bcf	3,6	;RP1=0, select bank1
  2001  0151  0626               	xorwf	??_PWM1_Set_Duty^(0+128),w
  2002  0152  39DF               	andlw	-33
  2003  0153  0626               	xorwf	??_PWM1_Set_Duty^(0+128),w
  2004  0154  1283               	bcf	3,5	;RP0=0, select bank0
  2005  0155  1303               	bcf	3,6	;RP1=0, select bank0
  2006  0156  0097               	movwf	23	;volatile
  2007  0157                     l1880:
  2008                           
  2009                           ;pwm.c: 30:     CCP1CONbits.CCP1Y = duty & 0x01;
  2010  0157  1683               	bsf	3,5	;RP0=1, select bank1
  2011  0158  1303               	bcf	3,6	;RP1=0, select bank1
  2012  0159  0824               	movf	PWM1_Set_Duty@duty^(0+128),w
  2013  015A  3901               	andlw	1
  2014  015B  00A6               	movwf	??_PWM1_Set_Duty^(0+128)
  2015  015C  0EA6               	swapf	??_PWM1_Set_Duty^(0+128),f
  2016  015D  1283               	bcf	3,5	;RP0=0, select bank0
  2017  015E  1303               	bcf	3,6	;RP1=0, select bank0
  2018  015F  0817               	movf	23,w	;volatile
  2019  0160  1683               	bsf	3,5	;RP0=1, select bank1
  2020  0161  1303               	bcf	3,6	;RP1=0, select bank1
  2021  0162  0626               	xorwf	??_PWM1_Set_Duty^(0+128),w
  2022  0163  39EF               	andlw	-17
  2023  0164  0626               	xorwf	??_PWM1_Set_Duty^(0+128),w
  2024  0165  1283               	bcf	3,5	;RP0=0, select bank0
  2025  0166  1303               	bcf	3,6	;RP1=0, select bank0
  2026  0167  0097               	movwf	23	;volatile
  2027  0168                     l1882:
  2028                           
  2029                           ;pwm.c: 31:     CCPR1L = duty>>0x02;
  2030  0168  1683               	bsf	3,5	;RP0=1, select bank1
  2031  0169  1303               	bcf	3,6	;RP1=0, select bank1
  2032  016A  0825               	movf	(PWM1_Set_Duty@duty+1)^(0+128),w
  2033  016B  00A7               	movwf	(??_PWM1_Set_Duty^(0+128)+1)
  2034  016C  0824               	movf	PWM1_Set_Duty@duty^(0+128),w
  2035  016D  00A6               	movwf	??_PWM1_Set_Duty^(0+128)
  2036  016E  1003               	clrc
  2037  016F  0CA7               	rrf	(??_PWM1_Set_Duty^(0+128)+1),f
  2038  0170  0CA6               	rrf	??_PWM1_Set_Duty^(0+128),f
  2039  0171  1003               	clrc
  2040  0172  0CA7               	rrf	(??_PWM1_Set_Duty^(0+128)+1),f
  2041  0173  0CA6               	rrf	??_PWM1_Set_Duty^(0+128),f
  2042  0174  0826               	movf	??_PWM1_Set_Duty^(0+128),w
  2043  0175  1283               	bcf	3,5	;RP0=0, select bank0
  2044  0176  1303               	bcf	3,6	;RP1=0, select bank0
  2045  0177  0095               	movwf	21	;volatile
  2046  0178                     l100:
  2047  0178  0008               	return
  2048  0179                     __end_of_PWM1_Set_Duty:
  2049                           
  2050                           	psect	text7
  2051  0F44                     __ptext7:	
  2052 ;; *************** function ___xxtofl *****************
  2053 ;; Defined at:
  2054 ;;		line 10 in file "C:\Program Files\Microchip\xc8\v2.20\pic\sources\c90\common\xxtofl.c"
  2055 ;; Parameters:    Size  Location     Type
  2056 ;;  sign            1    wreg     unsigned char 
  2057 ;;  val             4    8[BANK0 ] long 
  2058 ;; Auto vars:     Size  Location     Type
  2059 ;;  sign            1   16[BANK0 ] unsigned char 
  2060 ;;  arg             4   18[BANK0 ] unsigned long 
  2061 ;;  exp             1   17[BANK0 ] unsigned char 
  2062 ;; Return value:  Size  Location     Type
  2063 ;;                  4    8[BANK0 ] unsigned char 
  2064 ;; Registers used:
  2065 ;;		wreg, status,2, status,0, btemp+1
  2066 ;; Tracked objects:
  2067 ;;		On entry : 0/0
  2068 ;;		On exit  : 0/0
  2069 ;;		Unchanged: 0/0
  2070 ;; Data sizes:     COMMON   BANK0   BANK1   BANK3   BANK2
  2071 ;;      Params:         0       4       0       0       0
  2072 ;;      Locals:         0       6       0       0       0
  2073 ;;      Temps:          0       4       0       0       0
  2074 ;;      Totals:         0      14       0       0       0
  2075 ;;Total ram usage:       14 bytes
  2076 ;; Hardware stack levels used:    1
  2077 ;; This function calls:
  2078 ;;		Nothing
  2079 ;; This function is called by:
  2080 ;;		_PWM1_Set_Duty
  2081 ;;		_PWM2_Set_Duty
  2082 ;; This function uses a non-reentrant model
  2083 ;;
  2084                           
  2085                           
  2086                           ;psect for function ___xxtofl
  2087  0F44                     ___xxtofl:
  2088                           
  2089                           ;incstack = 0
  2090                           ; Regs used in ___xxtofl: [wreg+status,2+status,0+btemp+1]
  2091                           ;___xxtofl@sign stored from wreg
  2092  0F44  1283               	bcf	3,5	;RP0=0, select bank0
  2093  0F45  1303               	bcf	3,6	;RP1=0, select bank0
  2094  0F46  00B0               	movwf	___xxtofl@sign
  2095  0F47                     l1798:
  2096  0F47  0830               	movf	___xxtofl@sign,w
  2097  0F48  1903               	btfsc	3,2
  2098  0F49  2F4B               	goto	u2341
  2099  0F4A  2F4C               	goto	u2340
  2100  0F4B                     u2341:
  2101  0F4B  2F60               	goto	l1804
  2102  0F4C                     u2340:
  2103  0F4C                     l1800:
  2104  0F4C  1FAB               	btfss	___xxtofl@val+3,7
  2105  0F4D  2F4F               	goto	u2351
  2106  0F4E  2F50               	goto	u2350
  2107  0F4F                     u2351:
  2108  0F4F  2F60               	goto	l1804
  2109  0F50                     u2350:
  2110  0F50                     l1802:
  2111  0F50  0928               	comf	___xxtofl@val,w
  2112  0F51  00B2               	movwf	___xxtofl@arg
  2113  0F52  0929               	comf	___xxtofl@val+1,w
  2114  0F53  00B3               	movwf	___xxtofl@arg+1
  2115  0F54  092A               	comf	___xxtofl@val+2,w
  2116  0F55  00B4               	movwf	___xxtofl@arg+2
  2117  0F56  092B               	comf	___xxtofl@val+3,w
  2118  0F57  00B5               	movwf	___xxtofl@arg+3
  2119  0F58  0AB2               	incf	___xxtofl@arg,f
  2120  0F59  1903               	skipnz
  2121  0F5A  0AB3               	incf	___xxtofl@arg+1,f
  2122  0F5B  1903               	skipnz
  2123  0F5C  0AB4               	incf	___xxtofl@arg+2,f
  2124  0F5D  1903               	skipnz
  2125  0F5E  0AB5               	incf	___xxtofl@arg+3,f
  2126  0F5F  2F68               	goto	l635
  2127  0F60                     l1804:
  2128  0F60  082B               	movf	___xxtofl@val+3,w
  2129  0F61  00B5               	movwf	___xxtofl@arg+3
  2130  0F62  082A               	movf	___xxtofl@val+2,w
  2131  0F63  00B4               	movwf	___xxtofl@arg+2
  2132  0F64  0829               	movf	___xxtofl@val+1,w
  2133  0F65  00B3               	movwf	___xxtofl@arg+1
  2134  0F66  0828               	movf	___xxtofl@val,w
  2135  0F67  00B2               	movwf	___xxtofl@arg
  2136  0F68                     l635:
  2137  0F68  082B               	movf	___xxtofl@val+3,w
  2138  0F69  042A               	iorwf	___xxtofl@val+2,w
  2139  0F6A  0429               	iorwf	___xxtofl@val+1,w
  2140  0F6B  0428               	iorwf	___xxtofl@val,w
  2141  0F6C  1D03               	skipz
  2142  0F6D  2F6F               	goto	u2361
  2143  0F6E  2F70               	goto	u2360
  2144  0F6F                     u2361:
  2145  0F6F  2F79               	goto	l1810
  2146  0F70                     u2360:
  2147  0F70                     l1806:
  2148  0F70  3000               	movlw	0
  2149  0F71  00AB               	movwf	?___xxtofl+3
  2150  0F72  3000               	movlw	0
  2151  0F73  00AA               	movwf	?___xxtofl+2
  2152  0F74  3000               	movlw	0
  2153  0F75  00A9               	movwf	?___xxtofl+1
  2154  0F76  3000               	movlw	0
  2155  0F77  00A8               	movwf	?___xxtofl
  2156  0F78  2FFF               	goto	l637
  2157  0F79                     l1810:
  2158  0F79  3096               	movlw	150
  2159  0F7A  00FF               	movwf	btemp+1
  2160  0F7B  087F               	movf	btemp+1,w
  2161  0F7C  00B1               	movwf	___xxtofl@exp
  2162  0F7D  2F8B               	goto	l1816
  2163  0F7E                     l1812:
  2164  0F7E  3001               	movlw	1
  2165  0F7F  00FF               	movwf	btemp+1
  2166  0F80  087F               	movf	btemp+1,w
  2167  0F81  07B1               	addwf	___xxtofl@exp,f
  2168  0F82                     l1814:
  2169  0F82  3001               	movlw	1
  2170  0F83                     u2375:
  2171  0F83  1003               	clrc
  2172  0F84  0CB5               	rrf	___xxtofl@arg+3,f
  2173  0F85  0CB4               	rrf	___xxtofl@arg+2,f
  2174  0F86  0CB3               	rrf	___xxtofl@arg+1,f
  2175  0F87  0CB2               	rrf	___xxtofl@arg,f
  2176  0F88  3EFF               	addlw	-1
  2177  0F89  1D03               	skipz
  2178  0F8A  2F83               	goto	u2375
  2179  0F8B                     l1816:
  2180  0F8B  30FE               	movlw	254
  2181  0F8C  0535               	andwf	___xxtofl@arg+3,w
  2182  0F8D  1D03               	btfss	3,2
  2183  0F8E  2F90               	goto	u2381
  2184  0F8F  2F91               	goto	u2380
  2185  0F90                     u2381:
  2186  0F90  2F7E               	goto	l1812
  2187  0F91                     u2380:
  2188  0F91  2FAD               	goto	l1824
  2189  0F92                     l1818:
  2190  0F92  3001               	movlw	1
  2191  0F93  00FF               	movwf	btemp+1
  2192  0F94  087F               	movf	btemp+1,w
  2193  0F95  07B1               	addwf	___xxtofl@exp,f
  2194  0F96                     l1820:
  2195  0F96  3001               	movlw	1
  2196  0F97  07B2               	addwf	___xxtofl@arg,f
  2197  0F98  3000               	movlw	0
  2198  0F99  1803               	skipnc
  2199  0F9A  3001               	movlw	1
  2200  0F9B  07B3               	addwf	___xxtofl@arg+1,f
  2201  0F9C  3000               	movlw	0
  2202  0F9D  1803               	skipnc
  2203  0F9E  3001               	movlw	1
  2204  0F9F  07B4               	addwf	___xxtofl@arg+2,f
  2205  0FA0  3000               	movlw	0
  2206  0FA1  1803               	skipnc
  2207  0FA2  3001               	movlw	1
  2208  0FA3  07B5               	addwf	___xxtofl@arg+3,f
  2209  0FA4                     l1822:
  2210  0FA4  3001               	movlw	1
  2211  0FA5                     u2395:
  2212  0FA5  1003               	clrc
  2213  0FA6  0CB5               	rrf	___xxtofl@arg+3,f
  2214  0FA7  0CB4               	rrf	___xxtofl@arg+2,f
  2215  0FA8  0CB3               	rrf	___xxtofl@arg+1,f
  2216  0FA9  0CB2               	rrf	___xxtofl@arg,f
  2217  0FAA  3EFF               	addlw	-1
  2218  0FAB  1D03               	skipz
  2219  0FAC  2FA5               	goto	u2395
  2220  0FAD                     l1824:
  2221  0FAD  30FF               	movlw	255
  2222  0FAE  0535               	andwf	___xxtofl@arg+3,w
  2223  0FAF  1D03               	btfss	3,2
  2224  0FB0  2FB2               	goto	u2401
  2225  0FB1  2FB3               	goto	u2400
  2226  0FB2                     u2401:
  2227  0FB2  2F92               	goto	l1818
  2228  0FB3                     u2400:
  2229  0FB3  2FBF               	goto	l1828
  2230  0FB4                     l1826:
  2231  0FB4  3001               	movlw	1
  2232  0FB5  02B1               	subwf	___xxtofl@exp,f
  2233  0FB6  3001               	movlw	1
  2234  0FB7  00AC               	movwf	??___xxtofl
  2235  0FB8                     u2415:
  2236  0FB8  1003               	clrc
  2237  0FB9  0DB2               	rlf	___xxtofl@arg,f
  2238  0FBA  0DB3               	rlf	___xxtofl@arg+1,f
  2239  0FBB  0DB4               	rlf	___xxtofl@arg+2,f
  2240  0FBC  0DB5               	rlf	___xxtofl@arg+3,f
  2241  0FBD  0BAC               	decfsz	??___xxtofl,f
  2242  0FBE  2FB8               	goto	u2415
  2243  0FBF                     l1828:
  2244  0FBF  1BB4               	btfsc	___xxtofl@arg+2,7
  2245  0FC0  2FC2               	goto	u2421
  2246  0FC1  2FC3               	goto	u2420
  2247  0FC2                     u2421:
  2248  0FC2  2FC9               	goto	l648
  2249  0FC3                     u2420:
  2250  0FC3                     l1830:
  2251  0FC3  3002               	movlw	2
  2252  0FC4  0231               	subwf	___xxtofl@exp,w
  2253  0FC5  1803               	skipnc
  2254  0FC6  2FC8               	goto	u2431
  2255  0FC7  2FC9               	goto	u2430
  2256  0FC8                     u2431:
  2257  0FC8  2FB4               	goto	l1826
  2258  0FC9                     u2430:
  2259  0FC9                     l648:
  2260  0FC9  1831               	btfsc	___xxtofl@exp,0
  2261  0FCA  2FCC               	goto	u2441
  2262  0FCB  2FCD               	goto	u2440
  2263  0FCC                     u2441:
  2264  0FCC  2FD5               	goto	l649
  2265  0FCD                     u2440:
  2266  0FCD                     l1832:
  2267  0FCD  30FF               	movlw	255
  2268  0FCE  05B2               	andwf	___xxtofl@arg,f
  2269  0FCF  30FF               	movlw	255
  2270  0FD0  05B3               	andwf	___xxtofl@arg+1,f
  2271  0FD1  307F               	movlw	127
  2272  0FD2  05B4               	andwf	___xxtofl@arg+2,f
  2273  0FD3  30FF               	movlw	255
  2274  0FD4  05B5               	andwf	___xxtofl@arg+3,f
  2275  0FD5                     l649:
  2276  0FD5  1003               	clrc
  2277  0FD6  0CB1               	rrf	___xxtofl@exp,f
  2278  0FD7                     l1834:
  2279  0FD7  0831               	movf	___xxtofl@exp,w
  2280  0FD8  00AC               	movwf	??___xxtofl
  2281  0FD9  01AD               	clrf	??___xxtofl+1
  2282  0FDA  01AE               	clrf	??___xxtofl+2
  2283  0FDB  01AF               	clrf	??___xxtofl+3
  2284  0FDC  3018               	movlw	24
  2285  0FDD                     u2455:
  2286  0FDD  1003               	clrc
  2287  0FDE  0DAC               	rlf	??___xxtofl,f
  2288  0FDF  0DAD               	rlf	??___xxtofl+1,f
  2289  0FE0  0DAE               	rlf	??___xxtofl+2,f
  2290  0FE1  0DAF               	rlf	??___xxtofl+3,f
  2291  0FE2                     u2450:
  2292  0FE2  3EFF               	addlw	-1
  2293  0FE3  1D03               	skipz
  2294  0FE4  2FDD               	goto	u2455
  2295  0FE5  082C               	movf	??___xxtofl,w
  2296  0FE6  04B2               	iorwf	___xxtofl@arg,f
  2297  0FE7  082D               	movf	??___xxtofl+1,w
  2298  0FE8  04B3               	iorwf	___xxtofl@arg+1,f
  2299  0FE9  082E               	movf	??___xxtofl+2,w
  2300  0FEA  04B4               	iorwf	___xxtofl@arg+2,f
  2301  0FEB  082F               	movf	??___xxtofl+3,w
  2302  0FEC  04B5               	iorwf	___xxtofl@arg+3,f
  2303  0FED                     l1836:
  2304  0FED  0830               	movf	___xxtofl@sign,w
  2305  0FEE  1903               	btfsc	3,2
  2306  0FEF  2FF1               	goto	u2461
  2307  0FF0  2FF2               	goto	u2460
  2308  0FF1                     u2461:
  2309  0FF1  2FF7               	goto	l1842
  2310  0FF2                     u2460:
  2311  0FF2                     l1838:
  2312  0FF2  1FAB               	btfss	___xxtofl@val+3,7
  2313  0FF3  2FF5               	goto	u2471
  2314  0FF4  2FF6               	goto	u2470
  2315  0FF5                     u2471:
  2316  0FF5  2FF7               	goto	l1842
  2317  0FF6                     u2470:
  2318  0FF6                     l1840:
  2319  0FF6  17B5               	bsf	___xxtofl@arg+3,7
  2320  0FF7                     l1842:
  2321  0FF7  0835               	movf	___xxtofl@arg+3,w
  2322  0FF8  00AB               	movwf	?___xxtofl+3
  2323  0FF9  0834               	movf	___xxtofl@arg+2,w
  2324  0FFA  00AA               	movwf	?___xxtofl+2
  2325  0FFB  0833               	movf	___xxtofl@arg+1,w
  2326  0FFC  00A9               	movwf	?___xxtofl+1
  2327  0FFD  0832               	movf	___xxtofl@arg,w
  2328  0FFE  00A8               	movwf	?___xxtofl
  2329  0FFF                     l637:
  2330  0FFF  0008               	return
  2331  1000                     __end_of___xxtofl:
  2332                           
  2333                           	psect	text8
  2334  0E13                     __ptext8:	
  2335 ;; *************** function ___fltol *****************
  2336 ;; Defined at:
  2337 ;;		line 43 in file "C:\Program Files\Microchip\xc8\v2.20\pic\sources\c90\common\fltol.c"
  2338 ;; Parameters:    Size  Location     Type
  2339 ;;  f1              4   74[BANK0 ] unsigned char 
  2340 ;; Auto vars:     Size  Location     Type
  2341 ;;  exp1            1   79[BANK0 ] unsigned char 
  2342 ;;  sign1           1   78[BANK0 ] unsigned char 
  2343 ;; Return value:  Size  Location     Type
  2344 ;;                  4   74[BANK0 ] long 
  2345 ;; Registers used:
  2346 ;;		wreg, status,2, status,0, btemp+1
  2347 ;; Tracked objects:
  2348 ;;		On entry : 0/0
  2349 ;;		On exit  : 0/0
  2350 ;;		Unchanged: 0/0
  2351 ;; Data sizes:     COMMON   BANK0   BANK1   BANK3   BANK2
  2352 ;;      Params:         0       4       0       0       0
  2353 ;;      Locals:         0       2       0       0       0
  2354 ;;      Temps:          0       0       4       0       0
  2355 ;;      Totals:         0       6       4       0       0
  2356 ;;Total ram usage:       10 bytes
  2357 ;; Hardware stack levels used:    1
  2358 ;; This function calls:
  2359 ;;		Nothing
  2360 ;; This function is called by:
  2361 ;;		_PWM1_Set_Duty
  2362 ;;		_PWM2_Set_Duty
  2363 ;; This function uses a non-reentrant model
  2364 ;;
  2365                           
  2366                           
  2367                           ;psect for function ___fltol
  2368  0E13                     ___fltol:
  2369  0E13                     l1474:	
  2370                           ;incstack = 0
  2371                           ; Regs used in ___fltol: [wreg+status,2+status,0+btemp+1]
  2372                           
  2373  0E13  1003               	clrc
  2374  0E14  1283               	bcf	3,5	;RP0=0, select bank0
  2375  0E15  1303               	bcf	3,6	;RP1=0, select bank0
  2376  0E16  0D6C               	rlf	___fltol@f1+2,w
  2377  0E17  0D6D               	rlf	___fltol@f1+3,w
  2378  0E18  00FF               	movwf	btemp+1
  2379  0E19  087F               	movf	btemp+1,w
  2380  0E1A  00EF               	movwf	___fltol@exp1
  2381  0E1B  086F               	movf	___fltol@exp1,w
  2382  0E1C  1D03               	btfss	3,2
  2383  0E1D  2E1F               	goto	u1581
  2384  0E1E  2E20               	goto	u1580
  2385  0E1F                     u1581:
  2386  0E1F  2E29               	goto	l1480
  2387  0E20                     u1580:
  2388  0E20                     l1476:
  2389  0E20  3000               	movlw	0
  2390  0E21  00ED               	movwf	?___fltol+3
  2391  0E22  3000               	movlw	0
  2392  0E23  00EC               	movwf	?___fltol+2
  2393  0E24  3000               	movlw	0
  2394  0E25  00EB               	movwf	?___fltol+1
  2395  0E26  3000               	movlw	0
  2396  0E27  00EA               	movwf	?___fltol
  2397  0E28  2EA6               	goto	l388
  2398  0E29                     l1480:
  2399  0E29  086A               	movf	___fltol@f1,w
  2400  0E2A  1683               	bsf	3,5	;RP0=1, select bank1
  2401  0E2B  1303               	bcf	3,6	;RP1=0, select bank1
  2402  0E2C  00A0               	movwf	??___fltol^(0+128)
  2403  0E2D  1283               	bcf	3,5	;RP0=0, select bank0
  2404  0E2E  1303               	bcf	3,6	;RP1=0, select bank0
  2405  0E2F  086B               	movf	___fltol@f1+1,w
  2406  0E30  1683               	bsf	3,5	;RP0=1, select bank1
  2407  0E31  1303               	bcf	3,6	;RP1=0, select bank1
  2408  0E32  00A1               	movwf	(??___fltol^(0+128)+1)
  2409  0E33  1283               	bcf	3,5	;RP0=0, select bank0
  2410  0E34  1303               	bcf	3,6	;RP1=0, select bank0
  2411  0E35  086C               	movf	___fltol@f1+2,w
  2412  0E36  1683               	bsf	3,5	;RP0=1, select bank1
  2413  0E37  1303               	bcf	3,6	;RP1=0, select bank1
  2414  0E38  00A2               	movwf	(??___fltol^(0+128)+2)
  2415  0E39  1283               	bcf	3,5	;RP0=0, select bank0
  2416  0E3A  1303               	bcf	3,6	;RP1=0, select bank0
  2417  0E3B  086D               	movf	___fltol@f1+3,w
  2418  0E3C  1683               	bsf	3,5	;RP0=1, select bank1
  2419  0E3D  1303               	bcf	3,6	;RP1=0, select bank1
  2420  0E3E  00A3               	movwf	(??___fltol^(0+128)+3)
  2421  0E3F  301F               	movlw	31
  2422  0E40                     u1595:
  2423  0E40  1003               	clrc
  2424  0E41  0CA3               	rrf	(??___fltol^(0+128)+3),f
  2425  0E42  0CA2               	rrf	(??___fltol^(0+128)+2),f
  2426  0E43  0CA1               	rrf	(??___fltol^(0+128)+1),f
  2427  0E44  0CA0               	rrf	??___fltol^(0+128),f
  2428  0E45                     u1590:
  2429  0E45  3EFF               	addlw	-1
  2430  0E46  1D03               	skipz
  2431  0E47  2E40               	goto	u1595
  2432  0E48  0820               	movf	??___fltol^(0+128),w
  2433  0E49  00FF               	movwf	btemp+1
  2434  0E4A  087F               	movf	btemp+1,w
  2435  0E4B  1283               	bcf	3,5	;RP0=0, select bank0
  2436  0E4C  1303               	bcf	3,6	;RP1=0, select bank0
  2437  0E4D  00EE               	movwf	___fltol@sign1
  2438  0E4E                     l1482:
  2439  0E4E  17EC               	bsf	___fltol@f1+2,7
  2440  0E4F                     l1484:
  2441  0E4F  30FF               	movlw	255
  2442  0E50  05EA               	andwf	___fltol@f1,f
  2443  0E51  30FF               	movlw	255
  2444  0E52  05EB               	andwf	___fltol@f1+1,f
  2445  0E53  30FF               	movlw	255
  2446  0E54  05EC               	andwf	___fltol@f1+2,f
  2447  0E55  3000               	movlw	0
  2448  0E56  05ED               	andwf	___fltol@f1+3,f
  2449  0E57                     l1486:
  2450  0E57  3096               	movlw	150
  2451  0E58  02EF               	subwf	___fltol@exp1,f
  2452  0E59                     l1488:
  2453  0E59  1FEF               	btfss	___fltol@exp1,7
  2454  0E5A  2E5C               	goto	u1601
  2455  0E5B  2E5D               	goto	u1600
  2456  0E5C                     u1601:
  2457  0E5C  2E77               	goto	l1500
  2458  0E5D                     u1600:
  2459  0E5D                     l1490:
  2460  0E5D  086F               	movf	___fltol@exp1,w
  2461  0E5E  3A80               	xorlw	128
  2462  0E5F  3E97               	addlw	151
  2463  0E60  1803               	skipnc
  2464  0E61  2E63               	goto	u1611
  2465  0E62  2E64               	goto	u1610
  2466  0E63                     u1611:
  2467  0E63  2E65               	goto	l1496
  2468  0E64                     u1610:
  2469  0E64  2E20               	goto	l1476
  2470  0E65                     l1496:
  2471  0E65  3001               	movlw	1
  2472  0E66                     u1625:
  2473  0E66  1003               	clrc
  2474  0E67  0CED               	rrf	___fltol@f1+3,f
  2475  0E68  0CEC               	rrf	___fltol@f1+2,f
  2476  0E69  0CEB               	rrf	___fltol@f1+1,f
  2477  0E6A  0CEA               	rrf	___fltol@f1,f
  2478  0E6B  3EFF               	addlw	-1
  2479  0E6C  1D03               	skipz
  2480  0E6D  2E66               	goto	u1625
  2481  0E6E                     l1498:
  2482  0E6E  3001               	movlw	1
  2483  0E6F  00FF               	movwf	btemp+1
  2484  0E70  087F               	movf	btemp+1,w
  2485  0E71  07EF               	addwf	___fltol@exp1,f
  2486  0E72  1D03               	btfss	3,2
  2487  0E73  2E75               	goto	u1631
  2488  0E74  2E76               	goto	u1630
  2489  0E75                     u1631:
  2490  0E75  2E65               	goto	l1496
  2491  0E76                     u1630:
  2492  0E76  2E96               	goto	l1508
  2493  0E77                     l1500:
  2494  0E77  3020               	movlw	32
  2495  0E78  026F               	subwf	___fltol@exp1,w
  2496  0E79  1C03               	skipc
  2497  0E7A  2E7C               	goto	u1641
  2498  0E7B  2E7D               	goto	u1640
  2499  0E7C                     u1641:
  2500  0E7C  2E91               	goto	l395
  2501  0E7D                     u1640:
  2502  0E7D  2E20               	goto	l1476
  2503  0E7E                     l1506:
  2504  0E7E  3001               	movlw	1
  2505  0E7F  1683               	bsf	3,5	;RP0=1, select bank1
  2506  0E80  1303               	bcf	3,6	;RP1=0, select bank1
  2507  0E81  00A0               	movwf	??___fltol^(0+128)
  2508  0E82                     u1655:
  2509  0E82  1003               	clrc
  2510  0E83  1283               	bcf	3,5	;RP0=0, select bank0
  2511  0E84  1303               	bcf	3,6	;RP1=0, select bank0
  2512  0E85  0DEA               	rlf	___fltol@f1,f
  2513  0E86  0DEB               	rlf	___fltol@f1+1,f
  2514  0E87  0DEC               	rlf	___fltol@f1+2,f
  2515  0E88  0DED               	rlf	___fltol@f1+3,f
  2516  0E89  1683               	bsf	3,5	;RP0=1, select bank1
  2517  0E8A  1303               	bcf	3,6	;RP1=0, select bank1
  2518  0E8B  0BA0               	decfsz	??___fltol^(0+128),f
  2519  0E8C  2E82               	goto	u1655
  2520  0E8D  3001               	movlw	1
  2521  0E8E  1283               	bcf	3,5	;RP0=0, select bank0
  2522  0E8F  1303               	bcf	3,6	;RP1=0, select bank0
  2523  0E90  02EF               	subwf	___fltol@exp1,f
  2524  0E91                     l395:
  2525  0E91  086F               	movf	___fltol@exp1,w
  2526  0E92  1D03               	btfss	3,2
  2527  0E93  2E95               	goto	u1661
  2528  0E94  2E96               	goto	u1660
  2529  0E95                     u1661:
  2530  0E95  2E7E               	goto	l1506
  2531  0E96                     u1660:
  2532  0E96                     l1508:
  2533  0E96  086E               	movf	___fltol@sign1,w
  2534  0E97  1903               	btfsc	3,2
  2535  0E98  2E9A               	goto	u1671
  2536  0E99  2E9B               	goto	u1670
  2537  0E9A                     u1671:
  2538  0E9A  2EA6               	goto	l398
  2539  0E9B                     u1670:
  2540  0E9B                     l1510:
  2541  0E9B  09EA               	comf	___fltol@f1,f
  2542  0E9C  09EB               	comf	___fltol@f1+1,f
  2543  0E9D  09EC               	comf	___fltol@f1+2,f
  2544  0E9E  09ED               	comf	___fltol@f1+3,f
  2545  0E9F  0AEA               	incf	___fltol@f1,f
  2546  0EA0  1903               	skipnz
  2547  0EA1  0AEB               	incf	___fltol@f1+1,f
  2548  0EA2  1903               	skipnz
  2549  0EA3  0AEC               	incf	___fltol@f1+2,f
  2550  0EA4  1903               	skipnz
  2551  0EA5  0AED               	incf	___fltol@f1+3,f
  2552  0EA6                     l398:
  2553  0EA6                     l388:
  2554  0EA6  0008               	return
  2555  0EA7                     __end_of___fltol:
  2556                           
  2557                           	psect	text9
  2558  048D                     __ptext9:	
  2559 ;; *************** function ___flmul *****************
  2560 ;; Defined at:
  2561 ;;		line 8 in file "C:\Program Files\Microchip\xc8\v2.20\pic\sources\c90\common\sprcmul.c"
  2562 ;; Parameters:    Size  Location     Type
  2563 ;;  b               4   48[BANK0 ] long 
  2564 ;;  a               4   52[BANK0 ] long 
  2565 ;; Auto vars:     Size  Location     Type
  2566 ;;  prod            4   68[BANK0 ] struct .
  2567 ;;  grs             4   62[BANK0 ] unsigned long 
  2568 ;;  temp            2   72[BANK0 ] struct .
  2569 ;;  bexp            1   67[BANK0 ] unsigned char 
  2570 ;;  aexp            1   66[BANK0 ] unsigned char 
  2571 ;;  sign            1   61[BANK0 ] unsigned char 
  2572 ;; Return value:  Size  Location     Type
  2573 ;;                  4   48[BANK0 ] unsigned char 
  2574 ;; Registers used:
  2575 ;;		wreg, status,2, status,0, btemp+1, pclath, cstack
  2576 ;; Tracked objects:
  2577 ;;		On entry : 0/0
  2578 ;;		On exit  : 0/0
  2579 ;;		Unchanged: 0/0
  2580 ;; Data sizes:     COMMON   BANK0   BANK1   BANK3   BANK2
  2581 ;;      Params:         0       8       0       0       0
  2582 ;;      Locals:         0      13       0       0       0
  2583 ;;      Temps:          0       5       0       0       0
  2584 ;;      Totals:         0      26       0       0       0
  2585 ;;Total ram usage:       26 bytes
  2586 ;; Hardware stack levels used:    1
  2587 ;; Hardware stack levels required when called:    1
  2588 ;; This function calls:
  2589 ;;		__Umul8_16
  2590 ;; This function is called by:
  2591 ;;		_PWM1_Set_Duty
  2592 ;;		_PWM2_Set_Duty
  2593 ;; This function uses a non-reentrant model
  2594 ;;
  2595                           
  2596                           
  2597                           ;psect for function ___flmul
  2598  048D                     ___flmul:
  2599  048D                     l1656:	
  2600                           ;incstack = 0
  2601                           ; Regs used in ___flmul: [wreg+status,2+status,0+btemp+1+pclath+cstack]
  2602                           
  2603  048D  1283               	bcf	3,5	;RP0=0, select bank0
  2604  048E  1303               	bcf	3,6	;RP1=0, select bank0
  2605  048F  0853               	movf	___flmul@b+3,w
  2606  0490  3980               	andlw	128
  2607  0491  00FF               	movwf	btemp+1
  2608  0492  087F               	movf	btemp+1,w
  2609  0493  00DD               	movwf	___flmul@sign
  2610  0494                     l1658:
  2611  0494  0853               	movf	___flmul@b+3,w
  2612  0495  00D8               	movwf	??___flmul
  2613  0496  0758               	addwf	??___flmul,w
  2614  0497  00FF               	movwf	btemp+1
  2615  0498  087F               	movf	btemp+1,w
  2616  0499  00E3               	movwf	___flmul@bexp
  2617  049A                     l1660:
  2618  049A  1FD2               	btfss	___flmul@b+2,7
  2619  049B  2C9D               	goto	u1971
  2620  049C  2C9E               	goto	u1970
  2621  049D                     u1971:
  2622  049D  2C9F               	goto	l1664
  2623  049E                     u1970:
  2624  049E                     l1662:
  2625  049E  1463               	bsf	___flmul@bexp,0
  2626  049F                     l1664:
  2627  049F  0863               	movf	___flmul@bexp,w
  2628  04A0  1903               	btfsc	3,2
  2629  04A1  2CA3               	goto	u1981
  2630  04A2  2CA4               	goto	u1980
  2631  04A3                     u1981:
  2632  04A3  2CB3               	goto	l1672
  2633  04A4                     u1980:
  2634  04A4                     l1666:
  2635  04A4  0A63               	incf	___flmul@bexp,w
  2636  04A5  1D03               	btfss	3,2
  2637  04A6  2CA8               	goto	u1991
  2638  04A7  2CA9               	goto	u1990
  2639  04A8                     u1991:
  2640  04A8  2CB1               	goto	l1670
  2641  04A9                     u1990:
  2642  04A9                     l1668:
  2643  04A9  3000               	movlw	0
  2644  04AA  00D3               	movwf	___flmul@b+3
  2645  04AB  3000               	movlw	0
  2646  04AC  00D2               	movwf	___flmul@b+2
  2647  04AD  3000               	movlw	0
  2648  04AE  00D1               	movwf	___flmul@b+1
  2649  04AF  3000               	movlw	0
  2650  04B0  00D0               	movwf	___flmul@b
  2651  04B1                     l1670:
  2652  04B1  17D2               	bsf	___flmul@b+2,7
  2653  04B2  2CBB               	goto	l1674
  2654  04B3                     l1672:
  2655  04B3  3000               	movlw	0
  2656  04B4  00D3               	movwf	___flmul@b+3
  2657  04B5  3000               	movlw	0
  2658  04B6  00D2               	movwf	___flmul@b+2
  2659  04B7  3000               	movlw	0
  2660  04B8  00D1               	movwf	___flmul@b+1
  2661  04B9  3000               	movlw	0
  2662  04BA  00D0               	movwf	___flmul@b
  2663  04BB                     l1674:
  2664  04BB  0857               	movf	___flmul@a+3,w
  2665  04BC  3980               	andlw	128
  2666  04BD  00FF               	movwf	btemp+1
  2667  04BE  087F               	movf	btemp+1,w
  2668  04BF  06DD               	xorwf	___flmul@sign,f
  2669  04C0                     l1676:
  2670  04C0  0857               	movf	___flmul@a+3,w
  2671  04C1  00D8               	movwf	??___flmul
  2672  04C2  0758               	addwf	??___flmul,w
  2673  04C3  00FF               	movwf	btemp+1
  2674  04C4  087F               	movf	btemp+1,w
  2675  04C5  00E2               	movwf	___flmul@aexp
  2676  04C6                     l1678:
  2677  04C6  1FD6               	btfss	___flmul@a+2,7
  2678  04C7  2CC9               	goto	u2001
  2679  04C8  2CCA               	goto	u2000
  2680  04C9                     u2001:
  2681  04C9  2CCB               	goto	l1682
  2682  04CA                     u2000:
  2683  04CA                     l1680:
  2684  04CA  1462               	bsf	___flmul@aexp,0
  2685  04CB                     l1682:
  2686  04CB  0862               	movf	___flmul@aexp,w
  2687  04CC  1903               	btfsc	3,2
  2688  04CD  2CCF               	goto	u2011
  2689  04CE  2CD0               	goto	u2010
  2690  04CF                     u2011:
  2691  04CF  2CDF               	goto	l1690
  2692  04D0                     u2010:
  2693  04D0                     l1684:
  2694  04D0  0A62               	incf	___flmul@aexp,w
  2695  04D1  1D03               	btfss	3,2
  2696  04D2  2CD4               	goto	u2021
  2697  04D3  2CD5               	goto	u2020
  2698  04D4                     u2021:
  2699  04D4  2CDD               	goto	l1688
  2700  04D5                     u2020:
  2701  04D5                     l1686:
  2702  04D5  3000               	movlw	0
  2703  04D6  00D7               	movwf	___flmul@a+3
  2704  04D7  3000               	movlw	0
  2705  04D8  00D6               	movwf	___flmul@a+2
  2706  04D9  3000               	movlw	0
  2707  04DA  00D5               	movwf	___flmul@a+1
  2708  04DB  3000               	movlw	0
  2709  04DC  00D4               	movwf	___flmul@a
  2710  04DD                     l1688:
  2711  04DD  17D6               	bsf	___flmul@a+2,7
  2712  04DE  2CE7               	goto	l1692
  2713  04DF                     l1690:
  2714  04DF  3000               	movlw	0
  2715  04E0  00D7               	movwf	___flmul@a+3
  2716  04E1  3000               	movlw	0
  2717  04E2  00D6               	movwf	___flmul@a+2
  2718  04E3  3000               	movlw	0
  2719  04E4  00D5               	movwf	___flmul@a+1
  2720  04E5  3000               	movlw	0
  2721  04E6  00D4               	movwf	___flmul@a
  2722  04E7                     l1692:
  2723  04E7  0862               	movf	___flmul@aexp,w
  2724  04E8  1903               	btfsc	3,2
  2725  04E9  2CEB               	goto	u2031
  2726  04EA  2CEC               	goto	u2030
  2727  04EB                     u2031:
  2728  04EB  2CF1               	goto	l1696
  2729  04EC                     u2030:
  2730  04EC                     l1694:
  2731  04EC  0863               	movf	___flmul@bexp,w
  2732  04ED  1D03               	btfss	3,2
  2733  04EE  2CF0               	goto	u2041
  2734  04EF  2CF1               	goto	u2040
  2735  04F0                     u2041:
  2736  04F0  2CFA               	goto	l1700
  2737  04F1                     u2040:
  2738  04F1                     l1696:
  2739  04F1  3000               	movlw	0
  2740  04F2  00D3               	movwf	?___flmul+3
  2741  04F3  3000               	movlw	0
  2742  04F4  00D2               	movwf	?___flmul+2
  2743  04F5  3000               	movlw	0
  2744  04F6  00D1               	movwf	?___flmul+1
  2745  04F7  3000               	movlw	0
  2746  04F8  00D0               	movwf	?___flmul
  2747  04F9  2FED               	goto	l591
  2748  04FA                     l1700:
  2749  04FA  0850               	movf	___flmul@b,w
  2750  04FB  00FF               	movwf	btemp+1
  2751  04FC  087F               	movf	btemp+1,w
  2752  04FD  00F0               	movwf	__Umul8_16@multiplicand
  2753  04FE  0856               	movf	___flmul@a+2,w
  2754  04FF  120A  158A  245D  120A  118A  	fcall	__Umul8_16
  2755  0504  0871               	movf	?__Umul8_16+1,w
  2756  0505  1283               	bcf	3,5	;RP0=0, select bank0
  2757  0506  1303               	bcf	3,6	;RP1=0, select bank0
  2758  0507  00E9               	movwf	___flmul@temp+1
  2759  0508  0870               	movf	?__Umul8_16,w
  2760  0509  00E8               	movwf	___flmul@temp
  2761  050A                     l1702:
  2762  050A  0868               	movf	___flmul@temp,w
  2763  050B  00D8               	movwf	??___flmul
  2764  050C  01D9               	clrf	??___flmul+1
  2765  050D  01DA               	clrf	??___flmul+2
  2766  050E  01DB               	clrf	??___flmul+3
  2767  050F  085B               	movf	??___flmul+3,w
  2768  0510  00E1               	movwf	___flmul@grs+3
  2769  0511  085A               	movf	??___flmul+2,w
  2770  0512  00E0               	movwf	___flmul@grs+2
  2771  0513  0859               	movf	??___flmul+1,w
  2772  0514  00DF               	movwf	___flmul@grs+1
  2773  0515  0858               	movf	??___flmul,w
  2774  0516  00DE               	movwf	___flmul@grs
  2775  0517                     l1704:
  2776  0517  0869               	movf	___flmul@temp+1,w
  2777  0518  00D8               	movwf	??___flmul
  2778  0519  01D9               	clrf	??___flmul+1
  2779  051A  01DA               	clrf	??___flmul+2
  2780  051B  01DB               	clrf	??___flmul+3
  2781  051C  085B               	movf	??___flmul+3,w
  2782  051D  00E7               	movwf	___flmul@prod+3
  2783  051E  085A               	movf	??___flmul+2,w
  2784  051F  00E6               	movwf	___flmul@prod+2
  2785  0520  0859               	movf	??___flmul+1,w
  2786  0521  00E5               	movwf	___flmul@prod+1
  2787  0522  0858               	movf	??___flmul,w
  2788  0523  00E4               	movwf	___flmul@prod
  2789  0524  0851               	movf	___flmul@b+1,w
  2790  0525  00FF               	movwf	btemp+1
  2791  0526  087F               	movf	btemp+1,w
  2792  0527  00F0               	movwf	__Umul8_16@multiplicand
  2793  0528  0855               	movf	___flmul@a+1,w
  2794  0529  120A  158A  245D  120A  118A  	fcall	__Umul8_16
  2795  052E  0871               	movf	?__Umul8_16+1,w
  2796  052F  1283               	bcf	3,5	;RP0=0, select bank0
  2797  0530  1303               	bcf	3,6	;RP1=0, select bank0
  2798  0531  00E9               	movwf	___flmul@temp+1
  2799  0532  0870               	movf	?__Umul8_16,w
  2800  0533  00E8               	movwf	___flmul@temp
  2801  0534                     l1706:
  2802  0534  0868               	movf	___flmul@temp,w
  2803  0535  00D8               	movwf	??___flmul
  2804  0536  01D9               	clrf	??___flmul+1
  2805  0537  01DA               	clrf	??___flmul+2
  2806  0538  01DB               	clrf	??___flmul+3
  2807  0539  0858               	movf	??___flmul,w
  2808  053A  07DE               	addwf	___flmul@grs,f
  2809  053B  0859               	movf	??___flmul+1,w
  2810  053C  1103               	clrz
  2811  053D  1803               	skipnc
  2812  053E  3E01               	addlw	1
  2813  053F  1903               	skipnz
  2814  0540  2D42               	goto	u2051
  2815  0541  07DF               	addwf	___flmul@grs+1,f
  2816  0542                     u2051:
  2817  0542  085A               	movf	??___flmul+2,w
  2818  0543  1103               	clrz
  2819  0544  1803               	skipnc
  2820  0545  3E01               	addlw	1
  2821  0546  1903               	skipnz
  2822  0547  2D49               	goto	u2052
  2823  0548  07E0               	addwf	___flmul@grs+2,f
  2824  0549                     u2052:
  2825  0549  085B               	movf	??___flmul+3,w
  2826  054A  1103               	clrz
  2827  054B  1803               	skipnc
  2828  054C  3E01               	addlw	1
  2829  054D  1903               	skipnz
  2830  054E  2D50               	goto	u2053
  2831  054F  07E1               	addwf	___flmul@grs+3,f
  2832  0550                     u2053:
  2833  0550                     l1708:
  2834  0550  0869               	movf	___flmul@temp+1,w
  2835  0551  00D8               	movwf	??___flmul
  2836  0552  01D9               	clrf	??___flmul+1
  2837  0553  01DA               	clrf	??___flmul+2
  2838  0554  01DB               	clrf	??___flmul+3
  2839  0555  0858               	movf	??___flmul,w
  2840  0556  07E4               	addwf	___flmul@prod,f
  2841  0557  0859               	movf	??___flmul+1,w
  2842  0558  1103               	clrz
  2843  0559  1803               	skipnc
  2844  055A  3E01               	addlw	1
  2845  055B  1903               	skipnz
  2846  055C  2D5E               	goto	u2061
  2847  055D  07E5               	addwf	___flmul@prod+1,f
  2848  055E                     u2061:
  2849  055E  085A               	movf	??___flmul+2,w
  2850  055F  1103               	clrz
  2851  0560  1803               	skipnc
  2852  0561  3E01               	addlw	1
  2853  0562  1903               	skipnz
  2854  0563  2D65               	goto	u2062
  2855  0564  07E6               	addwf	___flmul@prod+2,f
  2856  0565                     u2062:
  2857  0565  085B               	movf	??___flmul+3,w
  2858  0566  1103               	clrz
  2859  0567  1803               	skipnc
  2860  0568  3E01               	addlw	1
  2861  0569  1903               	skipnz
  2862  056A  2D6C               	goto	u2063
  2863  056B  07E7               	addwf	___flmul@prod+3,f
  2864  056C                     u2063:
  2865  056C  0852               	movf	___flmul@b+2,w
  2866  056D  00FF               	movwf	btemp+1
  2867  056E  087F               	movf	btemp+1,w
  2868  056F  00F0               	movwf	__Umul8_16@multiplicand
  2869  0570  0854               	movf	___flmul@a,w
  2870  0571  120A  158A  245D  120A  118A  	fcall	__Umul8_16
  2871  0576  0871               	movf	?__Umul8_16+1,w
  2872  0577  1283               	bcf	3,5	;RP0=0, select bank0
  2873  0578  1303               	bcf	3,6	;RP1=0, select bank0
  2874  0579  00E9               	movwf	___flmul@temp+1
  2875  057A  0870               	movf	?__Umul8_16,w
  2876  057B  00E8               	movwf	___flmul@temp
  2877  057C                     l1710:
  2878  057C  0868               	movf	___flmul@temp,w
  2879  057D  00D8               	movwf	??___flmul
  2880  057E  01D9               	clrf	??___flmul+1
  2881  057F  01DA               	clrf	??___flmul+2
  2882  0580  01DB               	clrf	??___flmul+3
  2883  0581  0858               	movf	??___flmul,w
  2884  0582  07DE               	addwf	___flmul@grs,f
  2885  0583  0859               	movf	??___flmul+1,w
  2886  0584  1103               	clrz
  2887  0585  1803               	skipnc
  2888  0586  3E01               	addlw	1
  2889  0587  1903               	skipnz
  2890  0588  2D8A               	goto	u2071
  2891  0589  07DF               	addwf	___flmul@grs+1,f
  2892  058A                     u2071:
  2893  058A  085A               	movf	??___flmul+2,w
  2894  058B  1103               	clrz
  2895  058C  1803               	skipnc
  2896  058D  3E01               	addlw	1
  2897  058E  1903               	skipnz
  2898  058F  2D91               	goto	u2072
  2899  0590  07E0               	addwf	___flmul@grs+2,f
  2900  0591                     u2072:
  2901  0591  085B               	movf	??___flmul+3,w
  2902  0592  1103               	clrz
  2903  0593  1803               	skipnc
  2904  0594  3E01               	addlw	1
  2905  0595  1903               	skipnz
  2906  0596  2D98               	goto	u2073
  2907  0597  07E1               	addwf	___flmul@grs+3,f
  2908  0598                     u2073:
  2909  0598                     l1712:
  2910  0598  0869               	movf	___flmul@temp+1,w
  2911  0599  00D8               	movwf	??___flmul
  2912  059A  01D9               	clrf	??___flmul+1
  2913  059B  01DA               	clrf	??___flmul+2
  2914  059C  01DB               	clrf	??___flmul+3
  2915  059D  0858               	movf	??___flmul,w
  2916  059E  07E4               	addwf	___flmul@prod,f
  2917  059F  0859               	movf	??___flmul+1,w
  2918  05A0  1103               	clrz
  2919  05A1  1803               	skipnc
  2920  05A2  3E01               	addlw	1
  2921  05A3  1903               	skipnz
  2922  05A4  2DA6               	goto	u2081
  2923  05A5  07E5               	addwf	___flmul@prod+1,f
  2924  05A6                     u2081:
  2925  05A6  085A               	movf	??___flmul+2,w
  2926  05A7  1103               	clrz
  2927  05A8  1803               	skipnc
  2928  05A9  3E01               	addlw	1
  2929  05AA  1903               	skipnz
  2930  05AB  2DAD               	goto	u2082
  2931  05AC  07E6               	addwf	___flmul@prod+2,f
  2932  05AD                     u2082:
  2933  05AD  085B               	movf	??___flmul+3,w
  2934  05AE  1103               	clrz
  2935  05AF  1803               	skipnc
  2936  05B0  3E01               	addlw	1
  2937  05B1  1903               	skipnz
  2938  05B2  2DB4               	goto	u2083
  2939  05B3  07E7               	addwf	___flmul@prod+3,f
  2940  05B4                     u2083:
  2941  05B4                     l1714:
  2942  05B4  3008               	movlw	8
  2943  05B5  00D8               	movwf	??___flmul
  2944  05B6                     u2095:
  2945  05B6  1003               	clrc
  2946  05B7  0DDE               	rlf	___flmul@grs,f
  2947  05B8  0DDF               	rlf	___flmul@grs+1,f
  2948  05B9  0DE0               	rlf	___flmul@grs+2,f
  2949  05BA  0DE1               	rlf	___flmul@grs+3,f
  2950  05BB  0BD8               	decfsz	??___flmul,f
  2951  05BC  2DB6               	goto	u2095
  2952  05BD                     l1716:
  2953  05BD  0851               	movf	___flmul@b+1,w
  2954  05BE  00FF               	movwf	btemp+1
  2955  05BF  087F               	movf	btemp+1,w
  2956  05C0  00F0               	movwf	__Umul8_16@multiplicand
  2957  05C1  0854               	movf	___flmul@a,w
  2958  05C2  120A  158A  245D  120A  118A  	fcall	__Umul8_16
  2959  05C7  0871               	movf	?__Umul8_16+1,w
  2960  05C8  1283               	bcf	3,5	;RP0=0, select bank0
  2961  05C9  1303               	bcf	3,6	;RP1=0, select bank0
  2962  05CA  00E9               	movwf	___flmul@temp+1
  2963  05CB  0870               	movf	?__Umul8_16,w
  2964  05CC  00E8               	movwf	___flmul@temp
  2965  05CD                     l1718:
  2966  05CD  0868               	movf	___flmul@temp,w
  2967  05CE  00D8               	movwf	??___flmul
  2968  05CF  0869               	movf	___flmul@temp+1,w
  2969  05D0  00D9               	movwf	??___flmul+1
  2970  05D1  01DA               	clrf	??___flmul+2
  2971  05D2  01DB               	clrf	??___flmul+3
  2972  05D3  0858               	movf	??___flmul,w
  2973  05D4  07DE               	addwf	___flmul@grs,f
  2974  05D5  0859               	movf	??___flmul+1,w
  2975  05D6  1103               	clrz
  2976  05D7  1803               	skipnc
  2977  05D8  3E01               	addlw	1
  2978  05D9  1903               	skipnz
  2979  05DA  2DDC               	goto	u2101
  2980  05DB  07DF               	addwf	___flmul@grs+1,f
  2981  05DC                     u2101:
  2982  05DC  085A               	movf	??___flmul+2,w
  2983  05DD  1103               	clrz
  2984  05DE  1803               	skipnc
  2985  05DF  3E01               	addlw	1
  2986  05E0  1903               	skipnz
  2987  05E1  2DE3               	goto	u2102
  2988  05E2  07E0               	addwf	___flmul@grs+2,f
  2989  05E3                     u2102:
  2990  05E3  085B               	movf	??___flmul+3,w
  2991  05E4  1103               	clrz
  2992  05E5  1803               	skipnc
  2993  05E6  3E01               	addlw	1
  2994  05E7  1903               	skipnz
  2995  05E8  2DEA               	goto	u2103
  2996  05E9  07E1               	addwf	___flmul@grs+3,f
  2997  05EA                     u2103:
  2998  05EA                     l1720:
  2999  05EA  0850               	movf	___flmul@b,w
  3000  05EB  00FF               	movwf	btemp+1
  3001  05EC  087F               	movf	btemp+1,w
  3002  05ED  00F0               	movwf	__Umul8_16@multiplicand
  3003  05EE  0855               	movf	___flmul@a+1,w
  3004  05EF  120A  158A  245D  120A  118A  	fcall	__Umul8_16
  3005  05F4  0871               	movf	?__Umul8_16+1,w
  3006  05F5  1283               	bcf	3,5	;RP0=0, select bank0
  3007  05F6  1303               	bcf	3,6	;RP1=0, select bank0
  3008  05F7  00E9               	movwf	___flmul@temp+1
  3009  05F8  0870               	movf	?__Umul8_16,w
  3010  05F9  00E8               	movwf	___flmul@temp
  3011  05FA                     l1722:
  3012  05FA  0868               	movf	___flmul@temp,w
  3013  05FB  00D8               	movwf	??___flmul
  3014  05FC  0869               	movf	___flmul@temp+1,w
  3015  05FD  00D9               	movwf	??___flmul+1
  3016  05FE  01DA               	clrf	??___flmul+2
  3017  05FF  01DB               	clrf	??___flmul+3
  3018  0600  0858               	movf	??___flmul,w
  3019  0601  07DE               	addwf	___flmul@grs,f
  3020  0602  0859               	movf	??___flmul+1,w
  3021  0603  1103               	clrz
  3022  0604  1803               	skipnc
  3023  0605  3E01               	addlw	1
  3024  0606  1903               	skipnz
  3025  0607  2E09               	goto	u2111
  3026  0608  07DF               	addwf	___flmul@grs+1,f
  3027  0609                     u2111:
  3028  0609  085A               	movf	??___flmul+2,w
  3029  060A  1103               	clrz
  3030  060B  1803               	skipnc
  3031  060C  3E01               	addlw	1
  3032  060D  1903               	skipnz
  3033  060E  2E10               	goto	u2112
  3034  060F  07E0               	addwf	___flmul@grs+2,f
  3035  0610                     u2112:
  3036  0610  085B               	movf	??___flmul+3,w
  3037  0611  1103               	clrz
  3038  0612  1803               	skipnc
  3039  0613  3E01               	addlw	1
  3040  0614  1903               	skipnz
  3041  0615  2E17               	goto	u2113
  3042  0616  07E1               	addwf	___flmul@grs+3,f
  3043  0617                     u2113:
  3044  0617                     l1724:
  3045  0617  3008               	movlw	8
  3046  0618  00D8               	movwf	??___flmul
  3047  0619                     u2125:
  3048  0619  1003               	clrc
  3049  061A  0DDE               	rlf	___flmul@grs,f
  3050  061B  0DDF               	rlf	___flmul@grs+1,f
  3051  061C  0DE0               	rlf	___flmul@grs+2,f
  3052  061D  0DE1               	rlf	___flmul@grs+3,f
  3053  061E  0BD8               	decfsz	??___flmul,f
  3054  061F  2E19               	goto	u2125
  3055  0620  0850               	movf	___flmul@b,w
  3056  0621  00FF               	movwf	btemp+1
  3057  0622  087F               	movf	btemp+1,w
  3058  0623  00F0               	movwf	__Umul8_16@multiplicand
  3059  0624  0854               	movf	___flmul@a,w
  3060  0625  120A  158A  245D  120A  118A  	fcall	__Umul8_16
  3061  062A  0871               	movf	?__Umul8_16+1,w
  3062  062B  1283               	bcf	3,5	;RP0=0, select bank0
  3063  062C  1303               	bcf	3,6	;RP1=0, select bank0
  3064  062D  00E9               	movwf	___flmul@temp+1
  3065  062E  0870               	movf	?__Umul8_16,w
  3066  062F  00E8               	movwf	___flmul@temp
  3067  0630                     l1726:
  3068  0630  0868               	movf	___flmul@temp,w
  3069  0631  00D8               	movwf	??___flmul
  3070  0632  0869               	movf	___flmul@temp+1,w
  3071  0633  00D9               	movwf	??___flmul+1
  3072  0634  01DA               	clrf	??___flmul+2
  3073  0635  01DB               	clrf	??___flmul+3
  3074  0636  0858               	movf	??___flmul,w
  3075  0637  07DE               	addwf	___flmul@grs,f
  3076  0638  0859               	movf	??___flmul+1,w
  3077  0639  1103               	clrz
  3078  063A  1803               	skipnc
  3079  063B  3E01               	addlw	1
  3080  063C  1903               	skipnz
  3081  063D  2E3F               	goto	u2131
  3082  063E  07DF               	addwf	___flmul@grs+1,f
  3083  063F                     u2131:
  3084  063F  085A               	movf	??___flmul+2,w
  3085  0640  1103               	clrz
  3086  0641  1803               	skipnc
  3087  0642  3E01               	addlw	1
  3088  0643  1903               	skipnz
  3089  0644  2E46               	goto	u2132
  3090  0645  07E0               	addwf	___flmul@grs+2,f
  3091  0646                     u2132:
  3092  0646  085B               	movf	??___flmul+3,w
  3093  0647  1103               	clrz
  3094  0648  1803               	skipnc
  3095  0649  3E01               	addlw	1
  3096  064A  1903               	skipnz
  3097  064B  2E4D               	goto	u2133
  3098  064C  07E1               	addwf	___flmul@grs+3,f
  3099  064D                     u2133:
  3100  064D                     l1728:
  3101  064D  0851               	movf	___flmul@b+1,w
  3102  064E  00FF               	movwf	btemp+1
  3103  064F  087F               	movf	btemp+1,w
  3104  0650  00F0               	movwf	__Umul8_16@multiplicand
  3105  0651  0856               	movf	___flmul@a+2,w
  3106  0652  120A  158A  245D  120A  118A  	fcall	__Umul8_16
  3107  0657  0871               	movf	?__Umul8_16+1,w
  3108  0658  1283               	bcf	3,5	;RP0=0, select bank0
  3109  0659  1303               	bcf	3,6	;RP1=0, select bank0
  3110  065A  00E9               	movwf	___flmul@temp+1
  3111  065B  0870               	movf	?__Umul8_16,w
  3112  065C  00E8               	movwf	___flmul@temp
  3113  065D  0868               	movf	___flmul@temp,w
  3114  065E  00D8               	movwf	??___flmul
  3115  065F  0869               	movf	___flmul@temp+1,w
  3116  0660  00D9               	movwf	??___flmul+1
  3117  0661  01DA               	clrf	??___flmul+2
  3118  0662  01DB               	clrf	??___flmul+3
  3119  0663  0858               	movf	??___flmul,w
  3120  0664  07E4               	addwf	___flmul@prod,f
  3121  0665  0859               	movf	??___flmul+1,w
  3122  0666  1103               	clrz
  3123  0667  1803               	skipnc
  3124  0668  3E01               	addlw	1
  3125  0669  1903               	skipnz
  3126  066A  2E6C               	goto	u2141
  3127  066B  07E5               	addwf	___flmul@prod+1,f
  3128  066C                     u2141:
  3129  066C  085A               	movf	??___flmul+2,w
  3130  066D  1103               	clrz
  3131  066E  1803               	skipnc
  3132  066F  3E01               	addlw	1
  3133  0670  1903               	skipnz
  3134  0671  2E73               	goto	u2142
  3135  0672  07E6               	addwf	___flmul@prod+2,f
  3136  0673                     u2142:
  3137  0673  085B               	movf	??___flmul+3,w
  3138  0674  1103               	clrz
  3139  0675  1803               	skipnc
  3140  0676  3E01               	addlw	1
  3141  0677  1903               	skipnz
  3142  0678  2E7A               	goto	u2143
  3143  0679  07E7               	addwf	___flmul@prod+3,f
  3144  067A                     u2143:
  3145  067A                     l1730:
  3146  067A  0852               	movf	___flmul@b+2,w
  3147  067B  00FF               	movwf	btemp+1
  3148  067C  087F               	movf	btemp+1,w
  3149  067D  00F0               	movwf	__Umul8_16@multiplicand
  3150  067E  0855               	movf	___flmul@a+1,w
  3151  067F  120A  158A  245D  120A  118A  	fcall	__Umul8_16
  3152  0684  0871               	movf	?__Umul8_16+1,w
  3153  0685  1283               	bcf	3,5	;RP0=0, select bank0
  3154  0686  1303               	bcf	3,6	;RP1=0, select bank0
  3155  0687  00E9               	movwf	___flmul@temp+1
  3156  0688  0870               	movf	?__Umul8_16,w
  3157  0689  00E8               	movwf	___flmul@temp
  3158  068A                     l1732:
  3159  068A  0868               	movf	___flmul@temp,w
  3160  068B  00D8               	movwf	??___flmul
  3161  068C  0869               	movf	___flmul@temp+1,w
  3162  068D  00D9               	movwf	??___flmul+1
  3163  068E  01DA               	clrf	??___flmul+2
  3164  068F  01DB               	clrf	??___flmul+3
  3165  0690  0858               	movf	??___flmul,w
  3166  0691  07E4               	addwf	___flmul@prod,f
  3167  0692  0859               	movf	??___flmul+1,w
  3168  0693  1103               	clrz
  3169  0694  1803               	skipnc
  3170  0695  3E01               	addlw	1
  3171  0696  1903               	skipnz
  3172  0697  2E99               	goto	u2151
  3173  0698  07E5               	addwf	___flmul@prod+1,f
  3174  0699                     u2151:
  3175  0699  085A               	movf	??___flmul+2,w
  3176  069A  1103               	clrz
  3177  069B  1803               	skipnc
  3178  069C  3E01               	addlw	1
  3179  069D  1903               	skipnz
  3180  069E  2EA0               	goto	u2152
  3181  069F  07E6               	addwf	___flmul@prod+2,f
  3182  06A0                     u2152:
  3183  06A0  085B               	movf	??___flmul+3,w
  3184  06A1  1103               	clrz
  3185  06A2  1803               	skipnc
  3186  06A3  3E01               	addlw	1
  3187  06A4  1903               	skipnz
  3188  06A5  2EA7               	goto	u2153
  3189  06A6  07E7               	addwf	___flmul@prod+3,f
  3190  06A7                     u2153:
  3191  06A7  0852               	movf	___flmul@b+2,w
  3192  06A8  00FF               	movwf	btemp+1
  3193  06A9  087F               	movf	btemp+1,w
  3194  06AA  00F0               	movwf	__Umul8_16@multiplicand
  3195  06AB  0856               	movf	___flmul@a+2,w
  3196  06AC  120A  158A  245D  120A  118A  	fcall	__Umul8_16
  3197  06B1  0871               	movf	?__Umul8_16+1,w
  3198  06B2  1283               	bcf	3,5	;RP0=0, select bank0
  3199  06B3  1303               	bcf	3,6	;RP1=0, select bank0
  3200  06B4  00E9               	movwf	___flmul@temp+1
  3201  06B5  0870               	movf	?__Umul8_16,w
  3202  06B6  00E8               	movwf	___flmul@temp
  3203  06B7                     l1734:
  3204  06B7  0868               	movf	___flmul@temp,w
  3205  06B8  00D8               	movwf	??___flmul
  3206  06B9  0869               	movf	___flmul@temp+1,w
  3207  06BA  00D9               	movwf	??___flmul+1
  3208  06BB  01DA               	clrf	??___flmul+2
  3209  06BC  01DB               	clrf	??___flmul+3
  3210  06BD  3008               	movlw	8
  3211  06BE                     u2165:
  3212  06BE  1003               	clrc
  3213  06BF  0DD8               	rlf	??___flmul,f
  3214  06C0  0DD9               	rlf	??___flmul+1,f
  3215  06C1  0DDA               	rlf	??___flmul+2,f
  3216  06C2  0DDB               	rlf	??___flmul+3,f
  3217  06C3                     u2160:
  3218  06C3  3EFF               	addlw	-1
  3219  06C4  1D03               	skipz
  3220  06C5  2EBE               	goto	u2165
  3221  06C6  0858               	movf	??___flmul,w
  3222  06C7  07E4               	addwf	___flmul@prod,f
  3223  06C8  0859               	movf	??___flmul+1,w
  3224  06C9  1103               	clrz
  3225  06CA  1803               	skipnc
  3226  06CB  3E01               	addlw	1
  3227  06CC  1903               	skipnz
  3228  06CD  2ECF               	goto	u2171
  3229  06CE  07E5               	addwf	___flmul@prod+1,f
  3230  06CF                     u2171:
  3231  06CF  085A               	movf	??___flmul+2,w
  3232  06D0  1103               	clrz
  3233  06D1  1803               	skipnc
  3234  06D2  3E01               	addlw	1
  3235  06D3  1903               	skipnz
  3236  06D4  2ED6               	goto	u2172
  3237  06D5  07E6               	addwf	___flmul@prod+2,f
  3238  06D6                     u2172:
  3239  06D6  085B               	movf	??___flmul+3,w
  3240  06D7  1103               	clrz
  3241  06D8  1803               	skipnc
  3242  06D9  3E01               	addlw	1
  3243  06DA  1903               	skipnz
  3244  06DB  2EDD               	goto	u2173
  3245  06DC  07E7               	addwf	___flmul@prod+3,f
  3246  06DD                     u2173:
  3247  06DD                     l1736:
  3248  06DD  085E               	movf	___flmul@grs,w
  3249  06DE  00D8               	movwf	??___flmul
  3250  06DF  085F               	movf	___flmul@grs+1,w
  3251  06E0  00D9               	movwf	??___flmul+1
  3252  06E1  0860               	movf	___flmul@grs+2,w
  3253  06E2  00DA               	movwf	??___flmul+2
  3254  06E3  0861               	movf	___flmul@grs+3,w
  3255  06E4  00DB               	movwf	??___flmul+3
  3256  06E5  3018               	movlw	24
  3257  06E6                     u2185:
  3258  06E6  1003               	clrc
  3259  06E7  0CDB               	rrf	??___flmul+3,f
  3260  06E8  0CDA               	rrf	??___flmul+2,f
  3261  06E9  0CD9               	rrf	??___flmul+1,f
  3262  06EA  0CD8               	rrf	??___flmul,f
  3263  06EB                     u2180:
  3264  06EB  3EFF               	addlw	-1
  3265  06EC  1D03               	skipz
  3266  06ED  2EE6               	goto	u2185
  3267  06EE  0858               	movf	??___flmul,w
  3268  06EF  07E4               	addwf	___flmul@prod,f
  3269  06F0  0859               	movf	??___flmul+1,w
  3270  06F1  1103               	clrz
  3271  06F2  1803               	skipnc
  3272  06F3  3E01               	addlw	1
  3273  06F4  1903               	skipnz
  3274  06F5  2EF7               	goto	u2191
  3275  06F6  07E5               	addwf	___flmul@prod+1,f
  3276  06F7                     u2191:
  3277  06F7  085A               	movf	??___flmul+2,w
  3278  06F8  1103               	clrz
  3279  06F9  1803               	skipnc
  3280  06FA  3E01               	addlw	1
  3281  06FB  1903               	skipnz
  3282  06FC  2EFE               	goto	u2192
  3283  06FD  07E6               	addwf	___flmul@prod+2,f
  3284  06FE                     u2192:
  3285  06FE  085B               	movf	??___flmul+3,w
  3286  06FF  1103               	clrz
  3287  0700  1803               	skipnc
  3288  0701  3E01               	addlw	1
  3289  0702  1903               	skipnz
  3290  0703  2F05               	goto	u2193
  3291  0704  07E7               	addwf	___flmul@prod+3,f
  3292  0705                     u2193:
  3293  0705                     l1738:
  3294  0705  3008               	movlw	8
  3295  0706  00D8               	movwf	??___flmul
  3296  0707                     u2205:
  3297  0707  1003               	clrc
  3298  0708  0DDE               	rlf	___flmul@grs,f
  3299  0709  0DDF               	rlf	___flmul@grs+1,f
  3300  070A  0DE0               	rlf	___flmul@grs+2,f
  3301  070B  0DE1               	rlf	___flmul@grs+3,f
  3302  070C  0BD8               	decfsz	??___flmul,f
  3303  070D  2F07               	goto	u2205
  3304  070E                     l1740:
  3305  070E  0863               	movf	___flmul@bexp,w
  3306  070F  0762               	addwf	___flmul@aexp,w
  3307  0710  00D8               	movwf	??___flmul
  3308  0711  01D9               	clrf	??___flmul+1
  3309  0712  0DD9               	rlf	??___flmul+1,f
  3310  0713  0858               	movf	??___flmul,w
  3311  0714  3E82               	addlw	130
  3312  0715  00E8               	movwf	___flmul@temp
  3313  0716  0859               	movf	??___flmul+1,w
  3314  0717  1803               	skipnc
  3315  0718  3E01               	addlw	1
  3316  0719  3EFF               	addlw	255
  3317  071A  00E9               	movwf	___flmul@temp+1
  3318  071B  2F39               	goto	l1752
  3319  071C                     l1742:
  3320  071C  3001               	movlw	1
  3321  071D  00D8               	movwf	??___flmul
  3322  071E                     u2215:
  3323  071E  1003               	clrc
  3324  071F  0DE4               	rlf	___flmul@prod,f
  3325  0720  0DE5               	rlf	___flmul@prod+1,f
  3326  0721  0DE6               	rlf	___flmul@prod+2,f
  3327  0722  0DE7               	rlf	___flmul@prod+3,f
  3328  0723  0BD8               	decfsz	??___flmul,f
  3329  0724  2F1E               	goto	u2215
  3330  0725                     l1744:
  3331  0725  1FE1               	btfss	___flmul@grs+3,7
  3332  0726  2F28               	goto	u2221
  3333  0727  2F29               	goto	u2220
  3334  0728                     u2221:
  3335  0728  2F2A               	goto	l1748
  3336  0729                     u2220:
  3337  0729                     l1746:
  3338  0729  1464               	bsf	___flmul@prod,0
  3339  072A                     l1748:
  3340  072A  3001               	movlw	1
  3341  072B  00D8               	movwf	??___flmul
  3342  072C                     u2235:
  3343  072C  1003               	clrc
  3344  072D  0DDE               	rlf	___flmul@grs,f
  3345  072E  0DDF               	rlf	___flmul@grs+1,f
  3346  072F  0DE0               	rlf	___flmul@grs+2,f
  3347  0730  0DE1               	rlf	___flmul@grs+3,f
  3348  0731  0BD8               	decfsz	??___flmul,f
  3349  0732  2F2C               	goto	u2235
  3350  0733                     l1750:
  3351  0733  30FF               	movlw	255
  3352  0734  07E8               	addwf	___flmul@temp,f
  3353  0735  1803               	skipnc
  3354  0736  0AE9               	incf	___flmul@temp+1,f
  3355  0737  30FF               	movlw	255
  3356  0738  07E9               	addwf	___flmul@temp+1,f
  3357  0739                     l1752:
  3358  0739  1FE6               	btfss	___flmul@prod+2,7
  3359  073A  2F3C               	goto	u2241
  3360  073B  2F3D               	goto	u2240
  3361  073C                     u2241:
  3362  073C  2F1C               	goto	l1742
  3363  073D                     u2240:
  3364  073D                     l1754:
  3365  073D  01E2               	clrf	___flmul@aexp
  3366  073E                     l1756:
  3367  073E  1FE1               	btfss	___flmul@grs+3,7
  3368  073F  2F41               	goto	u2251
  3369  0740  2F42               	goto	u2250
  3370  0741                     u2251:
  3371  0741  2F5E               	goto	l1764
  3372  0742                     u2250:
  3373  0742                     l1758:
  3374  0742  30FF               	movlw	255
  3375  0743  055E               	andwf	___flmul@grs,w
  3376  0744  00D8               	movwf	??___flmul
  3377  0745  30FF               	movlw	255
  3378  0746  055F               	andwf	___flmul@grs+1,w
  3379  0747  00D9               	movwf	??___flmul+1
  3380  0748  30FF               	movlw	255
  3381  0749  0560               	andwf	___flmul@grs+2,w
  3382  074A  00DA               	movwf	??___flmul+2
  3383  074B  307F               	movlw	127
  3384  074C  0561               	andwf	___flmul@grs+3,w
  3385  074D  00DB               	movwf	??___flmul+3
  3386  074E  085B               	movf	??___flmul+3,w
  3387  074F  045A               	iorwf	??___flmul+2,w
  3388  0750  0459               	iorwf	??___flmul+1,w
  3389  0751  0458               	iorwf	??___flmul,w
  3390  0752  1903               	skipnz
  3391  0753  2F55               	goto	u2261
  3392  0754  2F56               	goto	u2260
  3393  0755                     u2261:
  3394  0755  2F59               	goto	l597
  3395  0756                     u2260:
  3396  0756                     l1760:
  3397  0756  01E2               	clrf	___flmul@aexp
  3398  0757  0AE2               	incf	___flmul@aexp,f
  3399  0758  2F5E               	goto	l1764
  3400  0759                     l597:
  3401  0759  1C64               	btfss	___flmul@prod,0
  3402  075A  2F5C               	goto	u2271
  3403  075B  2F5D               	goto	u2270
  3404  075C                     u2271:
  3405  075C  2F5E               	goto	l1764
  3406  075D                     u2270:
  3407  075D  2F56               	goto	l1760
  3408  075E                     l1764:
  3409  075E  0862               	movf	___flmul@aexp,w
  3410  075F  1903               	btfsc	3,2
  3411  0760  2F62               	goto	u2281
  3412  0761  2F63               	goto	u2280
  3413  0762                     u2281:
  3414  0762  2F94               	goto	l1774
  3415  0763                     u2280:
  3416  0763                     l1766:
  3417  0763  3001               	movlw	1
  3418  0764  07E4               	addwf	___flmul@prod,f
  3419  0765  3000               	movlw	0
  3420  0766  1803               	skipnc
  3421  0767  3001               	movlw	1
  3422  0768  07E5               	addwf	___flmul@prod+1,f
  3423  0769  3000               	movlw	0
  3424  076A  1803               	skipnc
  3425  076B  3001               	movlw	1
  3426  076C  07E6               	addwf	___flmul@prod+2,f
  3427  076D  3000               	movlw	0
  3428  076E  1803               	skipnc
  3429  076F  3001               	movlw	1
  3430  0770  07E7               	addwf	___flmul@prod+3,f
  3431  0771                     l1768:
  3432  0771  1C67               	btfss	___flmul@prod+3,0
  3433  0772  2F74               	goto	u2291
  3434  0773  2F75               	goto	u2290
  3435  0774                     u2291:
  3436  0774  2F94               	goto	l1774
  3437  0775                     u2290:
  3438  0775                     l1770:
  3439  0775  0864               	movf	___flmul@prod,w
  3440  0776  00D8               	movwf	??___flmul
  3441  0777  0865               	movf	___flmul@prod+1,w
  3442  0778  00D9               	movwf	??___flmul+1
  3443  0779  0866               	movf	___flmul@prod+2,w
  3444  077A  00DA               	movwf	??___flmul+2
  3445  077B  0867               	movf	___flmul@prod+3,w
  3446  077C  00DB               	movwf	??___flmul+3
  3447  077D  3001               	movlw	1
  3448  077E  00DC               	movwf	??___flmul+4
  3449  077F                     u2305:
  3450  077F  0D5B               	rlf	??___flmul+3,w
  3451  0780  0CDB               	rrf	??___flmul+3,f
  3452  0781  0CDA               	rrf	??___flmul+2,f
  3453  0782  0CD9               	rrf	??___flmul+1,f
  3454  0783  0CD8               	rrf	??___flmul,f
  3455  0784                     u2300:
  3456  0784  0BDC               	decfsz	??___flmul+4,f
  3457  0785  2F7F               	goto	u2305
  3458  0786  085B               	movf	??___flmul+3,w
  3459  0787  00E7               	movwf	___flmul@prod+3
  3460  0788  085A               	movf	??___flmul+2,w
  3461  0789  00E6               	movwf	___flmul@prod+2
  3462  078A  0859               	movf	??___flmul+1,w
  3463  078B  00E5               	movwf	___flmul@prod+1
  3464  078C  0858               	movf	??___flmul,w
  3465  078D  00E4               	movwf	___flmul@prod
  3466  078E                     l1772:
  3467  078E  3001               	movlw	1
  3468  078F  07E8               	addwf	___flmul@temp,f
  3469  0790  1803               	skipnc
  3470  0791  0AE9               	incf	___flmul@temp+1,f
  3471  0792  3000               	movlw	0
  3472  0793  07E9               	addwf	___flmul@temp+1,f
  3473  0794                     l1774:
  3474  0794  0869               	movf	___flmul@temp+1,w
  3475  0795  3A80               	xorlw	128
  3476  0796  00FF               	movwf	btemp+1
  3477  0797  3080               	movlw	128
  3478  0798  027F               	subwf	btemp+1,w
  3479  0799  1D03               	skipz
  3480  079A  2F9D               	goto	u2315
  3481  079B  30FF               	movlw	255
  3482  079C  0268               	subwf	___flmul@temp,w
  3483  079D                     u2315:
  3484  079D  1C03               	skipc
  3485  079E  2FA0               	goto	u2311
  3486  079F  2FA1               	goto	u2310
  3487  07A0                     u2311:
  3488  07A0  2FAC               	goto	l1778
  3489  07A1                     u2310:
  3490  07A1                     l1776:
  3491  07A1  307F               	movlw	127
  3492  07A2  1283               	bcf	3,5	;RP0=0, select bank0
  3493  07A3  1303               	bcf	3,6	;RP1=0, select bank0
  3494  07A4  00E7               	movwf	___flmul@prod+3
  3495  07A5  3080               	movlw	128
  3496  07A6  00E6               	movwf	___flmul@prod+2
  3497  07A7  3000               	movlw	0
  3498  07A8  00E5               	movwf	___flmul@prod+1
  3499  07A9  3000               	movlw	0
  3500  07AA  00E4               	movwf	___flmul@prod
  3501  07AB  2FE1               	goto	l603
  3502  07AC                     l1778:
  3503  07AC  1283               	bcf	3,5	;RP0=0, select bank0
  3504  07AD  1303               	bcf	3,6	;RP1=0, select bank0
  3505  07AE  0869               	movf	___flmul@temp+1,w
  3506  07AF  3A80               	xorlw	128
  3507  07B0  00FF               	movwf	btemp+1
  3508  07B1  3080               	movlw	128
  3509  07B2  027F               	subwf	btemp+1,w
  3510  07B3  1D03               	skipz
  3511  07B4  2FB7               	goto	u2325
  3512  07B5  3001               	movlw	1
  3513  07B6  0268               	subwf	___flmul@temp,w
  3514  07B7                     u2325:
  3515  07B7  1803               	skipnc
  3516  07B8  2FBA               	goto	u2321
  3517  07B9  2FBB               	goto	u2320
  3518  07BA                     u2321:
  3519  07BA  2FC7               	goto	l1784
  3520  07BB                     u2320:
  3521  07BB                     l1780:
  3522  07BB  3000               	movlw	0
  3523  07BC  1283               	bcf	3,5	;RP0=0, select bank0
  3524  07BD  1303               	bcf	3,6	;RP1=0, select bank0
  3525  07BE  00E7               	movwf	___flmul@prod+3
  3526  07BF  3000               	movlw	0
  3527  07C0  00E6               	movwf	___flmul@prod+2
  3528  07C1  3000               	movlw	0
  3529  07C2  00E5               	movwf	___flmul@prod+1
  3530  07C3  3000               	movlw	0
  3531  07C4  00E4               	movwf	___flmul@prod
  3532  07C5                     l1782:
  3533  07C5  01DD               	clrf	___flmul@sign
  3534  07C6  2FE1               	goto	l603
  3535  07C7                     l1784:
  3536  07C7  1283               	bcf	3,5	;RP0=0, select bank0
  3537  07C8  1303               	bcf	3,6	;RP1=0, select bank0
  3538  07C9  0868               	movf	___flmul@temp,w
  3539  07CA  00FF               	movwf	btemp+1
  3540  07CB  087F               	movf	btemp+1,w
  3541  07CC  00E3               	movwf	___flmul@bexp
  3542  07CD                     l1786:
  3543  07CD  30FF               	movlw	255
  3544  07CE  05E4               	andwf	___flmul@prod,f
  3545  07CF  30FF               	movlw	255
  3546  07D0  05E5               	andwf	___flmul@prod+1,f
  3547  07D1  307F               	movlw	127
  3548  07D2  05E6               	andwf	___flmul@prod+2,f
  3549  07D3  3000               	movlw	0
  3550  07D4  05E7               	andwf	___flmul@prod+3,f
  3551  07D5                     l1788:
  3552  07D5  1C63               	btfss	___flmul@bexp,0
  3553  07D6  2FD8               	goto	u2331
  3554  07D7  2FD9               	goto	u2330
  3555  07D8                     u2331:
  3556  07D8  2FDA               	goto	l1792
  3557  07D9                     u2330:
  3558  07D9                     l1790:
  3559  07D9  17E6               	bsf	___flmul@prod+2,7
  3560  07DA                     l1792:
  3561  07DA  0863               	movf	___flmul@bexp,w
  3562  07DB  00D8               	movwf	??___flmul
  3563  07DC  1003               	clrc
  3564  07DD  0C58               	rrf	??___flmul,w
  3565  07DE  00FF               	movwf	btemp+1
  3566  07DF  087F               	movf	btemp+1,w
  3567  07E0  00E7               	movwf	___flmul@prod+3
  3568  07E1                     l603:
  3569  07E1  085D               	movf	___flmul@sign,w
  3570  07E2  00FF               	movwf	btemp+1
  3571  07E3  087F               	movf	btemp+1,w
  3572  07E4  04E7               	iorwf	___flmul@prod+3,f
  3573  07E5                     l1794:
  3574  07E5  0867               	movf	___flmul@prod+3,w
  3575  07E6  00D3               	movwf	?___flmul+3
  3576  07E7  0866               	movf	___flmul@prod+2,w
  3577  07E8  00D2               	movwf	?___flmul+2
  3578  07E9  0865               	movf	___flmul@prod+1,w
  3579  07EA  00D1               	movwf	?___flmul+1
  3580  07EB  0864               	movf	___flmul@prod,w
  3581  07EC  00D0               	movwf	?___flmul
  3582  07ED                     l591:
  3583  07ED  0008               	return
  3584  07EE                     __end_of___flmul:
  3585                           
  3586                           	psect	text10
  3587  0C5D                     __ptext10:	
  3588 ;; *************** function __Umul8_16 *****************
  3589 ;; Defined at:
  3590 ;;		line 4 in file "C:\Program Files\Microchip\xc8\v2.20\pic\sources\c90\common\Umul8_16.c"
  3591 ;; Parameters:    Size  Location     Type
  3592 ;;  multiplier      1    wreg     unsigned char 
  3593 ;;  multiplicand    1    0[COMMON] unsigned char 
  3594 ;; Auto vars:     Size  Location     Type
  3595 ;;  multiplier      1    8[COMMON] unsigned char 
  3596 ;;  word_mpld       2    6[COMMON] unsigned int 
  3597 ;;  product         2    4[COMMON] unsigned int 
  3598 ;; Return value:  Size  Location     Type
  3599 ;;                  2    0[COMMON] unsigned int 
  3600 ;; Registers used:
  3601 ;;		wreg, status,2, status,0
  3602 ;; Tracked objects:
  3603 ;;		On entry : 0/0
  3604 ;;		On exit  : 0/0
  3605 ;;		Unchanged: 0/0
  3606 ;; Data sizes:     COMMON   BANK0   BANK1   BANK3   BANK2
  3607 ;;      Params:         2       0       0       0       0
  3608 ;;      Locals:         5       0       0       0       0
  3609 ;;      Temps:          2       0       0       0       0
  3610 ;;      Totals:         9       0       0       0       0
  3611 ;;Total ram usage:        9 bytes
  3612 ;; Hardware stack levels used:    1
  3613 ;; This function calls:
  3614 ;;		Nothing
  3615 ;; This function is called by:
  3616 ;;		___flmul
  3617 ;; This function uses a non-reentrant model
  3618 ;;
  3619                           
  3620                           
  3621                           ;psect for function __Umul8_16
  3622  0C5D                     __Umul8_16:
  3623                           
  3624                           ;incstack = 0
  3625                           ; Regs used in __Umul8_16: [wreg+status,2+status,0]
  3626                           ;__Umul8_16@multiplier stored from wreg
  3627  0C5D  00F8               	movwf	__Umul8_16@multiplier
  3628  0C5E                     l1456:
  3629  0C5E  01F4               	clrf	__Umul8_16@product
  3630  0C5F  01F5               	clrf	__Umul8_16@product+1
  3631  0C60                     l1458:
  3632  0C60  0870               	movf	__Umul8_16@multiplicand,w
  3633  0C61  00F2               	movwf	??__Umul8_16
  3634  0C62  01F3               	clrf	??__Umul8_16+1
  3635  0C63  0872               	movf	??__Umul8_16,w
  3636  0C64  00F6               	movwf	__Umul8_16@word_mpld
  3637  0C65  0873               	movf	??__Umul8_16+1,w
  3638  0C66  00F7               	movwf	__Umul8_16@word_mpld+1
  3639  0C67                     l1460:
  3640  0C67  1C78               	btfss	__Umul8_16@multiplier,0
  3641  0C68  2C6A               	goto	u1541
  3642  0C69  2C6B               	goto	u1540
  3643  0C6A                     u1541:
  3644  0C6A  2C71               	goto	l610
  3645  0C6B                     u1540:
  3646  0C6B                     l1462:
  3647  0C6B  0876               	movf	__Umul8_16@word_mpld,w
  3648  0C6C  07F4               	addwf	__Umul8_16@product,f
  3649  0C6D  1803               	skipnc
  3650  0C6E  0AF5               	incf	__Umul8_16@product+1,f
  3651  0C6F  0877               	movf	__Umul8_16@word_mpld+1,w
  3652  0C70  07F5               	addwf	__Umul8_16@product+1,f
  3653  0C71                     l610:
  3654  0C71  3001               	movlw	1
  3655  0C72                     u1555:
  3656  0C72  1003               	clrc
  3657  0C73  0DF6               	rlf	__Umul8_16@word_mpld,f
  3658  0C74  0DF7               	rlf	__Umul8_16@word_mpld+1,f
  3659  0C75  3EFF               	addlw	-1
  3660  0C76  1D03               	skipz
  3661  0C77  2C72               	goto	u1555
  3662  0C78  1003               	clrc
  3663  0C79  0CF8               	rrf	__Umul8_16@multiplier,f
  3664  0C7A                     l1464:
  3665  0C7A  0878               	movf	__Umul8_16@multiplier,w
  3666  0C7B  1D03               	btfss	3,2
  3667  0C7C  2C7E               	goto	u1561
  3668  0C7D  2C7F               	goto	u1560
  3669  0C7E                     u1561:
  3670  0C7E  2C67               	goto	l1460
  3671  0C7F                     u1560:
  3672  0C7F                     l1466:
  3673  0C7F  0875               	movf	__Umul8_16@product+1,w
  3674  0C80  00F1               	movwf	?__Umul8_16+1
  3675  0C81  0874               	movf	__Umul8_16@product,w
  3676  0C82  00F0               	movwf	?__Umul8_16
  3677  0C83                     l612:
  3678  0C83  0008               	return
  3679  0C84                     __end_of__Umul8_16:
  3680                           
  3681                           	psect	text11
  3682  02B0                     __ptext11:	
  3683 ;; *************** function ___fldiv *****************
  3684 ;; Defined at:
  3685 ;;		line 8 in file "C:\Program Files\Microchip\xc8\v2.20\pic\sources\c90\common\sprcdiv.c"
  3686 ;; Parameters:    Size  Location     Type
  3687 ;;  a               4   22[BANK0 ] unsigned int 
  3688 ;;  b               4   26[BANK0 ] unsigned int 
  3689 ;; Auto vars:     Size  Location     Type
  3690 ;;  grs             4   42[BANK0 ] unsigned long 
  3691 ;;  rem             4   35[BANK0 ] unsigned long 
  3692 ;;  new_exp         2   40[BANK0 ] int 
  3693 ;;  aexp            1   47[BANK0 ] unsigned char 
  3694 ;;  bexp            1   46[BANK0 ] unsigned char 
  3695 ;;  sign            1   39[BANK0 ] unsigned char 
  3696 ;; Return value:  Size  Location     Type
  3697 ;;                  4   22[BANK0 ] unsigned char 
  3698 ;; Registers used:
  3699 ;;		wreg, status,2, status,0, btemp+1
  3700 ;; Tracked objects:
  3701 ;;		On entry : 0/0
  3702 ;;		On exit  : 0/0
  3703 ;;		Unchanged: 0/0
  3704 ;; Data sizes:     COMMON   BANK0   BANK1   BANK3   BANK2
  3705 ;;      Params:         0       8       0       0       0
  3706 ;;      Locals:         0      13       0       0       0
  3707 ;;      Temps:          0       5       0       0       0
  3708 ;;      Totals:         0      26       0       0       0
  3709 ;;Total ram usage:       26 bytes
  3710 ;; Hardware stack levels used:    1
  3711 ;; This function calls:
  3712 ;;		Nothing
  3713 ;; This function is called by:
  3714 ;;		_PWM1_Set_Duty
  3715 ;;		_PWM2_Set_Duty
  3716 ;; This function uses a non-reentrant model
  3717 ;;
  3718                           
  3719                           
  3720                           ;psect for function ___fldiv
  3721  02B0                     ___fldiv:
  3722  02B0                     l1512:	
  3723                           ;incstack = 0
  3724                           ; Regs used in ___fldiv: [wreg+status,2+status,0+btemp+1]
  3725                           
  3726  02B0  1283               	bcf	3,5	;RP0=0, select bank0
  3727  02B1  1303               	bcf	3,6	;RP1=0, select bank0
  3728  02B2  083D               	movf	___fldiv@b+3,w
  3729  02B3  3980               	andlw	128
  3730  02B4  00FF               	movwf	btemp+1
  3731  02B5  087F               	movf	btemp+1,w
  3732  02B6  00C7               	movwf	___fldiv@sign
  3733  02B7                     l1514:
  3734  02B7  083D               	movf	___fldiv@b+3,w
  3735  02B8  00BE               	movwf	??___fldiv
  3736  02B9  073E               	addwf	??___fldiv,w
  3737  02BA  00FF               	movwf	btemp+1
  3738  02BB  087F               	movf	btemp+1,w
  3739  02BC  00CE               	movwf	___fldiv@bexp
  3740  02BD                     l1516:
  3741  02BD  1FBC               	btfss	___fldiv@b+2,7
  3742  02BE  2AC0               	goto	u1681
  3743  02BF  2AC1               	goto	u1680
  3744  02C0                     u1681:
  3745  02C0  2AC2               	goto	l1520
  3746  02C1                     u1680:
  3747  02C1                     l1518:
  3748  02C1  144E               	bsf	___fldiv@bexp,0
  3749  02C2                     l1520:
  3750  02C2  084E               	movf	___fldiv@bexp,w
  3751  02C3  1903               	btfsc	3,2
  3752  02C4  2AC6               	goto	u1691
  3753  02C5  2AC7               	goto	u1690
  3754  02C6                     u1691:
  3755  02C6  2AD7               	goto	l1530
  3756  02C7                     u1690:
  3757  02C7                     l1522:
  3758  02C7  0A4E               	incf	___fldiv@bexp,w
  3759  02C8  1D03               	btfss	3,2
  3760  02C9  2ACB               	goto	u1701
  3761  02CA  2ACC               	goto	u1700
  3762  02CB                     u1701:
  3763  02CB  2AD4               	goto	l1526
  3764  02CC                     u1700:
  3765  02CC                     l1524:
  3766  02CC  3000               	movlw	0
  3767  02CD  00BD               	movwf	___fldiv@b+3
  3768  02CE  3000               	movlw	0
  3769  02CF  00BC               	movwf	___fldiv@b+2
  3770  02D0  3000               	movlw	0
  3771  02D1  00BB               	movwf	___fldiv@b+1
  3772  02D2  3000               	movlw	0
  3773  02D3  00BA               	movwf	___fldiv@b
  3774  02D4                     l1526:
  3775  02D4  17BC               	bsf	___fldiv@b+2,7
  3776  02D5                     l1528:
  3777  02D5  01BD               	clrf	___fldiv@b+3
  3778  02D6  2ADF               	goto	l1532
  3779  02D7                     l1530:
  3780  02D7  3000               	movlw	0
  3781  02D8  00BD               	movwf	___fldiv@b+3
  3782  02D9  3000               	movlw	0
  3783  02DA  00BC               	movwf	___fldiv@b+2
  3784  02DB  3000               	movlw	0
  3785  02DC  00BB               	movwf	___fldiv@b+1
  3786  02DD  3000               	movlw	0
  3787  02DE  00BA               	movwf	___fldiv@b
  3788  02DF                     l1532:
  3789  02DF  0839               	movf	___fldiv@a+3,w
  3790  02E0  3980               	andlw	128
  3791  02E1  00FF               	movwf	btemp+1
  3792  02E2  087F               	movf	btemp+1,w
  3793  02E3  06C7               	xorwf	___fldiv@sign,f
  3794  02E4                     l1534:
  3795  02E4  0839               	movf	___fldiv@a+3,w
  3796  02E5  00BE               	movwf	??___fldiv
  3797  02E6  073E               	addwf	??___fldiv,w
  3798  02E7  00FF               	movwf	btemp+1
  3799  02E8  087F               	movf	btemp+1,w
  3800  02E9  00CF               	movwf	___fldiv@aexp
  3801  02EA                     l1536:
  3802  02EA  1FB8               	btfss	___fldiv@a+2,7
  3803  02EB  2AED               	goto	u1711
  3804  02EC  2AEE               	goto	u1710
  3805  02ED                     u1711:
  3806  02ED  2AEF               	goto	l1540
  3807  02EE                     u1710:
  3808  02EE                     l1538:
  3809  02EE  144F               	bsf	___fldiv@aexp,0
  3810  02EF                     l1540:
  3811  02EF  084F               	movf	___fldiv@aexp,w
  3812  02F0  1903               	btfsc	3,2
  3813  02F1  2AF3               	goto	u1721
  3814  02F2  2AF4               	goto	u1720
  3815  02F3                     u1721:
  3816  02F3  2B04               	goto	l1550
  3817  02F4                     u1720:
  3818  02F4                     l1542:
  3819  02F4  0A4F               	incf	___fldiv@aexp,w
  3820  02F5  1D03               	btfss	3,2
  3821  02F6  2AF8               	goto	u1731
  3822  02F7  2AF9               	goto	u1730
  3823  02F8                     u1731:
  3824  02F8  2B01               	goto	l1546
  3825  02F9                     u1730:
  3826  02F9                     l1544:
  3827  02F9  3000               	movlw	0
  3828  02FA  00B9               	movwf	___fldiv@a+3
  3829  02FB  3000               	movlw	0
  3830  02FC  00B8               	movwf	___fldiv@a+2
  3831  02FD  3000               	movlw	0
  3832  02FE  00B7               	movwf	___fldiv@a+1
  3833  02FF  3000               	movlw	0
  3834  0300  00B6               	movwf	___fldiv@a
  3835  0301                     l1546:
  3836  0301  17B8               	bsf	___fldiv@a+2,7
  3837  0302                     l1548:
  3838  0302  01B9               	clrf	___fldiv@a+3
  3839  0303  2B0C               	goto	l551
  3840  0304                     l1550:
  3841  0304  3000               	movlw	0
  3842  0305  00B9               	movwf	___fldiv@a+3
  3843  0306  3000               	movlw	0
  3844  0307  00B8               	movwf	___fldiv@a+2
  3845  0308  3000               	movlw	0
  3846  0309  00B7               	movwf	___fldiv@a+1
  3847  030A  3000               	movlw	0
  3848  030B  00B6               	movwf	___fldiv@a
  3849  030C                     l551:
  3850  030C  0839               	movf	___fldiv@a+3,w
  3851  030D  0438               	iorwf	___fldiv@a+2,w
  3852  030E  0437               	iorwf	___fldiv@a+1,w
  3853  030F  0436               	iorwf	___fldiv@a,w
  3854  0310  1D03               	skipz
  3855  0311  2B13               	goto	u1741
  3856  0312  2B14               	goto	u1740
  3857  0313                     u1741:
  3858  0313  2B2D               	goto	l1560
  3859  0314                     u1740:
  3860  0314                     l1552:
  3861  0314  3000               	movlw	0
  3862  0315  00BD               	movwf	___fldiv@b+3
  3863  0316  3000               	movlw	0
  3864  0317  00BC               	movwf	___fldiv@b+2
  3865  0318  3000               	movlw	0
  3866  0319  00BB               	movwf	___fldiv@b+1
  3867  031A  3000               	movlw	0
  3868  031B  00BA               	movwf	___fldiv@b
  3869  031C  3080               	movlw	128
  3870  031D  04BC               	iorwf	___fldiv@b+2,f
  3871  031E  307F               	movlw	127
  3872  031F  04BD               	iorwf	___fldiv@b+3,f
  3873  0320                     l1554:
  3874  0320  0847               	movf	___fldiv@sign,w
  3875  0321  00FF               	movwf	btemp+1
  3876  0322  087F               	movf	btemp+1,w
  3877  0323  04BD               	iorwf	___fldiv@b+3,f
  3878  0324                     l1556:
  3879  0324  083D               	movf	___fldiv@b+3,w
  3880  0325  00B9               	movwf	?___fldiv+3
  3881  0326  083C               	movf	___fldiv@b+2,w
  3882  0327  00B8               	movwf	?___fldiv+2
  3883  0328  083B               	movf	___fldiv@b+1,w
  3884  0329  00B7               	movwf	?___fldiv+1
  3885  032A  083A               	movf	___fldiv@b,w
  3886  032B  00B6               	movwf	?___fldiv
  3887  032C  2C8C               	goto	l553
  3888  032D                     l1560:
  3889  032D  084E               	movf	___fldiv@bexp,w
  3890  032E  1D03               	btfss	3,2
  3891  032F  2B31               	goto	u1751
  3892  0330  2B32               	goto	u1750
  3893  0331                     u1751:
  3894  0331  2B3B               	goto	l1566
  3895  0332                     u1750:
  3896  0332                     l1562:
  3897  0332  3000               	movlw	0
  3898  0333  00B9               	movwf	?___fldiv+3
  3899  0334  3000               	movlw	0
  3900  0335  00B8               	movwf	?___fldiv+2
  3901  0336  3000               	movlw	0
  3902  0337  00B7               	movwf	?___fldiv+1
  3903  0338  3000               	movlw	0
  3904  0339  00B6               	movwf	?___fldiv
  3905  033A  2C8C               	goto	l553
  3906  033B                     l1566:
  3907  033B  084E               	movf	___fldiv@bexp,w
  3908  033C  00BE               	movwf	??___fldiv
  3909  033D  01BF               	clrf	??___fldiv+1
  3910  033E  083F               	movf	??___fldiv+1,w
  3911  033F  00C1               	movwf	??___fldiv+3
  3912  0340  084F               	movf	___fldiv@aexp,w
  3913  0341  023E               	subwf	??___fldiv,w
  3914  0342  00C0               	movwf	??___fldiv+2
  3915  0343  1C03               	skipc
  3916  0344  03C1               	decf	??___fldiv+3,f
  3917  0345  0840               	movf	??___fldiv+2,w
  3918  0346  3E7F               	addlw	127
  3919  0347  00C8               	movwf	___fldiv@new_exp
  3920  0348  0841               	movf	??___fldiv+3,w
  3921  0349  1803               	skipnc
  3922  034A  3E01               	addlw	1
  3923  034B  3E00               	addlw	0
  3924  034C  00C9               	movwf	___fldiv@new_exp+1
  3925  034D                     l1568:
  3926  034D  083D               	movf	___fldiv@b+3,w
  3927  034E  00C6               	movwf	___fldiv@rem+3
  3928  034F  083C               	movf	___fldiv@b+2,w
  3929  0350  00C5               	movwf	___fldiv@rem+2
  3930  0351  083B               	movf	___fldiv@b+1,w
  3931  0352  00C4               	movwf	___fldiv@rem+1
  3932  0353  083A               	movf	___fldiv@b,w
  3933  0354  00C3               	movwf	___fldiv@rem
  3934  0355                     l1570:
  3935  0355  3000               	movlw	0
  3936  0356  00BD               	movwf	___fldiv@b+3
  3937  0357  3000               	movlw	0
  3938  0358  00BC               	movwf	___fldiv@b+2
  3939  0359  3000               	movlw	0
  3940  035A  00BB               	movwf	___fldiv@b+1
  3941  035B  3000               	movlw	0
  3942  035C  00BA               	movwf	___fldiv@b
  3943  035D                     l1572:
  3944  035D  3000               	movlw	0
  3945  035E  00CD               	movwf	___fldiv@grs+3
  3946  035F  3000               	movlw	0
  3947  0360  00CC               	movwf	___fldiv@grs+2
  3948  0361  3000               	movlw	0
  3949  0362  00CB               	movwf	___fldiv@grs+1
  3950  0363  3000               	movlw	0
  3951  0364  00CA               	movwf	___fldiv@grs
  3952  0365                     l1574:
  3953  0365  01CF               	clrf	___fldiv@aexp
  3954  0366  2BB1               	goto	l1594
  3955  0367                     l1576:
  3956  0367  084F               	movf	___fldiv@aexp,w
  3957  0368  1903               	btfsc	3,2
  3958  0369  2B6B               	goto	u1761
  3959  036A  2B6C               	goto	u1760
  3960  036B                     u1761:
  3961  036B  2B8C               	goto	l1586
  3962  036C                     u1760:
  3963  036C                     l1578:
  3964  036C  3001               	movlw	1
  3965  036D  00BE               	movwf	??___fldiv
  3966  036E                     u1775:
  3967  036E  1003               	clrc
  3968  036F  0DC3               	rlf	___fldiv@rem,f
  3969  0370  0DC4               	rlf	___fldiv@rem+1,f
  3970  0371  0DC5               	rlf	___fldiv@rem+2,f
  3971  0372  0DC6               	rlf	___fldiv@rem+3,f
  3972  0373  0BBE               	decfsz	??___fldiv,f
  3973  0374  2B6E               	goto	u1775
  3974  0375  3001               	movlw	1
  3975  0376  00BE               	movwf	??___fldiv
  3976  0377                     u1785:
  3977  0377  1003               	clrc
  3978  0378  0DBA               	rlf	___fldiv@b,f
  3979  0379  0DBB               	rlf	___fldiv@b+1,f
  3980  037A  0DBC               	rlf	___fldiv@b+2,f
  3981  037B  0DBD               	rlf	___fldiv@b+3,f
  3982  037C  0BBE               	decfsz	??___fldiv,f
  3983  037D  2B77               	goto	u1785
  3984  037E                     l1580:
  3985  037E  1FCD               	btfss	___fldiv@grs+3,7
  3986  037F  2B81               	goto	u1791
  3987  0380  2B82               	goto	u1790
  3988  0381                     u1791:
  3989  0381  2B83               	goto	l1584
  3990  0382                     u1790:
  3991  0382                     l1582:
  3992  0382  143A               	bsf	___fldiv@b,0
  3993  0383                     l1584:
  3994  0383  3001               	movlw	1
  3995  0384  00BE               	movwf	??___fldiv
  3996  0385                     u1805:
  3997  0385  1003               	clrc
  3998  0386  0DCA               	rlf	___fldiv@grs,f
  3999  0387  0DCB               	rlf	___fldiv@grs+1,f
  4000  0388  0DCC               	rlf	___fldiv@grs+2,f
  4001  0389  0DCD               	rlf	___fldiv@grs+3,f
  4002  038A  0BBE               	decfsz	??___fldiv,f
  4003  038B  2B85               	goto	u1805
  4004  038C                     l1586:
  4005  038C  0839               	movf	___fldiv@a+3,w
  4006  038D  0246               	subwf	___fldiv@rem+3,w
  4007  038E  1D03               	skipz
  4008  038F  2B9A               	goto	u1815
  4009  0390  0838               	movf	___fldiv@a+2,w
  4010  0391  0245               	subwf	___fldiv@rem+2,w
  4011  0392  1D03               	skipz
  4012  0393  2B9A               	goto	u1815
  4013  0394  0837               	movf	___fldiv@a+1,w
  4014  0395  0244               	subwf	___fldiv@rem+1,w
  4015  0396  1D03               	skipz
  4016  0397  2B9A               	goto	u1815
  4017  0398  0836               	movf	___fldiv@a,w
  4018  0399  0243               	subwf	___fldiv@rem,w
  4019  039A                     u1815:
  4020  039A  1C03               	skipc
  4021  039B  2B9D               	goto	u1811
  4022  039C  2B9E               	goto	u1810
  4023  039D                     u1811:
  4024  039D  2BAD               	goto	l1592
  4025  039E                     u1810:
  4026  039E                     l1588:
  4027  039E  174D               	bsf	___fldiv@grs+3,6
  4028  039F                     l1590:
  4029  039F  0836               	movf	___fldiv@a,w
  4030  03A0  02C3               	subwf	___fldiv@rem,f
  4031  03A1  0837               	movf	___fldiv@a+1,w
  4032  03A2  1C03               	skipc
  4033  03A3  0F37               	incfsz	___fldiv@a+1,w
  4034  03A4  02C4               	subwf	___fldiv@rem+1,f
  4035  03A5  0838               	movf	___fldiv@a+2,w
  4036  03A6  1C03               	skipc
  4037  03A7  0F38               	incfsz	___fldiv@a+2,w
  4038  03A8  02C5               	subwf	___fldiv@rem+2,f
  4039  03A9  0839               	movf	___fldiv@a+3,w
  4040  03AA  1C03               	skipc
  4041  03AB  0F39               	incfsz	___fldiv@a+3,w
  4042  03AC  02C6               	subwf	___fldiv@rem+3,f
  4043  03AD                     l1592:
  4044  03AD  3001               	movlw	1
  4045  03AE  00FF               	movwf	btemp+1
  4046  03AF  087F               	movf	btemp+1,w
  4047  03B0  07CF               	addwf	___fldiv@aexp,f
  4048  03B1                     l1594:
  4049  03B1  301A               	movlw	26
  4050  03B2  024F               	subwf	___fldiv@aexp,w
  4051  03B3  1C03               	skipc
  4052  03B4  2BB6               	goto	u1821
  4053  03B5  2BB7               	goto	u1820
  4054  03B6                     u1821:
  4055  03B6  2B67               	goto	l1576
  4056  03B7                     u1820:
  4057  03B7                     l1596:
  4058  03B7  0846               	movf	___fldiv@rem+3,w
  4059  03B8  0445               	iorwf	___fldiv@rem+2,w
  4060  03B9  0444               	iorwf	___fldiv@rem+1,w
  4061  03BA  0443               	iorwf	___fldiv@rem,w
  4062  03BB  1903               	skipnz
  4063  03BC  2BBE               	goto	u1831
  4064  03BD  2BBF               	goto	u1830
  4065  03BE                     u1831:
  4066  03BE  2BDE               	goto	l1610
  4067  03BF                     u1830:
  4068  03BF                     l1598:
  4069  03BF  144A               	bsf	___fldiv@grs,0
  4070  03C0  2BDE               	goto	l1610
  4071  03C1                     l1600:
  4072  03C1  3001               	movlw	1
  4073  03C2  00BE               	movwf	??___fldiv
  4074  03C3                     u1845:
  4075  03C3  1003               	clrc
  4076  03C4  0DBA               	rlf	___fldiv@b,f
  4077  03C5  0DBB               	rlf	___fldiv@b+1,f
  4078  03C6  0DBC               	rlf	___fldiv@b+2,f
  4079  03C7  0DBD               	rlf	___fldiv@b+3,f
  4080  03C8  0BBE               	decfsz	??___fldiv,f
  4081  03C9  2BC3               	goto	u1845
  4082  03CA                     l1602:
  4083  03CA  1FCD               	btfss	___fldiv@grs+3,7
  4084  03CB  2BCD               	goto	u1851
  4085  03CC  2BCE               	goto	u1850
  4086  03CD                     u1851:
  4087  03CD  2BCF               	goto	l1606
  4088  03CE                     u1850:
  4089  03CE                     l1604:
  4090  03CE  143A               	bsf	___fldiv@b,0
  4091  03CF                     l1606:
  4092  03CF  3001               	movlw	1
  4093  03D0  00BE               	movwf	??___fldiv
  4094  03D1                     u1865:
  4095  03D1  1003               	clrc
  4096  03D2  0DCA               	rlf	___fldiv@grs,f
  4097  03D3  0DCB               	rlf	___fldiv@grs+1,f
  4098  03D4  0DCC               	rlf	___fldiv@grs+2,f
  4099  03D5  0DCD               	rlf	___fldiv@grs+3,f
  4100  03D6  0BBE               	decfsz	??___fldiv,f
  4101  03D7  2BD1               	goto	u1865
  4102  03D8                     l1608:
  4103  03D8  30FF               	movlw	255
  4104  03D9  07C8               	addwf	___fldiv@new_exp,f
  4105  03DA  1803               	skipnc
  4106  03DB  0AC9               	incf	___fldiv@new_exp+1,f
  4107  03DC  30FF               	movlw	255
  4108  03DD  07C9               	addwf	___fldiv@new_exp+1,f
  4109  03DE                     l1610:
  4110  03DE  1FBC               	btfss	___fldiv@b+2,7
  4111  03DF  2BE1               	goto	u1871
  4112  03E0  2BE2               	goto	u1870
  4113  03E1                     u1871:
  4114  03E1  2BC1               	goto	l1600
  4115  03E2                     u1870:
  4116  03E2                     l1612:
  4117  03E2  01CF               	clrf	___fldiv@aexp
  4118  03E3                     l1614:
  4119  03E3  1FCD               	btfss	___fldiv@grs+3,7
  4120  03E4  2BE6               	goto	u1881
  4121  03E5  2BE7               	goto	u1880
  4122  03E6                     u1881:
  4123  03E6  2C03               	goto	l1622
  4124  03E7                     u1880:
  4125  03E7                     l1616:
  4126  03E7  30FF               	movlw	255
  4127  03E8  054A               	andwf	___fldiv@grs,w
  4128  03E9  00BE               	movwf	??___fldiv
  4129  03EA  30FF               	movlw	255
  4130  03EB  054B               	andwf	___fldiv@grs+1,w
  4131  03EC  00BF               	movwf	??___fldiv+1
  4132  03ED  30FF               	movlw	255
  4133  03EE  054C               	andwf	___fldiv@grs+2,w
  4134  03EF  00C0               	movwf	??___fldiv+2
  4135  03F0  307F               	movlw	127
  4136  03F1  054D               	andwf	___fldiv@grs+3,w
  4137  03F2  00C1               	movwf	??___fldiv+3
  4138  03F3  0841               	movf	??___fldiv+3,w
  4139  03F4  0440               	iorwf	??___fldiv+2,w
  4140  03F5  043F               	iorwf	??___fldiv+1,w
  4141  03F6  043E               	iorwf	??___fldiv,w
  4142  03F7  1903               	skipnz
  4143  03F8  2BFA               	goto	u1891
  4144  03F9  2BFB               	goto	u1890
  4145  03FA                     u1891:
  4146  03FA  2BFE               	goto	l567
  4147  03FB                     u1890:
  4148  03FB                     l1618:
  4149  03FB  01CF               	clrf	___fldiv@aexp
  4150  03FC  0ACF               	incf	___fldiv@aexp,f
  4151  03FD  2C03               	goto	l1622
  4152  03FE                     l567:
  4153  03FE  1C3A               	btfss	___fldiv@b,0
  4154  03FF  2C01               	goto	u1901
  4155  0400  2C02               	goto	u1900
  4156  0401                     u1901:
  4157  0401  2C03               	goto	l1622
  4158  0402                     u1900:
  4159  0402  2BFB               	goto	l1618
  4160  0403                     l1622:
  4161  0403  084F               	movf	___fldiv@aexp,w
  4162  0404  1903               	btfsc	3,2
  4163  0405  2C07               	goto	u1911
  4164  0406  2C08               	goto	u1910
  4165  0407                     u1911:
  4166  0407  2C39               	goto	l1632
  4167  0408                     u1910:
  4168  0408                     l1624:
  4169  0408  3001               	movlw	1
  4170  0409  07BA               	addwf	___fldiv@b,f
  4171  040A  3000               	movlw	0
  4172  040B  1803               	skipnc
  4173  040C  3001               	movlw	1
  4174  040D  07BB               	addwf	___fldiv@b+1,f
  4175  040E  3000               	movlw	0
  4176  040F  1803               	skipnc
  4177  0410  3001               	movlw	1
  4178  0411  07BC               	addwf	___fldiv@b+2,f
  4179  0412  3000               	movlw	0
  4180  0413  1803               	skipnc
  4181  0414  3001               	movlw	1
  4182  0415  07BD               	addwf	___fldiv@b+3,f
  4183  0416                     l1626:
  4184  0416  1C3D               	btfss	___fldiv@b+3,0
  4185  0417  2C19               	goto	u1921
  4186  0418  2C1A               	goto	u1920
  4187  0419                     u1921:
  4188  0419  2C39               	goto	l1632
  4189  041A                     u1920:
  4190  041A                     l1628:
  4191  041A  083A               	movf	___fldiv@b,w
  4192  041B  00BE               	movwf	??___fldiv
  4193  041C  083B               	movf	___fldiv@b+1,w
  4194  041D  00BF               	movwf	??___fldiv+1
  4195  041E  083C               	movf	___fldiv@b+2,w
  4196  041F  00C0               	movwf	??___fldiv+2
  4197  0420  083D               	movf	___fldiv@b+3,w
  4198  0421  00C1               	movwf	??___fldiv+3
  4199  0422  3001               	movlw	1
  4200  0423  00C2               	movwf	??___fldiv+4
  4201  0424                     u1935:
  4202  0424  0D41               	rlf	??___fldiv+3,w
  4203  0425  0CC1               	rrf	??___fldiv+3,f
  4204  0426  0CC0               	rrf	??___fldiv+2,f
  4205  0427  0CBF               	rrf	??___fldiv+1,f
  4206  0428  0CBE               	rrf	??___fldiv,f
  4207  0429                     u1930:
  4208  0429  0BC2               	decfsz	??___fldiv+4,f
  4209  042A  2C24               	goto	u1935
  4210  042B  0841               	movf	??___fldiv+3,w
  4211  042C  00BD               	movwf	___fldiv@b+3
  4212  042D  0840               	movf	??___fldiv+2,w
  4213  042E  00BC               	movwf	___fldiv@b+2
  4214  042F  083F               	movf	??___fldiv+1,w
  4215  0430  00BB               	movwf	___fldiv@b+1
  4216  0431  083E               	movf	??___fldiv,w
  4217  0432  00BA               	movwf	___fldiv@b
  4218  0433                     l1630:
  4219  0433  3001               	movlw	1
  4220  0434  07C8               	addwf	___fldiv@new_exp,f
  4221  0435  1803               	skipnc
  4222  0436  0AC9               	incf	___fldiv@new_exp+1,f
  4223  0437  3000               	movlw	0
  4224  0438  07C9               	addwf	___fldiv@new_exp+1,f
  4225  0439                     l1632:
  4226  0439  0849               	movf	___fldiv@new_exp+1,w
  4227  043A  3A80               	xorlw	128
  4228  043B  00FF               	movwf	btemp+1
  4229  043C  3080               	movlw	128
  4230  043D  027F               	subwf	btemp+1,w
  4231  043E  1D03               	skipz
  4232  043F  2C42               	goto	u1945
  4233  0440  30FF               	movlw	255
  4234  0441  0248               	subwf	___fldiv@new_exp,w
  4235  0442                     u1945:
  4236  0442  1C03               	skipc
  4237  0443  2C45               	goto	u1941
  4238  0444  2C46               	goto	u1940
  4239  0445                     u1941:
  4240  0445  2C54               	goto	l1636
  4241  0446                     u1940:
  4242  0446                     l1634:
  4243  0446  30FF               	movlw	255
  4244  0447  1283               	bcf	3,5	;RP0=0, select bank0
  4245  0448  1303               	bcf	3,6	;RP1=0, select bank0
  4246  0449  00C8               	movwf	___fldiv@new_exp
  4247  044A  3000               	movlw	0
  4248  044B  00C9               	movwf	___fldiv@new_exp+1
  4249  044C  3000               	movlw	0
  4250  044D  00BD               	movwf	___fldiv@b+3
  4251  044E  3000               	movlw	0
  4252  044F  00BC               	movwf	___fldiv@b+2
  4253  0450  3000               	movlw	0
  4254  0451  00BB               	movwf	___fldiv@b+1
  4255  0452  3000               	movlw	0
  4256  0453  00BA               	movwf	___fldiv@b
  4257  0454                     l1636:
  4258  0454  1283               	bcf	3,5	;RP0=0, select bank0
  4259  0455  1303               	bcf	3,6	;RP1=0, select bank0
  4260  0456  0849               	movf	___fldiv@new_exp+1,w
  4261  0457  3A80               	xorlw	128
  4262  0458  00FF               	movwf	btemp+1
  4263  0459  3080               	movlw	128
  4264  045A  027F               	subwf	btemp+1,w
  4265  045B  1D03               	skipz
  4266  045C  2C5F               	goto	u1955
  4267  045D  3001               	movlw	1
  4268  045E  0248               	subwf	___fldiv@new_exp,w
  4269  045F                     u1955:
  4270  045F  1803               	skipnc
  4271  0460  2C62               	goto	u1951
  4272  0461  2C63               	goto	u1950
  4273  0462                     u1951:
  4274  0462  2C70               	goto	l1644
  4275  0463                     u1950:
  4276  0463                     l1638:
  4277  0463  1283               	bcf	3,5	;RP0=0, select bank0
  4278  0464  1303               	bcf	3,6	;RP1=0, select bank0
  4279  0465  01C8               	clrf	___fldiv@new_exp
  4280  0466  01C9               	clrf	___fldiv@new_exp+1
  4281  0467                     l1640:
  4282  0467  3000               	movlw	0
  4283  0468  00BD               	movwf	___fldiv@b+3
  4284  0469  3000               	movlw	0
  4285  046A  00BC               	movwf	___fldiv@b+2
  4286  046B  3000               	movlw	0
  4287  046C  00BB               	movwf	___fldiv@b+1
  4288  046D  3000               	movlw	0
  4289  046E  00BA               	movwf	___fldiv@b
  4290  046F                     l1642:
  4291  046F  01C7               	clrf	___fldiv@sign
  4292  0470                     l1644:
  4293  0470  1283               	bcf	3,5	;RP0=0, select bank0
  4294  0471  1303               	bcf	3,6	;RP1=0, select bank0
  4295  0472  0848               	movf	___fldiv@new_exp,w
  4296  0473  00FF               	movwf	btemp+1
  4297  0474  087F               	movf	btemp+1,w
  4298  0475  00CE               	movwf	___fldiv@bexp
  4299  0476                     l1646:
  4300  0476  1C4E               	btfss	___fldiv@bexp,0
  4301  0477  2C79               	goto	u1961
  4302  0478  2C7A               	goto	u1960
  4303  0479                     u1961:
  4304  0479  2C7C               	goto	l1650
  4305  047A                     u1960:
  4306  047A                     l1648:
  4307  047A  17BC               	bsf	___fldiv@b+2,7
  4308  047B  2C80               	goto	l575
  4309  047C                     l1650:
  4310  047C  307F               	movlw	127
  4311  047D  00FF               	movwf	btemp+1
  4312  047E  087F               	movf	btemp+1,w
  4313  047F  05BC               	andwf	___fldiv@b+2,f
  4314  0480                     l575:
  4315  0480  084E               	movf	___fldiv@bexp,w
  4316  0481  00BE               	movwf	??___fldiv
  4317  0482  1003               	clrc
  4318  0483  0C3E               	rrf	??___fldiv,w
  4319  0484  00FF               	movwf	btemp+1
  4320  0485  087F               	movf	btemp+1,w
  4321  0486  00BD               	movwf	___fldiv@b+3
  4322  0487  0847               	movf	___fldiv@sign,w
  4323  0488  00FF               	movwf	btemp+1
  4324  0489  087F               	movf	btemp+1,w
  4325  048A  04BD               	iorwf	___fldiv@b+3,f
  4326  048B  2B24               	goto	l1556
  4327  048C                     l553:
  4328  048C  0008               	return
  4329  048D                     __end_of___fldiv:
  4330                           
  4331                           	psect	text12
  4332  0C84                     __ptext12:	
  4333 ;; *************** function _PWM_Max_Duty *****************
  4334 ;; Defined at:
  4335 ;;		line 4 in file "pwm.c"
  4336 ;; Parameters:    Size  Location     Type
  4337 ;;		None
  4338 ;; Auto vars:     Size  Location     Type
  4339 ;;		None
  4340 ;; Return value:  Size  Location     Type
  4341 ;;                  2    6[BANK0 ] int 
  4342 ;; Registers used:
  4343 ;;		wreg, status,2, status,0, btemp+1, pclath, cstack
  4344 ;; Tracked objects:
  4345 ;;		On entry : 0/0
  4346 ;;		On exit  : 0/0
  4347 ;;		Unchanged: 0/0
  4348 ;; Data sizes:     COMMON   BANK0   BANK1   BANK3   BANK2
  4349 ;;      Params:         0       2       0       0       0
  4350 ;;      Locals:         0       0       0       0       0
  4351 ;;      Temps:          4       0       0       0       0
  4352 ;;      Totals:         4       2       0       0       0
  4353 ;;Total ram usage:        6 bytes
  4354 ;; Hardware stack levels used:    1
  4355 ;; Hardware stack levels required when called:    1
  4356 ;; This function calls:
  4357 ;;		___aldiv
  4358 ;; This function is called by:
  4359 ;;		_PWM1_Set_Duty
  4360 ;;		_PWM2_Set_Duty
  4361 ;; This function uses a non-reentrant model
  4362 ;;
  4363                           
  4364                           
  4365                           ;psect for function _PWM_Max_Duty
  4366  0C84                     _PWM_Max_Duty:
  4367  0C84                     l1470:	
  4368                           ;incstack = 0
  4369                           ; Regs used in _PWM_Max_Duty: [wreg+status,2+status,0+btemp+1+pclath+cstack]
  4370                           
  4371                           
  4372                           ;pwm.c: 6:   return(8000000/(frequency*4));
  4373  0C84  1683               	bsf	3,5	;RP0=1, select bank1
  4374  0C85  1303               	bcf	3,6	;RP1=0, select bank1
  4375  0C86  0848               	movf	_frequency^(0+128),w
  4376  0C87  00F9               	movwf	??_PWM_Max_Duty
  4377  0C88  0849               	movf	(_frequency+1)^(0+128),w
  4378  0C89  00FA               	movwf	??_PWM_Max_Duty+1
  4379  0C8A  084A               	movf	(_frequency+2)^(0+128),w
  4380  0C8B  00FB               	movwf	??_PWM_Max_Duty+2
  4381  0C8C  084B               	movf	(_frequency+3)^(0+128),w
  4382  0C8D  00FC               	movwf	??_PWM_Max_Duty+3
  4383  0C8E  3002               	movlw	2
  4384  0C8F                     u1575:
  4385  0C8F  1003               	clrc
  4386  0C90  0DF9               	rlf	??_PWM_Max_Duty,f
  4387  0C91  0DFA               	rlf	??_PWM_Max_Duty+1,f
  4388  0C92  0DFB               	rlf	??_PWM_Max_Duty+2,f
  4389  0C93  0DFC               	rlf	??_PWM_Max_Duty+3,f
  4390  0C94                     u1570:
  4391  0C94  3EFF               	addlw	-1
  4392  0C95  1D03               	skipz
  4393  0C96  2C8F               	goto	u1575
  4394  0C97  087C               	movf	??_PWM_Max_Duty+3,w
  4395  0C98  00F3               	movwf	___aldiv@divisor+3
  4396  0C99  087B               	movf	??_PWM_Max_Duty+2,w
  4397  0C9A  00F2               	movwf	___aldiv@divisor+2
  4398  0C9B  087A               	movf	??_PWM_Max_Duty+1,w
  4399  0C9C  00F1               	movwf	___aldiv@divisor+1
  4400  0C9D  0879               	movf	??_PWM_Max_Duty,w
  4401  0C9E  00F0               	movwf	___aldiv@divisor
  4402  0C9F  3000               	movlw	0
  4403  0CA0  00F7               	movwf	___aldiv@dividend+3
  4404  0CA1  307A               	movlw	122
  4405  0CA2  00F6               	movwf	___aldiv@dividend+2
  4406  0CA3  3012               	movlw	18
  4407  0CA4  00F5               	movwf	___aldiv@dividend+1
  4408  0CA5  3000               	movlw	0
  4409  0CA6  00F4               	movwf	___aldiv@dividend
  4410  0CA7  120A  158A  26A7  120A  158A  	fcall	___aldiv
  4411  0CAC  0871               	movf	?___aldiv+1,w
  4412  0CAD  1283               	bcf	3,5	;RP0=0, select bank0
  4413  0CAE  1303               	bcf	3,6	;RP1=0, select bank0
  4414  0CAF  00A7               	movwf	?_PWM_Max_Duty+1
  4415  0CB0  0870               	movf	?___aldiv,w
  4416  0CB1  00A6               	movwf	?_PWM_Max_Duty
  4417  0CB2                     l90:
  4418  0CB2  0008               	return
  4419  0CB3                     __end_of_PWM_Max_Duty:
  4420                           
  4421                           	psect	text13
  4422  0D6B                     __ptext13:	
  4423 ;; *************** function _PWM1_Init *****************
  4424 ;; Defined at:
  4425 ;;		line 9 in file "pwm.c"
  4426 ;; Parameters:    Size  Location     Type
  4427 ;;  freq            4    6[BANK0 ] long 
  4428 ;; Auto vars:     Size  Location     Type
  4429 ;;		None
  4430 ;; Return value:  Size  Location     Type
  4431 ;;                  1    wreg      void 
  4432 ;; Registers used:
  4433 ;;		wreg, status,2, status,0, btemp+1, pclath, cstack
  4434 ;; Tracked objects:
  4435 ;;		On entry : 0/0
  4436 ;;		On exit  : 0/0
  4437 ;;		Unchanged: 0/0
  4438 ;; Data sizes:     COMMON   BANK0   BANK1   BANK3   BANK2
  4439 ;;      Params:         0       4       0       0       0
  4440 ;;      Locals:         0       0       0       0       0
  4441 ;;      Temps:          4       0       0       0       0
  4442 ;;      Totals:         4       4       0       0       0
  4443 ;;Total ram usage:        8 bytes
  4444 ;; Hardware stack levels used:    1
  4445 ;; Hardware stack levels required when called:    1
  4446 ;; This function calls:
  4447 ;;		___aldiv
  4448 ;; This function is called by:
  4449 ;;		_main
  4450 ;; This function uses a non-reentrant model
  4451 ;;
  4452                           
  4453                           
  4454                           ;psect for function _PWM1_Init
  4455  0D6B                     _PWM1_Init:
  4456  0D6B                     l1866:	
  4457                           ;incstack = 0
  4458                           ; Regs used in _PWM1_Init: [wreg+status,2+status,0+btemp+1+pclath+cstack]
  4459                           
  4460                           
  4461                           ;pwm.c: 9: void PWM1_Init(long freq);pwm.c: 10: {;pwm.c: 11:   PR2 = (8000000/(freq*4*4)
      +                          ) - 1;
  4462  0D6B  1283               	bcf	3,5	;RP0=0, select bank0
  4463  0D6C  1303               	bcf	3,6	;RP1=0, select bank0
  4464  0D6D  0826               	movf	PWM1_Init@freq,w
  4465  0D6E  00F9               	movwf	??_PWM1_Init
  4466  0D6F  0827               	movf	PWM1_Init@freq+1,w
  4467  0D70  00FA               	movwf	??_PWM1_Init+1
  4468  0D71  0828               	movf	PWM1_Init@freq+2,w
  4469  0D72  00FB               	movwf	??_PWM1_Init+2
  4470  0D73  0829               	movf	PWM1_Init@freq+3,w
  4471  0D74  00FC               	movwf	??_PWM1_Init+3
  4472  0D75  3002               	movlw	2
  4473  0D76                     u2495:
  4474  0D76  1003               	clrc
  4475  0D77  0DF9               	rlf	??_PWM1_Init,f
  4476  0D78  0DFA               	rlf	??_PWM1_Init+1,f
  4477  0D79  0DFB               	rlf	??_PWM1_Init+2,f
  4478  0D7A  0DFC               	rlf	??_PWM1_Init+3,f
  4479  0D7B                     u2490:
  4480  0D7B  3EFF               	addlw	-1
  4481  0D7C  1D03               	skipz
  4482  0D7D  2D76               	goto	u2495
  4483  0D7E  3002               	movlw	2
  4484  0D7F                     u2505:
  4485  0D7F  1003               	clrc
  4486  0D80  0DF9               	rlf	??_PWM1_Init,f
  4487  0D81  0DFA               	rlf	??_PWM1_Init+1,f
  4488  0D82  0DFB               	rlf	??_PWM1_Init+2,f
  4489  0D83  0DFC               	rlf	??_PWM1_Init+3,f
  4490  0D84                     u2500:
  4491  0D84  3EFF               	addlw	-1
  4492  0D85  1D03               	skipz
  4493  0D86  2D7F               	goto	u2505
  4494  0D87  087C               	movf	??_PWM1_Init+3,w
  4495  0D88  00F3               	movwf	___aldiv@divisor+3
  4496  0D89  087B               	movf	??_PWM1_Init+2,w
  4497  0D8A  00F2               	movwf	___aldiv@divisor+2
  4498  0D8B  087A               	movf	??_PWM1_Init+1,w
  4499  0D8C  00F1               	movwf	___aldiv@divisor+1
  4500  0D8D  0879               	movf	??_PWM1_Init,w
  4501  0D8E  00F0               	movwf	___aldiv@divisor
  4502  0D8F  3000               	movlw	0
  4503  0D90  00F7               	movwf	___aldiv@dividend+3
  4504  0D91  307A               	movlw	122
  4505  0D92  00F6               	movwf	___aldiv@dividend+2
  4506  0D93  3012               	movlw	18
  4507  0D94  00F5               	movwf	___aldiv@dividend+1
  4508  0D95  3000               	movlw	0
  4509  0D96  00F4               	movwf	___aldiv@dividend
  4510  0D97  120A  158A  26A7  120A  158A  	fcall	___aldiv
  4511  0D9C  0870               	movf	?___aldiv,w
  4512  0D9D  3EFF               	addlw	255
  4513  0D9E  1683               	bsf	3,5	;RP0=1, select bank1
  4514  0D9F  1303               	bcf	3,6	;RP1=0, select bank1
  4515  0DA0  0092               	movwf	18	;volatile
  4516  0DA1                     l1868:
  4517                           
  4518                           ;pwm.c: 12:   frequency = freq;
  4519  0DA1  1283               	bcf	3,5	;RP0=0, select bank0
  4520  0DA2  1303               	bcf	3,6	;RP1=0, select bank0
  4521  0DA3  0829               	movf	PWM1_Init@freq+3,w
  4522  0DA4  1683               	bsf	3,5	;RP0=1, select bank1
  4523  0DA5  1303               	bcf	3,6	;RP1=0, select bank1
  4524  0DA6  00CB               	movwf	(_frequency+3)^(0+128)
  4525  0DA7  1283               	bcf	3,5	;RP0=0, select bank0
  4526  0DA8  1303               	bcf	3,6	;RP1=0, select bank0
  4527  0DA9  0828               	movf	PWM1_Init@freq+2,w
  4528  0DAA  1683               	bsf	3,5	;RP0=1, select bank1
  4529  0DAB  1303               	bcf	3,6	;RP1=0, select bank1
  4530  0DAC  00CA               	movwf	(_frequency+2)^(0+128)
  4531  0DAD  1283               	bcf	3,5	;RP0=0, select bank0
  4532  0DAE  1303               	bcf	3,6	;RP1=0, select bank0
  4533  0DAF  0827               	movf	PWM1_Init@freq+1,w
  4534  0DB0  1683               	bsf	3,5	;RP0=1, select bank1
  4535  0DB1  1303               	bcf	3,6	;RP1=0, select bank1
  4536  0DB2  00C9               	movwf	(_frequency+1)^(0+128)
  4537  0DB3  1283               	bcf	3,5	;RP0=0, select bank0
  4538  0DB4  1303               	bcf	3,6	;RP1=0, select bank0
  4539  0DB5  0826               	movf	PWM1_Init@freq,w
  4540  0DB6  1683               	bsf	3,5	;RP0=1, select bank1
  4541  0DB7  1303               	bcf	3,6	;RP1=0, select bank1
  4542  0DB8  00C8               	movwf	_frequency^(0+128)
  4543  0DB9                     l93:
  4544  0DB9  0008               	return
  4545  0DBA                     __end_of_PWM1_Init:
  4546                           
  4547                           	psect	text14
  4548  0EA7                     __ptext14:	
  4549 ;; *************** function ___aldiv *****************
  4550 ;; Defined at:
  4551 ;;		line 5 in file "C:\Program Files\Microchip\xc8\v2.20\pic\sources\c90\common\aldiv.c"
  4552 ;; Parameters:    Size  Location     Type
  4553 ;;  divisor         4    0[COMMON] long 
  4554 ;;  dividend        4    4[COMMON] long 
  4555 ;; Auto vars:     Size  Location     Type
  4556 ;;  quotient        4    2[BANK0 ] long 
  4557 ;;  sign            1    1[BANK0 ] unsigned char 
  4558 ;;  counter         1    0[BANK0 ] unsigned char 
  4559 ;; Return value:  Size  Location     Type
  4560 ;;                  4    0[COMMON] long 
  4561 ;; Registers used:
  4562 ;;		wreg, status,2, status,0, btemp+1
  4563 ;; Tracked objects:
  4564 ;;		On entry : 0/0
  4565 ;;		On exit  : 0/0
  4566 ;;		Unchanged: 0/0
  4567 ;; Data sizes:     COMMON   BANK0   BANK1   BANK3   BANK2
  4568 ;;      Params:         8       0       0       0       0
  4569 ;;      Locals:         0       6       0       0       0
  4570 ;;      Temps:          1       0       0       0       0
  4571 ;;      Totals:         9       6       0       0       0
  4572 ;;Total ram usage:       15 bytes
  4573 ;; Hardware stack levels used:    1
  4574 ;; This function calls:
  4575 ;;		Nothing
  4576 ;; This function is called by:
  4577 ;;		_PWM_Max_Duty
  4578 ;;		_PWM1_Init
  4579 ;;		_PWM2_Init
  4580 ;; This function uses a non-reentrant model
  4581 ;;
  4582                           
  4583                           
  4584                           ;psect for function ___aldiv
  4585  0EA7                     ___aldiv:
  4586  0EA7                     l1414:	
  4587                           ;incstack = 0
  4588                           ; Regs used in ___aldiv: [wreg+status,2+status,0+btemp+1]
  4589                           
  4590  0EA7  1283               	bcf	3,5	;RP0=0, select bank0
  4591  0EA8  1303               	bcf	3,6	;RP1=0, select bank0
  4592  0EA9  01A1               	clrf	___aldiv@sign
  4593  0EAA                     l1416:
  4594  0EAA  1FF3               	btfss	___aldiv@divisor+3,7
  4595  0EAB  2EAD               	goto	u1441
  4596  0EAC  2EAE               	goto	u1440
  4597  0EAD                     u1441:
  4598  0EAD  2EBB               	goto	l267
  4599  0EAE                     u1440:
  4600  0EAE                     l1418:
  4601  0EAE  09F0               	comf	___aldiv@divisor,f
  4602  0EAF  09F1               	comf	___aldiv@divisor+1,f
  4603  0EB0  09F2               	comf	___aldiv@divisor+2,f
  4604  0EB1  09F3               	comf	___aldiv@divisor+3,f
  4605  0EB2  0AF0               	incf	___aldiv@divisor,f
  4606  0EB3  1903               	skipnz
  4607  0EB4  0AF1               	incf	___aldiv@divisor+1,f
  4608  0EB5  1903               	skipnz
  4609  0EB6  0AF2               	incf	___aldiv@divisor+2,f
  4610  0EB7  1903               	skipnz
  4611  0EB8  0AF3               	incf	___aldiv@divisor+3,f
  4612  0EB9  01A1               	clrf	___aldiv@sign
  4613  0EBA  0AA1               	incf	___aldiv@sign,f
  4614  0EBB                     l267:
  4615  0EBB  1FF7               	btfss	___aldiv@dividend+3,7
  4616  0EBC  2EBE               	goto	u1451
  4617  0EBD  2EBF               	goto	u1450
  4618  0EBE                     u1451:
  4619  0EBE  2ECE               	goto	l1424
  4620  0EBF                     u1450:
  4621  0EBF                     l1420:
  4622  0EBF  09F4               	comf	___aldiv@dividend,f
  4623  0EC0  09F5               	comf	___aldiv@dividend+1,f
  4624  0EC1  09F6               	comf	___aldiv@dividend+2,f
  4625  0EC2  09F7               	comf	___aldiv@dividend+3,f
  4626  0EC3  0AF4               	incf	___aldiv@dividend,f
  4627  0EC4  1903               	skipnz
  4628  0EC5  0AF5               	incf	___aldiv@dividend+1,f
  4629  0EC6  1903               	skipnz
  4630  0EC7  0AF6               	incf	___aldiv@dividend+2,f
  4631  0EC8  1903               	skipnz
  4632  0EC9  0AF7               	incf	___aldiv@dividend+3,f
  4633  0ECA                     l1422:
  4634  0ECA  3001               	movlw	1
  4635  0ECB  00FF               	movwf	btemp+1
  4636  0ECC  087F               	movf	btemp+1,w
  4637  0ECD  06A1               	xorwf	___aldiv@sign,f
  4638  0ECE                     l1424:
  4639  0ECE  3000               	movlw	0
  4640  0ECF  00A5               	movwf	___aldiv@quotient+3
  4641  0ED0  3000               	movlw	0
  4642  0ED1  00A4               	movwf	___aldiv@quotient+2
  4643  0ED2  3000               	movlw	0
  4644  0ED3  00A3               	movwf	___aldiv@quotient+1
  4645  0ED4  3000               	movlw	0
  4646  0ED5  00A2               	movwf	___aldiv@quotient
  4647  0ED6                     l1426:
  4648  0ED6  0873               	movf	___aldiv@divisor+3,w
  4649  0ED7  0472               	iorwf	___aldiv@divisor+2,w
  4650  0ED8  0471               	iorwf	___aldiv@divisor+1,w
  4651  0ED9  0470               	iorwf	___aldiv@divisor,w
  4652  0EDA  1903               	skipnz
  4653  0EDB  2EDD               	goto	u1461
  4654  0EDC  2EDE               	goto	u1460
  4655  0EDD                     u1461:
  4656  0EDD  2F2B               	goto	l1448
  4657  0EDE                     u1460:
  4658  0EDE                     l1428:
  4659  0EDE  01A0               	clrf	___aldiv@counter
  4660  0EDF  0AA0               	incf	___aldiv@counter,f
  4661  0EE0  2EEE               	goto	l1434
  4662  0EE1                     l1430:
  4663  0EE1  3001               	movlw	1
  4664  0EE2  00F8               	movwf	??___aldiv
  4665  0EE3                     u1475:
  4666  0EE3  1003               	clrc
  4667  0EE4  0DF0               	rlf	___aldiv@divisor,f
  4668  0EE5  0DF1               	rlf	___aldiv@divisor+1,f
  4669  0EE6  0DF2               	rlf	___aldiv@divisor+2,f
  4670  0EE7  0DF3               	rlf	___aldiv@divisor+3,f
  4671  0EE8  0BF8               	decfsz	??___aldiv,f
  4672  0EE9  2EE3               	goto	u1475
  4673  0EEA                     l1432:
  4674  0EEA  3001               	movlw	1
  4675  0EEB  00FF               	movwf	btemp+1
  4676  0EEC  087F               	movf	btemp+1,w
  4677  0EED  07A0               	addwf	___aldiv@counter,f
  4678  0EEE                     l1434:
  4679  0EEE  1FF3               	btfss	___aldiv@divisor+3,7
  4680  0EEF  2EF1               	goto	u1481
  4681  0EF0  2EF2               	goto	u1480
  4682  0EF1                     u1481:
  4683  0EF1  2EE1               	goto	l1430
  4684  0EF2                     u1480:
  4685  0EF2                     l1436:
  4686  0EF2  3001               	movlw	1
  4687  0EF3  00F8               	movwf	??___aldiv
  4688  0EF4                     u1495:
  4689  0EF4  1003               	clrc
  4690  0EF5  0DA2               	rlf	___aldiv@quotient,f
  4691  0EF6  0DA3               	rlf	___aldiv@quotient+1,f
  4692  0EF7  0DA4               	rlf	___aldiv@quotient+2,f
  4693  0EF8  0DA5               	rlf	___aldiv@quotient+3,f
  4694  0EF9  0BF8               	decfsz	??___aldiv,f
  4695  0EFA  2EF4               	goto	u1495
  4696  0EFB                     l1438:
  4697  0EFB  0873               	movf	___aldiv@divisor+3,w
  4698  0EFC  0277               	subwf	___aldiv@dividend+3,w
  4699  0EFD  1D03               	skipz
  4700  0EFE  2F09               	goto	u1505
  4701  0EFF  0872               	movf	___aldiv@divisor+2,w
  4702  0F00  0276               	subwf	___aldiv@dividend+2,w
  4703  0F01  1D03               	skipz
  4704  0F02  2F09               	goto	u1505
  4705  0F03  0871               	movf	___aldiv@divisor+1,w
  4706  0F04  0275               	subwf	___aldiv@dividend+1,w
  4707  0F05  1D03               	skipz
  4708  0F06  2F09               	goto	u1505
  4709  0F07  0870               	movf	___aldiv@divisor,w
  4710  0F08  0274               	subwf	___aldiv@dividend,w
  4711  0F09                     u1505:
  4712  0F09  1C03               	skipc
  4713  0F0A  2F0C               	goto	u1501
  4714  0F0B  2F0D               	goto	u1500
  4715  0F0C                     u1501:
  4716  0F0C  2F1C               	goto	l1444
  4717  0F0D                     u1500:
  4718  0F0D                     l1440:
  4719  0F0D  0870               	movf	___aldiv@divisor,w
  4720  0F0E  02F4               	subwf	___aldiv@dividend,f
  4721  0F0F  0871               	movf	___aldiv@divisor+1,w
  4722  0F10  1C03               	skipc
  4723  0F11  0F71               	incfsz	___aldiv@divisor+1,w
  4724  0F12  02F5               	subwf	___aldiv@dividend+1,f
  4725  0F13  0872               	movf	___aldiv@divisor+2,w
  4726  0F14  1C03               	skipc
  4727  0F15  0F72               	incfsz	___aldiv@divisor+2,w
  4728  0F16  02F6               	subwf	___aldiv@dividend+2,f
  4729  0F17  0873               	movf	___aldiv@divisor+3,w
  4730  0F18  1C03               	skipc
  4731  0F19  0F73               	incfsz	___aldiv@divisor+3,w
  4732  0F1A  02F7               	subwf	___aldiv@dividend+3,f
  4733  0F1B                     l1442:
  4734  0F1B  1422               	bsf	___aldiv@quotient,0
  4735  0F1C                     l1444:
  4736  0F1C  3001               	movlw	1
  4737  0F1D                     u1515:
  4738  0F1D  1003               	clrc
  4739  0F1E  0CF3               	rrf	___aldiv@divisor+3,f
  4740  0F1F  0CF2               	rrf	___aldiv@divisor+2,f
  4741  0F20  0CF1               	rrf	___aldiv@divisor+1,f
  4742  0F21  0CF0               	rrf	___aldiv@divisor,f
  4743  0F22  3EFF               	addlw	-1
  4744  0F23  1D03               	skipz
  4745  0F24  2F1D               	goto	u1515
  4746  0F25                     l1446:
  4747  0F25  3001               	movlw	1
  4748  0F26  02A0               	subwf	___aldiv@counter,f
  4749  0F27  1D03               	btfss	3,2
  4750  0F28  2F2A               	goto	u1521
  4751  0F29  2F2B               	goto	u1520
  4752  0F2A                     u1521:
  4753  0F2A  2EF2               	goto	l1436
  4754  0F2B                     u1520:
  4755  0F2B                     l1448:
  4756  0F2B  0821               	movf	___aldiv@sign,w
  4757  0F2C  1903               	btfsc	3,2
  4758  0F2D  2F2F               	goto	u1531
  4759  0F2E  2F30               	goto	u1530
  4760  0F2F                     u1531:
  4761  0F2F  2F3B               	goto	l1452
  4762  0F30                     u1530:
  4763  0F30                     l1450:
  4764  0F30  09A2               	comf	___aldiv@quotient,f
  4765  0F31  09A3               	comf	___aldiv@quotient+1,f
  4766  0F32  09A4               	comf	___aldiv@quotient+2,f
  4767  0F33  09A5               	comf	___aldiv@quotient+3,f
  4768  0F34  0AA2               	incf	___aldiv@quotient,f
  4769  0F35  1903               	skipnz
  4770  0F36  0AA3               	incf	___aldiv@quotient+1,f
  4771  0F37  1903               	skipnz
  4772  0F38  0AA4               	incf	___aldiv@quotient+2,f
  4773  0F39  1903               	skipnz
  4774  0F3A  0AA5               	incf	___aldiv@quotient+3,f
  4775  0F3B                     l1452:
  4776  0F3B  0825               	movf	___aldiv@quotient+3,w
  4777  0F3C  00F3               	movwf	?___aldiv+3
  4778  0F3D  0824               	movf	___aldiv@quotient+2,w
  4779  0F3E  00F2               	movwf	?___aldiv+2
  4780  0F3F  0823               	movf	___aldiv@quotient+1,w
  4781  0F40  00F1               	movwf	?___aldiv+1
  4782  0F41  0822               	movf	___aldiv@quotient,w
  4783  0F42  00F0               	movwf	?___aldiv
  4784  0F43                     l277:
  4785  0F43  0008               	return
  4786  0F44                     __end_of___aldiv:
  4787                           
  4788                           	psect	text15
  4789  0CB3                     __ptext15:	
  4790 ;; *************** function _ADC_Read *****************
  4791 ;; Defined at:
  4792 ;;		line 11 in file "./adc_thay_hai.h"
  4793 ;; Parameters:    Size  Location     Type
  4794 ;;  Channel         1    wreg     unsigned char 
  4795 ;; Auto vars:     Size  Location     Type
  4796 ;;  Channel         1    6[COMMON] unsigned char 
  4797 ;;  value           2    4[COMMON] unsigned int 
  4798 ;; Return value:  Size  Location     Type
  4799 ;;                  2    0[COMMON] unsigned int 
  4800 ;; Registers used:
  4801 ;;		wreg, fsr0l, fsr0h, status,2, status,0
  4802 ;; Tracked objects:
  4803 ;;		On entry : 0/0
  4804 ;;		On exit  : 0/0
  4805 ;;		Unchanged: 0/0
  4806 ;; Data sizes:     COMMON   BANK0   BANK1   BANK3   BANK2
  4807 ;;      Params:         2       0       0       0       0
  4808 ;;      Locals:         3       0       0       0       0
  4809 ;;      Temps:          2       0       0       0       0
  4810 ;;      Totals:         7       0       0       0       0
  4811 ;;Total ram usage:        7 bytes
  4812 ;; Hardware stack levels used:    1
  4813 ;; This function calls:
  4814 ;;		Nothing
  4815 ;; This function is called by:
  4816 ;;		_main
  4817 ;; This function uses a non-reentrant model
  4818 ;;
  4819                           
  4820                           
  4821                           ;psect for function _ADC_Read
  4822  0CB3                     _ADC_Read:
  4823                           
  4824                           ;incstack = 0
  4825                           ; Regs used in _ADC_Read: [wreg-fsr0h+status,2+status,0]
  4826                           ;ADC_Read@Channel stored from wreg
  4827  0CB3  00F6               	movwf	ADC_Read@Channel
  4828  0CB4                     l1848:
  4829                           
  4830                           ;./adc_thay_hai.h: 11: unsigned int ADC_Read(unsigned char Channel);./adc_thay_hai.h: 12
      +                          : {;./adc_thay_hai.h: 13:     unsigned int value;;./adc_thay_hai.h: 14:     switch(Chann
      +                          el)
  4831  0CB4  2CC1               	goto	l1850
  4832  0CB5                     l51:	
  4833                           ;./adc_thay_hai.h: 15:  {;./adc_thay_hai.h: 16:  case 0: CHS0 = 0; CHS1 = 0; CHS2 = 0; b
      +                          reak;
  4834                           
  4835  0CB5  1283               	bcf	3,5	;RP0=0, select bank0
  4836  0CB6  1303               	bcf	3,6	;RP1=0, select bank0
  4837  0CB7  119F               	bcf	31,3	;volatile
  4838  0CB8  121F               	bcf	31,4	;volatile
  4839  0CB9  129F               	bcf	31,5	;volatile
  4840  0CBA  2CD1               	goto	l52
  4841  0CBB                     l53:	
  4842                           ;./adc_thay_hai.h: 17:     case 1: CHS0 = 1; CHS1 = 0; CHS2 = 0;
  4843                           
  4844  0CBB  1283               	bcf	3,5	;RP0=0, select bank0
  4845  0CBC  1303               	bcf	3,6	;RP1=0, select bank0
  4846  0CBD  159F               	bsf	31,3	;volatile
  4847  0CBE  121F               	bcf	31,4	;volatile
  4848  0CBF  129F               	bcf	31,5	;volatile
  4849                           
  4850                           ;./adc_thay_hai.h: 18:     }
  4851  0CC0  2CD1               	goto	l52
  4852  0CC1                     l1850:
  4853  0CC1  0876               	movf	ADC_Read@Channel,w
  4854  0CC2  00F2               	movwf	??_ADC_Read
  4855  0CC3  01F3               	clrf	??_ADC_Read+1
  4856                           
  4857                           ; Switch on 2 bytes has been partitioned into a top level switch of size 1, and 1 sub-sw
      +                          itches
  4858                           ; Switch size 1, requested type "simple"
  4859                           ; Number of cases is 1, Range of values is 0 to 0
  4860                           ; switch strategies available:
  4861                           ; Name         Instructions Cycles
  4862                           ; simple_byte            4     3 (average)
  4863                           ; direct_byte           11     8 (fixed)
  4864                           ; jumptable            260     6 (fixed)
  4865                           ;	Chosen strategy is simple_byte
  4866  0CC4  0873               	movf	??_ADC_Read+1,w
  4867  0CC5  3A00               	xorlw	0	; case 0
  4868  0CC6  1903               	skipnz
  4869  0CC7  2CC9               	goto	l2114
  4870  0CC8  2CD1               	goto	l52
  4871  0CC9                     l2114:
  4872                           
  4873                           ; Switch size 1, requested type "simple"
  4874                           ; Number of cases is 2, Range of values is 0 to 1
  4875                           ; switch strategies available:
  4876                           ; Name         Instructions Cycles
  4877                           ; simple_byte            7     4 (average)
  4878                           ; direct_byte           14     8 (fixed)
  4879                           ; jumptable            260     6 (fixed)
  4880                           ;	Chosen strategy is simple_byte
  4881  0CC9  0872               	movf	??_ADC_Read,w
  4882  0CCA  3A00               	xorlw	0	; case 0
  4883  0CCB  1903               	skipnz
  4884  0CCC  2CB5               	goto	l51
  4885  0CCD  3A01               	xorlw	1	; case 1
  4886  0CCE  1903               	skipnz
  4887  0CCF  2CBB               	goto	l53
  4888  0CD0  2CD1               	goto	l52
  4889  0CD1                     l52:
  4890                           
  4891                           ;./adc_thay_hai.h: 19:     ADON=1;
  4892  0CD1  1283               	bcf	3,5	;RP0=0, select bank0
  4893  0CD2  1303               	bcf	3,6	;RP1=0, select bank0
  4894  0CD3  141F               	bsf	31,0	;volatile
  4895  0CD4                     l1852:
  4896                           
  4897                           ;./adc_thay_hai.h: 20:     _delay((unsigned long)((5)*(8000000/4000000.0)));
  4898  0CD4  3003               	movlw	3
  4899  0CD5  00F2               	movwf	??_ADC_Read
  4900  0CD6                     u2917:
  4901  0CD6  0BF2               	decfsz	??_ADC_Read,f
  4902  0CD7  2CD6               	goto	u2917
  4903  0CD8                     l1854:
  4904                           
  4905                           ;./adc_thay_hai.h: 21:     GO_DONE=1;
  4906  0CD8  1283               	bcf	3,5	;RP0=0, select bank0
  4907  0CD9  1303               	bcf	3,6	;RP1=0, select bank0
  4908  0CDA  151F               	bsf	31,2	;volatile
  4909  0CDB                     l54:	
  4910                           ;./adc_thay_hai.h: 22:     while(GO_DONE);
  4911                           
  4912  0CDB  191F               	btfsc	31,2	;volatile
  4913  0CDC  2CDE               	goto	u2481
  4914  0CDD  2CDF               	goto	u2480
  4915  0CDE                     u2481:
  4916  0CDE  2CDB               	goto	l54
  4917  0CDF                     u2480:
  4918  0CDF                     l1856:
  4919                           
  4920                           ;./adc_thay_hai.h: 23:     value=(unsigned int)ADRESH*256+ADRESL;
  4921  0CDF  081E               	movf	30,w	;volatile
  4922  0CE0  00F5               	movwf	ADC_Read@value+1
  4923  0CE1  1683               	bsf	3,5	;RP0=1, select bank1
  4924  0CE2  1303               	bcf	3,6	;RP1=0, select bank1
  4925  0CE3  081E               	movf	30,w	;volatile
  4926  0CE4  00F4               	movwf	ADC_Read@value
  4927  0CE5                     l1858:
  4928                           
  4929                           ;./adc_thay_hai.h: 24:     ADON=0;
  4930  0CE5  1283               	bcf	3,5	;RP0=0, select bank0
  4931  0CE6  1303               	bcf	3,6	;RP1=0, select bank0
  4932  0CE7  101F               	bcf	31,0	;volatile
  4933                           
  4934                           ;./adc_thay_hai.h: 26:     return value;
  4935  0CE8  0875               	movf	ADC_Read@value+1,w
  4936  0CE9  00F1               	movwf	?_ADC_Read+1
  4937  0CEA  0874               	movf	ADC_Read@value,w
  4938  0CEB  00F0               	movwf	?_ADC_Read
  4939  0CEC                     l57:
  4940  0CEC  0008               	return
  4941  0CED                     __end_of_ADC_Read:
  4942                           
  4943                           	psect	text16
  4944  0C2E                     __ptext16:	
  4945 ;; *************** function _ADC_Init *****************
  4946 ;; Defined at:
  4947 ;;		line 4 in file "./adc_thay_hai.h"
  4948 ;; Parameters:    Size  Location     Type
  4949 ;;		None
  4950 ;; Auto vars:     Size  Location     Type
  4951 ;;		None
  4952 ;; Return value:  Size  Location     Type
  4953 ;;                  1    wreg      void 
  4954 ;; Registers used:
  4955 ;;		wreg
  4956 ;; Tracked objects:
  4957 ;;		On entry : 0/0
  4958 ;;		On exit  : 0/0
  4959 ;;		Unchanged: 0/0
  4960 ;; Data sizes:     COMMON   BANK0   BANK1   BANK3   BANK2
  4961 ;;      Params:         0       0       0       0       0
  4962 ;;      Locals:         0       0       0       0       0
  4963 ;;      Temps:          0       0       0       0       0
  4964 ;;      Totals:         0       0       0       0       0
  4965 ;;Total ram usage:        0 bytes
  4966 ;; Hardware stack levels used:    1
  4967 ;; This function calls:
  4968 ;;		Nothing
  4969 ;; This function is called by:
  4970 ;;		_main
  4971 ;; This function uses a non-reentrant model
  4972 ;;
  4973                           
  4974                           
  4975                           ;psect for function _ADC_Init
  4976  0C2E                     _ADC_Init:
  4977  0C2E                     l1846:	
  4978                           ;incstack = 0
  4979                           ; Regs used in _ADC_Init: [wreg]
  4980                           
  4981                           
  4982                           ;./adc_thay_hai.h: 6:     ADCON1 = 0b11000100;
  4983  0C2E  30C4               	movlw	196
  4984  0C2F  1683               	bsf	3,5	;RP0=1, select bank1
  4985  0C30  1303               	bcf	3,6	;RP1=0, select bank1
  4986  0C31  009F               	movwf	31	;volatile
  4987                           
  4988                           ;./adc_thay_hai.h: 7:     ADCON0 =0x80;
  4989  0C32  3080               	movlw	128
  4990  0C33  1283               	bcf	3,5	;RP0=0, select bank0
  4991  0C34  1303               	bcf	3,6	;RP1=0, select bank0
  4992  0C35  009F               	movwf	31	;volatile
  4993  0C36                     l47:
  4994  0C36  0008               	return
  4995  0C37                     __end_of_ADC_Init:
  4996  007E                     btemp	set	126	;btemp
  4997  007E                     wtemp0	set	126
  4998                           
  4999                           	psect	config
  5000                           
  5001                           ;Config register CONFIG @ 0x2007
  5002                           ;	Oscillator Selection bits
  5003                           ;	FOSC = HS, HS oscillator
  5004                           ;	Watchdog Timer Enable bit
  5005                           ;	WDTE = OFF, WDT disabled
  5006                           ;	Power-up Timer Enable bit
  5007                           ;	PWRTE = ON, PWRT enabled
  5008                           ;	Brown-out Reset Enable bit
  5009                           ;	BOREN = ON, BOR enabled
  5010                           ;	Low-Voltage (Single-Supply) In-Circuit Serial Programming Enable bit
  5011                           ;	LVP = ON, RB3/PGM pin has PGM function; low-voltage programming enabled
  5012                           ;	Data EEPROM Memory Code Protection bit
  5013                           ;	CPD = OFF, Data EEPROM code protection off
  5014                           ;	Flash Program Memory Write Enable bits
  5015                           ;	WRT = OFF, Write protection off; all program memory may be written to by EECON control
  5016                           ;	In-Circuit Debugger Mode bit
  5017                           ;	DEBUG = 0x1, unprogrammed default
  5018                           ;	Flash Program Memory Code Protection bit
  5019                           ;	CP = OFF, Code protection off
  5020  2007                     	org	8199
  5021  2007  3FF2               	dw	16370

Data Sizes:
    Strings     0
    Constant    0
    Data        10
    BSS         0
    Persistent  4
    Stack       0

Auto Spaces:
    Space          Size  Autos    Used
    COMMON           14     13      13
    BANK0            80     80      80
    BANK1            80     30      44
    BANK3            96      0       0
    BANK2            96      0       0

Pointer List with Targets:

    None.

Critical Paths under _main in COMMON

    _main->_PWM1_Init
    _PWM1_Set_Duty->_PWM_Max_Duty
    ___xxtofl->_PWM_Max_Duty
    ___fltol->_PWM_Max_Duty
    ___flmul->_PWM_Max_Duty
    _PWM_Max_Duty->___aldiv
    _PWM1_Init->___aldiv

Critical Paths under _main in BANK0

    _PWM1_Set_Duty->___fltol
    ___xxtofl->_PWM_Max_Duty
    ___fltol->___flmul
    ___flmul->___fldiv
    ___fldiv->___xxtofl
    _PWM_Max_Duty->___aldiv
    _PWM1_Init->___aldiv

Critical Paths under _main in BANK1

    _main->_PWM1_Set_Duty
    _PWM1_Set_Duty->___fltol

Critical Paths under _main in BANK3

    None.

Critical Paths under _main in BANK2

    None.

Call Graph Tables:

 ---------------------------------------------------------------------------------
 (Depth) Function   	        Calls       Base Space   Used Autos Params    Refs
 ---------------------------------------------------------------------------------
 (0) _main                                                22    22      0   10252
                                              8 BANK1     22    22      0
                           _ADC_Init
                           _ADC_Read
                          _PWM1_Init
                      _PWM1_Set_Duty
                         _PWM1_Start
                            ___awdiv
                            ___awmod
                            ___lwdiv
                            ___lwmod
 ---------------------------------------------------------------------------------
 (1) ___lwmod                                              5     1      4     311
                                              0 COMMON     5     1      4
 ---------------------------------------------------------------------------------
 (1) ___lwdiv                                              7     3      4     314
                                              0 COMMON     7     3      4
 ---------------------------------------------------------------------------------
 (1) ___awmod                                              6     2      4     752
                                              0 COMMON     6     2      4
 ---------------------------------------------------------------------------------
 (1) ___awdiv                                              8     4      4     756
                                              0 COMMON     8     4      4
 ---------------------------------------------------------------------------------
 (1) _PWM1_Start                                           0     0      0       0
 ---------------------------------------------------------------------------------
 (1) _PWM1_Set_Duty                                        4     2      2    6879
                                              4 BANK1      4     2      2
                       _PWM_Max_Duty
                            ___fldiv
                            ___flmul
                            ___fltol
                           ___xxtofl
 ---------------------------------------------------------------------------------
 (2) ___xxtofl                                            14    10      4     778
                                              8 BANK0     14    10      4
                       _PWM_Max_Duty (ARG)
 ---------------------------------------------------------------------------------
 (2) ___fltol                                             10     6      4     533
                                             74 BANK0      6     2      4
                                              0 BANK1      4     4      0
                       _PWM_Max_Duty (ARG)
                            ___fldiv (ARG)
                            ___flmul (ARG)
                           ___xxtofl (ARG)
 ---------------------------------------------------------------------------------
 (2) ___flmul                                             26    18      8    2873
                                             48 BANK0     26    18      8
                       _PWM_Max_Duty (ARG)
                          __Umul8_16
                            ___fldiv (ARG)
                           ___xxtofl (ARG)
 ---------------------------------------------------------------------------------
 (3) __Umul8_16                                            9     7      2     799
                                              0 COMMON     9     7      2
 ---------------------------------------------------------------------------------
 (2) ___fldiv                                             26    18      8    1729
                                             22 BANK0     26    18      8
                           ___xxtofl (ARG)
 ---------------------------------------------------------------------------------
 (2) _PWM_Max_Duty                                         6     4      2     756
                                              9 COMMON     4     4      0
                                              6 BANK0      2     0      2
                            ___aldiv
 ---------------------------------------------------------------------------------
 (1) _PWM1_Init                                            8     4      4     876
                                              9 COMMON     4     4      0
                                              6 BANK0      4     0      4
                            ___aldiv
 ---------------------------------------------------------------------------------
 (3) ___aldiv                                             15     7      8     756
                                              0 COMMON     9     1      8
                                              0 BANK0      6     6      0
 ---------------------------------------------------------------------------------
 (1) _ADC_Read                                             7     5      2      45
                                              0 COMMON     7     5      2
 ---------------------------------------------------------------------------------
 (1) _ADC_Init                                             0     0      0       0
 ---------------------------------------------------------------------------------
 Estimated maximum stack depth 3
 ---------------------------------------------------------------------------------

 Call Graph Graphs:

 _main (ROOT)
   _ADC_Init
   _ADC_Read
   _PWM1_Init
     ___aldiv
   _PWM1_Set_Duty
     _PWM_Max_Duty
       ___aldiv
     ___fldiv
       ___xxtofl (ARG)
         _PWM_Max_Duty (ARG)
           ___aldiv
     ___flmul
       _PWM_Max_Duty (ARG)
         ___aldiv
       __Umul8_16 (ARG)
       ___fldiv (ARG)
         ___xxtofl (ARG)
           _PWM_Max_Duty (ARG)
             ___aldiv
       ___xxtofl (ARG)
         _PWM_Max_Duty (ARG)
           ___aldiv
     ___fltol
       _PWM_Max_Duty (ARG)
         ___aldiv
       ___fldiv (ARG)
         ___xxtofl (ARG)
           _PWM_Max_Duty (ARG)
             ___aldiv
       ___flmul (ARG)
         _PWM_Max_Duty (ARG)
           ___aldiv
         __Umul8_16 (ARG)
         ___fldiv (ARG)
           ___xxtofl (ARG)
             _PWM_Max_Duty (ARG)
               ___aldiv
         ___xxtofl (ARG)
           _PWM_Max_Duty (ARG)
             ___aldiv
       ___xxtofl (ARG)
         _PWM_Max_Duty (ARG)
           ___aldiv
     ___xxtofl
       _PWM_Max_Duty (ARG)
         ___aldiv
   _PWM1_Start
   ___awdiv
   ___awmod
   ___lwdiv
   ___lwmod

 Address spaces:
Name               Size   Autos  Total    Cost      Usage
BANK3               60      0       0       9        0.0%
BITBANK3            60      0       0       8        0.0%
SFR3                 0      0       0       4        0.0%
BITSFR3              0      0       0       4        0.0%
BANK2               60      0       0      11        0.0%
BITBANK2            60      0       0      10        0.0%
SFR2                 0      0       0       5        0.0%
BITSFR2              0      0       0       5        0.0%
BANK1               50     1E      2C       7       55.0%
BITBANK1            50      0       0       6        0.0%
SFR1                 0      0       0       2        0.0%
BITSFR1              0      0       0       2        0.0%
BANK0               50     50      50       5      100.0%
BITBANK0            50      0       0       4        0.0%
SFR0                 0      0       0       1        0.0%
BITSFR0              0      0       0       1        0.0%
COMMON               E      D       D       1       92.9%
BITCOMMON            E      0       0       0        0.0%
CODE                 0      0       0       0        0.0%
DATA                 0      0      89      12        0.0%
ABS                  0      0      89       3        0.0%
NULL                 0      0       0       0        0.0%
STACK                0      0       0       2        0.0%
EEDATA             100      0       0       0        0.0%


Microchip Technology PIC Macro Assembler V2.20 build 20200408173844 
Symbol Table                                                                                   Thu Nov 25 06:05:15 2021

           ___fldiv@aexp 004F             ___fldiv@bexp 004E                        pc 0002  
           ___fldiv@sign 0047        PWM1_Set_Duty@duty 00A4                       l51 0CB5  
                     l52 0CD1                       l53 0CBB                       l54 0CDB  
                     l47 0C36                       l57 0CEC                       l90 0CB2  
                     l93 0DB9             ___awdiv@sign 0075                       fsr 0004  
    __Umul8_16@word_mpld 0076                      l100 0178                      l107 0C3F  
                    l610 0C71                      l267 0EBB                      l603 07E1  
                    l355 006D                      l612 0C83                      l277 0F43  
                    l551 030C                      l368 0E12                      l553 048C  
                    l474 0D6A                      l395 0E91                      l635 0F68  
                    l388 0EA6                      l484 0D26                      l637 0FFF  
                    l398 0EA6                      l575 0480                      l567 03FE  
                    l591 07ED                      l648 0FC9                      l649 0FD5  
                    l597 0759                      _RD0 0040                      _RD1 0041  
                    _RD2 0042                      _RD3 0043                      _RD7 0047  
                    _PR2 0092                      _seg 00BE                      fsr0 0004  
                    indf 0000             ___awmod@sign 0075             ___flmul@aexp 0062  
           ___flmul@bexp 0063             ___flmul@sign 005D             ___flmul@temp 0068  
           ___flmul@prod 0064             ___fltol@exp1 006F                     l2000 0D01  
                   l2002 0D05                     l2010 0D22                     l2004 0D0F  
                   l2020 0199                     l2006 0D15                     l2030 01CC  
                   l2022 019E                     l2014 0179                     l2008 0D1C  
                   l2040 022B                     l2032 01DF                     l2024 01AA  
                   l2016 0185                     l2114 0CC9                     l2050 0260  
                   l2042 023E                     l2034 01F2                     l2026 01AE  
                   l2018 018A                     l1420 0EBF                     l1500 0E77  
                   l2060 0279                     l2052 0263                     l2044 024B  
                   l2036 0205                     l2028 01B7                     l1430 0EE1  
                   l1422 0ECA                     l1414 0EA7                     l1510 0E9B  
                   l2070 0294                     l2062 027C                     l2054 026D  
                   l2046 0255                     l2038 0218                     l1440 0F0D  
                   l1432 0EEA                     l1424 0ECE                     l1416 0EAA  
                   l1600 03C1                     l1520 02C2                     l1512 02B0  
                   l2072 029E                     l2064 0286                     l2056 026E  
                   l2048 0256                     l1450 0F30                     l1442 0F1B  
                   l1434 0EEE                     l1426 0ED6                     l1418 0EAE  
                   l1602 03CA                     l1610 03DE                     l1522 02C7  
                   l1530 02D7                     l1514 02B7                     l1506 0E7E  
                   l2074 029F                     l2066 0287                     l2058 026F  
                   l1452 0F3B                     l1444 0F1C                     l1436 0EF2  
                   l1428 0EDE                     l1612 03E2                     l1604 03CE  
                   l1540 02EF                     l1532 02DF                     l1524 02CC  
                   l1516 02BD                     l1460 0C67                     l1700 04FA  
                   l1508 0E96                     l2076 02A9                     l2068 0291  
                   l1446 0F25                     l1438 0EFB                     l1470 0C84  
                   l1630 0433                     l1622 0403                     l1614 03E3  
                   l1606 03CF                     l1542 02F4                     l1550 0304  
                   l1534 02E4                     l1526 02D4                     l1518 02C1  
                   l1462 0C6B                     l1710 057C                     l1702 050A  
                   l1448 0F2B                     l1640 0467                     l1624 0408  
                   l1632 0439                     l1616 03E7                     l1608 03D8  
                   l1552 0314                     l1560 032D                     l1544 02F9  
                   l1536 02EA                     l1528 02D5                     l1464 0C7A  
                   l1456 0C5E                     l1720 05EA                     l1712 0598  
                   l1704 0517                     l1480 0E29                     l1800 0F4C  
                   l1650 047C                     l1642 046F                     l1634 0446  
                   l1626 0416                     l1618 03FB                     l1570 0355  
                   l1562 0332                     l1554 0320                     l1546 0301  
                   l1538 02EE                     l1466 0C7F                     l1458 0C60  
                   l1730 067A                     l1722 05FA                     l1714 05B4  
                   l1706 0534                     l1490 0E5D                     l1482 0E4E  
                   l1474 0E13                     l1810 0F79                     l1802 0F50  
                   l1644 0470                     l1636 0454                     l1628 041A  
                   l1580 037E                     l1572 035D                     l1556 0324  
                   l1548 0302                     l1740 070E                     l1732 068A  
                   l1724 0617                     l1716 05BD                     l1708 0550  
                   l1660 049A                     l1484 0E4F                     l1476 0E20  
                   l1820 0F96                     l1812 0F7E                     l1804 0F60  
                   l1900 0022                     l1646 0476                     l1638 0463  
                   l1590 039F                     l1582 0382                     l1574 0365  
                   l1566 033B                     l1750 0733                     l1742 071C  
                   l1734 06B7                     l1726 0630                     l1718 05CD  
                   l1670 04B1                     l1662 049E                     l1486 0E57  
                   l1830 0FC3                     l1822 0FA4                     l1814 0F82  
                   l1806 0F70                     l1910 003A                     l1902 0028  
                   l1648 047A                     l1592 03AD                     l1584 0383  
                   l1576 0367                     l1568 034D                     l1760 0756  
                   l1744 0725                     l1752 0739                     l1736 06DD  
                   l1728 064D                     l1680 04CA                     l1672 04B3  
                   l1664 049F                     l1656 048D                     l1496 0E65  
                   l1488 0E59                     l1840 0FF6                     l1832 0FCD  
                   l1824 0FAD                     l1816 0F8B                     l1912 004B  
                   l1904 002B                     l1920 005F                     l1850 0CC1  
                   l1578 036C                     l1586 038C                     l1594 03B1  
                   l1770 0775                     l1754 073D                     l1746 0729  
                   l1738 0705                     l1690 04DF                     l1682 04CB  
                   l1674 04BB                     l1666 04A4                     l1658 0494  
                   l1498 0E6E                     l1842 0FF7                     l1834 0FD7  
                   l1826 0FB4                     l1818 0F92                     l1922 0064  
                   l1914 0051                     l1906 0032                     l1930 0DBB  
                   l1852 0CD4                     l1596 03B7                     l1588 039E  
                   l1780 07BB                     l1772 078E                     l1764 075E  
                   l1756 073E                     l1748 072A                     l1692 04E7  
                   l1684 04D0                     l1676 04C0                     l1668 04A9  
                   l1836 0FED                     l1828 0FBF                     l1924 0069  
                   l1916 0052                     l1908 0036                     l1940 0DCF  
                   l1932 0DBF                     l1846 0C2E                     l1854 0CD8  
                   l1598 03BF                     l1790 07D9                     l1782 07C5  
                   l1766 0763                     l1774 0794                     l1758 0742  
                   l1694 04EC                     l1686 04D5                     l1678 04C6  
                   l1838 0FF2                     l1870 0C37                     l1918 0059  
                   l1950 0DE7                     l1942 0DD5                     l1934 0DC4  
                   l1856 0CDF                     l1848 0CB4                     l1792 07DA  
                   l1784 07C7                     l1776 07A1                     l1768 0771  
                   l1696 04F1                     l1688 04DD                     l1880 0157  
                   l1872 006E                     l1960 0E09                     l1952 0DF1  
                   l1944 0DD8                     l1936 0DC6                     l1928 0DBA  
                   l1858 0CE5                     l1866 0D6B                     l1794 07E5  
                   l1786 07CD                     l1778 07AC                     l1882 0168  
                   l1874 00CB                     l1890 0011                     l1962 0E0E  
                   l1954 0DF7                     l1946 0DDF                     l1938 0DCA  
                   l1970 0D2F                     l1868 0DA1                     l1788 07D5  
                   l1876 00D4                     l1892 0013                     l1884 0007  
                   l1956 0DFE                     l1948 0DE3                     l1980 0D52  
                   l1972 0D32                     l1798 0F47                     l1878 0147  
                   l1894 0017                     l1886 0008                     l1958 0E04  
                   l1982 0D58                     l1974 0D39                     l1966 0D27  
                   l1896 001C                     l1888 000C                     l1984 0D59  
                   l1976 0D3D                     l1968 0D29                     l1992 0CED  
                   l1898 0020                     l1986 0D60                     l1978 0D41  
                   l1994 0CF3                     l1988 0D66                     l1996 0CF6  
                   l1998 0CFD                     _ADON 00F8                     _CHS0 00FB  
                   _CHS1 00FC                     _CHS2 00FD                     u2000 04CA  
                   u2001 04C9                     u2010 04D0                     u2011 04CF  
                   u2020 04D5                     u2101 05DC                     u2021 04D4  
                   u2102 05E3                     u2030 04EC                     u2111 0609  
                   u2103 05EA                     u2031 04EB                     u2112 0610  
                   u2040 04F1                     u2113 0617                     u2041 04F0  
                   u2131 063F                     u2051 0542                     u1500 0F0D  
                   u2300 0784                     u2220 0729                     u2132 0646  
                   u2052 0549                     u1501 0F0C                     u2221 0728  
                   u2205 0707                     u2141 066C                     u2133 064D  
                   u2125 0619                     u2061 055E                     u2053 0550  
                   u2310 07A1                     u2142 0673                     u2062 0565  
                   u2311 07A0                     u2215 071E                     u2151 0699  
                   u2143 067A                     u2071 058A                     u2063 056C  
                   u1520 0F2B                     u1440 0EAE                     u2320 07BB  
                   u2240 073D                     u2160 06C3                     u2152 06A0  
                   u2072 0591                     u1600 0E5D                     u2400 0FB3  
                   u1521 0F2A                     u1505 0F09                     u1441 0EAD  
                   u2321 07BA                     u2305 077F                     u2241 073C  
                   u2153 06A7                     u2081 05A6                     u2073 0598  
                   u1601 0E5C                     u2401 0FB2                     u1530 0F30  
                   u1450 0EBF                     u2330 07D9                     u2250 0742  
                   u2082 05AD                     u1610 0E64                     u1531 0F2F  
                   u1515 0F1D                     u1451 0EBE                     u2331 07D8  
                   u2315 079D                     u2251 0741                     u2235 072C  
                   u2171 06CF                     u2083 05B4                     u1611 0E63  
                   u1460 0EDE                     u2500 0D84                     u1700 02CC  
                   u1540 0C6B                     u2260 0756                     u2180 06EB  
                   u2172 06D6                     u2420 0FC3                     u2340 0F4C  
                   u1461 0EDD                     u1701 02CB                     u1541 0C6A  
                   u2325 07B7                     u2261 0755                     u2173 06DD  
                   u2165 06BE                     u2421 0FC2                     u2341 0F4B  
                   u1710 02EE                     u2270 075D                     u1630 0E76  
                   u2430 0FC9                     u2350 0F50                     u2510 00D4  
                   u1711 02ED                     u2271 075C                     u2191 06F7  
                   u2095 05B6                     u1631 0E75                     u2431 0FC8  
                   u2415 0FB8                     u2351 0F4F                     u2511 00D3  
                   u1480 0EF2                     u1720 02F4                     u1560 0C7F  
                   u2280 0763                     u2192 06FE                     u1640 0E7D  
                   u2440 0FCD                     u2360 0F70                     u2600 005F  
                   u2520 000C                     u1481 0EF1                     u2505 0D7F  
                   u1721 02F3                     u1561 0C7E                     u2281 0762  
                   u2193 0705                     u2185 06E6                     u1641 0E7C  
                   u1625 0E66                     u2441 0FCC                     u2361 0F6F  
                   u2601 005E                     u2521 000B                     u1570 0C94  
                   u1810 039E                     u1730 02F9                     u2290 0775  
                   u2450 0FE2                     u2610 0064                     u2530 0017  
                   u1475 0EE3                     u1811 039D                     u1731 02F8  
                   u1555 0C72                     u2291 0774                     u2611 0063  
                   u2531 0016                     u1900 0402                     u1820 03B7  
                   u1740 0314                     u1660 0E96                     u1580 0E20  
                   u2460 0FF2                     u2380 0F91                     u2540 0028  
                   u2700 0E09                     u2620 0DBF                     u1901 0401  
                   u1821 03B6                     u1805 0385                     u1741 0313  
                   u1661 0E95                     u1581 0E1F                     u2461 0FF1  
                   u2381 0F90                     u2541 0027                     u2701 0E08  
                   u2621 0DBE                     u1910 0408                     u1830 03BF  
                   u1750 0332                     u1670 0E9B                     u1590 0E45  
                   u2470 0FF6                     u2630 0DCA                     u2710 0D2F  
                   u1495 0EF4                     u1575 0C8F                     u1911 0407  
                   u1831 03BE                     u1815 039A                     u1751 0331  
                   u1671 0E9A                     u1655 0E82                     u2471 0FF5  
                   u2455 0FDD                     u2375 0F83                     u2631 0DC9  
                   u2711 0D2E                     u2480 0CDF                     u1920 041A  
                   u1760 036C                     u1680 02C1                     u2560 003A  
                   u2640 0DD5                     u2800 0D05                     u2481 0CDE  
                   u1921 0419                     u1761 036B                     u1681 02C0  
                   u2561 0039                     u2641 0DD4                     u2801 0D04  
                   u2490 0D7B                     u1930 0429                     u1850 03CE  
                   u1690 02C7                     u2730 0D41                     u2810 0D0F  
                   u1851 03CD                     u1691 02C6                     u1595 0E40  
                   u2395 0FA5                     u2555 002C                     u2731 0D40  
                   u2811 0D0E                     u1940 0446                     u2580 004B  
                   u2660 0DE7                     u1941 0445                     u1845 03C3  
                   u2581 004A                     u2661 0DE6                     u2725 0D33  
                   u1950 0463                     u1870 03E2                     u1790 0382  
                   u2670 0DF1                     u2750 0D52                     u2830 0D22  
                   u2495 0D76                     u1951 0462                     u1935 0424  
                   u1871 03E1                     u1791 0381                     u1775 036E  
                   u2575 003B                     u2671 0DF0                     u2655 0DD9  
                   u2751 0D51                     u2831 0D21                     u2815 0D0B  
                   u1960 047A                     u1880 03E7                     u1961 0479  
                   u1945 0442                     u1881 03E6                     u1865 03D1  
                   u1785 0377                     u2585 0047                     u2745 0D42  
                   u2825 0D16                     u1890 03FB                     u1970 049E  
                   u2690 0E04                     u2770 0D66                     u1955 045F  
                   u1891 03FA                     u1971 049D                     u2595 0053  
                   u2691 0E03                     u2675 0DED                     u2771 0D65  
                   u2755 0D4E                     u2907 02A5                     u1980 04A4  
                   u2780 0CF3                     u2917 0CD6                     u1981 04A3  
                   u2685 0DF8                     u2765 0D5A                     u2781 0CF2  
                   u1990 04A9                     u1991 04A8                     u2795 0CF7  
                   u2877 025C                     u2887 0275                     u2897 028D  
           _PWM_Max_Duty 0C84                     _main 0179                     btemp 007E  
       __end_of_ADC_Init 0C37         __end_of_ADC_Read 0CED                     start 0000  
        ___fldiv@new_exp 0048            ___fltol@sign1 006E          __end_of___aldiv 0F44  
                  ?_main 0070          __end_of___fldiv 048D          __end_of___awdiv 006E  
        __end_of___awmod 0E13          __end_of___flmul 07EE          __end_of___fltol 0EA7  
        ___awdiv@divisor 0070          __end_of___lwdiv 0D6B          __end_of___lwmod 0D27  
        ___awdiv@counter 0074                    _PORTB 0006                    _PORTD 0008  
                  _TRISB 0086                    _TRISD 0088       __size_of_PWM1_Init 004F  
            ?_PWM1_Start 0070                    main@a 00AC                    main@b 00B6  
                  main@c 00AE                    main@d 00B8                    main@e 00B0  
                  main@f 00BA                    main@g 00B2                    main@i 00BC  
                  pclath 000A                    status 0003                    wtemp0 007E  
        __initialization 07EE             __end_of_main 02B0                   ??_main 00A8  
                 _ADCON0 001F                   _ADCON1 009F                   _ADRESH 001E  
                 _ADRESL 009E                   _CCPR1L 0015                   _CCPR2L 001B  
       ___awdiv@dividend 0072          ADC_Read@Channel 0076                   _TRISC1 0439  
                 _TRISC2 043A         __end_of___xxtofl 1000        __end_of_PWM1_Init 0DBA  
              ??___aldiv 0078                ??___fldiv 003E                ??___awdiv 0074  
    __size_of_PWM1_Start 0009                ??___awmod 0074                ??___flmul 0058  
              ??___fltol 00A0                ??___lwdiv 0074                ??___lwmod 0074  
       ___awdiv@quotient 0076          ___awmod@divisor 0070          ___awmod@counter 0074  
     __size_of__Umul8_16 0027                ?_ADC_Init 0070                ?_ADC_Read 0070  
           ___xxtofl@arg 0032             ___xxtofl@exp 0031             ___xxtofl@val 0028  
__end_of__initialization 07FC               ___fltol@f1 006A           __pcstackCOMMON 0070  
  __end_of_PWM1_Set_Duty 0179             __pidataBANK1 0C40               ??_ADC_Init 0070  
             ??_ADC_Read 0072        __end_of__Umul8_16 0C84               __pmaintext 0179  
              ?___xxtofl 0028                  _GO_DONE 00FA             ??_PWM1_Start 0070  
                ___aldiv 0EA7                  ___fldiv 02B0                  ___awdiv 0007  
                ___awmod 0DBA                  ___flmul 048D                  ___fltol 0E13  
                ___lwdiv 0D27                  ___lwmod 0CED       __end_of_PWM1_Start 0C40  
                __ptext1 0CED                  __ptext2 0D27                  __ptext3 0DBA  
                __ptext4 0007                  __ptext5 0C37                  __ptext6 006E  
                __ptext7 0F44                  __ptext8 0E13                  __ptext9 048D  
              _T2CONbits 0012               ??___xxtofl 002C         ___awmod@dividend 0072  
       ___aldiv@dividend 0074                  main@adc 00B4     end_of_initialization 07FC  
       ___aldiv@quotient 0022                _PWM1_Init 0D6B            ___xxtofl@sign 0030  
            ___fldiv@grs 004A              ___fldiv@rem 0043        __size_of_ADC_Init 0009  
      __size_of_ADC_Read 003A              ___flmul@grs 005E              _CCP1CONbits 0017  
            _CCP2CONbits 001D               ?_PWM1_Init 0026      start_initialization 07EE  
          ?_PWM_Max_Duty 0026               init_fetch0 0C4A                __Umul8_16 0C5D  
            __pdataBANK1 00BE                ___fldiv@a 0036                ___fldiv@b 003A  
              ___flmul@a 0054                ___flmul@b 0050                ___latbits 0002  
          __pcstackBANK0 0020            __pcstackBANK1 00A0        __size_of___xxtofl 00BC  
         ??_PWM_Max_Duty 0079   __size_of_PWM1_Set_Duty 010B                __pnvBANK1 00C8  
       ___lwdiv@dividend 0072                 ?___aldiv 0070                 ?___fldiv 0036  
               ?___awdiv 0070                 ?___awmod 0070                 ?___flmul 0050  
               ?___fltol 006A               ?__Umul8_16 0070                 ?___lwdiv 0070  
               ?___lwmod 0070              ??_PWM1_Init 0079                 _ADC_Init 0C2E  
               _ADC_Read 0CB3                _frequency 00C8         ___lwdiv@quotient 0074  
        ___aldiv@divisor 0070          ___aldiv@counter 0020            PWM1_Init@freq 0026  
          _PWM1_Set_Duty 006E           ?_PWM1_Set_Duty 00A4            ADC_Read@value 0074  
            ??__Umul8_16 0072         __size_of___aldiv 009D     __end_of_PWM_Max_Duty 0CB3  
       __size_of___fldiv 01DD         __size_of___awdiv 0067         __size_of___awmod 0059  
       __size_of___flmul 0361         __size_of___fltol 0094         __size_of___lwdiv 0044  
       __size_of___lwmod 003A                 ___xxtofl 0F44          ___lwdiv@divisor 0070  
        ___lwdiv@counter 0076                 __ptext10 0C5D                 __ptext11 02B0  
               __ptext12 0C84                 __ptext13 0D6B                 __ptext14 0EA7  
               __ptext15 0CB3                 __ptext16 0C2E            __size_of_main 0137  
               init_ram0 0C4E         ___lwmod@dividend 0072          ??_PWM1_Set_Duty 00A6  
 __Umul8_16@multiplicand 0070          ___lwmod@divisor 0070          ___lwmod@counter 0074  
           ___aldiv@sign 0021               _PWM1_Start 0C37     __Umul8_16@multiplier 0078  
  __size_of_PWM_Max_Duty 002F        __Umul8_16@product 0074  
