

Microchip MPLAB XC8 Assembler V2.20 build 20200408173844 
                                                                                               Thu Dec 16 05:46:56 2021

Microchip MPLAB XC8 C Compiler v2.20 (Free license) build 20200408173844 Og1 
     1                           	processor	16F877A
     2                           	pagewidth 120
     3                           	opt	flic
     4                           	psect	nvBANK1,global,class=BANK1,space=1,delta=1,noexec
     5                           	psect	cinit,global,class=CODE,merge=1,delta=2
     6                           	psect	bssBANK1,global,class=BANK1,space=1,delta=1,noexec
     7                           	psect	cstackBANK1,global,class=BANK1,space=1,delta=1,noexec
     8                           	psect	cstackCOMMON,global,class=COMMON,space=1,delta=1,noexec
     9                           	psect	cstackBANK0,global,class=BANK0,space=1,delta=1,noexec
    10                           	psect	maintext,global,class=CODE,split=1,delta=2
    11                           	psect	text1,local,class=CODE,merge=1,delta=2
    12                           	psect	text2,local,class=CODE,merge=1,delta=2
    13                           	psect	text3,local,class=CODE,merge=1,delta=2
    14                           	psect	text4,local,class=CODE,merge=1,delta=2
    15                           	psect	text5,local,class=CODE,merge=1,delta=2
    16                           	psect	text6,local,class=CODE,merge=1,delta=2
    17                           	psect	text7,local,class=CODE,merge=1,delta=2,group=1
    18                           	psect	text8,local,class=CODE,merge=1,delta=2,group=1
    19                           	psect	text9,local,class=CODE,merge=1,delta=2,group=1
    20                           	psect	text10,local,class=CODE,merge=1,delta=2,group=1
    21                           	psect	text11,local,class=CODE,merge=1,delta=2,group=1
    22                           	psect	text12,local,class=CODE,merge=1,delta=2
    23                           	psect	text13,local,class=CODE,merge=1,delta=2
    24                           	psect	text14,local,class=CODE,merge=1,delta=2,group=1
    25                           	psect	config,global,abs,ovrld,class=CONFIG,space=4,delta=2,noexec
    26                           	dabs	1,0x7E,2
    27  0000                     
    28                           ; Version 2.20
    29                           ; Generated 12/02/2020 GMT
    30                           ; 
    31                           ; Copyright © 2020, Microchip Technology Inc. and its subsidiaries ("Microchip")
    32                           ; All rights reserved.
    33                           ; 
    34                           ; This software is developed by Microchip Technology Inc. and its subsidiaries ("Microch
      +                          ip").
    35                           ; 
    36                           ; Redistribution and use in source and binary forms, with or without modification, are
    37                           ; permitted provided that the following conditions are met:
    38                           ; 
    39                           ;     1. Redistributions of source code must retain the above copyright notice, this lis
      +                          t of
    40                           ;        conditions and the following disclaimer.
    41                           ; 
    42                           ;     2. Redistributions in binary form must reproduce the above copyright notice, this 
      +                          list
    43                           ;        of conditions and the following disclaimer in the documentation and/or other
    44                           ;        materials provided with the distribution.
    45                           ; 
    46                           ;     3. Microchip's name may not be used to endorse or promote products derived from th
      +                          is
    47                           ;        software without specific prior written permission.
    48                           ; 
    49                           ; THIS SOFTWARE IS PROVIDED BY MICROCHIP "AS IS" AND ANY EXPRESS OR IMPLIED WARRANTIES,
    50                           ; INCLUDING, BUT NOT LIMITED TO, THE IMPLIED WARRANTIES OF MERCHANTABILITY AND FITNESS F
      +                          OR
    51                           ; PURPOSE ARE DISCLAIMED.  IN NO EVENT SHALL MICROCHIP BE LIABLE FOR ANY DIRECT, INDIREC
      +                          T,
    52                           ; INCIDENTAL, SPECIAL, EXEMPLARY, OR CONSEQUENTIAL DAMAGES (INCLUDING BUT NOT LIMITED TO
    53                           ; PROCUREMENT OF SUBSTITUTE GOODS OR SERVICES; LOSS OF USE, DATA OR PROFITS; OR BUSINESS
    54                           ; INTERRUPTION) HOWSOEVER CAUSED AND ON ANY THEORY OF LIABILITY, WHETHER IN CONTRACT, ST
      +                          RICT
    55                           ; LIABILITY, OR TORT (INCLUDING NEGLIGENCE OR OTHERWISE) ARISING IN ANY WAY OUT OF THE U
      +                          SE OF
    56                           ; THIS SOFTWARE, EVEN IF ADVISED OF THE POSSIBILITY OF SUCH DAMAGE.
    57                           ; 
    58                           ; 
    59                           ; Code-generator required, PIC16F877A Definitions
    60                           ; 
    61                           ; SFR Addresses
    62  0000                     	;# 
    63  0001                     	;# 
    64  0002                     	;# 
    65  0003                     	;# 
    66  0004                     	;# 
    67  0005                     	;# 
    68  0006                     	;# 
    69  0007                     	;# 
    70  0008                     	;# 
    71  0009                     	;# 
    72  000A                     	;# 
    73  000B                     	;# 
    74  000C                     	;# 
    75  000D                     	;# 
    76  000E                     	;# 
    77  000E                     	;# 
    78  000F                     	;# 
    79  0010                     	;# 
    80  0011                     	;# 
    81  0012                     	;# 
    82  0013                     	;# 
    83  0014                     	;# 
    84  0015                     	;# 
    85  0015                     	;# 
    86  0016                     	;# 
    87  0017                     	;# 
    88  0018                     	;# 
    89  0019                     	;# 
    90  001A                     	;# 
    91  001B                     	;# 
    92  001B                     	;# 
    93  001C                     	;# 
    94  001D                     	;# 
    95  001E                     	;# 
    96  001F                     	;# 
    97  0081                     	;# 
    98  0085                     	;# 
    99  0086                     	;# 
   100  0087                     	;# 
   101  0088                     	;# 
   102  0089                     	;# 
   103  008C                     	;# 
   104  008D                     	;# 
   105  008E                     	;# 
   106  0091                     	;# 
   107  0092                     	;# 
   108  0093                     	;# 
   109  0094                     	;# 
   110  0098                     	;# 
   111  0099                     	;# 
   112  009C                     	;# 
   113  009D                     	;# 
   114  009E                     	;# 
   115  009F                     	;# 
   116  010C                     	;# 
   117  010D                     	;# 
   118  010E                     	;# 
   119  010F                     	;# 
   120  018C                     	;# 
   121  018D                     	;# 
   122  0000                     	;# 
   123  0001                     	;# 
   124  0002                     	;# 
   125  0003                     	;# 
   126  0004                     	;# 
   127  0005                     	;# 
   128  0006                     	;# 
   129  0007                     	;# 
   130  0008                     	;# 
   131  0009                     	;# 
   132  000A                     	;# 
   133  000B                     	;# 
   134  000C                     	;# 
   135  000D                     	;# 
   136  000E                     	;# 
   137  000E                     	;# 
   138  000F                     	;# 
   139  0010                     	;# 
   140  0011                     	;# 
   141  0012                     	;# 
   142  0013                     	;# 
   143  0014                     	;# 
   144  0015                     	;# 
   145  0015                     	;# 
   146  0016                     	;# 
   147  0017                     	;# 
   148  0018                     	;# 
   149  0019                     	;# 
   150  001A                     	;# 
   151  001B                     	;# 
   152  001B                     	;# 
   153  001C                     	;# 
   154  001D                     	;# 
   155  001E                     	;# 
   156  001F                     	;# 
   157  0081                     	;# 
   158  0085                     	;# 
   159  0086                     	;# 
   160  0087                     	;# 
   161  0088                     	;# 
   162  0089                     	;# 
   163  008C                     	;# 
   164  008D                     	;# 
   165  008E                     	;# 
   166  0091                     	;# 
   167  0092                     	;# 
   168  0093                     	;# 
   169  0094                     	;# 
   170  0098                     	;# 
   171  0099                     	;# 
   172  009C                     	;# 
   173  009D                     	;# 
   174  009E                     	;# 
   175  009F                     	;# 
   176  010C                     	;# 
   177  010D                     	;# 
   178  010E                     	;# 
   179  010F                     	;# 
   180  018C                     	;# 
   181  018D                     	;# 
   182  0000                     	;# 
   183  0001                     	;# 
   184  0002                     	;# 
   185  0003                     	;# 
   186  0004                     	;# 
   187  0005                     	;# 
   188  0006                     	;# 
   189  0007                     	;# 
   190  0008                     	;# 
   191  0009                     	;# 
   192  000A                     	;# 
   193  000B                     	;# 
   194  000C                     	;# 
   195  000D                     	;# 
   196  000E                     	;# 
   197  000E                     	;# 
   198  000F                     	;# 
   199  0010                     	;# 
   200  0011                     	;# 
   201  0012                     	;# 
   202  0013                     	;# 
   203  0014                     	;# 
   204  0015                     	;# 
   205  0015                     	;# 
   206  0016                     	;# 
   207  0017                     	;# 
   208  0018                     	;# 
   209  0019                     	;# 
   210  001A                     	;# 
   211  001B                     	;# 
   212  001B                     	;# 
   213  001C                     	;# 
   214  001D                     	;# 
   215  001E                     	;# 
   216  001F                     	;# 
   217  0081                     	;# 
   218  0085                     	;# 
   219  0086                     	;# 
   220  0087                     	;# 
   221  0088                     	;# 
   222  0089                     	;# 
   223  008C                     	;# 
   224  008D                     	;# 
   225  008E                     	;# 
   226  0091                     	;# 
   227  0092                     	;# 
   228  0093                     	;# 
   229  0094                     	;# 
   230  0098                     	;# 
   231  0099                     	;# 
   232  009C                     	;# 
   233  009D                     	;# 
   234  009E                     	;# 
   235  009F                     	;# 
   236  010C                     	;# 
   237  010D                     	;# 
   238  010E                     	;# 
   239  010F                     	;# 
   240  018C                     	;# 
   241  018D                     	;# 
   242                           
   243                           	psect	nvBANK1
   244  00A0                     __pnvBANK1:
   245  00A0                     _frequency2:
   246  00A0                     	ds	4
   247  00A4                     _frequency1:
   248  00A4                     	ds	4
   249  0012                     _T2CONbits	set	18
   250  001B                     _CCPR2L	set	27
   251  001D                     _CCP2CONbits	set	29
   252  0015                     _CCPR1L	set	21
   253  0017                     _CCP1CONbits	set	23
   254  0008                     _PORTDbits	set	8
   255  0092                     _TMR2ON	set	146
   256  00BA                     _CCP1M2	set	186
   257  00BB                     _CCP1M3	set	187
   258  0030                     _RB0	set	48
   259  0092                     _PR2	set	146
   260  0088                     _TRISDbits	set	136
   261  009F                     _ADCON1	set	159
   262  0439                     _TRISC1	set	1081
   263  043A                     _TRISC2	set	1082
   264  0430                     _TRISB0	set	1072
   265                           
   266                           	psect	cinit
   267  07F6                     start_initialization:	
   268                           ; #config settings
   269                           
   270  07F6                     __initialization:
   271                           
   272                           ; Clear objects allocated to BANK1
   273  07F6  1683               	bsf	3,5	;RP0=1, select bank1
   274  07F7  1303               	bcf	3,6	;RP1=0, select bank1
   275  07F8  01B0               	clrf	__pbssBANK1& (0+127)
   276  07F9  01B1               	clrf	(__pbssBANK1+1)& (0+127)
   277  07FA  01B2               	clrf	(__pbssBANK1+2)& (0+127)
   278  07FB  01B3               	clrf	(__pbssBANK1+3)& (0+127)
   279  07FC                     end_of_initialization:	
   280                           ;End of C runtime variable initialization code
   281                           
   282  07FC                     __end_of__initialization:
   283  07FC  0183               	clrf	3
   284  07FD  120A  158A  2F37   	ljmp	_main	;jump to C main() function
   285                           
   286                           	psect	bssBANK1
   287  00B0                     __pbssBANK1:
   288  00B0                     _value2:
   289  00B0                     	ds	2
   290  00B2                     _value1:
   291  00B2                     	ds	2
   292                           
   293                           	psect	cstackBANK1
   294  00A8                     __pcstackBANK1:
   295  00A8                     ??___fltol:
   296                           
   297                           ; 1 bytes @ 0x0
   298  00A8                     	ds	4
   299  00AC                     ?_PWM1_Set_Duty:
   300  00AC                     ?_PWM2_Set_Duty:	
   301                           ; 1 bytes @ 0x4
   302                           
   303  00AC                     PWM1_Set_Duty@duty:	
   304                           ; 1 bytes @ 0x4
   305                           
   306  00AC                     PWM2_Set_Duty@duty:	
   307                           ; 2 bytes @ 0x4
   308                           
   309                           
   310                           ; 2 bytes @ 0x4
   311  00AC                     	ds	2
   312  00AE                     ??_PWM1_Set_Duty:
   313  00AE                     ??_PWM2_Set_Duty:	
   314                           ; 1 bytes @ 0x6
   315                           
   316                           
   317                           ; 1 bytes @ 0x6
   318  00AE                     	ds	2
   319                           
   320                           	psect	cstackCOMMON
   321  0070                     __pcstackCOMMON:
   322  0070                     ?_PWM1_Start:
   323  0070                     ??_PWM1_Start:	
   324                           ; 1 bytes @ 0x0
   325                           
   326  0070                     ?_PWM2_Start:	
   327                           ; 1 bytes @ 0x0
   328                           
   329  0070                     ??_PWM2_Start:	
   330                           ; 1 bytes @ 0x0
   331                           
   332  0070                     ?_main:	
   333                           ; 1 bytes @ 0x0
   334                           
   335  0070                     ?__Umul8_16:	
   336                           ; 1 bytes @ 0x0
   337                           
   338  0070                     ?___aldiv:	
   339                           ; 2 bytes @ 0x0
   340                           
   341  0070                     __Umul8_16@multiplicand:	
   342                           ; 4 bytes @ 0x0
   343                           
   344  0070                     ___aldiv@divisor:	
   345                           ; 1 bytes @ 0x0
   346                           
   347                           
   348                           ; 4 bytes @ 0x0
   349  0070                     	ds	2
   350  0072                     ??__Umul8_16:
   351                           
   352                           ; 1 bytes @ 0x2
   353  0072                     	ds	2
   354  0074                     __Umul8_16@product:
   355  0074                     ___aldiv@dividend:	
   356                           ; 2 bytes @ 0x4
   357                           
   358                           
   359                           ; 4 bytes @ 0x4
   360  0074                     	ds	2
   361  0076                     __Umul8_16@word_mpld:
   362                           
   363                           ; 2 bytes @ 0x6
   364  0076                     	ds	2
   365  0078                     ??___aldiv:
   366  0078                     __Umul8_16@multiplier:	
   367                           ; 1 bytes @ 0x8
   368                           
   369                           
   370                           ; 1 bytes @ 0x8
   371  0078                     	ds	1
   372  0079                     ??_PWM1_Init:
   373  0079                     ??_PWM2_Init:	
   374                           ; 1 bytes @ 0x9
   375                           
   376  0079                     ??_PWM1_Max_Duty:	
   377                           ; 1 bytes @ 0x9
   378                           
   379  0079                     ??_PWM2_Max_Duty:	
   380                           ; 1 bytes @ 0x9
   381                           
   382                           
   383                           ; 1 bytes @ 0x9
   384  0079                     	ds	4
   385  007D                     ??_main:
   386                           
   387                           	psect	cstackBANK0
   388  0020                     __pcstackBANK0:	
   389                           ; 1 bytes @ 0xD
   390                           
   391  0020                     ___aldiv@counter:
   392                           
   393                           ; 1 bytes @ 0x0
   394  0020                     	ds	1
   395  0021                     ___aldiv@sign:
   396                           
   397                           ; 1 bytes @ 0x1
   398  0021                     	ds	1
   399  0022                     ___aldiv@quotient:
   400                           
   401                           ; 4 bytes @ 0x2
   402  0022                     	ds	4
   403  0026                     ?_PWM1_Init:
   404  0026                     ?_PWM2_Init:	
   405                           ; 1 bytes @ 0x6
   406                           
   407  0026                     ?_PWM1_Max_Duty:	
   408                           ; 1 bytes @ 0x6
   409                           
   410  0026                     ?_PWM2_Max_Duty:	
   411                           ; 2 bytes @ 0x6
   412                           
   413  0026                     PWM1_Init@freq:	
   414                           ; 2 bytes @ 0x6
   415                           
   416  0026                     PWM2_Init@freq:	
   417                           ; 4 bytes @ 0x6
   418                           
   419                           
   420                           ; 4 bytes @ 0x6
   421  0026                     	ds	2
   422  0028                     ?___xxtofl:
   423  0028                     ___xxtofl@val:	
   424                           ; 4 bytes @ 0x8
   425                           
   426                           
   427                           ; 4 bytes @ 0x8
   428  0028                     	ds	4
   429  002C                     ??___xxtofl:
   430                           
   431                           ; 1 bytes @ 0xC
   432  002C                     	ds	4
   433  0030                     ___xxtofl@sign:
   434                           
   435                           ; 1 bytes @ 0x10
   436  0030                     	ds	1
   437  0031                     ___xxtofl@exp:
   438                           
   439                           ; 1 bytes @ 0x11
   440  0031                     	ds	1
   441  0032                     ___xxtofl@arg:
   442                           
   443                           ; 4 bytes @ 0x12
   444  0032                     	ds	4
   445  0036                     ?___fldiv:
   446  0036                     ___fldiv@a:	
   447                           ; 4 bytes @ 0x16
   448                           
   449                           
   450                           ; 4 bytes @ 0x16
   451  0036                     	ds	4
   452  003A                     ___fldiv@b:
   453                           
   454                           ; 4 bytes @ 0x1A
   455  003A                     	ds	4
   456  003E                     ??___fldiv:
   457                           
   458                           ; 1 bytes @ 0x1E
   459  003E                     	ds	5
   460  0043                     ___fldiv@rem:
   461                           
   462                           ; 4 bytes @ 0x23
   463  0043                     	ds	4
   464  0047                     ___fldiv@sign:
   465                           
   466                           ; 1 bytes @ 0x27
   467  0047                     	ds	1
   468  0048                     ___fldiv@new_exp:
   469                           
   470                           ; 2 bytes @ 0x28
   471  0048                     	ds	2
   472  004A                     ___fldiv@grs:
   473                           
   474                           ; 4 bytes @ 0x2A
   475  004A                     	ds	4
   476  004E                     ___fldiv@bexp:
   477                           
   478                           ; 1 bytes @ 0x2E
   479  004E                     	ds	1
   480  004F                     ___fldiv@aexp:
   481                           
   482                           ; 1 bytes @ 0x2F
   483  004F                     	ds	1
   484  0050                     ?___flmul:
   485  0050                     ___flmul@b:	
   486                           ; 4 bytes @ 0x30
   487                           
   488                           
   489                           ; 4 bytes @ 0x30
   490  0050                     	ds	4
   491  0054                     ___flmul@a:
   492                           
   493                           ; 4 bytes @ 0x34
   494  0054                     	ds	4
   495  0058                     ??___flmul:
   496                           
   497                           ; 1 bytes @ 0x38
   498  0058                     	ds	5
   499  005D                     ___flmul@sign:
   500                           
   501                           ; 1 bytes @ 0x3D
   502  005D                     	ds	1
   503  005E                     ___flmul@grs:
   504                           
   505                           ; 4 bytes @ 0x3E
   506  005E                     	ds	4
   507  0062                     ___flmul@aexp:
   508                           
   509                           ; 1 bytes @ 0x42
   510  0062                     	ds	1
   511  0063                     ___flmul@bexp:
   512                           
   513                           ; 1 bytes @ 0x43
   514  0063                     	ds	1
   515  0064                     ___flmul@prod:
   516                           
   517                           ; 4 bytes @ 0x44
   518  0064                     	ds	4
   519  0068                     ___flmul@temp:
   520                           
   521                           ; 2 bytes @ 0x48
   522  0068                     	ds	2
   523  006A                     ?___fltol:
   524  006A                     ___fltol@f1:	
   525                           ; 4 bytes @ 0x4A
   526                           
   527                           
   528                           ; 4 bytes @ 0x4A
   529  006A                     	ds	4
   530  006E                     ___fltol@sign1:
   531                           
   532                           ; 1 bytes @ 0x4E
   533  006E                     	ds	1
   534  006F                     ___fltol@exp1:
   535                           
   536                           ; 1 bytes @ 0x4F
   537  006F                     	ds	1
   538                           
   539                           	psect	maintext
   540  0F37                     __pmaintext:	
   541 ;;
   542 ;;Main: autosize = 0, tempsize = 0, incstack = 0, save=0
   543 ;;
   544 ;; *************** function _main *****************
   545 ;; Defined at:
   546 ;;		line 27 in file "main controller motor.c"
   547 ;; Parameters:    Size  Location     Type
   548 ;;		None
   549 ;; Auto vars:     Size  Location     Type
   550 ;;		None
   551 ;; Return value:  Size  Location     Type
   552 ;;                  1    wreg      void 
   553 ;; Registers used:
   554 ;;		wreg, status,2, status,0, btemp+1, pclath, cstack
   555 ;; Tracked objects:
   556 ;;		On entry : B00/0
   557 ;;		On exit  : 0/0
   558 ;;		Unchanged: 0/0
   559 ;; Data sizes:     COMMON   BANK0   BANK1   BANK3   BANK2
   560 ;;      Params:         0       0       0       0       0
   561 ;;      Locals:         0       0       0       0       0
   562 ;;      Temps:          0       0       0       0       0
   563 ;;      Totals:         0       0       0       0       0
   564 ;;Total ram usage:        0 bytes
   565 ;; Hardware stack levels required when called:    3
   566 ;; This function calls:
   567 ;;		_PWM1_Init
   568 ;;		_PWM1_Set_Duty
   569 ;;		_PWM1_Start
   570 ;;		_PWM2_Init
   571 ;;		_PWM2_Set_Duty
   572 ;;		_PWM2_Start
   573 ;; This function is called by:
   574 ;;		Startup code after reset
   575 ;; This function uses a non-reentrant model
   576 ;;
   577                           
   578                           
   579                           ;psect for function _main
   580  0F37                     _main:
   581  0F37                     l1724:	
   582                           ;incstack = 0
   583                           ; Regs used in _main: [wreg+status,2+status,0+btemp+1+pclath+cstack]
   584                           
   585                           
   586                           ;main controller motor.c: 29:     ADCON1 = 0x07;
   587  0F37  3007               	movlw	7
   588  0F38  1683               	bsf	3,5	;RP0=1, select bank1
   589  0F39  1303               	bcf	3,6	;RP1=0, select bank1
   590  0F3A  009F               	movwf	31	;volatile
   591  0F3B                     l1726:
   592                           
   593                           ;main controller motor.c: 31:     TRISDbits.TRISD1 =1;
   594  0F3B  1488               	bsf	8,1	;volatile
   595  0F3C                     l1728:
   596                           
   597                           ;main controller motor.c: 32:     TRISDbits.TRISD0 = 1;
   598  0F3C  1408               	bsf	8,0	;volatile
   599  0F3D                     l1730:
   600                           
   601                           ;main controller motor.c: 33:     TRISDbits.TRISD2 = 1;
   602  0F3D  1508               	bsf	8,2	;volatile
   603  0F3E                     l1732:
   604                           
   605                           ;main controller motor.c: 34:     TRISDbits.TRISD3 = 1;
   606  0F3E  1588               	bsf	8,3	;volatile
   607  0F3F                     l1734:
   608                           
   609                           ;main controller motor.c: 36:     TRISB0=0;
   610  0F3F  1006               	bcf	6,0	;volatile
   611  0F40                     l1736:
   612                           
   613                           ;main controller motor.c: 37:     RB0=0;
   614  0F40  1283               	bcf	3,5	;RP0=0, select bank0
   615  0F41  1303               	bcf	3,6	;RP1=0, select bank0
   616  0F42  1006               	bcf	6,0	;volatile
   617  0F43                     l1738:
   618                           
   619                           ;main controller motor.c: 39:     PWM1_Init(5000);
   620  0F43  3000               	movlw	0
   621  0F44  00A9               	movwf	PWM1_Init@freq+3
   622  0F45  3000               	movlw	0
   623  0F46  00A8               	movwf	PWM1_Init@freq+2
   624  0F47  3013               	movlw	19
   625  0F48  00A7               	movwf	PWM1_Init@freq+1
   626  0F49  3088               	movlw	136
   627  0F4A  00A6               	movwf	PWM1_Init@freq
   628  0F4B  120A  158A  2549  120A  158A  	fcall	_PWM1_Init
   629  0F50                     l1740:
   630                           
   631                           ;main controller motor.c: 40:     PWM1_Start();
   632  0F50  120A  158A  24AE  120A  158A  	fcall	_PWM1_Start
   633  0F55                     l1742:
   634                           
   635                           ;main controller motor.c: 42:     PWM2_Init(5000);
   636  0F55  3000               	movlw	0
   637  0F56  1283               	bcf	3,5	;RP0=0, select bank0
   638  0F57  1303               	bcf	3,6	;RP1=0, select bank0
   639  0F58  00A9               	movwf	PWM2_Init@freq+3
   640  0F59  3000               	movlw	0
   641  0F5A  00A8               	movwf	PWM2_Init@freq+2
   642  0F5B  3013               	movlw	19
   643  0F5C  00A7               	movwf	PWM2_Init@freq+1
   644  0F5D  3088               	movlw	136
   645  0F5E  00A6               	movwf	PWM2_Init@freq
   646  0F5F  120A  158A  2598  120A  158A  	fcall	_PWM2_Init
   647  0F64                     l1744:
   648                           
   649                           ;main controller motor.c: 43:     PWM2_Start();
   650  0F64  120A  158A  24B9  120A  158A  	fcall	_PWM2_Start
   651  0F69                     l1746:
   652                           
   653                           ;main controller motor.c: 45:     PWM1_Set_Duty(value1);
   654  0F69  1683               	bsf	3,5	;RP0=1, select bank1
   655  0F6A  1303               	bcf	3,6	;RP1=0, select bank1
   656  0F6B  0833               	movf	(_value1+1)^(0+128),w
   657  0F6C  00AD               	movwf	(PWM1_Set_Duty@duty+1)^(0+128)
   658  0F6D  0832               	movf	_value1^(0+128),w
   659  0F6E  00AC               	movwf	PWM1_Set_Duty@duty^(0+128)
   660  0F6F  120A  118A  20A2  120A  158A  	fcall	_PWM1_Set_Duty
   661  0F74                     l1748:
   662                           
   663                           ;main controller motor.c: 46:     PWM2_Set_Duty(value2);
   664  0F74  1683               	bsf	3,5	;RP0=1, select bank1
   665  0F75  1303               	bcf	3,6	;RP1=0, select bank1
   666  0F76  0831               	movf	(_value2+1)^(0+128),w
   667  0F77  00AD               	movwf	(PWM2_Set_Duty@duty+1)^(0+128)
   668  0F78  0830               	movf	_value2^(0+128),w
   669  0F79  00AC               	movwf	PWM2_Set_Duty@duty^(0+128)
   670  0F7A  120A  118A  21AD  120A  158A  	fcall	_PWM2_Set_Duty
   671  0F7F                     l1750:
   672                           
   673                           ;main controller motor.c: 48:     {;main controller motor.c: 51:         if(PORTDbits.RD
      +                          0 == 0)
   674  0F7F  1283               	bcf	3,5	;RP0=0, select bank0
   675  0F80  1303               	bcf	3,6	;RP1=0, select bank0
   676  0F81  1808               	btfsc	8,0	;volatile
   677  0F82  2F84               	goto	u2351
   678  0F83  2F85               	goto	u2350
   679  0F84                     u2351:
   680  0F84  2FA1               	goto	l1760
   681  0F85                     u2350:
   682  0F85                     l37:
   683  0F85  1C08               	btfss	8,0	;volatile
   684  0F86  2F88               	goto	u2361
   685  0F87  2F89               	goto	u2360
   686  0F88                     u2361:
   687  0F88  2F85               	goto	l37
   688  0F89                     u2360:
   689  0F89                     l39:
   690                           
   691                           ;main controller motor.c: 54:             RB0=1;
   692  0F89  1406               	bsf	6,0	;volatile
   693  0F8A                     l1754:
   694                           
   695                           ;main controller motor.c: 55:             value1=value1+10;
   696  0F8A  1683               	bsf	3,5	;RP0=1, select bank1
   697  0F8B  1303               	bcf	3,6	;RP1=0, select bank1
   698  0F8C  0832               	movf	_value1^(0+128),w
   699  0F8D  3E0A               	addlw	10
   700  0F8E  00B2               	movwf	_value1^(0+128)
   701  0F8F  0833               	movf	(_value1+1)^(0+128),w
   702  0F90  1803               	skipnc
   703  0F91  3E01               	addlw	1
   704  0F92  3E00               	addlw	0
   705  0F93  00B3               	movwf	(_value1+1)^(0+128)
   706  0F94                     l1756:
   707                           
   708                           ;main controller motor.c: 56:             if(value1 > 100)
   709  0F94  3000               	movlw	0
   710  0F95  0233               	subwf	(_value1+1)^(0+128),w
   711  0F96  3065               	movlw	101
   712  0F97  1903               	skipnz
   713  0F98  0232               	subwf	_value1^(0+128),w
   714  0F99  1C03               	skipc
   715  0F9A  2F9C               	goto	u2371
   716  0F9B  2F9D               	goto	u2370
   717  0F9C                     u2371:
   718  0F9C  2FA1               	goto	l1760
   719  0F9D                     u2370:
   720  0F9D                     l1758:
   721                           
   722                           ;main controller motor.c: 57:                 value1 = 100;
   723  0F9D  3064               	movlw	100
   724  0F9E  00B2               	movwf	_value1^(0+128)
   725  0F9F  3000               	movlw	0
   726  0FA0  00B3               	movwf	(_value1^(0+128)+1)
   727  0FA1                     l1760:
   728                           
   729                           ;main controller motor.c: 60:         if(PORTDbits.RD1 == 0)
   730  0FA1  1283               	bcf	3,5	;RP0=0, select bank0
   731  0FA2  1888               	btfsc	8,1	;volatile
   732  0FA3  2FA5               	goto	u2381
   733  0FA4  2FA6               	goto	u2380
   734  0FA5                     u2381:
   735  0FA5  2FBD               	goto	l1768
   736  0FA6                     u2380:
   737  0FA6                     l42:
   738  0FA6  1C88               	btfss	8,1	;volatile
   739  0FA7  2FA9               	goto	u2391
   740  0FA8  2FAA               	goto	u2390
   741  0FA9                     u2391:
   742  0FA9  2FA6               	goto	l42
   743  0FAA                     u2390:
   744  0FAA                     l44:
   745                           
   746                           ;main controller motor.c: 63:             RB0=1;
   747  0FAA  1406               	bsf	6,0	;volatile
   748  0FAB                     l1764:
   749                           
   750                           ;main controller motor.c: 64:             value1=value1-10;
   751  0FAB  1683               	bsf	3,5	;RP0=1, select bank1
   752  0FAC  1303               	bcf	3,6	;RP1=0, select bank1
   753  0FAD  0832               	movf	_value1^(0+128),w
   754  0FAE  3EF6               	addlw	246
   755  0FAF  00B2               	movwf	_value1^(0+128)
   756  0FB0  0833               	movf	(_value1+1)^(0+128),w
   757  0FB1  1803               	skipnc
   758  0FB2  3E01               	addlw	1
   759  0FB3  3EFF               	addlw	255
   760  0FB4  00B3               	movwf	(_value1+1)^(0+128)
   761                           
   762                           ;main controller motor.c: 65:             if(value1 <= 0)
   763  0FB5  0832               	movf	_value1^(0+128),w
   764  0FB6  0433               	iorwf	(_value1+1)^(0+128),w
   765  0FB7  1D03               	btfss	3,2
   766  0FB8  2FBA               	goto	u2401
   767  0FB9  2FBB               	goto	u2400
   768  0FBA                     u2401:
   769  0FBA  2FBD               	goto	l1768
   770  0FBB                     u2400:
   771  0FBB                     l1766:
   772                           
   773                           ;main controller motor.c: 66:                 value1=0;
   774  0FBB  01B2               	clrf	_value1^(0+128)
   775  0FBC  01B3               	clrf	(_value1+1)^(0+128)
   776  0FBD                     l1768:
   777                           
   778                           ;main controller motor.c: 71:          if(PORTDbits.RD2 == 0)
   779  0FBD  1283               	bcf	3,5	;RP0=0, select bank0
   780  0FBE  1908               	btfsc	8,2	;volatile
   781  0FBF  2FC1               	goto	u2411
   782  0FC0  2FC2               	goto	u2410
   783  0FC1                     u2411:
   784  0FC1  2FDE               	goto	l1778
   785  0FC2                     u2410:
   786  0FC2                     l47:
   787  0FC2  1D08               	btfss	8,2	;volatile
   788  0FC3  2FC5               	goto	u2421
   789  0FC4  2FC6               	goto	u2420
   790  0FC5                     u2421:
   791  0FC5  2FC2               	goto	l47
   792  0FC6                     u2420:
   793  0FC6                     l49:
   794                           
   795                           ;main controller motor.c: 74:             RB0=1;
   796  0FC6  1406               	bsf	6,0	;volatile
   797  0FC7                     l1772:
   798                           
   799                           ;main controller motor.c: 75:             value2=value2+10;
   800  0FC7  1683               	bsf	3,5	;RP0=1, select bank1
   801  0FC8  1303               	bcf	3,6	;RP1=0, select bank1
   802  0FC9  0830               	movf	_value2^(0+128),w
   803  0FCA  3E0A               	addlw	10
   804  0FCB  00B0               	movwf	_value2^(0+128)
   805  0FCC  0831               	movf	(_value2+1)^(0+128),w
   806  0FCD  1803               	skipnc
   807  0FCE  3E01               	addlw	1
   808  0FCF  3E00               	addlw	0
   809  0FD0  00B1               	movwf	(_value2+1)^(0+128)
   810  0FD1                     l1774:
   811                           
   812                           ;main controller motor.c: 76:             if(value2 >= 100)
   813  0FD1  3000               	movlw	0
   814  0FD2  0231               	subwf	(_value2+1)^(0+128),w
   815  0FD3  3064               	movlw	100
   816  0FD4  1903               	skipnz
   817  0FD5  0230               	subwf	_value2^(0+128),w
   818  0FD6  1C03               	skipc
   819  0FD7  2FD9               	goto	u2431
   820  0FD8  2FDA               	goto	u2430
   821  0FD9                     u2431:
   822  0FD9  2FDE               	goto	l1778
   823  0FDA                     u2430:
   824  0FDA                     l1776:
   825                           
   826                           ;main controller motor.c: 77:                 value2 = 100;
   827  0FDA  3064               	movlw	100
   828  0FDB  00B0               	movwf	_value2^(0+128)
   829  0FDC  3000               	movlw	0
   830  0FDD  00B1               	movwf	(_value2^(0+128)+1)
   831  0FDE                     l1778:
   832                           
   833                           ;main controller motor.c: 80:         if(PORTDbits.RD3 == 0)
   834  0FDE  1283               	bcf	3,5	;RP0=0, select bank0
   835  0FDF  1988               	btfsc	8,3	;volatile
   836  0FE0  2FE2               	goto	u2441
   837  0FE1  2FE3               	goto	u2440
   838  0FE2                     u2441:
   839  0FE2  2FFA               	goto	l1786
   840  0FE3                     u2440:
   841  0FE3                     l52:
   842  0FE3  1D88               	btfss	8,3	;volatile
   843  0FE4  2FE6               	goto	u2451
   844  0FE5  2FE7               	goto	u2450
   845  0FE6                     u2451:
   846  0FE6  2FE3               	goto	l52
   847  0FE7                     u2450:
   848  0FE7                     l54:
   849                           
   850                           ;main controller motor.c: 83:             RB0=1;
   851  0FE7  1406               	bsf	6,0	;volatile
   852  0FE8                     l1782:
   853                           
   854                           ;main controller motor.c: 84:             value2=value2-10;
   855  0FE8  1683               	bsf	3,5	;RP0=1, select bank1
   856  0FE9  1303               	bcf	3,6	;RP1=0, select bank1
   857  0FEA  0830               	movf	_value2^(0+128),w
   858  0FEB  3EF6               	addlw	246
   859  0FEC  00B0               	movwf	_value2^(0+128)
   860  0FED  0831               	movf	(_value2+1)^(0+128),w
   861  0FEE  1803               	skipnc
   862  0FEF  3E01               	addlw	1
   863  0FF0  3EFF               	addlw	255
   864  0FF1  00B1               	movwf	(_value2+1)^(0+128)
   865                           
   866                           ;main controller motor.c: 85:             if(value2 <= 0)
   867  0FF2  0830               	movf	_value2^(0+128),w
   868  0FF3  0431               	iorwf	(_value2+1)^(0+128),w
   869  0FF4  1D03               	btfss	3,2
   870  0FF5  2FF7               	goto	u2461
   871  0FF6  2FF8               	goto	u2460
   872  0FF7                     u2461:
   873  0FF7  2FFA               	goto	l1786
   874  0FF8                     u2460:
   875  0FF8                     l1784:
   876                           
   877                           ;main controller motor.c: 86:                 value2=0;
   878  0FF8  01B0               	clrf	_value2^(0+128)
   879  0FF9  01B1               	clrf	(_value2+1)^(0+128)
   880  0FFA                     l1786:
   881                           
   882                           ;main controller motor.c: 89:         RB0=0;
   883  0FFA  1283               	bcf	3,5	;RP0=0, select bank0
   884  0FFB  1006               	bcf	6,0	;volatile
   885  0FFC  2F69               	goto	l1746
   886  0FFD  120A  118A  2800   	ljmp	start
   887  1000                     __end_of_main:
   888                           
   889                           	psect	text1
   890  0CB9                     __ptext1:	
   891 ;; *************** function _PWM2_Start *****************
   892 ;; Defined at:
   893 ;;		line 107 in file "pwm.c"
   894 ;; Parameters:    Size  Location     Type
   895 ;;		None
   896 ;; Auto vars:     Size  Location     Type
   897 ;;		None
   898 ;; Return value:  Size  Location     Type
   899 ;;                  1    wreg      void 
   900 ;; Registers used:
   901 ;;		None
   902 ;; Tracked objects:
   903 ;;		On entry : 0/0
   904 ;;		On exit  : 0/0
   905 ;;		Unchanged: 0/0
   906 ;; Data sizes:     COMMON   BANK0   BANK1   BANK3   BANK2
   907 ;;      Params:         0       0       0       0       0
   908 ;;      Locals:         0       0       0       0       0
   909 ;;      Temps:          0       0       0       0       0
   910 ;;      Totals:         0       0       0       0       0
   911 ;;Total ram usage:        0 bytes
   912 ;; Hardware stack levels used:    1
   913 ;; This function calls:
   914 ;;		Nothing
   915 ;; This function is called by:
   916 ;;		_main
   917 ;; This function uses a non-reentrant model
   918 ;;
   919                           
   920                           
   921                           ;psect for function _PWM2_Start
   922  0CB9                     _PWM2_Start:
   923  0CB9                     l1698:	
   924                           ;incstack = 0
   925                           ; Regs used in _PWM2_Start: []
   926                           
   927                           
   928                           ;pwm.c: 109:   CCP2CONbits.CCP2M3 = 1;
   929  0CB9  1283               	bcf	3,5	;RP0=0, select bank0
   930  0CBA  1303               	bcf	3,6	;RP1=0, select bank0
   931  0CBB  159D               	bsf	29,3	;volatile
   932                           
   933                           ;pwm.c: 110:   CCP2CONbits.CCP2M2 = 1;
   934  0CBC  151D               	bsf	29,2	;volatile
   935                           
   936                           ;pwm.c: 116:      T2CONbits.T2CKPS0 = 1;
   937  0CBD  1412               	bsf	18,0	;volatile
   938                           
   939                           ;pwm.c: 117:      T2CONbits.T2CKPS1 = 0;
   940  0CBE  1092               	bcf	18,1	;volatile
   941                           
   942                           ;pwm.c: 122:      T2CONbits.TMR2ON = 1;
   943  0CBF  1512               	bsf	18,2	;volatile
   944                           
   945                           ;pwm.c: 123:      TRISC1 = 0;
   946  0CC0  1683               	bsf	3,5	;RP0=1, select bank1
   947  0CC1  1303               	bcf	3,6	;RP1=0, select bank1
   948  0CC2  1087               	bcf	7,1	;volatile
   949  0CC3                     l113:
   950  0CC3  0008               	return
   951  0CC4                     __end_of_PWM2_Start:
   952                           
   953                           	psect	text2
   954  01AD                     __ptext2:	
   955 ;; *************** function _PWM2_Set_Duty *****************
   956 ;; Defined at:
   957 ;;		line 67 in file "pwm.c"
   958 ;; Parameters:    Size  Location     Type
   959 ;;  duty            2    4[BANK1 ] unsigned int 
   960 ;; Auto vars:     Size  Location     Type
   961 ;;		None
   962 ;; Return value:  Size  Location     Type
   963 ;;                  1    wreg      void 
   964 ;; Registers used:
   965 ;;		wreg, status,2, status,0, btemp+1, pclath, cstack
   966 ;; Tracked objects:
   967 ;;		On entry : 0/0
   968 ;;		On exit  : 0/0
   969 ;;		Unchanged: 0/0
   970 ;; Data sizes:     COMMON   BANK0   BANK1   BANK3   BANK2
   971 ;;      Params:         0       0       2       0       0
   972 ;;      Locals:         0       0       0       0       0
   973 ;;      Temps:          0       0       2       0       0
   974 ;;      Totals:         0       0       4       0       0
   975 ;;Total ram usage:        4 bytes
   976 ;; Hardware stack levels used:    1
   977 ;; Hardware stack levels required when called:    2
   978 ;; This function calls:
   979 ;;		_PWM2_Max_Duty
   980 ;;		___fldiv
   981 ;;		___flmul
   982 ;;		___fltol
   983 ;;		___xxtofl
   984 ;; This function is called by:
   985 ;;		_main
   986 ;; This function uses a non-reentrant model
   987 ;;
   988                           
   989                           
   990                           ;psect for function _PWM2_Set_Duty
   991  01AD                     _PWM2_Set_Duty:
   992  01AD                     l1712:	
   993                           ;incstack = 0
   994                           ; Regs used in _PWM2_Set_Duty: [wreg+status,2+status,0+btemp+1+pclath+cstack]
   995                           
   996                           
   997                           ;pwm.c: 67: void PWM2_Set_Duty(unsigned int duty);pwm.c: 68: {;pwm.c: 69:     duty = ((f
      +                          loat)duty/100) * 1023;
   998  01AD  1683               	bsf	3,5	;RP0=1, select bank1
   999  01AE  1303               	bcf	3,6	;RP1=0, select bank1
  1000  01AF  082C               	movf	PWM2_Set_Duty@duty^(0+128),w
  1001  01B0  1283               	bcf	3,5	;RP0=0, select bank0
  1002  01B1  1303               	bcf	3,6	;RP1=0, select bank0
  1003  01B2  00A8               	movwf	___xxtofl@val
  1004  01B3  1683               	bsf	3,5	;RP0=1, select bank1
  1005  01B4  1303               	bcf	3,6	;RP1=0, select bank1
  1006  01B5  082D               	movf	(PWM2_Set_Duty@duty+1)^(0+128),w
  1007  01B6  1283               	bcf	3,5	;RP0=0, select bank0
  1008  01B7  1303               	bcf	3,6	;RP1=0, select bank0
  1009  01B8  00A9               	movwf	___xxtofl@val+1
  1010  01B9  01AA               	clrf	___xxtofl@val+2
  1011  01BA  01AB               	clrf	___xxtofl@val+3
  1012  01BB  3000               	movlw	0
  1013  01BC  120A  158A  267B  120A  118A  	fcall	___xxtofl
  1014  01C1  1283               	bcf	3,5	;RP0=0, select bank0
  1015  01C2  1303               	bcf	3,6	;RP1=0, select bank0
  1016  01C3  082B               	movf	?___xxtofl+3,w
  1017  01C4  00BD               	movwf	___fldiv@b+3
  1018  01C5  082A               	movf	?___xxtofl+2,w
  1019  01C6  00BC               	movwf	___fldiv@b+2
  1020  01C7  0829               	movf	?___xxtofl+1,w
  1021  01C8  00BB               	movwf	___fldiv@b+1
  1022  01C9  0828               	movf	?___xxtofl,w
  1023  01CA  00BA               	movwf	___fldiv@b
  1024  01CB  3042               	movlw	66
  1025  01CC  00B9               	movwf	___fldiv@a+3
  1026  01CD  30C8               	movlw	200
  1027  01CE  00B8               	movwf	___fldiv@a+2
  1028  01CF  3000               	movlw	0
  1029  01D0  00B7               	movwf	___fldiv@a+1
  1030  01D1  3000               	movlw	0
  1031  01D2  00B6               	movwf	___fldiv@a
  1032  01D3  120A  118A  22B8  120A  118A  	fcall	___fldiv
  1033  01D8  1283               	bcf	3,5	;RP0=0, select bank0
  1034  01D9  1303               	bcf	3,6	;RP1=0, select bank0
  1035  01DA  0839               	movf	?___fldiv+3,w
  1036  01DB  00D7               	movwf	___flmul@a+3
  1037  01DC  0838               	movf	?___fldiv+2,w
  1038  01DD  00D6               	movwf	___flmul@a+2
  1039  01DE  0837               	movf	?___fldiv+1,w
  1040  01DF  00D5               	movwf	___flmul@a+1
  1041  01E0  0836               	movf	?___fldiv,w
  1042  01E1  00D4               	movwf	___flmul@a
  1043  01E2  3044               	movlw	68
  1044  01E3  00D3               	movwf	___flmul@b+3
  1045  01E4  307F               	movlw	127
  1046  01E5  00D2               	movwf	___flmul@b+2
  1047  01E6  30C0               	movlw	192
  1048  01E7  00D1               	movwf	___flmul@b+1
  1049  01E8  3000               	movlw	0
  1050  01E9  00D0               	movwf	___flmul@b
  1051  01EA  120A  118A  2495  120A  118A  	fcall	___flmul
  1052  01EF  1283               	bcf	3,5	;RP0=0, select bank0
  1053  01F0  1303               	bcf	3,6	;RP1=0, select bank0
  1054  01F1  0853               	movf	?___flmul+3,w
  1055  01F2  00ED               	movwf	___fltol@f1+3
  1056  01F3  0852               	movf	?___flmul+2,w
  1057  01F4  00EC               	movwf	___fltol@f1+2
  1058  01F5  0851               	movf	?___flmul+1,w
  1059  01F6  00EB               	movwf	___fltol@f1+1
  1060  01F7  0850               	movf	?___flmul,w
  1061  01F8  00EA               	movwf	___fltol@f1
  1062  01F9  120A  158A  25E7  120A  118A  	fcall	___fltol
  1063  01FE  1283               	bcf	3,5	;RP0=0, select bank0
  1064  01FF  1303               	bcf	3,6	;RP1=0, select bank0
  1065  0200  086B               	movf	?___fltol+1,w
  1066  0201  1683               	bsf	3,5	;RP0=1, select bank1
  1067  0202  1303               	bcf	3,6	;RP1=0, select bank1
  1068  0203  00AD               	movwf	(PWM2_Set_Duty@duty+1)^(0+128)
  1069  0204  1283               	bcf	3,5	;RP0=0, select bank0
  1070  0205  1303               	bcf	3,6	;RP1=0, select bank0
  1071  0206  086A               	movf	?___fltol,w
  1072  0207  1683               	bsf	3,5	;RP0=1, select bank1
  1073  0208  1303               	bcf	3,6	;RP1=0, select bank1
  1074  0209  00AC               	movwf	PWM2_Set_Duty@duty^(0+128)
  1075  020A                     l1714:
  1076                           
  1077                           ;pwm.c: 70:   if(duty<1024)
  1078  020A  3004               	movlw	4
  1079  020B  022D               	subwf	(PWM2_Set_Duty@duty+1)^(0+128),w
  1080  020C  3000               	movlw	0
  1081  020D  1903               	skipnz
  1082  020E  022C               	subwf	PWM2_Set_Duty@duty^(0+128),w
  1083  020F  1803               	skipnc
  1084  0210  2A12               	goto	u2341
  1085  0211  2A13               	goto	u2340
  1086  0212                     u2341:
  1087  0212  2AB7               	goto	l104
  1088  0213                     u2340:
  1089  0213                     l1716:
  1090                           
  1091                           ;pwm.c: 71:   {;pwm.c: 72:     duty = ((float)duty/1023)*PWM2_Max_Duty();
  1092  0213  082C               	movf	PWM2_Set_Duty@duty^(0+128),w
  1093  0214  1283               	bcf	3,5	;RP0=0, select bank0
  1094  0215  1303               	bcf	3,6	;RP1=0, select bank0
  1095  0216  00A8               	movwf	___xxtofl@val
  1096  0217  1683               	bsf	3,5	;RP0=1, select bank1
  1097  0218  1303               	bcf	3,6	;RP1=0, select bank1
  1098  0219  082D               	movf	(PWM2_Set_Duty@duty+1)^(0+128),w
  1099  021A  1283               	bcf	3,5	;RP0=0, select bank0
  1100  021B  1303               	bcf	3,6	;RP1=0, select bank0
  1101  021C  00A9               	movwf	___xxtofl@val+1
  1102  021D  01AA               	clrf	___xxtofl@val+2
  1103  021E  01AB               	clrf	___xxtofl@val+3
  1104  021F  3000               	movlw	0
  1105  0220  120A  158A  267B  120A  118A  	fcall	___xxtofl
  1106  0225  1283               	bcf	3,5	;RP0=0, select bank0
  1107  0226  1303               	bcf	3,6	;RP1=0, select bank0
  1108  0227  082B               	movf	?___xxtofl+3,w
  1109  0228  00BD               	movwf	___fldiv@b+3
  1110  0229  082A               	movf	?___xxtofl+2,w
  1111  022A  00BC               	movwf	___fldiv@b+2
  1112  022B  0829               	movf	?___xxtofl+1,w
  1113  022C  00BB               	movwf	___fldiv@b+1
  1114  022D  0828               	movf	?___xxtofl,w
  1115  022E  00BA               	movwf	___fldiv@b
  1116  022F  3044               	movlw	68
  1117  0230  00B9               	movwf	___fldiv@a+3
  1118  0231  307F               	movlw	127
  1119  0232  00B8               	movwf	___fldiv@a+2
  1120  0233  30C0               	movlw	192
  1121  0234  00B7               	movwf	___fldiv@a+1
  1122  0235  3000               	movlw	0
  1123  0236  00B6               	movwf	___fldiv@a
  1124  0237  120A  118A  22B8  120A  118A  	fcall	___fldiv
  1125  023C  1283               	bcf	3,5	;RP0=0, select bank0
  1126  023D  1303               	bcf	3,6	;RP1=0, select bank0
  1127  023E  0839               	movf	?___fldiv+3,w
  1128  023F  00D7               	movwf	___flmul@a+3
  1129  0240  0838               	movf	?___fldiv+2,w
  1130  0241  00D6               	movwf	___flmul@a+2
  1131  0242  0837               	movf	?___fldiv+1,w
  1132  0243  00D5               	movwf	___flmul@a+1
  1133  0244  0836               	movf	?___fldiv,w
  1134  0245  00D4               	movwf	___flmul@a
  1135  0246  120A  158A  251A  120A  118A  	fcall	_PWM2_Max_Duty
  1136  024B  1283               	bcf	3,5	;RP0=0, select bank0
  1137  024C  1303               	bcf	3,6	;RP1=0, select bank0
  1138  024D  0826               	movf	?_PWM2_Max_Duty,w
  1139  024E  00A8               	movwf	___xxtofl@val
  1140  024F  0827               	movf	?_PWM2_Max_Duty+1,w
  1141  0250  00A9               	movwf	___xxtofl@val+1
  1142  0251  3000               	movlw	0
  1143  0252  1BA9               	btfsc	___xxtofl@val+1,7
  1144  0253  30FF               	movlw	255
  1145  0254  00AA               	movwf	___xxtofl@val+2
  1146  0255  00AB               	movwf	___xxtofl@val+3
  1147  0256  3001               	movlw	1
  1148  0257  120A  158A  267B  120A  118A  	fcall	___xxtofl
  1149  025C  1283               	bcf	3,5	;RP0=0, select bank0
  1150  025D  1303               	bcf	3,6	;RP1=0, select bank0
  1151  025E  082B               	movf	?___xxtofl+3,w
  1152  025F  00D3               	movwf	___flmul@b+3
  1153  0260  082A               	movf	?___xxtofl+2,w
  1154  0261  00D2               	movwf	___flmul@b+2
  1155  0262  0829               	movf	?___xxtofl+1,w
  1156  0263  00D1               	movwf	___flmul@b+1
  1157  0264  0828               	movf	?___xxtofl,w
  1158  0265  00D0               	movwf	___flmul@b
  1159  0266  120A  118A  2495  120A  118A  	fcall	___flmul
  1160  026B  1283               	bcf	3,5	;RP0=0, select bank0
  1161  026C  1303               	bcf	3,6	;RP1=0, select bank0
  1162  026D  0853               	movf	?___flmul+3,w
  1163  026E  00ED               	movwf	___fltol@f1+3
  1164  026F  0852               	movf	?___flmul+2,w
  1165  0270  00EC               	movwf	___fltol@f1+2
  1166  0271  0851               	movf	?___flmul+1,w
  1167  0272  00EB               	movwf	___fltol@f1+1
  1168  0273  0850               	movf	?___flmul,w
  1169  0274  00EA               	movwf	___fltol@f1
  1170  0275  120A  158A  25E7  120A  118A  	fcall	___fltol
  1171  027A  1283               	bcf	3,5	;RP0=0, select bank0
  1172  027B  1303               	bcf	3,6	;RP1=0, select bank0
  1173  027C  086B               	movf	?___fltol+1,w
  1174  027D  1683               	bsf	3,5	;RP0=1, select bank1
  1175  027E  1303               	bcf	3,6	;RP1=0, select bank1
  1176  027F  00AD               	movwf	(PWM2_Set_Duty@duty+1)^(0+128)
  1177  0280  1283               	bcf	3,5	;RP0=0, select bank0
  1178  0281  1303               	bcf	3,6	;RP1=0, select bank0
  1179  0282  086A               	movf	?___fltol,w
  1180  0283  1683               	bsf	3,5	;RP0=1, select bank1
  1181  0284  1303               	bcf	3,6	;RP1=0, select bank1
  1182  0285  00AC               	movwf	PWM2_Set_Duty@duty^(0+128)
  1183  0286                     l1718:
  1184                           
  1185                           ;pwm.c: 73:     CCP2CONbits.CCP2X = duty & 0x02;
  1186  0286  082C               	movf	PWM2_Set_Duty@duty^(0+128),w
  1187  0287  3902               	andlw	2
  1188  0288  00AE               	movwf	??_PWM2_Set_Duty^(0+128)
  1189  0289  0EAE               	swapf	??_PWM2_Set_Duty^(0+128),f
  1190  028A  0DAE               	rlf	??_PWM2_Set_Duty^(0+128),f
  1191  028B  1283               	bcf	3,5	;RP0=0, select bank0
  1192  028C  1303               	bcf	3,6	;RP1=0, select bank0
  1193  028D  081D               	movf	29,w	;volatile
  1194  028E  1683               	bsf	3,5	;RP0=1, select bank1
  1195  028F  1303               	bcf	3,6	;RP1=0, select bank1
  1196  0290  062E               	xorwf	??_PWM2_Set_Duty^(0+128),w
  1197  0291  39DF               	andlw	-33
  1198  0292  062E               	xorwf	??_PWM2_Set_Duty^(0+128),w
  1199  0293  1283               	bcf	3,5	;RP0=0, select bank0
  1200  0294  1303               	bcf	3,6	;RP1=0, select bank0
  1201  0295  009D               	movwf	29	;volatile
  1202  0296                     l1720:
  1203                           
  1204                           ;pwm.c: 74:     CCP2CONbits.CCP2Y = duty & 0x01;
  1205  0296  1683               	bsf	3,5	;RP0=1, select bank1
  1206  0297  1303               	bcf	3,6	;RP1=0, select bank1
  1207  0298  082C               	movf	PWM2_Set_Duty@duty^(0+128),w
  1208  0299  3901               	andlw	1
  1209  029A  00AE               	movwf	??_PWM2_Set_Duty^(0+128)
  1210  029B  0EAE               	swapf	??_PWM2_Set_Duty^(0+128),f
  1211  029C  1283               	bcf	3,5	;RP0=0, select bank0
  1212  029D  1303               	bcf	3,6	;RP1=0, select bank0
  1213  029E  081D               	movf	29,w	;volatile
  1214  029F  1683               	bsf	3,5	;RP0=1, select bank1
  1215  02A0  1303               	bcf	3,6	;RP1=0, select bank1
  1216  02A1  062E               	xorwf	??_PWM2_Set_Duty^(0+128),w
  1217  02A2  39EF               	andlw	-17
  1218  02A3  062E               	xorwf	??_PWM2_Set_Duty^(0+128),w
  1219  02A4  1283               	bcf	3,5	;RP0=0, select bank0
  1220  02A5  1303               	bcf	3,6	;RP1=0, select bank0
  1221  02A6  009D               	movwf	29	;volatile
  1222  02A7                     l1722:
  1223                           
  1224                           ;pwm.c: 75:     CCPR2L = duty>>0x02;
  1225  02A7  1683               	bsf	3,5	;RP0=1, select bank1
  1226  02A8  1303               	bcf	3,6	;RP1=0, select bank1
  1227  02A9  082D               	movf	(PWM2_Set_Duty@duty+1)^(0+128),w
  1228  02AA  00AF               	movwf	(??_PWM2_Set_Duty^(0+128)+1)
  1229  02AB  082C               	movf	PWM2_Set_Duty@duty^(0+128),w
  1230  02AC  00AE               	movwf	??_PWM2_Set_Duty^(0+128)
  1231  02AD  1003               	clrc
  1232  02AE  0CAF               	rrf	(??_PWM2_Set_Duty^(0+128)+1),f
  1233  02AF  0CAE               	rrf	??_PWM2_Set_Duty^(0+128),f
  1234  02B0  1003               	clrc
  1235  02B1  0CAF               	rrf	(??_PWM2_Set_Duty^(0+128)+1),f
  1236  02B2  0CAE               	rrf	??_PWM2_Set_Duty^(0+128),f
  1237  02B3  082E               	movf	??_PWM2_Set_Duty^(0+128),w
  1238  02B4  1283               	bcf	3,5	;RP0=0, select bank0
  1239  02B5  1303               	bcf	3,6	;RP1=0, select bank0
  1240  02B6  009B               	movwf	27	;volatile
  1241  02B7                     l104:
  1242  02B7  0008               	return
  1243  02B8                     __end_of_PWM2_Set_Duty:
  1244                           
  1245                           	psect	text3
  1246  0D1A                     __ptext3:	
  1247 ;; *************** function _PWM2_Max_Duty *****************
  1248 ;; Defined at:
  1249 ;;		line 8 in file "pwm.c"
  1250 ;; Parameters:    Size  Location     Type
  1251 ;;		None
  1252 ;; Auto vars:     Size  Location     Type
  1253 ;;		None
  1254 ;; Return value:  Size  Location     Type
  1255 ;;                  2    6[BANK0 ] int 
  1256 ;; Registers used:
  1257 ;;		wreg, status,2, status,0, btemp+1, pclath, cstack
  1258 ;; Tracked objects:
  1259 ;;		On entry : 0/0
  1260 ;;		On exit  : 0/0
  1261 ;;		Unchanged: 0/0
  1262 ;; Data sizes:     COMMON   BANK0   BANK1   BANK3   BANK2
  1263 ;;      Params:         0       2       0       0       0
  1264 ;;      Locals:         0       0       0       0       0
  1265 ;;      Temps:          4       0       0       0       0
  1266 ;;      Totals:         4       2       0       0       0
  1267 ;;Total ram usage:        6 bytes
  1268 ;; Hardware stack levels used:    1
  1269 ;; Hardware stack levels required when called:    1
  1270 ;; This function calls:
  1271 ;;		___aldiv
  1272 ;; This function is called by:
  1273 ;;		_PWM2_Set_Duty
  1274 ;; This function uses a non-reentrant model
  1275 ;;
  1276                           
  1277                           
  1278                           ;psect for function _PWM2_Max_Duty
  1279  0D1A                     _PWM2_Max_Duty:
  1280  0D1A                     l1312:	
  1281                           ;incstack = 0
  1282                           ; Regs used in _PWM2_Max_Duty: [wreg+status,2+status,0+btemp+1+pclath+cstack]
  1283                           
  1284                           
  1285                           ;pwm.c: 10:   return(8000000/(frequency2*4));
  1286  0D1A  1683               	bsf	3,5	;RP0=1, select bank1
  1287  0D1B  1303               	bcf	3,6	;RP1=0, select bank1
  1288  0D1C  0820               	movf	_frequency2^(0+128),w
  1289  0D1D  00F9               	movwf	??_PWM2_Max_Duty
  1290  0D1E  0821               	movf	(_frequency2+1)^(0+128),w
  1291  0D1F  00FA               	movwf	??_PWM2_Max_Duty+1
  1292  0D20  0822               	movf	(_frequency2+2)^(0+128),w
  1293  0D21  00FB               	movwf	??_PWM2_Max_Duty+2
  1294  0D22  0823               	movf	(_frequency2+3)^(0+128),w
  1295  0D23  00FC               	movwf	??_PWM2_Max_Duty+3
  1296  0D24  3002               	movlw	2
  1297  0D25                     u1385:
  1298  0D25  1003               	clrc
  1299  0D26  0DF9               	rlf	??_PWM2_Max_Duty,f
  1300  0D27  0DFA               	rlf	??_PWM2_Max_Duty+1,f
  1301  0D28  0DFB               	rlf	??_PWM2_Max_Duty+2,f
  1302  0D29  0DFC               	rlf	??_PWM2_Max_Duty+3,f
  1303  0D2A                     u1380:
  1304  0D2A  3EFF               	addlw	-1
  1305  0D2B  1D03               	skipz
  1306  0D2C  2D25               	goto	u1385
  1307  0D2D  087C               	movf	??_PWM2_Max_Duty+3,w
  1308  0D2E  00F3               	movwf	___aldiv@divisor+3
  1309  0D2F  087B               	movf	??_PWM2_Max_Duty+2,w
  1310  0D30  00F2               	movwf	___aldiv@divisor+2
  1311  0D31  087A               	movf	??_PWM2_Max_Duty+1,w
  1312  0D32  00F1               	movwf	___aldiv@divisor+1
  1313  0D33  0879               	movf	??_PWM2_Max_Duty,w
  1314  0D34  00F0               	movwf	___aldiv@divisor
  1315  0D35  3000               	movlw	0
  1316  0D36  00F7               	movwf	___aldiv@dividend+3
  1317  0D37  307A               	movlw	122
  1318  0D38  00F6               	movwf	___aldiv@dividend+2
  1319  0D39  3012               	movlw	18
  1320  0D3A  00F5               	movwf	___aldiv@dividend+1
  1321  0D3B  3000               	movlw	0
  1322  0D3C  00F4               	movwf	___aldiv@dividend
  1323  0D3D  120A  118A  2005  120A  158A  	fcall	___aldiv
  1324  0D42  0871               	movf	?___aldiv+1,w
  1325  0D43  1283               	bcf	3,5	;RP0=0, select bank0
  1326  0D44  1303               	bcf	3,6	;RP1=0, select bank0
  1327  0D45  00A7               	movwf	?_PWM2_Max_Duty+1
  1328  0D46  0870               	movf	?___aldiv,w
  1329  0D47  00A6               	movwf	?_PWM2_Max_Duty
  1330  0D48                     l90:
  1331  0D48  0008               	return
  1332  0D49                     __end_of_PWM2_Max_Duty:
  1333                           
  1334                           	psect	text4
  1335  0D98                     __ptext4:	
  1336 ;; *************** function _PWM2_Init *****************
  1337 ;; Defined at:
  1338 ;;		line 20 in file "pwm.c"
  1339 ;; Parameters:    Size  Location     Type
  1340 ;;  freq            4    6[BANK0 ] long 
  1341 ;; Auto vars:     Size  Location     Type
  1342 ;;		None
  1343 ;; Return value:  Size  Location     Type
  1344 ;;                  1    wreg      void 
  1345 ;; Registers used:
  1346 ;;		wreg, status,2, status,0, btemp+1, pclath, cstack
  1347 ;; Tracked objects:
  1348 ;;		On entry : 0/0
  1349 ;;		On exit  : 0/0
  1350 ;;		Unchanged: 0/0
  1351 ;; Data sizes:     COMMON   BANK0   BANK1   BANK3   BANK2
  1352 ;;      Params:         0       4       0       0       0
  1353 ;;      Locals:         0       0       0       0       0
  1354 ;;      Temps:          4       0       0       0       0
  1355 ;;      Totals:         4       4       0       0       0
  1356 ;;Total ram usage:        8 bytes
  1357 ;; Hardware stack levels used:    1
  1358 ;; Hardware stack levels required when called:    1
  1359 ;; This function calls:
  1360 ;;		___aldiv
  1361 ;; This function is called by:
  1362 ;;		_main
  1363 ;; This function uses a non-reentrant model
  1364 ;;
  1365                           
  1366                           
  1367                           ;psect for function _PWM2_Init
  1368  0D98                     _PWM2_Init:
  1369  0D98                     l1694:	
  1370                           ;incstack = 0
  1371                           ; Regs used in _PWM2_Init: [wreg+status,2+status,0+btemp+1+pclath+cstack]
  1372                           
  1373                           
  1374                           ;pwm.c: 20: void PWM2_Init(long freq);pwm.c: 21: {;pwm.c: 22:   PR2 = (8000000/(freq*4*4
      +                          )) - 1;
  1375  0D98  1283               	bcf	3,5	;RP0=0, select bank0
  1376  0D99  1303               	bcf	3,6	;RP1=0, select bank0
  1377  0D9A  0826               	movf	PWM2_Init@freq,w
  1378  0D9B  00F9               	movwf	??_PWM2_Init
  1379  0D9C  0827               	movf	PWM2_Init@freq+1,w
  1380  0D9D  00FA               	movwf	??_PWM2_Init+1
  1381  0D9E  0828               	movf	PWM2_Init@freq+2,w
  1382  0D9F  00FB               	movwf	??_PWM2_Init+2
  1383  0DA0  0829               	movf	PWM2_Init@freq+3,w
  1384  0DA1  00FC               	movwf	??_PWM2_Init+3
  1385  0DA2  3002               	movlw	2
  1386  0DA3                     u2315:
  1387  0DA3  1003               	clrc
  1388  0DA4  0DF9               	rlf	??_PWM2_Init,f
  1389  0DA5  0DFA               	rlf	??_PWM2_Init+1,f
  1390  0DA6  0DFB               	rlf	??_PWM2_Init+2,f
  1391  0DA7  0DFC               	rlf	??_PWM2_Init+3,f
  1392  0DA8                     u2310:
  1393  0DA8  3EFF               	addlw	-1
  1394  0DA9  1D03               	skipz
  1395  0DAA  2DA3               	goto	u2315
  1396  0DAB  3002               	movlw	2
  1397  0DAC                     u2325:
  1398  0DAC  1003               	clrc
  1399  0DAD  0DF9               	rlf	??_PWM2_Init,f
  1400  0DAE  0DFA               	rlf	??_PWM2_Init+1,f
  1401  0DAF  0DFB               	rlf	??_PWM2_Init+2,f
  1402  0DB0  0DFC               	rlf	??_PWM2_Init+3,f
  1403  0DB1                     u2320:
  1404  0DB1  3EFF               	addlw	-1
  1405  0DB2  1D03               	skipz
  1406  0DB3  2DAC               	goto	u2325
  1407  0DB4  087C               	movf	??_PWM2_Init+3,w
  1408  0DB5  00F3               	movwf	___aldiv@divisor+3
  1409  0DB6  087B               	movf	??_PWM2_Init+2,w
  1410  0DB7  00F2               	movwf	___aldiv@divisor+2
  1411  0DB8  087A               	movf	??_PWM2_Init+1,w
  1412  0DB9  00F1               	movwf	___aldiv@divisor+1
  1413  0DBA  0879               	movf	??_PWM2_Init,w
  1414  0DBB  00F0               	movwf	___aldiv@divisor
  1415  0DBC  3000               	movlw	0
  1416  0DBD  00F7               	movwf	___aldiv@dividend+3
  1417  0DBE  307A               	movlw	122
  1418  0DBF  00F6               	movwf	___aldiv@dividend+2
  1419  0DC0  3012               	movlw	18
  1420  0DC1  00F5               	movwf	___aldiv@dividend+1
  1421  0DC2  3000               	movlw	0
  1422  0DC3  00F4               	movwf	___aldiv@dividend
  1423  0DC4  120A  118A  2005  120A  158A  	fcall	___aldiv
  1424  0DC9  0870               	movf	?___aldiv,w
  1425  0DCA  3EFF               	addlw	255
  1426  0DCB  1683               	bsf	3,5	;RP0=1, select bank1
  1427  0DCC  1303               	bcf	3,6	;RP1=0, select bank1
  1428  0DCD  0092               	movwf	18	;volatile
  1429  0DCE                     l1696:
  1430                           
  1431                           ;pwm.c: 24:   frequency2 = freq;
  1432  0DCE  1283               	bcf	3,5	;RP0=0, select bank0
  1433  0DCF  1303               	bcf	3,6	;RP1=0, select bank0
  1434  0DD0  0829               	movf	PWM2_Init@freq+3,w
  1435  0DD1  1683               	bsf	3,5	;RP0=1, select bank1
  1436  0DD2  1303               	bcf	3,6	;RP1=0, select bank1
  1437  0DD3  00A3               	movwf	(_frequency2+3)^(0+128)
  1438  0DD4  1283               	bcf	3,5	;RP0=0, select bank0
  1439  0DD5  1303               	bcf	3,6	;RP1=0, select bank0
  1440  0DD6  0828               	movf	PWM2_Init@freq+2,w
  1441  0DD7  1683               	bsf	3,5	;RP0=1, select bank1
  1442  0DD8  1303               	bcf	3,6	;RP1=0, select bank1
  1443  0DD9  00A2               	movwf	(_frequency2+2)^(0+128)
  1444  0DDA  1283               	bcf	3,5	;RP0=0, select bank0
  1445  0DDB  1303               	bcf	3,6	;RP1=0, select bank0
  1446  0DDC  0827               	movf	PWM2_Init@freq+1,w
  1447  0DDD  1683               	bsf	3,5	;RP0=1, select bank1
  1448  0DDE  1303               	bcf	3,6	;RP1=0, select bank1
  1449  0DDF  00A1               	movwf	(_frequency2+1)^(0+128)
  1450  0DE0  1283               	bcf	3,5	;RP0=0, select bank0
  1451  0DE1  1303               	bcf	3,6	;RP1=0, select bank0
  1452  0DE2  0826               	movf	PWM2_Init@freq,w
  1453  0DE3  1683               	bsf	3,5	;RP0=1, select bank1
  1454  0DE4  1303               	bcf	3,6	;RP1=0, select bank1
  1455  0DE5  00A0               	movwf	_frequency2^(0+128)
  1456  0DE6                     l96:
  1457  0DE6  0008               	return
  1458  0DE7                     __end_of_PWM2_Init:
  1459                           
  1460                           	psect	text5
  1461  0CAE                     __ptext5:	
  1462 ;; *************** function _PWM1_Start *****************
  1463 ;; Defined at:
  1464 ;;		line 80 in file "pwm.c"
  1465 ;; Parameters:    Size  Location     Type
  1466 ;;		None
  1467 ;; Auto vars:     Size  Location     Type
  1468 ;;		None
  1469 ;; Return value:  Size  Location     Type
  1470 ;;                  1    wreg      void 
  1471 ;; Registers used:
  1472 ;;		None
  1473 ;; Tracked objects:
  1474 ;;		On entry : 0/0
  1475 ;;		On exit  : 0/0
  1476 ;;		Unchanged: 0/0
  1477 ;; Data sizes:     COMMON   BANK0   BANK1   BANK3   BANK2
  1478 ;;      Params:         0       0       0       0       0
  1479 ;;      Locals:         0       0       0       0       0
  1480 ;;      Temps:          0       0       0       0       0
  1481 ;;      Totals:         0       0       0       0       0
  1482 ;;Total ram usage:        0 bytes
  1483 ;; Hardware stack levels used:    1
  1484 ;; This function calls:
  1485 ;;		Nothing
  1486 ;; This function is called by:
  1487 ;;		_main
  1488 ;; This function uses a non-reentrant model
  1489 ;;
  1490                           
  1491                           
  1492                           ;psect for function _PWM1_Start
  1493  0CAE                     _PWM1_Start:
  1494  0CAE                     l1692:	
  1495                           ;incstack = 0
  1496                           ; Regs used in _PWM1_Start: []
  1497                           
  1498                           
  1499                           ;pwm.c: 82:   CCP1M3 = 1;
  1500  0CAE  1283               	bcf	3,5	;RP0=0, select bank0
  1501  0CAF  1303               	bcf	3,6	;RP1=0, select bank0
  1502  0CB0  1597               	bsf	23,3	;volatile
  1503                           
  1504                           ;pwm.c: 83:   CCP1M2 = 1;
  1505  0CB1  1517               	bsf	23,2	;volatile
  1506                           
  1507                           ;pwm.c: 90:     T2CONbits.T2CKPS0 = 1;
  1508  0CB2  1412               	bsf	18,0	;volatile
  1509                           
  1510                           ;pwm.c: 91:     T2CONbits.T2CKPS1 = 0;
  1511  0CB3  1092               	bcf	18,1	;volatile
  1512                           
  1513                           ;pwm.c: 97:   TMR2ON = 1;
  1514  0CB4  1512               	bsf	18,2	;volatile
  1515                           
  1516                           ;pwm.c: 98:   TRISC2 = 0;
  1517  0CB5  1683               	bsf	3,5	;RP0=1, select bank1
  1518  0CB6  1303               	bcf	3,6	;RP1=0, select bank1
  1519  0CB7  1107               	bcf	7,2	;volatile
  1520  0CB8                     l107:
  1521  0CB8  0008               	return
  1522  0CB9                     __end_of_PWM1_Start:
  1523                           
  1524                           	psect	text6
  1525  00A2                     __ptext6:	
  1526 ;; *************** function _PWM1_Set_Duty *****************
  1527 ;; Defined at:
  1528 ;;		line 54 in file "pwm.c"
  1529 ;; Parameters:    Size  Location     Type
  1530 ;;  duty            2    4[BANK1 ] unsigned int 
  1531 ;; Auto vars:     Size  Location     Type
  1532 ;;		None
  1533 ;; Return value:  Size  Location     Type
  1534 ;;                  1    wreg      void 
  1535 ;; Registers used:
  1536 ;;		wreg, status,2, status,0, btemp+1, pclath, cstack
  1537 ;; Tracked objects:
  1538 ;;		On entry : 0/0
  1539 ;;		On exit  : 0/0
  1540 ;;		Unchanged: 0/0
  1541 ;; Data sizes:     COMMON   BANK0   BANK1   BANK3   BANK2
  1542 ;;      Params:         0       0       2       0       0
  1543 ;;      Locals:         0       0       0       0       0
  1544 ;;      Temps:          0       0       2       0       0
  1545 ;;      Totals:         0       0       4       0       0
  1546 ;;Total ram usage:        4 bytes
  1547 ;; Hardware stack levels used:    1
  1548 ;; Hardware stack levels required when called:    2
  1549 ;; This function calls:
  1550 ;;		_PWM1_Max_Duty
  1551 ;;		___fldiv
  1552 ;;		___flmul
  1553 ;;		___fltol
  1554 ;;		___xxtofl
  1555 ;; This function is called by:
  1556 ;;		_main
  1557 ;; This function uses a non-reentrant model
  1558 ;;
  1559                           
  1560                           
  1561                           ;psect for function _PWM1_Set_Duty
  1562  00A2                     _PWM1_Set_Duty:
  1563  00A2                     l1700:	
  1564                           ;incstack = 0
  1565                           ; Regs used in _PWM1_Set_Duty: [wreg+status,2+status,0+btemp+1+pclath+cstack]
  1566                           
  1567                           
  1568                           ;pwm.c: 54: void PWM1_Set_Duty(unsigned int duty);pwm.c: 55: {;pwm.c: 56:     duty = ((f
      +                          loat)duty/100) * 1023;
  1569  00A2  1683               	bsf	3,5	;RP0=1, select bank1
  1570  00A3  1303               	bcf	3,6	;RP1=0, select bank1
  1571  00A4  082C               	movf	PWM1_Set_Duty@duty^(0+128),w
  1572  00A5  1283               	bcf	3,5	;RP0=0, select bank0
  1573  00A6  1303               	bcf	3,6	;RP1=0, select bank0
  1574  00A7  00A8               	movwf	___xxtofl@val
  1575  00A8  1683               	bsf	3,5	;RP0=1, select bank1
  1576  00A9  1303               	bcf	3,6	;RP1=0, select bank1
  1577  00AA  082D               	movf	(PWM1_Set_Duty@duty+1)^(0+128),w
  1578  00AB  1283               	bcf	3,5	;RP0=0, select bank0
  1579  00AC  1303               	bcf	3,6	;RP1=0, select bank0
  1580  00AD  00A9               	movwf	___xxtofl@val+1
  1581  00AE  01AA               	clrf	___xxtofl@val+2
  1582  00AF  01AB               	clrf	___xxtofl@val+3
  1583  00B0  3000               	movlw	0
  1584  00B1  120A  158A  267B  120A  118A  	fcall	___xxtofl
  1585  00B6  1283               	bcf	3,5	;RP0=0, select bank0
  1586  00B7  1303               	bcf	3,6	;RP1=0, select bank0
  1587  00B8  082B               	movf	?___xxtofl+3,w
  1588  00B9  00BD               	movwf	___fldiv@b+3
  1589  00BA  082A               	movf	?___xxtofl+2,w
  1590  00BB  00BC               	movwf	___fldiv@b+2
  1591  00BC  0829               	movf	?___xxtofl+1,w
  1592  00BD  00BB               	movwf	___fldiv@b+1
  1593  00BE  0828               	movf	?___xxtofl,w
  1594  00BF  00BA               	movwf	___fldiv@b
  1595  00C0  3042               	movlw	66
  1596  00C1  00B9               	movwf	___fldiv@a+3
  1597  00C2  30C8               	movlw	200
  1598  00C3  00B8               	movwf	___fldiv@a+2
  1599  00C4  3000               	movlw	0
  1600  00C5  00B7               	movwf	___fldiv@a+1
  1601  00C6  3000               	movlw	0
  1602  00C7  00B6               	movwf	___fldiv@a
  1603  00C8  120A  118A  22B8  120A  118A  	fcall	___fldiv
  1604  00CD  1283               	bcf	3,5	;RP0=0, select bank0
  1605  00CE  1303               	bcf	3,6	;RP1=0, select bank0
  1606  00CF  0839               	movf	?___fldiv+3,w
  1607  00D0  00D7               	movwf	___flmul@a+3
  1608  00D1  0838               	movf	?___fldiv+2,w
  1609  00D2  00D6               	movwf	___flmul@a+2
  1610  00D3  0837               	movf	?___fldiv+1,w
  1611  00D4  00D5               	movwf	___flmul@a+1
  1612  00D5  0836               	movf	?___fldiv,w
  1613  00D6  00D4               	movwf	___flmul@a
  1614  00D7  3044               	movlw	68
  1615  00D8  00D3               	movwf	___flmul@b+3
  1616  00D9  307F               	movlw	127
  1617  00DA  00D2               	movwf	___flmul@b+2
  1618  00DB  30C0               	movlw	192
  1619  00DC  00D1               	movwf	___flmul@b+1
  1620  00DD  3000               	movlw	0
  1621  00DE  00D0               	movwf	___flmul@b
  1622  00DF  120A  118A  2495  120A  118A  	fcall	___flmul
  1623  00E4  1283               	bcf	3,5	;RP0=0, select bank0
  1624  00E5  1303               	bcf	3,6	;RP1=0, select bank0
  1625  00E6  0853               	movf	?___flmul+3,w
  1626  00E7  00ED               	movwf	___fltol@f1+3
  1627  00E8  0852               	movf	?___flmul+2,w
  1628  00E9  00EC               	movwf	___fltol@f1+2
  1629  00EA  0851               	movf	?___flmul+1,w
  1630  00EB  00EB               	movwf	___fltol@f1+1
  1631  00EC  0850               	movf	?___flmul,w
  1632  00ED  00EA               	movwf	___fltol@f1
  1633  00EE  120A  158A  25E7  120A  118A  	fcall	___fltol
  1634  00F3  1283               	bcf	3,5	;RP0=0, select bank0
  1635  00F4  1303               	bcf	3,6	;RP1=0, select bank0
  1636  00F5  086B               	movf	?___fltol+1,w
  1637  00F6  1683               	bsf	3,5	;RP0=1, select bank1
  1638  00F7  1303               	bcf	3,6	;RP1=0, select bank1
  1639  00F8  00AD               	movwf	(PWM1_Set_Duty@duty+1)^(0+128)
  1640  00F9  1283               	bcf	3,5	;RP0=0, select bank0
  1641  00FA  1303               	bcf	3,6	;RP1=0, select bank0
  1642  00FB  086A               	movf	?___fltol,w
  1643  00FC  1683               	bsf	3,5	;RP0=1, select bank1
  1644  00FD  1303               	bcf	3,6	;RP1=0, select bank1
  1645  00FE  00AC               	movwf	PWM1_Set_Duty@duty^(0+128)
  1646  00FF                     l1702:
  1647                           
  1648                           ;pwm.c: 57:   if(duty<1024)
  1649  00FF  3004               	movlw	4
  1650  0100  022D               	subwf	(PWM1_Set_Duty@duty+1)^(0+128),w
  1651  0101  3000               	movlw	0
  1652  0102  1903               	skipnz
  1653  0103  022C               	subwf	PWM1_Set_Duty@duty^(0+128),w
  1654  0104  1803               	skipnc
  1655  0105  2907               	goto	u2331
  1656  0106  2908               	goto	u2330
  1657  0107                     u2331:
  1658  0107  29AC               	goto	l100
  1659  0108                     u2330:
  1660  0108                     l1704:
  1661                           
  1662                           ;pwm.c: 58:   {;pwm.c: 59:     duty = ((float)duty/1023)*PWM1_Max_Duty();
  1663  0108  082C               	movf	PWM1_Set_Duty@duty^(0+128),w
  1664  0109  1283               	bcf	3,5	;RP0=0, select bank0
  1665  010A  1303               	bcf	3,6	;RP1=0, select bank0
  1666  010B  00A8               	movwf	___xxtofl@val
  1667  010C  1683               	bsf	3,5	;RP0=1, select bank1
  1668  010D  1303               	bcf	3,6	;RP1=0, select bank1
  1669  010E  082D               	movf	(PWM1_Set_Duty@duty+1)^(0+128),w
  1670  010F  1283               	bcf	3,5	;RP0=0, select bank0
  1671  0110  1303               	bcf	3,6	;RP1=0, select bank0
  1672  0111  00A9               	movwf	___xxtofl@val+1
  1673  0112  01AA               	clrf	___xxtofl@val+2
  1674  0113  01AB               	clrf	___xxtofl@val+3
  1675  0114  3000               	movlw	0
  1676  0115  120A  158A  267B  120A  118A  	fcall	___xxtofl
  1677  011A  1283               	bcf	3,5	;RP0=0, select bank0
  1678  011B  1303               	bcf	3,6	;RP1=0, select bank0
  1679  011C  082B               	movf	?___xxtofl+3,w
  1680  011D  00BD               	movwf	___fldiv@b+3
  1681  011E  082A               	movf	?___xxtofl+2,w
  1682  011F  00BC               	movwf	___fldiv@b+2
  1683  0120  0829               	movf	?___xxtofl+1,w
  1684  0121  00BB               	movwf	___fldiv@b+1
  1685  0122  0828               	movf	?___xxtofl,w
  1686  0123  00BA               	movwf	___fldiv@b
  1687  0124  3044               	movlw	68
  1688  0125  00B9               	movwf	___fldiv@a+3
  1689  0126  307F               	movlw	127
  1690  0127  00B8               	movwf	___fldiv@a+2
  1691  0128  30C0               	movlw	192
  1692  0129  00B7               	movwf	___fldiv@a+1
  1693  012A  3000               	movlw	0
  1694  012B  00B6               	movwf	___fldiv@a
  1695  012C  120A  118A  22B8  120A  118A  	fcall	___fldiv
  1696  0131  1283               	bcf	3,5	;RP0=0, select bank0
  1697  0132  1303               	bcf	3,6	;RP1=0, select bank0
  1698  0133  0839               	movf	?___fldiv+3,w
  1699  0134  00D7               	movwf	___flmul@a+3
  1700  0135  0838               	movf	?___fldiv+2,w
  1701  0136  00D6               	movwf	___flmul@a+2
  1702  0137  0837               	movf	?___fldiv+1,w
  1703  0138  00D5               	movwf	___flmul@a+1
  1704  0139  0836               	movf	?___fldiv,w
  1705  013A  00D4               	movwf	___flmul@a
  1706  013B  120A  158A  24EB  120A  118A  	fcall	_PWM1_Max_Duty
  1707  0140  1283               	bcf	3,5	;RP0=0, select bank0
  1708  0141  1303               	bcf	3,6	;RP1=0, select bank0
  1709  0142  0826               	movf	?_PWM1_Max_Duty,w
  1710  0143  00A8               	movwf	___xxtofl@val
  1711  0144  0827               	movf	?_PWM1_Max_Duty+1,w
  1712  0145  00A9               	movwf	___xxtofl@val+1
  1713  0146  3000               	movlw	0
  1714  0147  1BA9               	btfsc	___xxtofl@val+1,7
  1715  0148  30FF               	movlw	255
  1716  0149  00AA               	movwf	___xxtofl@val+2
  1717  014A  00AB               	movwf	___xxtofl@val+3
  1718  014B  3001               	movlw	1
  1719  014C  120A  158A  267B  120A  118A  	fcall	___xxtofl
  1720  0151  1283               	bcf	3,5	;RP0=0, select bank0
  1721  0152  1303               	bcf	3,6	;RP1=0, select bank0
  1722  0153  082B               	movf	?___xxtofl+3,w
  1723  0154  00D3               	movwf	___flmul@b+3
  1724  0155  082A               	movf	?___xxtofl+2,w
  1725  0156  00D2               	movwf	___flmul@b+2
  1726  0157  0829               	movf	?___xxtofl+1,w
  1727  0158  00D1               	movwf	___flmul@b+1
  1728  0159  0828               	movf	?___xxtofl,w
  1729  015A  00D0               	movwf	___flmul@b
  1730  015B  120A  118A  2495  120A  118A  	fcall	___flmul
  1731  0160  1283               	bcf	3,5	;RP0=0, select bank0
  1732  0161  1303               	bcf	3,6	;RP1=0, select bank0
  1733  0162  0853               	movf	?___flmul+3,w
  1734  0163  00ED               	movwf	___fltol@f1+3
  1735  0164  0852               	movf	?___flmul+2,w
  1736  0165  00EC               	movwf	___fltol@f1+2
  1737  0166  0851               	movf	?___flmul+1,w
  1738  0167  00EB               	movwf	___fltol@f1+1
  1739  0168  0850               	movf	?___flmul,w
  1740  0169  00EA               	movwf	___fltol@f1
  1741  016A  120A  158A  25E7  120A  118A  	fcall	___fltol
  1742  016F  1283               	bcf	3,5	;RP0=0, select bank0
  1743  0170  1303               	bcf	3,6	;RP1=0, select bank0
  1744  0171  086B               	movf	?___fltol+1,w
  1745  0172  1683               	bsf	3,5	;RP0=1, select bank1
  1746  0173  1303               	bcf	3,6	;RP1=0, select bank1
  1747  0174  00AD               	movwf	(PWM1_Set_Duty@duty+1)^(0+128)
  1748  0175  1283               	bcf	3,5	;RP0=0, select bank0
  1749  0176  1303               	bcf	3,6	;RP1=0, select bank0
  1750  0177  086A               	movf	?___fltol,w
  1751  0178  1683               	bsf	3,5	;RP0=1, select bank1
  1752  0179  1303               	bcf	3,6	;RP1=0, select bank1
  1753  017A  00AC               	movwf	PWM1_Set_Duty@duty^(0+128)
  1754  017B                     l1706:
  1755                           
  1756                           ;pwm.c: 60:     CCP1CONbits.CCP1X = duty & 0x02;
  1757  017B  082C               	movf	PWM1_Set_Duty@duty^(0+128),w
  1758  017C  3902               	andlw	2
  1759  017D  00AE               	movwf	??_PWM1_Set_Duty^(0+128)
  1760  017E  0EAE               	swapf	??_PWM1_Set_Duty^(0+128),f
  1761  017F  0DAE               	rlf	??_PWM1_Set_Duty^(0+128),f
  1762  0180  1283               	bcf	3,5	;RP0=0, select bank0
  1763  0181  1303               	bcf	3,6	;RP1=0, select bank0
  1764  0182  0817               	movf	23,w	;volatile
  1765  0183  1683               	bsf	3,5	;RP0=1, select bank1
  1766  0184  1303               	bcf	3,6	;RP1=0, select bank1
  1767  0185  062E               	xorwf	??_PWM1_Set_Duty^(0+128),w
  1768  0186  39DF               	andlw	-33
  1769  0187  062E               	xorwf	??_PWM1_Set_Duty^(0+128),w
  1770  0188  1283               	bcf	3,5	;RP0=0, select bank0
  1771  0189  1303               	bcf	3,6	;RP1=0, select bank0
  1772  018A  0097               	movwf	23	;volatile
  1773  018B                     l1708:
  1774                           
  1775                           ;pwm.c: 61:     CCP1CONbits.CCP1Y = duty & 0x01;
  1776  018B  1683               	bsf	3,5	;RP0=1, select bank1
  1777  018C  1303               	bcf	3,6	;RP1=0, select bank1
  1778  018D  082C               	movf	PWM1_Set_Duty@duty^(0+128),w
  1779  018E  3901               	andlw	1
  1780  018F  00AE               	movwf	??_PWM1_Set_Duty^(0+128)
  1781  0190  0EAE               	swapf	??_PWM1_Set_Duty^(0+128),f
  1782  0191  1283               	bcf	3,5	;RP0=0, select bank0
  1783  0192  1303               	bcf	3,6	;RP1=0, select bank0
  1784  0193  0817               	movf	23,w	;volatile
  1785  0194  1683               	bsf	3,5	;RP0=1, select bank1
  1786  0195  1303               	bcf	3,6	;RP1=0, select bank1
  1787  0196  062E               	xorwf	??_PWM1_Set_Duty^(0+128),w
  1788  0197  39EF               	andlw	-17
  1789  0198  062E               	xorwf	??_PWM1_Set_Duty^(0+128),w
  1790  0199  1283               	bcf	3,5	;RP0=0, select bank0
  1791  019A  1303               	bcf	3,6	;RP1=0, select bank0
  1792  019B  0097               	movwf	23	;volatile
  1793  019C                     l1710:
  1794                           
  1795                           ;pwm.c: 62:     CCPR1L = duty>>0x02;
  1796  019C  1683               	bsf	3,5	;RP0=1, select bank1
  1797  019D  1303               	bcf	3,6	;RP1=0, select bank1
  1798  019E  082D               	movf	(PWM1_Set_Duty@duty+1)^(0+128),w
  1799  019F  00AF               	movwf	(??_PWM1_Set_Duty^(0+128)+1)
  1800  01A0  082C               	movf	PWM1_Set_Duty@duty^(0+128),w
  1801  01A1  00AE               	movwf	??_PWM1_Set_Duty^(0+128)
  1802  01A2  1003               	clrc
  1803  01A3  0CAF               	rrf	(??_PWM1_Set_Duty^(0+128)+1),f
  1804  01A4  0CAE               	rrf	??_PWM1_Set_Duty^(0+128),f
  1805  01A5  1003               	clrc
  1806  01A6  0CAF               	rrf	(??_PWM1_Set_Duty^(0+128)+1),f
  1807  01A7  0CAE               	rrf	??_PWM1_Set_Duty^(0+128),f
  1808  01A8  082E               	movf	??_PWM1_Set_Duty^(0+128),w
  1809  01A9  1283               	bcf	3,5	;RP0=0, select bank0
  1810  01AA  1303               	bcf	3,6	;RP1=0, select bank0
  1811  01AB  0095               	movwf	21	;volatile
  1812  01AC                     l100:
  1813  01AC  0008               	return
  1814  01AD                     __end_of_PWM1_Set_Duty:
  1815                           
  1816                           	psect	text7
  1817  0E7B                     __ptext7:	
  1818 ;; *************** function ___xxtofl *****************
  1819 ;; Defined at:
  1820 ;;		line 10 in file "C:\Program Files\Microchip\xc8\v2.20\pic\sources\c90\common\xxtofl.c"
  1821 ;; Parameters:    Size  Location     Type
  1822 ;;  sign            1    wreg     unsigned char 
  1823 ;;  val             4    8[BANK0 ] long 
  1824 ;; Auto vars:     Size  Location     Type
  1825 ;;  sign            1   16[BANK0 ] unsigned char 
  1826 ;;  arg             4   18[BANK0 ] unsigned long 
  1827 ;;  exp             1   17[BANK0 ] unsigned char 
  1828 ;; Return value:  Size  Location     Type
  1829 ;;                  4    8[BANK0 ] unsigned char 
  1830 ;; Registers used:
  1831 ;;		wreg, status,2, status,0, btemp+1
  1832 ;; Tracked objects:
  1833 ;;		On entry : 0/0
  1834 ;;		On exit  : 0/0
  1835 ;;		Unchanged: 0/0
  1836 ;; Data sizes:     COMMON   BANK0   BANK1   BANK3   BANK2
  1837 ;;      Params:         0       4       0       0       0
  1838 ;;      Locals:         0       6       0       0       0
  1839 ;;      Temps:          0       4       0       0       0
  1840 ;;      Totals:         0      14       0       0       0
  1841 ;;Total ram usage:       14 bytes
  1842 ;; Hardware stack levels used:    1
  1843 ;; This function calls:
  1844 ;;		Nothing
  1845 ;; This function is called by:
  1846 ;;		_PWM1_Set_Duty
  1847 ;;		_PWM2_Set_Duty
  1848 ;; This function uses a non-reentrant model
  1849 ;;
  1850                           
  1851                           
  1852                           ;psect for function ___xxtofl
  1853  0E7B                     ___xxtofl:
  1854                           
  1855                           ;incstack = 0
  1856                           ; Regs used in ___xxtofl: [wreg+status,2+status,0+btemp+1]
  1857                           ;___xxtofl@sign stored from wreg
  1858  0E7B  1283               	bcf	3,5	;RP0=0, select bank0
  1859  0E7C  1303               	bcf	3,6	;RP1=0, select bank0
  1860  0E7D  00B0               	movwf	___xxtofl@sign
  1861  0E7E                     l1640:
  1862  0E7E  0830               	movf	___xxtofl@sign,w
  1863  0E7F  1903               	btfsc	3,2
  1864  0E80  2E82               	goto	u2151
  1865  0E81  2E83               	goto	u2150
  1866  0E82                     u2151:
  1867  0E82  2E97               	goto	l1646
  1868  0E83                     u2150:
  1869  0E83                     l1642:
  1870  0E83  1FAB               	btfss	___xxtofl@val+3,7
  1871  0E84  2E86               	goto	u2161
  1872  0E85  2E87               	goto	u2160
  1873  0E86                     u2161:
  1874  0E86  2E97               	goto	l1646
  1875  0E87                     u2160:
  1876  0E87                     l1644:
  1877  0E87  0928               	comf	___xxtofl@val,w
  1878  0E88  00B2               	movwf	___xxtofl@arg
  1879  0E89  0929               	comf	___xxtofl@val+1,w
  1880  0E8A  00B3               	movwf	___xxtofl@arg+1
  1881  0E8B  092A               	comf	___xxtofl@val+2,w
  1882  0E8C  00B4               	movwf	___xxtofl@arg+2
  1883  0E8D  092B               	comf	___xxtofl@val+3,w
  1884  0E8E  00B5               	movwf	___xxtofl@arg+3
  1885  0E8F  0AB2               	incf	___xxtofl@arg,f
  1886  0E90  1903               	skipnz
  1887  0E91  0AB3               	incf	___xxtofl@arg+1,f
  1888  0E92  1903               	skipnz
  1889  0E93  0AB4               	incf	___xxtofl@arg+2,f
  1890  0E94  1903               	skipnz
  1891  0E95  0AB5               	incf	___xxtofl@arg+3,f
  1892  0E96  2E9F               	goto	l635
  1893  0E97                     l1646:
  1894  0E97  082B               	movf	___xxtofl@val+3,w
  1895  0E98  00B5               	movwf	___xxtofl@arg+3
  1896  0E99  082A               	movf	___xxtofl@val+2,w
  1897  0E9A  00B4               	movwf	___xxtofl@arg+2
  1898  0E9B  0829               	movf	___xxtofl@val+1,w
  1899  0E9C  00B3               	movwf	___xxtofl@arg+1
  1900  0E9D  0828               	movf	___xxtofl@val,w
  1901  0E9E  00B2               	movwf	___xxtofl@arg
  1902  0E9F                     l635:
  1903  0E9F  082B               	movf	___xxtofl@val+3,w
  1904  0EA0  042A               	iorwf	___xxtofl@val+2,w
  1905  0EA1  0429               	iorwf	___xxtofl@val+1,w
  1906  0EA2  0428               	iorwf	___xxtofl@val,w
  1907  0EA3  1D03               	skipz
  1908  0EA4  2EA6               	goto	u2171
  1909  0EA5  2EA7               	goto	u2170
  1910  0EA6                     u2171:
  1911  0EA6  2EB0               	goto	l1652
  1912  0EA7                     u2170:
  1913  0EA7                     l1648:
  1914  0EA7  3000               	movlw	0
  1915  0EA8  00AB               	movwf	?___xxtofl+3
  1916  0EA9  3000               	movlw	0
  1917  0EAA  00AA               	movwf	?___xxtofl+2
  1918  0EAB  3000               	movlw	0
  1919  0EAC  00A9               	movwf	?___xxtofl+1
  1920  0EAD  3000               	movlw	0
  1921  0EAE  00A8               	movwf	?___xxtofl
  1922  0EAF  2F36               	goto	l637
  1923  0EB0                     l1652:
  1924  0EB0  3096               	movlw	150
  1925  0EB1  00FF               	movwf	btemp+1
  1926  0EB2  087F               	movf	btemp+1,w
  1927  0EB3  00B1               	movwf	___xxtofl@exp
  1928  0EB4  2EC2               	goto	l1658
  1929  0EB5                     l1654:
  1930  0EB5  3001               	movlw	1
  1931  0EB6  00FF               	movwf	btemp+1
  1932  0EB7  087F               	movf	btemp+1,w
  1933  0EB8  07B1               	addwf	___xxtofl@exp,f
  1934  0EB9                     l1656:
  1935  0EB9  3001               	movlw	1
  1936  0EBA                     u2185:
  1937  0EBA  1003               	clrc
  1938  0EBB  0CB5               	rrf	___xxtofl@arg+3,f
  1939  0EBC  0CB4               	rrf	___xxtofl@arg+2,f
  1940  0EBD  0CB3               	rrf	___xxtofl@arg+1,f
  1941  0EBE  0CB2               	rrf	___xxtofl@arg,f
  1942  0EBF  3EFF               	addlw	-1
  1943  0EC0  1D03               	skipz
  1944  0EC1  2EBA               	goto	u2185
  1945  0EC2                     l1658:
  1946  0EC2  30FE               	movlw	254
  1947  0EC3  0535               	andwf	___xxtofl@arg+3,w
  1948  0EC4  1D03               	btfss	3,2
  1949  0EC5  2EC7               	goto	u2191
  1950  0EC6  2EC8               	goto	u2190
  1951  0EC7                     u2191:
  1952  0EC7  2EB5               	goto	l1654
  1953  0EC8                     u2190:
  1954  0EC8  2EE4               	goto	l1666
  1955  0EC9                     l1660:
  1956  0EC9  3001               	movlw	1
  1957  0ECA  00FF               	movwf	btemp+1
  1958  0ECB  087F               	movf	btemp+1,w
  1959  0ECC  07B1               	addwf	___xxtofl@exp,f
  1960  0ECD                     l1662:
  1961  0ECD  3001               	movlw	1
  1962  0ECE  07B2               	addwf	___xxtofl@arg,f
  1963  0ECF  3000               	movlw	0
  1964  0ED0  1803               	skipnc
  1965  0ED1  3001               	movlw	1
  1966  0ED2  07B3               	addwf	___xxtofl@arg+1,f
  1967  0ED3  3000               	movlw	0
  1968  0ED4  1803               	skipnc
  1969  0ED5  3001               	movlw	1
  1970  0ED6  07B4               	addwf	___xxtofl@arg+2,f
  1971  0ED7  3000               	movlw	0
  1972  0ED8  1803               	skipnc
  1973  0ED9  3001               	movlw	1
  1974  0EDA  07B5               	addwf	___xxtofl@arg+3,f
  1975  0EDB                     l1664:
  1976  0EDB  3001               	movlw	1
  1977  0EDC                     u2205:
  1978  0EDC  1003               	clrc
  1979  0EDD  0CB5               	rrf	___xxtofl@arg+3,f
  1980  0EDE  0CB4               	rrf	___xxtofl@arg+2,f
  1981  0EDF  0CB3               	rrf	___xxtofl@arg+1,f
  1982  0EE0  0CB2               	rrf	___xxtofl@arg,f
  1983  0EE1  3EFF               	addlw	-1
  1984  0EE2  1D03               	skipz
  1985  0EE3  2EDC               	goto	u2205
  1986  0EE4                     l1666:
  1987  0EE4  30FF               	movlw	255
  1988  0EE5  0535               	andwf	___xxtofl@arg+3,w
  1989  0EE6  1D03               	btfss	3,2
  1990  0EE7  2EE9               	goto	u2211
  1991  0EE8  2EEA               	goto	u2210
  1992  0EE9                     u2211:
  1993  0EE9  2EC9               	goto	l1660
  1994  0EEA                     u2210:
  1995  0EEA  2EF6               	goto	l1670
  1996  0EEB                     l1668:
  1997  0EEB  3001               	movlw	1
  1998  0EEC  02B1               	subwf	___xxtofl@exp,f
  1999  0EED  3001               	movlw	1
  2000  0EEE  00AC               	movwf	??___xxtofl
  2001  0EEF                     u2225:
  2002  0EEF  1003               	clrc
  2003  0EF0  0DB2               	rlf	___xxtofl@arg,f
  2004  0EF1  0DB3               	rlf	___xxtofl@arg+1,f
  2005  0EF2  0DB4               	rlf	___xxtofl@arg+2,f
  2006  0EF3  0DB5               	rlf	___xxtofl@arg+3,f
  2007  0EF4  0BAC               	decfsz	??___xxtofl,f
  2008  0EF5  2EEF               	goto	u2225
  2009  0EF6                     l1670:
  2010  0EF6  1BB4               	btfsc	___xxtofl@arg+2,7
  2011  0EF7  2EF9               	goto	u2231
  2012  0EF8  2EFA               	goto	u2230
  2013  0EF9                     u2231:
  2014  0EF9  2F00               	goto	l648
  2015  0EFA                     u2230:
  2016  0EFA                     l1672:
  2017  0EFA  3002               	movlw	2
  2018  0EFB  0231               	subwf	___xxtofl@exp,w
  2019  0EFC  1803               	skipnc
  2020  0EFD  2EFF               	goto	u2241
  2021  0EFE  2F00               	goto	u2240
  2022  0EFF                     u2241:
  2023  0EFF  2EEB               	goto	l1668
  2024  0F00                     u2240:
  2025  0F00                     l648:
  2026  0F00  1831               	btfsc	___xxtofl@exp,0
  2027  0F01  2F03               	goto	u2251
  2028  0F02  2F04               	goto	u2250
  2029  0F03                     u2251:
  2030  0F03  2F0C               	goto	l649
  2031  0F04                     u2250:
  2032  0F04                     l1674:
  2033  0F04  30FF               	movlw	255
  2034  0F05  05B2               	andwf	___xxtofl@arg,f
  2035  0F06  30FF               	movlw	255
  2036  0F07  05B3               	andwf	___xxtofl@arg+1,f
  2037  0F08  307F               	movlw	127
  2038  0F09  05B4               	andwf	___xxtofl@arg+2,f
  2039  0F0A  30FF               	movlw	255
  2040  0F0B  05B5               	andwf	___xxtofl@arg+3,f
  2041  0F0C                     l649:
  2042  0F0C  1003               	clrc
  2043  0F0D  0CB1               	rrf	___xxtofl@exp,f
  2044  0F0E                     l1676:
  2045  0F0E  0831               	movf	___xxtofl@exp,w
  2046  0F0F  00AC               	movwf	??___xxtofl
  2047  0F10  01AD               	clrf	??___xxtofl+1
  2048  0F11  01AE               	clrf	??___xxtofl+2
  2049  0F12  01AF               	clrf	??___xxtofl+3
  2050  0F13  3018               	movlw	24
  2051  0F14                     u2265:
  2052  0F14  1003               	clrc
  2053  0F15  0DAC               	rlf	??___xxtofl,f
  2054  0F16  0DAD               	rlf	??___xxtofl+1,f
  2055  0F17  0DAE               	rlf	??___xxtofl+2,f
  2056  0F18  0DAF               	rlf	??___xxtofl+3,f
  2057  0F19                     u2260:
  2058  0F19  3EFF               	addlw	-1
  2059  0F1A  1D03               	skipz
  2060  0F1B  2F14               	goto	u2265
  2061  0F1C  082C               	movf	??___xxtofl,w
  2062  0F1D  04B2               	iorwf	___xxtofl@arg,f
  2063  0F1E  082D               	movf	??___xxtofl+1,w
  2064  0F1F  04B3               	iorwf	___xxtofl@arg+1,f
  2065  0F20  082E               	movf	??___xxtofl+2,w
  2066  0F21  04B4               	iorwf	___xxtofl@arg+2,f
  2067  0F22  082F               	movf	??___xxtofl+3,w
  2068  0F23  04B5               	iorwf	___xxtofl@arg+3,f
  2069  0F24                     l1678:
  2070  0F24  0830               	movf	___xxtofl@sign,w
  2071  0F25  1903               	btfsc	3,2
  2072  0F26  2F28               	goto	u2271
  2073  0F27  2F29               	goto	u2270
  2074  0F28                     u2271:
  2075  0F28  2F2E               	goto	l1684
  2076  0F29                     u2270:
  2077  0F29                     l1680:
  2078  0F29  1FAB               	btfss	___xxtofl@val+3,7
  2079  0F2A  2F2C               	goto	u2281
  2080  0F2B  2F2D               	goto	u2280
  2081  0F2C                     u2281:
  2082  0F2C  2F2E               	goto	l1684
  2083  0F2D                     u2280:
  2084  0F2D                     l1682:
  2085  0F2D  17B5               	bsf	___xxtofl@arg+3,7
  2086  0F2E                     l1684:
  2087  0F2E  0835               	movf	___xxtofl@arg+3,w
  2088  0F2F  00AB               	movwf	?___xxtofl+3
  2089  0F30  0834               	movf	___xxtofl@arg+2,w
  2090  0F31  00AA               	movwf	?___xxtofl+2
  2091  0F32  0833               	movf	___xxtofl@arg+1,w
  2092  0F33  00A9               	movwf	?___xxtofl+1
  2093  0F34  0832               	movf	___xxtofl@arg,w
  2094  0F35  00A8               	movwf	?___xxtofl
  2095  0F36                     l637:
  2096  0F36  0008               	return
  2097  0F37                     __end_of___xxtofl:
  2098                           
  2099                           	psect	text8
  2100  0DE7                     __ptext8:	
  2101 ;; *************** function ___fltol *****************
  2102 ;; Defined at:
  2103 ;;		line 43 in file "C:\Program Files\Microchip\xc8\v2.20\pic\sources\c90\common\fltol.c"
  2104 ;; Parameters:    Size  Location     Type
  2105 ;;  f1              4   74[BANK0 ] unsigned char 
  2106 ;; Auto vars:     Size  Location     Type
  2107 ;;  exp1            1   79[BANK0 ] unsigned char 
  2108 ;;  sign1           1   78[BANK0 ] unsigned char 
  2109 ;; Return value:  Size  Location     Type
  2110 ;;                  4   74[BANK0 ] long 
  2111 ;; Registers used:
  2112 ;;		wreg, status,2, status,0, btemp+1
  2113 ;; Tracked objects:
  2114 ;;		On entry : 0/0
  2115 ;;		On exit  : 0/0
  2116 ;;		Unchanged: 0/0
  2117 ;; Data sizes:     COMMON   BANK0   BANK1   BANK3   BANK2
  2118 ;;      Params:         0       4       0       0       0
  2119 ;;      Locals:         0       2       0       0       0
  2120 ;;      Temps:          0       0       4       0       0
  2121 ;;      Totals:         0       6       4       0       0
  2122 ;;Total ram usage:       10 bytes
  2123 ;; Hardware stack levels used:    1
  2124 ;; This function calls:
  2125 ;;		Nothing
  2126 ;; This function is called by:
  2127 ;;		_PWM1_Set_Duty
  2128 ;;		_PWM2_Set_Duty
  2129 ;; This function uses a non-reentrant model
  2130 ;;
  2131                           
  2132                           
  2133                           ;psect for function ___fltol
  2134  0DE7                     ___fltol:
  2135  0DE7                     l1316:	
  2136                           ;incstack = 0
  2137                           ; Regs used in ___fltol: [wreg+status,2+status,0+btemp+1]
  2138                           
  2139  0DE7  1003               	clrc
  2140  0DE8  1283               	bcf	3,5	;RP0=0, select bank0
  2141  0DE9  1303               	bcf	3,6	;RP1=0, select bank0
  2142  0DEA  0D6C               	rlf	___fltol@f1+2,w
  2143  0DEB  0D6D               	rlf	___fltol@f1+3,w
  2144  0DEC  00FF               	movwf	btemp+1
  2145  0DED  087F               	movf	btemp+1,w
  2146  0DEE  00EF               	movwf	___fltol@exp1
  2147  0DEF  086F               	movf	___fltol@exp1,w
  2148  0DF0  1D03               	btfss	3,2
  2149  0DF1  2DF3               	goto	u1391
  2150  0DF2  2DF4               	goto	u1390
  2151  0DF3                     u1391:
  2152  0DF3  2DFD               	goto	l1322
  2153  0DF4                     u1390:
  2154  0DF4                     l1318:
  2155  0DF4  3000               	movlw	0
  2156  0DF5  00ED               	movwf	?___fltol+3
  2157  0DF6  3000               	movlw	0
  2158  0DF7  00EC               	movwf	?___fltol+2
  2159  0DF8  3000               	movlw	0
  2160  0DF9  00EB               	movwf	?___fltol+1
  2161  0DFA  3000               	movlw	0
  2162  0DFB  00EA               	movwf	?___fltol
  2163  0DFC  2E7A               	goto	l388
  2164  0DFD                     l1322:
  2165  0DFD  086A               	movf	___fltol@f1,w
  2166  0DFE  1683               	bsf	3,5	;RP0=1, select bank1
  2167  0DFF  1303               	bcf	3,6	;RP1=0, select bank1
  2168  0E00  00A8               	movwf	??___fltol^(0+128)
  2169  0E01  1283               	bcf	3,5	;RP0=0, select bank0
  2170  0E02  1303               	bcf	3,6	;RP1=0, select bank0
  2171  0E03  086B               	movf	___fltol@f1+1,w
  2172  0E04  1683               	bsf	3,5	;RP0=1, select bank1
  2173  0E05  1303               	bcf	3,6	;RP1=0, select bank1
  2174  0E06  00A9               	movwf	(??___fltol^(0+128)+1)
  2175  0E07  1283               	bcf	3,5	;RP0=0, select bank0
  2176  0E08  1303               	bcf	3,6	;RP1=0, select bank0
  2177  0E09  086C               	movf	___fltol@f1+2,w
  2178  0E0A  1683               	bsf	3,5	;RP0=1, select bank1
  2179  0E0B  1303               	bcf	3,6	;RP1=0, select bank1
  2180  0E0C  00AA               	movwf	(??___fltol^(0+128)+2)
  2181  0E0D  1283               	bcf	3,5	;RP0=0, select bank0
  2182  0E0E  1303               	bcf	3,6	;RP1=0, select bank0
  2183  0E0F  086D               	movf	___fltol@f1+3,w
  2184  0E10  1683               	bsf	3,5	;RP0=1, select bank1
  2185  0E11  1303               	bcf	3,6	;RP1=0, select bank1
  2186  0E12  00AB               	movwf	(??___fltol^(0+128)+3)
  2187  0E13  301F               	movlw	31
  2188  0E14                     u1405:
  2189  0E14  1003               	clrc
  2190  0E15  0CAB               	rrf	(??___fltol^(0+128)+3),f
  2191  0E16  0CAA               	rrf	(??___fltol^(0+128)+2),f
  2192  0E17  0CA9               	rrf	(??___fltol^(0+128)+1),f
  2193  0E18  0CA8               	rrf	??___fltol^(0+128),f
  2194  0E19                     u1400:
  2195  0E19  3EFF               	addlw	-1
  2196  0E1A  1D03               	skipz
  2197  0E1B  2E14               	goto	u1405
  2198  0E1C  0828               	movf	??___fltol^(0+128),w
  2199  0E1D  00FF               	movwf	btemp+1
  2200  0E1E  087F               	movf	btemp+1,w
  2201  0E1F  1283               	bcf	3,5	;RP0=0, select bank0
  2202  0E20  1303               	bcf	3,6	;RP1=0, select bank0
  2203  0E21  00EE               	movwf	___fltol@sign1
  2204  0E22                     l1324:
  2205  0E22  17EC               	bsf	___fltol@f1+2,7
  2206  0E23                     l1326:
  2207  0E23  30FF               	movlw	255
  2208  0E24  05EA               	andwf	___fltol@f1,f
  2209  0E25  30FF               	movlw	255
  2210  0E26  05EB               	andwf	___fltol@f1+1,f
  2211  0E27  30FF               	movlw	255
  2212  0E28  05EC               	andwf	___fltol@f1+2,f
  2213  0E29  3000               	movlw	0
  2214  0E2A  05ED               	andwf	___fltol@f1+3,f
  2215  0E2B                     l1328:
  2216  0E2B  3096               	movlw	150
  2217  0E2C  02EF               	subwf	___fltol@exp1,f
  2218  0E2D                     l1330:
  2219  0E2D  1FEF               	btfss	___fltol@exp1,7
  2220  0E2E  2E30               	goto	u1411
  2221  0E2F  2E31               	goto	u1410
  2222  0E30                     u1411:
  2223  0E30  2E4B               	goto	l1342
  2224  0E31                     u1410:
  2225  0E31                     l1332:
  2226  0E31  086F               	movf	___fltol@exp1,w
  2227  0E32  3A80               	xorlw	128
  2228  0E33  3E97               	addlw	151
  2229  0E34  1803               	skipnc
  2230  0E35  2E37               	goto	u1421
  2231  0E36  2E38               	goto	u1420
  2232  0E37                     u1421:
  2233  0E37  2E39               	goto	l1338
  2234  0E38                     u1420:
  2235  0E38  2DF4               	goto	l1318
  2236  0E39                     l1338:
  2237  0E39  3001               	movlw	1
  2238  0E3A                     u1435:
  2239  0E3A  1003               	clrc
  2240  0E3B  0CED               	rrf	___fltol@f1+3,f
  2241  0E3C  0CEC               	rrf	___fltol@f1+2,f
  2242  0E3D  0CEB               	rrf	___fltol@f1+1,f
  2243  0E3E  0CEA               	rrf	___fltol@f1,f
  2244  0E3F  3EFF               	addlw	-1
  2245  0E40  1D03               	skipz
  2246  0E41  2E3A               	goto	u1435
  2247  0E42                     l1340:
  2248  0E42  3001               	movlw	1
  2249  0E43  00FF               	movwf	btemp+1
  2250  0E44  087F               	movf	btemp+1,w
  2251  0E45  07EF               	addwf	___fltol@exp1,f
  2252  0E46  1D03               	btfss	3,2
  2253  0E47  2E49               	goto	u1441
  2254  0E48  2E4A               	goto	u1440
  2255  0E49                     u1441:
  2256  0E49  2E39               	goto	l1338
  2257  0E4A                     u1440:
  2258  0E4A  2E6A               	goto	l1350
  2259  0E4B                     l1342:
  2260  0E4B  3020               	movlw	32
  2261  0E4C  026F               	subwf	___fltol@exp1,w
  2262  0E4D  1C03               	skipc
  2263  0E4E  2E50               	goto	u1451
  2264  0E4F  2E51               	goto	u1450
  2265  0E50                     u1451:
  2266  0E50  2E65               	goto	l395
  2267  0E51                     u1450:
  2268  0E51  2DF4               	goto	l1318
  2269  0E52                     l1348:
  2270  0E52  3001               	movlw	1
  2271  0E53  1683               	bsf	3,5	;RP0=1, select bank1
  2272  0E54  1303               	bcf	3,6	;RP1=0, select bank1
  2273  0E55  00A8               	movwf	??___fltol^(0+128)
  2274  0E56                     u1465:
  2275  0E56  1003               	clrc
  2276  0E57  1283               	bcf	3,5	;RP0=0, select bank0
  2277  0E58  1303               	bcf	3,6	;RP1=0, select bank0
  2278  0E59  0DEA               	rlf	___fltol@f1,f
  2279  0E5A  0DEB               	rlf	___fltol@f1+1,f
  2280  0E5B  0DEC               	rlf	___fltol@f1+2,f
  2281  0E5C  0DED               	rlf	___fltol@f1+3,f
  2282  0E5D  1683               	bsf	3,5	;RP0=1, select bank1
  2283  0E5E  1303               	bcf	3,6	;RP1=0, select bank1
  2284  0E5F  0BA8               	decfsz	??___fltol^(0+128),f
  2285  0E60  2E56               	goto	u1465
  2286  0E61  3001               	movlw	1
  2287  0E62  1283               	bcf	3,5	;RP0=0, select bank0
  2288  0E63  1303               	bcf	3,6	;RP1=0, select bank0
  2289  0E64  02EF               	subwf	___fltol@exp1,f
  2290  0E65                     l395:
  2291  0E65  086F               	movf	___fltol@exp1,w
  2292  0E66  1D03               	btfss	3,2
  2293  0E67  2E69               	goto	u1471
  2294  0E68  2E6A               	goto	u1470
  2295  0E69                     u1471:
  2296  0E69  2E52               	goto	l1348
  2297  0E6A                     u1470:
  2298  0E6A                     l1350:
  2299  0E6A  086E               	movf	___fltol@sign1,w
  2300  0E6B  1903               	btfsc	3,2
  2301  0E6C  2E6E               	goto	u1481
  2302  0E6D  2E6F               	goto	u1480
  2303  0E6E                     u1481:
  2304  0E6E  2E7A               	goto	l398
  2305  0E6F                     u1480:
  2306  0E6F                     l1352:
  2307  0E6F  09EA               	comf	___fltol@f1,f
  2308  0E70  09EB               	comf	___fltol@f1+1,f
  2309  0E71  09EC               	comf	___fltol@f1+2,f
  2310  0E72  09ED               	comf	___fltol@f1+3,f
  2311  0E73  0AEA               	incf	___fltol@f1,f
  2312  0E74  1903               	skipnz
  2313  0E75  0AEB               	incf	___fltol@f1+1,f
  2314  0E76  1903               	skipnz
  2315  0E77  0AEC               	incf	___fltol@f1+2,f
  2316  0E78  1903               	skipnz
  2317  0E79  0AED               	incf	___fltol@f1+3,f
  2318  0E7A                     l398:
  2319  0E7A                     l388:
  2320  0E7A  0008               	return
  2321  0E7B                     __end_of___fltol:
  2322                           
  2323                           	psect	text9
  2324  0495                     __ptext9:	
  2325 ;; *************** function ___flmul *****************
  2326 ;; Defined at:
  2327 ;;		line 8 in file "C:\Program Files\Microchip\xc8\v2.20\pic\sources\c90\common\sprcmul.c"
  2328 ;; Parameters:    Size  Location     Type
  2329 ;;  b               4   48[BANK0 ] long 
  2330 ;;  a               4   52[BANK0 ] long 
  2331 ;; Auto vars:     Size  Location     Type
  2332 ;;  prod            4   68[BANK0 ] struct .
  2333 ;;  grs             4   62[BANK0 ] unsigned long 
  2334 ;;  temp            2   72[BANK0 ] struct .
  2335 ;;  bexp            1   67[BANK0 ] unsigned char 
  2336 ;;  aexp            1   66[BANK0 ] unsigned char 
  2337 ;;  sign            1   61[BANK0 ] unsigned char 
  2338 ;; Return value:  Size  Location     Type
  2339 ;;                  4   48[BANK0 ] unsigned char 
  2340 ;; Registers used:
  2341 ;;		wreg, status,2, status,0, btemp+1, pclath, cstack
  2342 ;; Tracked objects:
  2343 ;;		On entry : 0/0
  2344 ;;		On exit  : 0/0
  2345 ;;		Unchanged: 0/0
  2346 ;; Data sizes:     COMMON   BANK0   BANK1   BANK3   BANK2
  2347 ;;      Params:         0       8       0       0       0
  2348 ;;      Locals:         0      13       0       0       0
  2349 ;;      Temps:          0       5       0       0       0
  2350 ;;      Totals:         0      26       0       0       0
  2351 ;;Total ram usage:       26 bytes
  2352 ;; Hardware stack levels used:    1
  2353 ;; Hardware stack levels required when called:    1
  2354 ;; This function calls:
  2355 ;;		__Umul8_16
  2356 ;; This function is called by:
  2357 ;;		_PWM1_Set_Duty
  2358 ;;		_PWM2_Set_Duty
  2359 ;; This function uses a non-reentrant model
  2360 ;;
  2361                           
  2362                           
  2363                           ;psect for function ___flmul
  2364  0495                     ___flmul:
  2365  0495                     l1498:	
  2366                           ;incstack = 0
  2367                           ; Regs used in ___flmul: [wreg+status,2+status,0+btemp+1+pclath+cstack]
  2368                           
  2369  0495  1283               	bcf	3,5	;RP0=0, select bank0
  2370  0496  1303               	bcf	3,6	;RP1=0, select bank0
  2371  0497  0853               	movf	___flmul@b+3,w
  2372  0498  3980               	andlw	128
  2373  0499  00FF               	movwf	btemp+1
  2374  049A  087F               	movf	btemp+1,w
  2375  049B  00DD               	movwf	___flmul@sign
  2376  049C                     l1500:
  2377  049C  0853               	movf	___flmul@b+3,w
  2378  049D  00D8               	movwf	??___flmul
  2379  049E  0758               	addwf	??___flmul,w
  2380  049F  00FF               	movwf	btemp+1
  2381  04A0  087F               	movf	btemp+1,w
  2382  04A1  00E3               	movwf	___flmul@bexp
  2383  04A2                     l1502:
  2384  04A2  1FD2               	btfss	___flmul@b+2,7
  2385  04A3  2CA5               	goto	u1781
  2386  04A4  2CA6               	goto	u1780
  2387  04A5                     u1781:
  2388  04A5  2CA7               	goto	l1506
  2389  04A6                     u1780:
  2390  04A6                     l1504:
  2391  04A6  1463               	bsf	___flmul@bexp,0
  2392  04A7                     l1506:
  2393  04A7  0863               	movf	___flmul@bexp,w
  2394  04A8  1903               	btfsc	3,2
  2395  04A9  2CAB               	goto	u1791
  2396  04AA  2CAC               	goto	u1790
  2397  04AB                     u1791:
  2398  04AB  2CBB               	goto	l1514
  2399  04AC                     u1790:
  2400  04AC                     l1508:
  2401  04AC  0A63               	incf	___flmul@bexp,w
  2402  04AD  1D03               	btfss	3,2
  2403  04AE  2CB0               	goto	u1801
  2404  04AF  2CB1               	goto	u1800
  2405  04B0                     u1801:
  2406  04B0  2CB9               	goto	l1512
  2407  04B1                     u1800:
  2408  04B1                     l1510:
  2409  04B1  3000               	movlw	0
  2410  04B2  00D3               	movwf	___flmul@b+3
  2411  04B3  3000               	movlw	0
  2412  04B4  00D2               	movwf	___flmul@b+2
  2413  04B5  3000               	movlw	0
  2414  04B6  00D1               	movwf	___flmul@b+1
  2415  04B7  3000               	movlw	0
  2416  04B8  00D0               	movwf	___flmul@b
  2417  04B9                     l1512:
  2418  04B9  17D2               	bsf	___flmul@b+2,7
  2419  04BA  2CC3               	goto	l1516
  2420  04BB                     l1514:
  2421  04BB  3000               	movlw	0
  2422  04BC  00D3               	movwf	___flmul@b+3
  2423  04BD  3000               	movlw	0
  2424  04BE  00D2               	movwf	___flmul@b+2
  2425  04BF  3000               	movlw	0
  2426  04C0  00D1               	movwf	___flmul@b+1
  2427  04C1  3000               	movlw	0
  2428  04C2  00D0               	movwf	___flmul@b
  2429  04C3                     l1516:
  2430  04C3  0857               	movf	___flmul@a+3,w
  2431  04C4  3980               	andlw	128
  2432  04C5  00FF               	movwf	btemp+1
  2433  04C6  087F               	movf	btemp+1,w
  2434  04C7  06DD               	xorwf	___flmul@sign,f
  2435  04C8                     l1518:
  2436  04C8  0857               	movf	___flmul@a+3,w
  2437  04C9  00D8               	movwf	??___flmul
  2438  04CA  0758               	addwf	??___flmul,w
  2439  04CB  00FF               	movwf	btemp+1
  2440  04CC  087F               	movf	btemp+1,w
  2441  04CD  00E2               	movwf	___flmul@aexp
  2442  04CE                     l1520:
  2443  04CE  1FD6               	btfss	___flmul@a+2,7
  2444  04CF  2CD1               	goto	u1811
  2445  04D0  2CD2               	goto	u1810
  2446  04D1                     u1811:
  2447  04D1  2CD3               	goto	l1524
  2448  04D2                     u1810:
  2449  04D2                     l1522:
  2450  04D2  1462               	bsf	___flmul@aexp,0
  2451  04D3                     l1524:
  2452  04D3  0862               	movf	___flmul@aexp,w
  2453  04D4  1903               	btfsc	3,2
  2454  04D5  2CD7               	goto	u1821
  2455  04D6  2CD8               	goto	u1820
  2456  04D7                     u1821:
  2457  04D7  2CE7               	goto	l1532
  2458  04D8                     u1820:
  2459  04D8                     l1526:
  2460  04D8  0A62               	incf	___flmul@aexp,w
  2461  04D9  1D03               	btfss	3,2
  2462  04DA  2CDC               	goto	u1831
  2463  04DB  2CDD               	goto	u1830
  2464  04DC                     u1831:
  2465  04DC  2CE5               	goto	l1530
  2466  04DD                     u1830:
  2467  04DD                     l1528:
  2468  04DD  3000               	movlw	0
  2469  04DE  00D7               	movwf	___flmul@a+3
  2470  04DF  3000               	movlw	0
  2471  04E0  00D6               	movwf	___flmul@a+2
  2472  04E1  3000               	movlw	0
  2473  04E2  00D5               	movwf	___flmul@a+1
  2474  04E3  3000               	movlw	0
  2475  04E4  00D4               	movwf	___flmul@a
  2476  04E5                     l1530:
  2477  04E5  17D6               	bsf	___flmul@a+2,7
  2478  04E6  2CEF               	goto	l1534
  2479  04E7                     l1532:
  2480  04E7  3000               	movlw	0
  2481  04E8  00D7               	movwf	___flmul@a+3
  2482  04E9  3000               	movlw	0
  2483  04EA  00D6               	movwf	___flmul@a+2
  2484  04EB  3000               	movlw	0
  2485  04EC  00D5               	movwf	___flmul@a+1
  2486  04ED  3000               	movlw	0
  2487  04EE  00D4               	movwf	___flmul@a
  2488  04EF                     l1534:
  2489  04EF  0862               	movf	___flmul@aexp,w
  2490  04F0  1903               	btfsc	3,2
  2491  04F1  2CF3               	goto	u1841
  2492  04F2  2CF4               	goto	u1840
  2493  04F3                     u1841:
  2494  04F3  2CF9               	goto	l1538
  2495  04F4                     u1840:
  2496  04F4                     l1536:
  2497  04F4  0863               	movf	___flmul@bexp,w
  2498  04F5  1D03               	btfss	3,2
  2499  04F6  2CF8               	goto	u1851
  2500  04F7  2CF9               	goto	u1850
  2501  04F8                     u1851:
  2502  04F8  2D02               	goto	l1542
  2503  04F9                     u1850:
  2504  04F9                     l1538:
  2505  04F9  3000               	movlw	0
  2506  04FA  00D3               	movwf	?___flmul+3
  2507  04FB  3000               	movlw	0
  2508  04FC  00D2               	movwf	?___flmul+2
  2509  04FD  3000               	movlw	0
  2510  04FE  00D1               	movwf	?___flmul+1
  2511  04FF  3000               	movlw	0
  2512  0500  00D0               	movwf	?___flmul
  2513  0501  2FF5               	goto	l591
  2514  0502                     l1542:
  2515  0502  0850               	movf	___flmul@b,w
  2516  0503  00FF               	movwf	btemp+1
  2517  0504  087F               	movf	btemp+1,w
  2518  0505  00F0               	movwf	__Umul8_16@multiplicand
  2519  0506  0856               	movf	___flmul@a+2,w
  2520  0507  120A  158A  24C4  120A  118A  	fcall	__Umul8_16
  2521  050C  0871               	movf	?__Umul8_16+1,w
  2522  050D  1283               	bcf	3,5	;RP0=0, select bank0
  2523  050E  1303               	bcf	3,6	;RP1=0, select bank0
  2524  050F  00E9               	movwf	___flmul@temp+1
  2525  0510  0870               	movf	?__Umul8_16,w
  2526  0511  00E8               	movwf	___flmul@temp
  2527  0512                     l1544:
  2528  0512  0868               	movf	___flmul@temp,w
  2529  0513  00D8               	movwf	??___flmul
  2530  0514  01D9               	clrf	??___flmul+1
  2531  0515  01DA               	clrf	??___flmul+2
  2532  0516  01DB               	clrf	??___flmul+3
  2533  0517  085B               	movf	??___flmul+3,w
  2534  0518  00E1               	movwf	___flmul@grs+3
  2535  0519  085A               	movf	??___flmul+2,w
  2536  051A  00E0               	movwf	___flmul@grs+2
  2537  051B  0859               	movf	??___flmul+1,w
  2538  051C  00DF               	movwf	___flmul@grs+1
  2539  051D  0858               	movf	??___flmul,w
  2540  051E  00DE               	movwf	___flmul@grs
  2541  051F                     l1546:
  2542  051F  0869               	movf	___flmul@temp+1,w
  2543  0520  00D8               	movwf	??___flmul
  2544  0521  01D9               	clrf	??___flmul+1
  2545  0522  01DA               	clrf	??___flmul+2
  2546  0523  01DB               	clrf	??___flmul+3
  2547  0524  085B               	movf	??___flmul+3,w
  2548  0525  00E7               	movwf	___flmul@prod+3
  2549  0526  085A               	movf	??___flmul+2,w
  2550  0527  00E6               	movwf	___flmul@prod+2
  2551  0528  0859               	movf	??___flmul+1,w
  2552  0529  00E5               	movwf	___flmul@prod+1
  2553  052A  0858               	movf	??___flmul,w
  2554  052B  00E4               	movwf	___flmul@prod
  2555  052C  0851               	movf	___flmul@b+1,w
  2556  052D  00FF               	movwf	btemp+1
  2557  052E  087F               	movf	btemp+1,w
  2558  052F  00F0               	movwf	__Umul8_16@multiplicand
  2559  0530  0855               	movf	___flmul@a+1,w
  2560  0531  120A  158A  24C4  120A  118A  	fcall	__Umul8_16
  2561  0536  0871               	movf	?__Umul8_16+1,w
  2562  0537  1283               	bcf	3,5	;RP0=0, select bank0
  2563  0538  1303               	bcf	3,6	;RP1=0, select bank0
  2564  0539  00E9               	movwf	___flmul@temp+1
  2565  053A  0870               	movf	?__Umul8_16,w
  2566  053B  00E8               	movwf	___flmul@temp
  2567  053C                     l1548:
  2568  053C  0868               	movf	___flmul@temp,w
  2569  053D  00D8               	movwf	??___flmul
  2570  053E  01D9               	clrf	??___flmul+1
  2571  053F  01DA               	clrf	??___flmul+2
  2572  0540  01DB               	clrf	??___flmul+3
  2573  0541  0858               	movf	??___flmul,w
  2574  0542  07DE               	addwf	___flmul@grs,f
  2575  0543  0859               	movf	??___flmul+1,w
  2576  0544  1103               	clrz
  2577  0545  1803               	skipnc
  2578  0546  3E01               	addlw	1
  2579  0547  1903               	skipnz
  2580  0548  2D4A               	goto	u1861
  2581  0549  07DF               	addwf	___flmul@grs+1,f
  2582  054A                     u1861:
  2583  054A  085A               	movf	??___flmul+2,w
  2584  054B  1103               	clrz
  2585  054C  1803               	skipnc
  2586  054D  3E01               	addlw	1
  2587  054E  1903               	skipnz
  2588  054F  2D51               	goto	u1862
  2589  0550  07E0               	addwf	___flmul@grs+2,f
  2590  0551                     u1862:
  2591  0551  085B               	movf	??___flmul+3,w
  2592  0552  1103               	clrz
  2593  0553  1803               	skipnc
  2594  0554  3E01               	addlw	1
  2595  0555  1903               	skipnz
  2596  0556  2D58               	goto	u1863
  2597  0557  07E1               	addwf	___flmul@grs+3,f
  2598  0558                     u1863:
  2599  0558                     l1550:
  2600  0558  0869               	movf	___flmul@temp+1,w
  2601  0559  00D8               	movwf	??___flmul
  2602  055A  01D9               	clrf	??___flmul+1
  2603  055B  01DA               	clrf	??___flmul+2
  2604  055C  01DB               	clrf	??___flmul+3
  2605  055D  0858               	movf	??___flmul,w
  2606  055E  07E4               	addwf	___flmul@prod,f
  2607  055F  0859               	movf	??___flmul+1,w
  2608  0560  1103               	clrz
  2609  0561  1803               	skipnc
  2610  0562  3E01               	addlw	1
  2611  0563  1903               	skipnz
  2612  0564  2D66               	goto	u1871
  2613  0565  07E5               	addwf	___flmul@prod+1,f
  2614  0566                     u1871:
  2615  0566  085A               	movf	??___flmul+2,w
  2616  0567  1103               	clrz
  2617  0568  1803               	skipnc
  2618  0569  3E01               	addlw	1
  2619  056A  1903               	skipnz
  2620  056B  2D6D               	goto	u1872
  2621  056C  07E6               	addwf	___flmul@prod+2,f
  2622  056D                     u1872:
  2623  056D  085B               	movf	??___flmul+3,w
  2624  056E  1103               	clrz
  2625  056F  1803               	skipnc
  2626  0570  3E01               	addlw	1
  2627  0571  1903               	skipnz
  2628  0572  2D74               	goto	u1873
  2629  0573  07E7               	addwf	___flmul@prod+3,f
  2630  0574                     u1873:
  2631  0574  0852               	movf	___flmul@b+2,w
  2632  0575  00FF               	movwf	btemp+1
  2633  0576  087F               	movf	btemp+1,w
  2634  0577  00F0               	movwf	__Umul8_16@multiplicand
  2635  0578  0854               	movf	___flmul@a,w
  2636  0579  120A  158A  24C4  120A  118A  	fcall	__Umul8_16
  2637  057E  0871               	movf	?__Umul8_16+1,w
  2638  057F  1283               	bcf	3,5	;RP0=0, select bank0
  2639  0580  1303               	bcf	3,6	;RP1=0, select bank0
  2640  0581  00E9               	movwf	___flmul@temp+1
  2641  0582  0870               	movf	?__Umul8_16,w
  2642  0583  00E8               	movwf	___flmul@temp
  2643  0584                     l1552:
  2644  0584  0868               	movf	___flmul@temp,w
  2645  0585  00D8               	movwf	??___flmul
  2646  0586  01D9               	clrf	??___flmul+1
  2647  0587  01DA               	clrf	??___flmul+2
  2648  0588  01DB               	clrf	??___flmul+3
  2649  0589  0858               	movf	??___flmul,w
  2650  058A  07DE               	addwf	___flmul@grs,f
  2651  058B  0859               	movf	??___flmul+1,w
  2652  058C  1103               	clrz
  2653  058D  1803               	skipnc
  2654  058E  3E01               	addlw	1
  2655  058F  1903               	skipnz
  2656  0590  2D92               	goto	u1881
  2657  0591  07DF               	addwf	___flmul@grs+1,f
  2658  0592                     u1881:
  2659  0592  085A               	movf	??___flmul+2,w
  2660  0593  1103               	clrz
  2661  0594  1803               	skipnc
  2662  0595  3E01               	addlw	1
  2663  0596  1903               	skipnz
  2664  0597  2D99               	goto	u1882
  2665  0598  07E0               	addwf	___flmul@grs+2,f
  2666  0599                     u1882:
  2667  0599  085B               	movf	??___flmul+3,w
  2668  059A  1103               	clrz
  2669  059B  1803               	skipnc
  2670  059C  3E01               	addlw	1
  2671  059D  1903               	skipnz
  2672  059E  2DA0               	goto	u1883
  2673  059F  07E1               	addwf	___flmul@grs+3,f
  2674  05A0                     u1883:
  2675  05A0                     l1554:
  2676  05A0  0869               	movf	___flmul@temp+1,w
  2677  05A1  00D8               	movwf	??___flmul
  2678  05A2  01D9               	clrf	??___flmul+1
  2679  05A3  01DA               	clrf	??___flmul+2
  2680  05A4  01DB               	clrf	??___flmul+3
  2681  05A5  0858               	movf	??___flmul,w
  2682  05A6  07E4               	addwf	___flmul@prod,f
  2683  05A7  0859               	movf	??___flmul+1,w
  2684  05A8  1103               	clrz
  2685  05A9  1803               	skipnc
  2686  05AA  3E01               	addlw	1
  2687  05AB  1903               	skipnz
  2688  05AC  2DAE               	goto	u1891
  2689  05AD  07E5               	addwf	___flmul@prod+1,f
  2690  05AE                     u1891:
  2691  05AE  085A               	movf	??___flmul+2,w
  2692  05AF  1103               	clrz
  2693  05B0  1803               	skipnc
  2694  05B1  3E01               	addlw	1
  2695  05B2  1903               	skipnz
  2696  05B3  2DB5               	goto	u1892
  2697  05B4  07E6               	addwf	___flmul@prod+2,f
  2698  05B5                     u1892:
  2699  05B5  085B               	movf	??___flmul+3,w
  2700  05B6  1103               	clrz
  2701  05B7  1803               	skipnc
  2702  05B8  3E01               	addlw	1
  2703  05B9  1903               	skipnz
  2704  05BA  2DBC               	goto	u1893
  2705  05BB  07E7               	addwf	___flmul@prod+3,f
  2706  05BC                     u1893:
  2707  05BC                     l1556:
  2708  05BC  3008               	movlw	8
  2709  05BD  00D8               	movwf	??___flmul
  2710  05BE                     u1905:
  2711  05BE  1003               	clrc
  2712  05BF  0DDE               	rlf	___flmul@grs,f
  2713  05C0  0DDF               	rlf	___flmul@grs+1,f
  2714  05C1  0DE0               	rlf	___flmul@grs+2,f
  2715  05C2  0DE1               	rlf	___flmul@grs+3,f
  2716  05C3  0BD8               	decfsz	??___flmul,f
  2717  05C4  2DBE               	goto	u1905
  2718  05C5                     l1558:
  2719  05C5  0851               	movf	___flmul@b+1,w
  2720  05C6  00FF               	movwf	btemp+1
  2721  05C7  087F               	movf	btemp+1,w
  2722  05C8  00F0               	movwf	__Umul8_16@multiplicand
  2723  05C9  0854               	movf	___flmul@a,w
  2724  05CA  120A  158A  24C4  120A  118A  	fcall	__Umul8_16
  2725  05CF  0871               	movf	?__Umul8_16+1,w
  2726  05D0  1283               	bcf	3,5	;RP0=0, select bank0
  2727  05D1  1303               	bcf	3,6	;RP1=0, select bank0
  2728  05D2  00E9               	movwf	___flmul@temp+1
  2729  05D3  0870               	movf	?__Umul8_16,w
  2730  05D4  00E8               	movwf	___flmul@temp
  2731  05D5                     l1560:
  2732  05D5  0868               	movf	___flmul@temp,w
  2733  05D6  00D8               	movwf	??___flmul
  2734  05D7  0869               	movf	___flmul@temp+1,w
  2735  05D8  00D9               	movwf	??___flmul+1
  2736  05D9  01DA               	clrf	??___flmul+2
  2737  05DA  01DB               	clrf	??___flmul+3
  2738  05DB  0858               	movf	??___flmul,w
  2739  05DC  07DE               	addwf	___flmul@grs,f
  2740  05DD  0859               	movf	??___flmul+1,w
  2741  05DE  1103               	clrz
  2742  05DF  1803               	skipnc
  2743  05E0  3E01               	addlw	1
  2744  05E1  1903               	skipnz
  2745  05E2  2DE4               	goto	u1911
  2746  05E3  07DF               	addwf	___flmul@grs+1,f
  2747  05E4                     u1911:
  2748  05E4  085A               	movf	??___flmul+2,w
  2749  05E5  1103               	clrz
  2750  05E6  1803               	skipnc
  2751  05E7  3E01               	addlw	1
  2752  05E8  1903               	skipnz
  2753  05E9  2DEB               	goto	u1912
  2754  05EA  07E0               	addwf	___flmul@grs+2,f
  2755  05EB                     u1912:
  2756  05EB  085B               	movf	??___flmul+3,w
  2757  05EC  1103               	clrz
  2758  05ED  1803               	skipnc
  2759  05EE  3E01               	addlw	1
  2760  05EF  1903               	skipnz
  2761  05F0  2DF2               	goto	u1913
  2762  05F1  07E1               	addwf	___flmul@grs+3,f
  2763  05F2                     u1913:
  2764  05F2                     l1562:
  2765  05F2  0850               	movf	___flmul@b,w
  2766  05F3  00FF               	movwf	btemp+1
  2767  05F4  087F               	movf	btemp+1,w
  2768  05F5  00F0               	movwf	__Umul8_16@multiplicand
  2769  05F6  0855               	movf	___flmul@a+1,w
  2770  05F7  120A  158A  24C4  120A  118A  	fcall	__Umul8_16
  2771  05FC  0871               	movf	?__Umul8_16+1,w
  2772  05FD  1283               	bcf	3,5	;RP0=0, select bank0
  2773  05FE  1303               	bcf	3,6	;RP1=0, select bank0
  2774  05FF  00E9               	movwf	___flmul@temp+1
  2775  0600  0870               	movf	?__Umul8_16,w
  2776  0601  00E8               	movwf	___flmul@temp
  2777  0602                     l1564:
  2778  0602  0868               	movf	___flmul@temp,w
  2779  0603  00D8               	movwf	??___flmul
  2780  0604  0869               	movf	___flmul@temp+1,w
  2781  0605  00D9               	movwf	??___flmul+1
  2782  0606  01DA               	clrf	??___flmul+2
  2783  0607  01DB               	clrf	??___flmul+3
  2784  0608  0858               	movf	??___flmul,w
  2785  0609  07DE               	addwf	___flmul@grs,f
  2786  060A  0859               	movf	??___flmul+1,w
  2787  060B  1103               	clrz
  2788  060C  1803               	skipnc
  2789  060D  3E01               	addlw	1
  2790  060E  1903               	skipnz
  2791  060F  2E11               	goto	u1921
  2792  0610  07DF               	addwf	___flmul@grs+1,f
  2793  0611                     u1921:
  2794  0611  085A               	movf	??___flmul+2,w
  2795  0612  1103               	clrz
  2796  0613  1803               	skipnc
  2797  0614  3E01               	addlw	1
  2798  0615  1903               	skipnz
  2799  0616  2E18               	goto	u1922
  2800  0617  07E0               	addwf	___flmul@grs+2,f
  2801  0618                     u1922:
  2802  0618  085B               	movf	??___flmul+3,w
  2803  0619  1103               	clrz
  2804  061A  1803               	skipnc
  2805  061B  3E01               	addlw	1
  2806  061C  1903               	skipnz
  2807  061D  2E1F               	goto	u1923
  2808  061E  07E1               	addwf	___flmul@grs+3,f
  2809  061F                     u1923:
  2810  061F                     l1566:
  2811  061F  3008               	movlw	8
  2812  0620  00D8               	movwf	??___flmul
  2813  0621                     u1935:
  2814  0621  1003               	clrc
  2815  0622  0DDE               	rlf	___flmul@grs,f
  2816  0623  0DDF               	rlf	___flmul@grs+1,f
  2817  0624  0DE0               	rlf	___flmul@grs+2,f
  2818  0625  0DE1               	rlf	___flmul@grs+3,f
  2819  0626  0BD8               	decfsz	??___flmul,f
  2820  0627  2E21               	goto	u1935
  2821  0628  0850               	movf	___flmul@b,w
  2822  0629  00FF               	movwf	btemp+1
  2823  062A  087F               	movf	btemp+1,w
  2824  062B  00F0               	movwf	__Umul8_16@multiplicand
  2825  062C  0854               	movf	___flmul@a,w
  2826  062D  120A  158A  24C4  120A  118A  	fcall	__Umul8_16
  2827  0632  0871               	movf	?__Umul8_16+1,w
  2828  0633  1283               	bcf	3,5	;RP0=0, select bank0
  2829  0634  1303               	bcf	3,6	;RP1=0, select bank0
  2830  0635  00E9               	movwf	___flmul@temp+1
  2831  0636  0870               	movf	?__Umul8_16,w
  2832  0637  00E8               	movwf	___flmul@temp
  2833  0638                     l1568:
  2834  0638  0868               	movf	___flmul@temp,w
  2835  0639  00D8               	movwf	??___flmul
  2836  063A  0869               	movf	___flmul@temp+1,w
  2837  063B  00D9               	movwf	??___flmul+1
  2838  063C  01DA               	clrf	??___flmul+2
  2839  063D  01DB               	clrf	??___flmul+3
  2840  063E  0858               	movf	??___flmul,w
  2841  063F  07DE               	addwf	___flmul@grs,f
  2842  0640  0859               	movf	??___flmul+1,w
  2843  0641  1103               	clrz
  2844  0642  1803               	skipnc
  2845  0643  3E01               	addlw	1
  2846  0644  1903               	skipnz
  2847  0645  2E47               	goto	u1941
  2848  0646  07DF               	addwf	___flmul@grs+1,f
  2849  0647                     u1941:
  2850  0647  085A               	movf	??___flmul+2,w
  2851  0648  1103               	clrz
  2852  0649  1803               	skipnc
  2853  064A  3E01               	addlw	1
  2854  064B  1903               	skipnz
  2855  064C  2E4E               	goto	u1942
  2856  064D  07E0               	addwf	___flmul@grs+2,f
  2857  064E                     u1942:
  2858  064E  085B               	movf	??___flmul+3,w
  2859  064F  1103               	clrz
  2860  0650  1803               	skipnc
  2861  0651  3E01               	addlw	1
  2862  0652  1903               	skipnz
  2863  0653  2E55               	goto	u1943
  2864  0654  07E1               	addwf	___flmul@grs+3,f
  2865  0655                     u1943:
  2866  0655                     l1570:
  2867  0655  0851               	movf	___flmul@b+1,w
  2868  0656  00FF               	movwf	btemp+1
  2869  0657  087F               	movf	btemp+1,w
  2870  0658  00F0               	movwf	__Umul8_16@multiplicand
  2871  0659  0856               	movf	___flmul@a+2,w
  2872  065A  120A  158A  24C4  120A  118A  	fcall	__Umul8_16
  2873  065F  0871               	movf	?__Umul8_16+1,w
  2874  0660  1283               	bcf	3,5	;RP0=0, select bank0
  2875  0661  1303               	bcf	3,6	;RP1=0, select bank0
  2876  0662  00E9               	movwf	___flmul@temp+1
  2877  0663  0870               	movf	?__Umul8_16,w
  2878  0664  00E8               	movwf	___flmul@temp
  2879  0665  0868               	movf	___flmul@temp,w
  2880  0666  00D8               	movwf	??___flmul
  2881  0667  0869               	movf	___flmul@temp+1,w
  2882  0668  00D9               	movwf	??___flmul+1
  2883  0669  01DA               	clrf	??___flmul+2
  2884  066A  01DB               	clrf	??___flmul+3
  2885  066B  0858               	movf	??___flmul,w
  2886  066C  07E4               	addwf	___flmul@prod,f
  2887  066D  0859               	movf	??___flmul+1,w
  2888  066E  1103               	clrz
  2889  066F  1803               	skipnc
  2890  0670  3E01               	addlw	1
  2891  0671  1903               	skipnz
  2892  0672  2E74               	goto	u1951
  2893  0673  07E5               	addwf	___flmul@prod+1,f
  2894  0674                     u1951:
  2895  0674  085A               	movf	??___flmul+2,w
  2896  0675  1103               	clrz
  2897  0676  1803               	skipnc
  2898  0677  3E01               	addlw	1
  2899  0678  1903               	skipnz
  2900  0679  2E7B               	goto	u1952
  2901  067A  07E6               	addwf	___flmul@prod+2,f
  2902  067B                     u1952:
  2903  067B  085B               	movf	??___flmul+3,w
  2904  067C  1103               	clrz
  2905  067D  1803               	skipnc
  2906  067E  3E01               	addlw	1
  2907  067F  1903               	skipnz
  2908  0680  2E82               	goto	u1953
  2909  0681  07E7               	addwf	___flmul@prod+3,f
  2910  0682                     u1953:
  2911  0682                     l1572:
  2912  0682  0852               	movf	___flmul@b+2,w
  2913  0683  00FF               	movwf	btemp+1
  2914  0684  087F               	movf	btemp+1,w
  2915  0685  00F0               	movwf	__Umul8_16@multiplicand
  2916  0686  0855               	movf	___flmul@a+1,w
  2917  0687  120A  158A  24C4  120A  118A  	fcall	__Umul8_16
  2918  068C  0871               	movf	?__Umul8_16+1,w
  2919  068D  1283               	bcf	3,5	;RP0=0, select bank0
  2920  068E  1303               	bcf	3,6	;RP1=0, select bank0
  2921  068F  00E9               	movwf	___flmul@temp+1
  2922  0690  0870               	movf	?__Umul8_16,w
  2923  0691  00E8               	movwf	___flmul@temp
  2924  0692                     l1574:
  2925  0692  0868               	movf	___flmul@temp,w
  2926  0693  00D8               	movwf	??___flmul
  2927  0694  0869               	movf	___flmul@temp+1,w
  2928  0695  00D9               	movwf	??___flmul+1
  2929  0696  01DA               	clrf	??___flmul+2
  2930  0697  01DB               	clrf	??___flmul+3
  2931  0698  0858               	movf	??___flmul,w
  2932  0699  07E4               	addwf	___flmul@prod,f
  2933  069A  0859               	movf	??___flmul+1,w
  2934  069B  1103               	clrz
  2935  069C  1803               	skipnc
  2936  069D  3E01               	addlw	1
  2937  069E  1903               	skipnz
  2938  069F  2EA1               	goto	u1961
  2939  06A0  07E5               	addwf	___flmul@prod+1,f
  2940  06A1                     u1961:
  2941  06A1  085A               	movf	??___flmul+2,w
  2942  06A2  1103               	clrz
  2943  06A3  1803               	skipnc
  2944  06A4  3E01               	addlw	1
  2945  06A5  1903               	skipnz
  2946  06A6  2EA8               	goto	u1962
  2947  06A7  07E6               	addwf	___flmul@prod+2,f
  2948  06A8                     u1962:
  2949  06A8  085B               	movf	??___flmul+3,w
  2950  06A9  1103               	clrz
  2951  06AA  1803               	skipnc
  2952  06AB  3E01               	addlw	1
  2953  06AC  1903               	skipnz
  2954  06AD  2EAF               	goto	u1963
  2955  06AE  07E7               	addwf	___flmul@prod+3,f
  2956  06AF                     u1963:
  2957  06AF  0852               	movf	___flmul@b+2,w
  2958  06B0  00FF               	movwf	btemp+1
  2959  06B1  087F               	movf	btemp+1,w
  2960  06B2  00F0               	movwf	__Umul8_16@multiplicand
  2961  06B3  0856               	movf	___flmul@a+2,w
  2962  06B4  120A  158A  24C4  120A  118A  	fcall	__Umul8_16
  2963  06B9  0871               	movf	?__Umul8_16+1,w
  2964  06BA  1283               	bcf	3,5	;RP0=0, select bank0
  2965  06BB  1303               	bcf	3,6	;RP1=0, select bank0
  2966  06BC  00E9               	movwf	___flmul@temp+1
  2967  06BD  0870               	movf	?__Umul8_16,w
  2968  06BE  00E8               	movwf	___flmul@temp
  2969  06BF                     l1576:
  2970  06BF  0868               	movf	___flmul@temp,w
  2971  06C0  00D8               	movwf	??___flmul
  2972  06C1  0869               	movf	___flmul@temp+1,w
  2973  06C2  00D9               	movwf	??___flmul+1
  2974  06C3  01DA               	clrf	??___flmul+2
  2975  06C4  01DB               	clrf	??___flmul+3
  2976  06C5  3008               	movlw	8
  2977  06C6                     u1975:
  2978  06C6  1003               	clrc
  2979  06C7  0DD8               	rlf	??___flmul,f
  2980  06C8  0DD9               	rlf	??___flmul+1,f
  2981  06C9  0DDA               	rlf	??___flmul+2,f
  2982  06CA  0DDB               	rlf	??___flmul+3,f
  2983  06CB                     u1970:
  2984  06CB  3EFF               	addlw	-1
  2985  06CC  1D03               	skipz
  2986  06CD  2EC6               	goto	u1975
  2987  06CE  0858               	movf	??___flmul,w
  2988  06CF  07E4               	addwf	___flmul@prod,f
  2989  06D0  0859               	movf	??___flmul+1,w
  2990  06D1  1103               	clrz
  2991  06D2  1803               	skipnc
  2992  06D3  3E01               	addlw	1
  2993  06D4  1903               	skipnz
  2994  06D5  2ED7               	goto	u1981
  2995  06D6  07E5               	addwf	___flmul@prod+1,f
  2996  06D7                     u1981:
  2997  06D7  085A               	movf	??___flmul+2,w
  2998  06D8  1103               	clrz
  2999  06D9  1803               	skipnc
  3000  06DA  3E01               	addlw	1
  3001  06DB  1903               	skipnz
  3002  06DC  2EDE               	goto	u1982
  3003  06DD  07E6               	addwf	___flmul@prod+2,f
  3004  06DE                     u1982:
  3005  06DE  085B               	movf	??___flmul+3,w
  3006  06DF  1103               	clrz
  3007  06E0  1803               	skipnc
  3008  06E1  3E01               	addlw	1
  3009  06E2  1903               	skipnz
  3010  06E3  2EE5               	goto	u1983
  3011  06E4  07E7               	addwf	___flmul@prod+3,f
  3012  06E5                     u1983:
  3013  06E5                     l1578:
  3014  06E5  085E               	movf	___flmul@grs,w
  3015  06E6  00D8               	movwf	??___flmul
  3016  06E7  085F               	movf	___flmul@grs+1,w
  3017  06E8  00D9               	movwf	??___flmul+1
  3018  06E9  0860               	movf	___flmul@grs+2,w
  3019  06EA  00DA               	movwf	??___flmul+2
  3020  06EB  0861               	movf	___flmul@grs+3,w
  3021  06EC  00DB               	movwf	??___flmul+3
  3022  06ED  3018               	movlw	24
  3023  06EE                     u1995:
  3024  06EE  1003               	clrc
  3025  06EF  0CDB               	rrf	??___flmul+3,f
  3026  06F0  0CDA               	rrf	??___flmul+2,f
  3027  06F1  0CD9               	rrf	??___flmul+1,f
  3028  06F2  0CD8               	rrf	??___flmul,f
  3029  06F3                     u1990:
  3030  06F3  3EFF               	addlw	-1
  3031  06F4  1D03               	skipz
  3032  06F5  2EEE               	goto	u1995
  3033  06F6  0858               	movf	??___flmul,w
  3034  06F7  07E4               	addwf	___flmul@prod,f
  3035  06F8  0859               	movf	??___flmul+1,w
  3036  06F9  1103               	clrz
  3037  06FA  1803               	skipnc
  3038  06FB  3E01               	addlw	1
  3039  06FC  1903               	skipnz
  3040  06FD  2EFF               	goto	u2001
  3041  06FE  07E5               	addwf	___flmul@prod+1,f
  3042  06FF                     u2001:
  3043  06FF  085A               	movf	??___flmul+2,w
  3044  0700  1103               	clrz
  3045  0701  1803               	skipnc
  3046  0702  3E01               	addlw	1
  3047  0703  1903               	skipnz
  3048  0704  2F06               	goto	u2002
  3049  0705  07E6               	addwf	___flmul@prod+2,f
  3050  0706                     u2002:
  3051  0706  085B               	movf	??___flmul+3,w
  3052  0707  1103               	clrz
  3053  0708  1803               	skipnc
  3054  0709  3E01               	addlw	1
  3055  070A  1903               	skipnz
  3056  070B  2F0D               	goto	u2003
  3057  070C  07E7               	addwf	___flmul@prod+3,f
  3058  070D                     u2003:
  3059  070D                     l1580:
  3060  070D  3008               	movlw	8
  3061  070E  00D8               	movwf	??___flmul
  3062  070F                     u2015:
  3063  070F  1003               	clrc
  3064  0710  0DDE               	rlf	___flmul@grs,f
  3065  0711  0DDF               	rlf	___flmul@grs+1,f
  3066  0712  0DE0               	rlf	___flmul@grs+2,f
  3067  0713  0DE1               	rlf	___flmul@grs+3,f
  3068  0714  0BD8               	decfsz	??___flmul,f
  3069  0715  2F0F               	goto	u2015
  3070  0716                     l1582:
  3071  0716  0863               	movf	___flmul@bexp,w
  3072  0717  0762               	addwf	___flmul@aexp,w
  3073  0718  00D8               	movwf	??___flmul
  3074  0719  01D9               	clrf	??___flmul+1
  3075  071A  0DD9               	rlf	??___flmul+1,f
  3076  071B  0858               	movf	??___flmul,w
  3077  071C  3E82               	addlw	130
  3078  071D  00E8               	movwf	___flmul@temp
  3079  071E  0859               	movf	??___flmul+1,w
  3080  071F  1803               	skipnc
  3081  0720  3E01               	addlw	1
  3082  0721  3EFF               	addlw	255
  3083  0722  00E9               	movwf	___flmul@temp+1
  3084  0723  2F41               	goto	l1594
  3085  0724                     l1584:
  3086  0724  3001               	movlw	1
  3087  0725  00D8               	movwf	??___flmul
  3088  0726                     u2025:
  3089  0726  1003               	clrc
  3090  0727  0DE4               	rlf	___flmul@prod,f
  3091  0728  0DE5               	rlf	___flmul@prod+1,f
  3092  0729  0DE6               	rlf	___flmul@prod+2,f
  3093  072A  0DE7               	rlf	___flmul@prod+3,f
  3094  072B  0BD8               	decfsz	??___flmul,f
  3095  072C  2F26               	goto	u2025
  3096  072D                     l1586:
  3097  072D  1FE1               	btfss	___flmul@grs+3,7
  3098  072E  2F30               	goto	u2031
  3099  072F  2F31               	goto	u2030
  3100  0730                     u2031:
  3101  0730  2F32               	goto	l1590
  3102  0731                     u2030:
  3103  0731                     l1588:
  3104  0731  1464               	bsf	___flmul@prod,0
  3105  0732                     l1590:
  3106  0732  3001               	movlw	1
  3107  0733  00D8               	movwf	??___flmul
  3108  0734                     u2045:
  3109  0734  1003               	clrc
  3110  0735  0DDE               	rlf	___flmul@grs,f
  3111  0736  0DDF               	rlf	___flmul@grs+1,f
  3112  0737  0DE0               	rlf	___flmul@grs+2,f
  3113  0738  0DE1               	rlf	___flmul@grs+3,f
  3114  0739  0BD8               	decfsz	??___flmul,f
  3115  073A  2F34               	goto	u2045
  3116  073B                     l1592:
  3117  073B  30FF               	movlw	255
  3118  073C  07E8               	addwf	___flmul@temp,f
  3119  073D  1803               	skipnc
  3120  073E  0AE9               	incf	___flmul@temp+1,f
  3121  073F  30FF               	movlw	255
  3122  0740  07E9               	addwf	___flmul@temp+1,f
  3123  0741                     l1594:
  3124  0741  1FE6               	btfss	___flmul@prod+2,7
  3125  0742  2F44               	goto	u2051
  3126  0743  2F45               	goto	u2050
  3127  0744                     u2051:
  3128  0744  2F24               	goto	l1584
  3129  0745                     u2050:
  3130  0745                     l1596:
  3131  0745  01E2               	clrf	___flmul@aexp
  3132  0746                     l1598:
  3133  0746  1FE1               	btfss	___flmul@grs+3,7
  3134  0747  2F49               	goto	u2061
  3135  0748  2F4A               	goto	u2060
  3136  0749                     u2061:
  3137  0749  2F66               	goto	l1606
  3138  074A                     u2060:
  3139  074A                     l1600:
  3140  074A  30FF               	movlw	255
  3141  074B  055E               	andwf	___flmul@grs,w
  3142  074C  00D8               	movwf	??___flmul
  3143  074D  30FF               	movlw	255
  3144  074E  055F               	andwf	___flmul@grs+1,w
  3145  074F  00D9               	movwf	??___flmul+1
  3146  0750  30FF               	movlw	255
  3147  0751  0560               	andwf	___flmul@grs+2,w
  3148  0752  00DA               	movwf	??___flmul+2
  3149  0753  307F               	movlw	127
  3150  0754  0561               	andwf	___flmul@grs+3,w
  3151  0755  00DB               	movwf	??___flmul+3
  3152  0756  085B               	movf	??___flmul+3,w
  3153  0757  045A               	iorwf	??___flmul+2,w
  3154  0758  0459               	iorwf	??___flmul+1,w
  3155  0759  0458               	iorwf	??___flmul,w
  3156  075A  1903               	skipnz
  3157  075B  2F5D               	goto	u2071
  3158  075C  2F5E               	goto	u2070
  3159  075D                     u2071:
  3160  075D  2F61               	goto	l597
  3161  075E                     u2070:
  3162  075E                     l1602:
  3163  075E  01E2               	clrf	___flmul@aexp
  3164  075F  0AE2               	incf	___flmul@aexp,f
  3165  0760  2F66               	goto	l1606
  3166  0761                     l597:
  3167  0761  1C64               	btfss	___flmul@prod,0
  3168  0762  2F64               	goto	u2081
  3169  0763  2F65               	goto	u2080
  3170  0764                     u2081:
  3171  0764  2F66               	goto	l1606
  3172  0765                     u2080:
  3173  0765  2F5E               	goto	l1602
  3174  0766                     l1606:
  3175  0766  0862               	movf	___flmul@aexp,w
  3176  0767  1903               	btfsc	3,2
  3177  0768  2F6A               	goto	u2091
  3178  0769  2F6B               	goto	u2090
  3179  076A                     u2091:
  3180  076A  2F9C               	goto	l1616
  3181  076B                     u2090:
  3182  076B                     l1608:
  3183  076B  3001               	movlw	1
  3184  076C  07E4               	addwf	___flmul@prod,f
  3185  076D  3000               	movlw	0
  3186  076E  1803               	skipnc
  3187  076F  3001               	movlw	1
  3188  0770  07E5               	addwf	___flmul@prod+1,f
  3189  0771  3000               	movlw	0
  3190  0772  1803               	skipnc
  3191  0773  3001               	movlw	1
  3192  0774  07E6               	addwf	___flmul@prod+2,f
  3193  0775  3000               	movlw	0
  3194  0776  1803               	skipnc
  3195  0777  3001               	movlw	1
  3196  0778  07E7               	addwf	___flmul@prod+3,f
  3197  0779                     l1610:
  3198  0779  1C67               	btfss	___flmul@prod+3,0
  3199  077A  2F7C               	goto	u2101
  3200  077B  2F7D               	goto	u2100
  3201  077C                     u2101:
  3202  077C  2F9C               	goto	l1616
  3203  077D                     u2100:
  3204  077D                     l1612:
  3205  077D  0864               	movf	___flmul@prod,w
  3206  077E  00D8               	movwf	??___flmul
  3207  077F  0865               	movf	___flmul@prod+1,w
  3208  0780  00D9               	movwf	??___flmul+1
  3209  0781  0866               	movf	___flmul@prod+2,w
  3210  0782  00DA               	movwf	??___flmul+2
  3211  0783  0867               	movf	___flmul@prod+3,w
  3212  0784  00DB               	movwf	??___flmul+3
  3213  0785  3001               	movlw	1
  3214  0786  00DC               	movwf	??___flmul+4
  3215  0787                     u2115:
  3216  0787  0D5B               	rlf	??___flmul+3,w
  3217  0788  0CDB               	rrf	??___flmul+3,f
  3218  0789  0CDA               	rrf	??___flmul+2,f
  3219  078A  0CD9               	rrf	??___flmul+1,f
  3220  078B  0CD8               	rrf	??___flmul,f
  3221  078C                     u2110:
  3222  078C  0BDC               	decfsz	??___flmul+4,f
  3223  078D  2F87               	goto	u2115
  3224  078E  085B               	movf	??___flmul+3,w
  3225  078F  00E7               	movwf	___flmul@prod+3
  3226  0790  085A               	movf	??___flmul+2,w
  3227  0791  00E6               	movwf	___flmul@prod+2
  3228  0792  0859               	movf	??___flmul+1,w
  3229  0793  00E5               	movwf	___flmul@prod+1
  3230  0794  0858               	movf	??___flmul,w
  3231  0795  00E4               	movwf	___flmul@prod
  3232  0796                     l1614:
  3233  0796  3001               	movlw	1
  3234  0797  07E8               	addwf	___flmul@temp,f
  3235  0798  1803               	skipnc
  3236  0799  0AE9               	incf	___flmul@temp+1,f
  3237  079A  3000               	movlw	0
  3238  079B  07E9               	addwf	___flmul@temp+1,f
  3239  079C                     l1616:
  3240  079C  0869               	movf	___flmul@temp+1,w
  3241  079D  3A80               	xorlw	128
  3242  079E  00FF               	movwf	btemp+1
  3243  079F  3080               	movlw	128
  3244  07A0  027F               	subwf	btemp+1,w
  3245  07A1  1D03               	skipz
  3246  07A2  2FA5               	goto	u2125
  3247  07A3  30FF               	movlw	255
  3248  07A4  0268               	subwf	___flmul@temp,w
  3249  07A5                     u2125:
  3250  07A5  1C03               	skipc
  3251  07A6  2FA8               	goto	u2121
  3252  07A7  2FA9               	goto	u2120
  3253  07A8                     u2121:
  3254  07A8  2FB4               	goto	l1620
  3255  07A9                     u2120:
  3256  07A9                     l1618:
  3257  07A9  307F               	movlw	127
  3258  07AA  1283               	bcf	3,5	;RP0=0, select bank0
  3259  07AB  1303               	bcf	3,6	;RP1=0, select bank0
  3260  07AC  00E7               	movwf	___flmul@prod+3
  3261  07AD  3080               	movlw	128
  3262  07AE  00E6               	movwf	___flmul@prod+2
  3263  07AF  3000               	movlw	0
  3264  07B0  00E5               	movwf	___flmul@prod+1
  3265  07B1  3000               	movlw	0
  3266  07B2  00E4               	movwf	___flmul@prod
  3267  07B3  2FE9               	goto	l603
  3268  07B4                     l1620:
  3269  07B4  1283               	bcf	3,5	;RP0=0, select bank0
  3270  07B5  1303               	bcf	3,6	;RP1=0, select bank0
  3271  07B6  0869               	movf	___flmul@temp+1,w
  3272  07B7  3A80               	xorlw	128
  3273  07B8  00FF               	movwf	btemp+1
  3274  07B9  3080               	movlw	128
  3275  07BA  027F               	subwf	btemp+1,w
  3276  07BB  1D03               	skipz
  3277  07BC  2FBF               	goto	u2135
  3278  07BD  3001               	movlw	1
  3279  07BE  0268               	subwf	___flmul@temp,w
  3280  07BF                     u2135:
  3281  07BF  1803               	skipnc
  3282  07C0  2FC2               	goto	u2131
  3283  07C1  2FC3               	goto	u2130
  3284  07C2                     u2131:
  3285  07C2  2FCF               	goto	l1626
  3286  07C3                     u2130:
  3287  07C3                     l1622:
  3288  07C3  3000               	movlw	0
  3289  07C4  1283               	bcf	3,5	;RP0=0, select bank0
  3290  07C5  1303               	bcf	3,6	;RP1=0, select bank0
  3291  07C6  00E7               	movwf	___flmul@prod+3
  3292  07C7  3000               	movlw	0
  3293  07C8  00E6               	movwf	___flmul@prod+2
  3294  07C9  3000               	movlw	0
  3295  07CA  00E5               	movwf	___flmul@prod+1
  3296  07CB  3000               	movlw	0
  3297  07CC  00E4               	movwf	___flmul@prod
  3298  07CD                     l1624:
  3299  07CD  01DD               	clrf	___flmul@sign
  3300  07CE  2FE9               	goto	l603
  3301  07CF                     l1626:
  3302  07CF  1283               	bcf	3,5	;RP0=0, select bank0
  3303  07D0  1303               	bcf	3,6	;RP1=0, select bank0
  3304  07D1  0868               	movf	___flmul@temp,w
  3305  07D2  00FF               	movwf	btemp+1
  3306  07D3  087F               	movf	btemp+1,w
  3307  07D4  00E3               	movwf	___flmul@bexp
  3308  07D5                     l1628:
  3309  07D5  30FF               	movlw	255
  3310  07D6  05E4               	andwf	___flmul@prod,f
  3311  07D7  30FF               	movlw	255
  3312  07D8  05E5               	andwf	___flmul@prod+1,f
  3313  07D9  307F               	movlw	127
  3314  07DA  05E6               	andwf	___flmul@prod+2,f
  3315  07DB  3000               	movlw	0
  3316  07DC  05E7               	andwf	___flmul@prod+3,f
  3317  07DD                     l1630:
  3318  07DD  1C63               	btfss	___flmul@bexp,0
  3319  07DE  2FE0               	goto	u2141
  3320  07DF  2FE1               	goto	u2140
  3321  07E0                     u2141:
  3322  07E0  2FE2               	goto	l1634
  3323  07E1                     u2140:
  3324  07E1                     l1632:
  3325  07E1  17E6               	bsf	___flmul@prod+2,7
  3326  07E2                     l1634:
  3327  07E2  0863               	movf	___flmul@bexp,w
  3328  07E3  00D8               	movwf	??___flmul
  3329  07E4  1003               	clrc
  3330  07E5  0C58               	rrf	??___flmul,w
  3331  07E6  00FF               	movwf	btemp+1
  3332  07E7  087F               	movf	btemp+1,w
  3333  07E8  00E7               	movwf	___flmul@prod+3
  3334  07E9                     l603:
  3335  07E9  085D               	movf	___flmul@sign,w
  3336  07EA  00FF               	movwf	btemp+1
  3337  07EB  087F               	movf	btemp+1,w
  3338  07EC  04E7               	iorwf	___flmul@prod+3,f
  3339  07ED                     l1636:
  3340  07ED  0867               	movf	___flmul@prod+3,w
  3341  07EE  00D3               	movwf	?___flmul+3
  3342  07EF  0866               	movf	___flmul@prod+2,w
  3343  07F0  00D2               	movwf	?___flmul+2
  3344  07F1  0865               	movf	___flmul@prod+1,w
  3345  07F2  00D1               	movwf	?___flmul+1
  3346  07F3  0864               	movf	___flmul@prod,w
  3347  07F4  00D0               	movwf	?___flmul
  3348  07F5                     l591:
  3349  07F5  0008               	return
  3350  07F6                     __end_of___flmul:
  3351                           
  3352                           	psect	text10
  3353  0CC4                     __ptext10:	
  3354 ;; *************** function __Umul8_16 *****************
  3355 ;; Defined at:
  3356 ;;		line 4 in file "C:\Program Files\Microchip\xc8\v2.20\pic\sources\c90\common\Umul8_16.c"
  3357 ;; Parameters:    Size  Location     Type
  3358 ;;  multiplier      1    wreg     unsigned char 
  3359 ;;  multiplicand    1    0[COMMON] unsigned char 
  3360 ;; Auto vars:     Size  Location     Type
  3361 ;;  multiplier      1    8[COMMON] unsigned char 
  3362 ;;  word_mpld       2    6[COMMON] unsigned int 
  3363 ;;  product         2    4[COMMON] unsigned int 
  3364 ;; Return value:  Size  Location     Type
  3365 ;;                  2    0[COMMON] unsigned int 
  3366 ;; Registers used:
  3367 ;;		wreg, status,2, status,0
  3368 ;; Tracked objects:
  3369 ;;		On entry : 0/0
  3370 ;;		On exit  : 0/0
  3371 ;;		Unchanged: 0/0
  3372 ;; Data sizes:     COMMON   BANK0   BANK1   BANK3   BANK2
  3373 ;;      Params:         2       0       0       0       0
  3374 ;;      Locals:         5       0       0       0       0
  3375 ;;      Temps:          2       0       0       0       0
  3376 ;;      Totals:         9       0       0       0       0
  3377 ;;Total ram usage:        9 bytes
  3378 ;; Hardware stack levels used:    1
  3379 ;; This function calls:
  3380 ;;		Nothing
  3381 ;; This function is called by:
  3382 ;;		___flmul
  3383 ;; This function uses a non-reentrant model
  3384 ;;
  3385                           
  3386                           
  3387                           ;psect for function __Umul8_16
  3388  0CC4                     __Umul8_16:
  3389                           
  3390                           ;incstack = 0
  3391                           ; Regs used in __Umul8_16: [wreg+status,2+status,0]
  3392                           ;__Umul8_16@multiplier stored from wreg
  3393  0CC4  00F8               	movwf	__Umul8_16@multiplier
  3394  0CC5                     l1294:
  3395  0CC5  01F4               	clrf	__Umul8_16@product
  3396  0CC6  01F5               	clrf	__Umul8_16@product+1
  3397  0CC7                     l1296:
  3398  0CC7  0870               	movf	__Umul8_16@multiplicand,w
  3399  0CC8  00F2               	movwf	??__Umul8_16
  3400  0CC9  01F3               	clrf	??__Umul8_16+1
  3401  0CCA  0872               	movf	??__Umul8_16,w
  3402  0CCB  00F6               	movwf	__Umul8_16@word_mpld
  3403  0CCC  0873               	movf	??__Umul8_16+1,w
  3404  0CCD  00F7               	movwf	__Umul8_16@word_mpld+1
  3405  0CCE                     l1298:
  3406  0CCE  1C78               	btfss	__Umul8_16@multiplier,0
  3407  0CCF  2CD1               	goto	u1341
  3408  0CD0  2CD2               	goto	u1340
  3409  0CD1                     u1341:
  3410  0CD1  2CD8               	goto	l610
  3411  0CD2                     u1340:
  3412  0CD2                     l1300:
  3413  0CD2  0876               	movf	__Umul8_16@word_mpld,w
  3414  0CD3  07F4               	addwf	__Umul8_16@product,f
  3415  0CD4  1803               	skipnc
  3416  0CD5  0AF5               	incf	__Umul8_16@product+1,f
  3417  0CD6  0877               	movf	__Umul8_16@word_mpld+1,w
  3418  0CD7  07F5               	addwf	__Umul8_16@product+1,f
  3419  0CD8                     l610:
  3420  0CD8  3001               	movlw	1
  3421  0CD9                     u1355:
  3422  0CD9  1003               	clrc
  3423  0CDA  0DF6               	rlf	__Umul8_16@word_mpld,f
  3424  0CDB  0DF7               	rlf	__Umul8_16@word_mpld+1,f
  3425  0CDC  3EFF               	addlw	-1
  3426  0CDD  1D03               	skipz
  3427  0CDE  2CD9               	goto	u1355
  3428  0CDF  1003               	clrc
  3429  0CE0  0CF8               	rrf	__Umul8_16@multiplier,f
  3430  0CE1                     l1302:
  3431  0CE1  0878               	movf	__Umul8_16@multiplier,w
  3432  0CE2  1D03               	btfss	3,2
  3433  0CE3  2CE5               	goto	u1361
  3434  0CE4  2CE6               	goto	u1360
  3435  0CE5                     u1361:
  3436  0CE5  2CCE               	goto	l1298
  3437  0CE6                     u1360:
  3438  0CE6                     l1304:
  3439  0CE6  0875               	movf	__Umul8_16@product+1,w
  3440  0CE7  00F1               	movwf	?__Umul8_16+1
  3441  0CE8  0874               	movf	__Umul8_16@product,w
  3442  0CE9  00F0               	movwf	?__Umul8_16
  3443  0CEA                     l612:
  3444  0CEA  0008               	return
  3445  0CEB                     __end_of__Umul8_16:
  3446                           
  3447                           	psect	text11
  3448  02B8                     __ptext11:	
  3449 ;; *************** function ___fldiv *****************
  3450 ;; Defined at:
  3451 ;;		line 8 in file "C:\Program Files\Microchip\xc8\v2.20\pic\sources\c90\common\sprcdiv.c"
  3452 ;; Parameters:    Size  Location     Type
  3453 ;;  a               4   22[BANK0 ] unsigned int 
  3454 ;;  b               4   26[BANK0 ] unsigned int 
  3455 ;; Auto vars:     Size  Location     Type
  3456 ;;  grs             4   42[BANK0 ] unsigned long 
  3457 ;;  rem             4   35[BANK0 ] unsigned long 
  3458 ;;  new_exp         2   40[BANK0 ] int 
  3459 ;;  aexp            1   47[BANK0 ] unsigned char 
  3460 ;;  bexp            1   46[BANK0 ] unsigned char 
  3461 ;;  sign            1   39[BANK0 ] unsigned char 
  3462 ;; Return value:  Size  Location     Type
  3463 ;;                  4   22[BANK0 ] unsigned char 
  3464 ;; Registers used:
  3465 ;;		wreg, status,2, status,0, btemp+1
  3466 ;; Tracked objects:
  3467 ;;		On entry : 0/0
  3468 ;;		On exit  : 0/0
  3469 ;;		Unchanged: 0/0
  3470 ;; Data sizes:     COMMON   BANK0   BANK1   BANK3   BANK2
  3471 ;;      Params:         0       8       0       0       0
  3472 ;;      Locals:         0      13       0       0       0
  3473 ;;      Temps:          0       5       0       0       0
  3474 ;;      Totals:         0      26       0       0       0
  3475 ;;Total ram usage:       26 bytes
  3476 ;; Hardware stack levels used:    1
  3477 ;; This function calls:
  3478 ;;		Nothing
  3479 ;; This function is called by:
  3480 ;;		_PWM1_Set_Duty
  3481 ;;		_PWM2_Set_Duty
  3482 ;; This function uses a non-reentrant model
  3483 ;;
  3484                           
  3485                           
  3486                           ;psect for function ___fldiv
  3487  02B8                     ___fldiv:
  3488  02B8                     l1354:	
  3489                           ;incstack = 0
  3490                           ; Regs used in ___fldiv: [wreg+status,2+status,0+btemp+1]
  3491                           
  3492  02B8  1283               	bcf	3,5	;RP0=0, select bank0
  3493  02B9  1303               	bcf	3,6	;RP1=0, select bank0
  3494  02BA  083D               	movf	___fldiv@b+3,w
  3495  02BB  3980               	andlw	128
  3496  02BC  00FF               	movwf	btemp+1
  3497  02BD  087F               	movf	btemp+1,w
  3498  02BE  00C7               	movwf	___fldiv@sign
  3499  02BF                     l1356:
  3500  02BF  083D               	movf	___fldiv@b+3,w
  3501  02C0  00BE               	movwf	??___fldiv
  3502  02C1  073E               	addwf	??___fldiv,w
  3503  02C2  00FF               	movwf	btemp+1
  3504  02C3  087F               	movf	btemp+1,w
  3505  02C4  00CE               	movwf	___fldiv@bexp
  3506  02C5                     l1358:
  3507  02C5  1FBC               	btfss	___fldiv@b+2,7
  3508  02C6  2AC8               	goto	u1491
  3509  02C7  2AC9               	goto	u1490
  3510  02C8                     u1491:
  3511  02C8  2ACA               	goto	l1362
  3512  02C9                     u1490:
  3513  02C9                     l1360:
  3514  02C9  144E               	bsf	___fldiv@bexp,0
  3515  02CA                     l1362:
  3516  02CA  084E               	movf	___fldiv@bexp,w
  3517  02CB  1903               	btfsc	3,2
  3518  02CC  2ACE               	goto	u1501
  3519  02CD  2ACF               	goto	u1500
  3520  02CE                     u1501:
  3521  02CE  2ADF               	goto	l1372
  3522  02CF                     u1500:
  3523  02CF                     l1364:
  3524  02CF  0A4E               	incf	___fldiv@bexp,w
  3525  02D0  1D03               	btfss	3,2
  3526  02D1  2AD3               	goto	u1511
  3527  02D2  2AD4               	goto	u1510
  3528  02D3                     u1511:
  3529  02D3  2ADC               	goto	l1368
  3530  02D4                     u1510:
  3531  02D4                     l1366:
  3532  02D4  3000               	movlw	0
  3533  02D5  00BD               	movwf	___fldiv@b+3
  3534  02D6  3000               	movlw	0
  3535  02D7  00BC               	movwf	___fldiv@b+2
  3536  02D8  3000               	movlw	0
  3537  02D9  00BB               	movwf	___fldiv@b+1
  3538  02DA  3000               	movlw	0
  3539  02DB  00BA               	movwf	___fldiv@b
  3540  02DC                     l1368:
  3541  02DC  17BC               	bsf	___fldiv@b+2,7
  3542  02DD                     l1370:
  3543  02DD  01BD               	clrf	___fldiv@b+3
  3544  02DE  2AE7               	goto	l1374
  3545  02DF                     l1372:
  3546  02DF  3000               	movlw	0
  3547  02E0  00BD               	movwf	___fldiv@b+3
  3548  02E1  3000               	movlw	0
  3549  02E2  00BC               	movwf	___fldiv@b+2
  3550  02E3  3000               	movlw	0
  3551  02E4  00BB               	movwf	___fldiv@b+1
  3552  02E5  3000               	movlw	0
  3553  02E6  00BA               	movwf	___fldiv@b
  3554  02E7                     l1374:
  3555  02E7  0839               	movf	___fldiv@a+3,w
  3556  02E8  3980               	andlw	128
  3557  02E9  00FF               	movwf	btemp+1
  3558  02EA  087F               	movf	btemp+1,w
  3559  02EB  06C7               	xorwf	___fldiv@sign,f
  3560  02EC                     l1376:
  3561  02EC  0839               	movf	___fldiv@a+3,w
  3562  02ED  00BE               	movwf	??___fldiv
  3563  02EE  073E               	addwf	??___fldiv,w
  3564  02EF  00FF               	movwf	btemp+1
  3565  02F0  087F               	movf	btemp+1,w
  3566  02F1  00CF               	movwf	___fldiv@aexp
  3567  02F2                     l1378:
  3568  02F2  1FB8               	btfss	___fldiv@a+2,7
  3569  02F3  2AF5               	goto	u1521
  3570  02F4  2AF6               	goto	u1520
  3571  02F5                     u1521:
  3572  02F5  2AF7               	goto	l1382
  3573  02F6                     u1520:
  3574  02F6                     l1380:
  3575  02F6  144F               	bsf	___fldiv@aexp,0
  3576  02F7                     l1382:
  3577  02F7  084F               	movf	___fldiv@aexp,w
  3578  02F8  1903               	btfsc	3,2
  3579  02F9  2AFB               	goto	u1531
  3580  02FA  2AFC               	goto	u1530
  3581  02FB                     u1531:
  3582  02FB  2B0C               	goto	l1392
  3583  02FC                     u1530:
  3584  02FC                     l1384:
  3585  02FC  0A4F               	incf	___fldiv@aexp,w
  3586  02FD  1D03               	btfss	3,2
  3587  02FE  2B00               	goto	u1541
  3588  02FF  2B01               	goto	u1540
  3589  0300                     u1541:
  3590  0300  2B09               	goto	l1388
  3591  0301                     u1540:
  3592  0301                     l1386:
  3593  0301  3000               	movlw	0
  3594  0302  00B9               	movwf	___fldiv@a+3
  3595  0303  3000               	movlw	0
  3596  0304  00B8               	movwf	___fldiv@a+2
  3597  0305  3000               	movlw	0
  3598  0306  00B7               	movwf	___fldiv@a+1
  3599  0307  3000               	movlw	0
  3600  0308  00B6               	movwf	___fldiv@a
  3601  0309                     l1388:
  3602  0309  17B8               	bsf	___fldiv@a+2,7
  3603  030A                     l1390:
  3604  030A  01B9               	clrf	___fldiv@a+3
  3605  030B  2B14               	goto	l551
  3606  030C                     l1392:
  3607  030C  3000               	movlw	0
  3608  030D  00B9               	movwf	___fldiv@a+3
  3609  030E  3000               	movlw	0
  3610  030F  00B8               	movwf	___fldiv@a+2
  3611  0310  3000               	movlw	0
  3612  0311  00B7               	movwf	___fldiv@a+1
  3613  0312  3000               	movlw	0
  3614  0313  00B6               	movwf	___fldiv@a
  3615  0314                     l551:
  3616  0314  0839               	movf	___fldiv@a+3,w
  3617  0315  0438               	iorwf	___fldiv@a+2,w
  3618  0316  0437               	iorwf	___fldiv@a+1,w
  3619  0317  0436               	iorwf	___fldiv@a,w
  3620  0318  1D03               	skipz
  3621  0319  2B1B               	goto	u1551
  3622  031A  2B1C               	goto	u1550
  3623  031B                     u1551:
  3624  031B  2B35               	goto	l1402
  3625  031C                     u1550:
  3626  031C                     l1394:
  3627  031C  3000               	movlw	0
  3628  031D  00BD               	movwf	___fldiv@b+3
  3629  031E  3000               	movlw	0
  3630  031F  00BC               	movwf	___fldiv@b+2
  3631  0320  3000               	movlw	0
  3632  0321  00BB               	movwf	___fldiv@b+1
  3633  0322  3000               	movlw	0
  3634  0323  00BA               	movwf	___fldiv@b
  3635  0324  3080               	movlw	128
  3636  0325  04BC               	iorwf	___fldiv@b+2,f
  3637  0326  307F               	movlw	127
  3638  0327  04BD               	iorwf	___fldiv@b+3,f
  3639  0328                     l1396:
  3640  0328  0847               	movf	___fldiv@sign,w
  3641  0329  00FF               	movwf	btemp+1
  3642  032A  087F               	movf	btemp+1,w
  3643  032B  04BD               	iorwf	___fldiv@b+3,f
  3644  032C                     l1398:
  3645  032C  083D               	movf	___fldiv@b+3,w
  3646  032D  00B9               	movwf	?___fldiv+3
  3647  032E  083C               	movf	___fldiv@b+2,w
  3648  032F  00B8               	movwf	?___fldiv+2
  3649  0330  083B               	movf	___fldiv@b+1,w
  3650  0331  00B7               	movwf	?___fldiv+1
  3651  0332  083A               	movf	___fldiv@b,w
  3652  0333  00B6               	movwf	?___fldiv
  3653  0334  2C94               	goto	l553
  3654  0335                     l1402:
  3655  0335  084E               	movf	___fldiv@bexp,w
  3656  0336  1D03               	btfss	3,2
  3657  0337  2B39               	goto	u1561
  3658  0338  2B3A               	goto	u1560
  3659  0339                     u1561:
  3660  0339  2B43               	goto	l1408
  3661  033A                     u1560:
  3662  033A                     l1404:
  3663  033A  3000               	movlw	0
  3664  033B  00B9               	movwf	?___fldiv+3
  3665  033C  3000               	movlw	0
  3666  033D  00B8               	movwf	?___fldiv+2
  3667  033E  3000               	movlw	0
  3668  033F  00B7               	movwf	?___fldiv+1
  3669  0340  3000               	movlw	0
  3670  0341  00B6               	movwf	?___fldiv
  3671  0342  2C94               	goto	l553
  3672  0343                     l1408:
  3673  0343  084E               	movf	___fldiv@bexp,w
  3674  0344  00BE               	movwf	??___fldiv
  3675  0345  01BF               	clrf	??___fldiv+1
  3676  0346  083F               	movf	??___fldiv+1,w
  3677  0347  00C1               	movwf	??___fldiv+3
  3678  0348  084F               	movf	___fldiv@aexp,w
  3679  0349  023E               	subwf	??___fldiv,w
  3680  034A  00C0               	movwf	??___fldiv+2
  3681  034B  1C03               	skipc
  3682  034C  03C1               	decf	??___fldiv+3,f
  3683  034D  0840               	movf	??___fldiv+2,w
  3684  034E  3E7F               	addlw	127
  3685  034F  00C8               	movwf	___fldiv@new_exp
  3686  0350  0841               	movf	??___fldiv+3,w
  3687  0351  1803               	skipnc
  3688  0352  3E01               	addlw	1
  3689  0353  3E00               	addlw	0
  3690  0354  00C9               	movwf	___fldiv@new_exp+1
  3691  0355                     l1410:
  3692  0355  083D               	movf	___fldiv@b+3,w
  3693  0356  00C6               	movwf	___fldiv@rem+3
  3694  0357  083C               	movf	___fldiv@b+2,w
  3695  0358  00C5               	movwf	___fldiv@rem+2
  3696  0359  083B               	movf	___fldiv@b+1,w
  3697  035A  00C4               	movwf	___fldiv@rem+1
  3698  035B  083A               	movf	___fldiv@b,w
  3699  035C  00C3               	movwf	___fldiv@rem
  3700  035D                     l1412:
  3701  035D  3000               	movlw	0
  3702  035E  00BD               	movwf	___fldiv@b+3
  3703  035F  3000               	movlw	0
  3704  0360  00BC               	movwf	___fldiv@b+2
  3705  0361  3000               	movlw	0
  3706  0362  00BB               	movwf	___fldiv@b+1
  3707  0363  3000               	movlw	0
  3708  0364  00BA               	movwf	___fldiv@b
  3709  0365                     l1414:
  3710  0365  3000               	movlw	0
  3711  0366  00CD               	movwf	___fldiv@grs+3
  3712  0367  3000               	movlw	0
  3713  0368  00CC               	movwf	___fldiv@grs+2
  3714  0369  3000               	movlw	0
  3715  036A  00CB               	movwf	___fldiv@grs+1
  3716  036B  3000               	movlw	0
  3717  036C  00CA               	movwf	___fldiv@grs
  3718  036D                     l1416:
  3719  036D  01CF               	clrf	___fldiv@aexp
  3720  036E  2BB9               	goto	l1436
  3721  036F                     l1418:
  3722  036F  084F               	movf	___fldiv@aexp,w
  3723  0370  1903               	btfsc	3,2
  3724  0371  2B73               	goto	u1571
  3725  0372  2B74               	goto	u1570
  3726  0373                     u1571:
  3727  0373  2B94               	goto	l1428
  3728  0374                     u1570:
  3729  0374                     l1420:
  3730  0374  3001               	movlw	1
  3731  0375  00BE               	movwf	??___fldiv
  3732  0376                     u1585:
  3733  0376  1003               	clrc
  3734  0377  0DC3               	rlf	___fldiv@rem,f
  3735  0378  0DC4               	rlf	___fldiv@rem+1,f
  3736  0379  0DC5               	rlf	___fldiv@rem+2,f
  3737  037A  0DC6               	rlf	___fldiv@rem+3,f
  3738  037B  0BBE               	decfsz	??___fldiv,f
  3739  037C  2B76               	goto	u1585
  3740  037D  3001               	movlw	1
  3741  037E  00BE               	movwf	??___fldiv
  3742  037F                     u1595:
  3743  037F  1003               	clrc
  3744  0380  0DBA               	rlf	___fldiv@b,f
  3745  0381  0DBB               	rlf	___fldiv@b+1,f
  3746  0382  0DBC               	rlf	___fldiv@b+2,f
  3747  0383  0DBD               	rlf	___fldiv@b+3,f
  3748  0384  0BBE               	decfsz	??___fldiv,f
  3749  0385  2B7F               	goto	u1595
  3750  0386                     l1422:
  3751  0386  1FCD               	btfss	___fldiv@grs+3,7
  3752  0387  2B89               	goto	u1601
  3753  0388  2B8A               	goto	u1600
  3754  0389                     u1601:
  3755  0389  2B8B               	goto	l1426
  3756  038A                     u1600:
  3757  038A                     l1424:
  3758  038A  143A               	bsf	___fldiv@b,0
  3759  038B                     l1426:
  3760  038B  3001               	movlw	1
  3761  038C  00BE               	movwf	??___fldiv
  3762  038D                     u1615:
  3763  038D  1003               	clrc
  3764  038E  0DCA               	rlf	___fldiv@grs,f
  3765  038F  0DCB               	rlf	___fldiv@grs+1,f
  3766  0390  0DCC               	rlf	___fldiv@grs+2,f
  3767  0391  0DCD               	rlf	___fldiv@grs+3,f
  3768  0392  0BBE               	decfsz	??___fldiv,f
  3769  0393  2B8D               	goto	u1615
  3770  0394                     l1428:
  3771  0394  0839               	movf	___fldiv@a+3,w
  3772  0395  0246               	subwf	___fldiv@rem+3,w
  3773  0396  1D03               	skipz
  3774  0397  2BA2               	goto	u1625
  3775  0398  0838               	movf	___fldiv@a+2,w
  3776  0399  0245               	subwf	___fldiv@rem+2,w
  3777  039A  1D03               	skipz
  3778  039B  2BA2               	goto	u1625
  3779  039C  0837               	movf	___fldiv@a+1,w
  3780  039D  0244               	subwf	___fldiv@rem+1,w
  3781  039E  1D03               	skipz
  3782  039F  2BA2               	goto	u1625
  3783  03A0  0836               	movf	___fldiv@a,w
  3784  03A1  0243               	subwf	___fldiv@rem,w
  3785  03A2                     u1625:
  3786  03A2  1C03               	skipc
  3787  03A3  2BA5               	goto	u1621
  3788  03A4  2BA6               	goto	u1620
  3789  03A5                     u1621:
  3790  03A5  2BB5               	goto	l1434
  3791  03A6                     u1620:
  3792  03A6                     l1430:
  3793  03A6  174D               	bsf	___fldiv@grs+3,6
  3794  03A7                     l1432:
  3795  03A7  0836               	movf	___fldiv@a,w
  3796  03A8  02C3               	subwf	___fldiv@rem,f
  3797  03A9  0837               	movf	___fldiv@a+1,w
  3798  03AA  1C03               	skipc
  3799  03AB  0F37               	incfsz	___fldiv@a+1,w
  3800  03AC  02C4               	subwf	___fldiv@rem+1,f
  3801  03AD  0838               	movf	___fldiv@a+2,w
  3802  03AE  1C03               	skipc
  3803  03AF  0F38               	incfsz	___fldiv@a+2,w
  3804  03B0  02C5               	subwf	___fldiv@rem+2,f
  3805  03B1  0839               	movf	___fldiv@a+3,w
  3806  03B2  1C03               	skipc
  3807  03B3  0F39               	incfsz	___fldiv@a+3,w
  3808  03B4  02C6               	subwf	___fldiv@rem+3,f
  3809  03B5                     l1434:
  3810  03B5  3001               	movlw	1
  3811  03B6  00FF               	movwf	btemp+1
  3812  03B7  087F               	movf	btemp+1,w
  3813  03B8  07CF               	addwf	___fldiv@aexp,f
  3814  03B9                     l1436:
  3815  03B9  301A               	movlw	26
  3816  03BA  024F               	subwf	___fldiv@aexp,w
  3817  03BB  1C03               	skipc
  3818  03BC  2BBE               	goto	u1631
  3819  03BD  2BBF               	goto	u1630
  3820  03BE                     u1631:
  3821  03BE  2B6F               	goto	l1418
  3822  03BF                     u1630:
  3823  03BF                     l1438:
  3824  03BF  0846               	movf	___fldiv@rem+3,w
  3825  03C0  0445               	iorwf	___fldiv@rem+2,w
  3826  03C1  0444               	iorwf	___fldiv@rem+1,w
  3827  03C2  0443               	iorwf	___fldiv@rem,w
  3828  03C3  1903               	skipnz
  3829  03C4  2BC6               	goto	u1641
  3830  03C5  2BC7               	goto	u1640
  3831  03C6                     u1641:
  3832  03C6  2BE6               	goto	l1452
  3833  03C7                     u1640:
  3834  03C7                     l1440:
  3835  03C7  144A               	bsf	___fldiv@grs,0
  3836  03C8  2BE6               	goto	l1452
  3837  03C9                     l1442:
  3838  03C9  3001               	movlw	1
  3839  03CA  00BE               	movwf	??___fldiv
  3840  03CB                     u1655:
  3841  03CB  1003               	clrc
  3842  03CC  0DBA               	rlf	___fldiv@b,f
  3843  03CD  0DBB               	rlf	___fldiv@b+1,f
  3844  03CE  0DBC               	rlf	___fldiv@b+2,f
  3845  03CF  0DBD               	rlf	___fldiv@b+3,f
  3846  03D0  0BBE               	decfsz	??___fldiv,f
  3847  03D1  2BCB               	goto	u1655
  3848  03D2                     l1444:
  3849  03D2  1FCD               	btfss	___fldiv@grs+3,7
  3850  03D3  2BD5               	goto	u1661
  3851  03D4  2BD6               	goto	u1660
  3852  03D5                     u1661:
  3853  03D5  2BD7               	goto	l1448
  3854  03D6                     u1660:
  3855  03D6                     l1446:
  3856  03D6  143A               	bsf	___fldiv@b,0
  3857  03D7                     l1448:
  3858  03D7  3001               	movlw	1
  3859  03D8  00BE               	movwf	??___fldiv
  3860  03D9                     u1675:
  3861  03D9  1003               	clrc
  3862  03DA  0DCA               	rlf	___fldiv@grs,f
  3863  03DB  0DCB               	rlf	___fldiv@grs+1,f
  3864  03DC  0DCC               	rlf	___fldiv@grs+2,f
  3865  03DD  0DCD               	rlf	___fldiv@grs+3,f
  3866  03DE  0BBE               	decfsz	??___fldiv,f
  3867  03DF  2BD9               	goto	u1675
  3868  03E0                     l1450:
  3869  03E0  30FF               	movlw	255
  3870  03E1  07C8               	addwf	___fldiv@new_exp,f
  3871  03E2  1803               	skipnc
  3872  03E3  0AC9               	incf	___fldiv@new_exp+1,f
  3873  03E4  30FF               	movlw	255
  3874  03E5  07C9               	addwf	___fldiv@new_exp+1,f
  3875  03E6                     l1452:
  3876  03E6  1FBC               	btfss	___fldiv@b+2,7
  3877  03E7  2BE9               	goto	u1681
  3878  03E8  2BEA               	goto	u1680
  3879  03E9                     u1681:
  3880  03E9  2BC9               	goto	l1442
  3881  03EA                     u1680:
  3882  03EA                     l1454:
  3883  03EA  01CF               	clrf	___fldiv@aexp
  3884  03EB                     l1456:
  3885  03EB  1FCD               	btfss	___fldiv@grs+3,7
  3886  03EC  2BEE               	goto	u1691
  3887  03ED  2BEF               	goto	u1690
  3888  03EE                     u1691:
  3889  03EE  2C0B               	goto	l1464
  3890  03EF                     u1690:
  3891  03EF                     l1458:
  3892  03EF  30FF               	movlw	255
  3893  03F0  054A               	andwf	___fldiv@grs,w
  3894  03F1  00BE               	movwf	??___fldiv
  3895  03F2  30FF               	movlw	255
  3896  03F3  054B               	andwf	___fldiv@grs+1,w
  3897  03F4  00BF               	movwf	??___fldiv+1
  3898  03F5  30FF               	movlw	255
  3899  03F6  054C               	andwf	___fldiv@grs+2,w
  3900  03F7  00C0               	movwf	??___fldiv+2
  3901  03F8  307F               	movlw	127
  3902  03F9  054D               	andwf	___fldiv@grs+3,w
  3903  03FA  00C1               	movwf	??___fldiv+3
  3904  03FB  0841               	movf	??___fldiv+3,w
  3905  03FC  0440               	iorwf	??___fldiv+2,w
  3906  03FD  043F               	iorwf	??___fldiv+1,w
  3907  03FE  043E               	iorwf	??___fldiv,w
  3908  03FF  1903               	skipnz
  3909  0400  2C02               	goto	u1701
  3910  0401  2C03               	goto	u1700
  3911  0402                     u1701:
  3912  0402  2C06               	goto	l567
  3913  0403                     u1700:
  3914  0403                     l1460:
  3915  0403  01CF               	clrf	___fldiv@aexp
  3916  0404  0ACF               	incf	___fldiv@aexp,f
  3917  0405  2C0B               	goto	l1464
  3918  0406                     l567:
  3919  0406  1C3A               	btfss	___fldiv@b,0
  3920  0407  2C09               	goto	u1711
  3921  0408  2C0A               	goto	u1710
  3922  0409                     u1711:
  3923  0409  2C0B               	goto	l1464
  3924  040A                     u1710:
  3925  040A  2C03               	goto	l1460
  3926  040B                     l1464:
  3927  040B  084F               	movf	___fldiv@aexp,w
  3928  040C  1903               	btfsc	3,2
  3929  040D  2C0F               	goto	u1721
  3930  040E  2C10               	goto	u1720
  3931  040F                     u1721:
  3932  040F  2C41               	goto	l1474
  3933  0410                     u1720:
  3934  0410                     l1466:
  3935  0410  3001               	movlw	1
  3936  0411  07BA               	addwf	___fldiv@b,f
  3937  0412  3000               	movlw	0
  3938  0413  1803               	skipnc
  3939  0414  3001               	movlw	1
  3940  0415  07BB               	addwf	___fldiv@b+1,f
  3941  0416  3000               	movlw	0
  3942  0417  1803               	skipnc
  3943  0418  3001               	movlw	1
  3944  0419  07BC               	addwf	___fldiv@b+2,f
  3945  041A  3000               	movlw	0
  3946  041B  1803               	skipnc
  3947  041C  3001               	movlw	1
  3948  041D  07BD               	addwf	___fldiv@b+3,f
  3949  041E                     l1468:
  3950  041E  1C3D               	btfss	___fldiv@b+3,0
  3951  041F  2C21               	goto	u1731
  3952  0420  2C22               	goto	u1730
  3953  0421                     u1731:
  3954  0421  2C41               	goto	l1474
  3955  0422                     u1730:
  3956  0422                     l1470:
  3957  0422  083A               	movf	___fldiv@b,w
  3958  0423  00BE               	movwf	??___fldiv
  3959  0424  083B               	movf	___fldiv@b+1,w
  3960  0425  00BF               	movwf	??___fldiv+1
  3961  0426  083C               	movf	___fldiv@b+2,w
  3962  0427  00C0               	movwf	??___fldiv+2
  3963  0428  083D               	movf	___fldiv@b+3,w
  3964  0429  00C1               	movwf	??___fldiv+3
  3965  042A  3001               	movlw	1
  3966  042B  00C2               	movwf	??___fldiv+4
  3967  042C                     u1745:
  3968  042C  0D41               	rlf	??___fldiv+3,w
  3969  042D  0CC1               	rrf	??___fldiv+3,f
  3970  042E  0CC0               	rrf	??___fldiv+2,f
  3971  042F  0CBF               	rrf	??___fldiv+1,f
  3972  0430  0CBE               	rrf	??___fldiv,f
  3973  0431                     u1740:
  3974  0431  0BC2               	decfsz	??___fldiv+4,f
  3975  0432  2C2C               	goto	u1745
  3976  0433  0841               	movf	??___fldiv+3,w
  3977  0434  00BD               	movwf	___fldiv@b+3
  3978  0435  0840               	movf	??___fldiv+2,w
  3979  0436  00BC               	movwf	___fldiv@b+2
  3980  0437  083F               	movf	??___fldiv+1,w
  3981  0438  00BB               	movwf	___fldiv@b+1
  3982  0439  083E               	movf	??___fldiv,w
  3983  043A  00BA               	movwf	___fldiv@b
  3984  043B                     l1472:
  3985  043B  3001               	movlw	1
  3986  043C  07C8               	addwf	___fldiv@new_exp,f
  3987  043D  1803               	skipnc
  3988  043E  0AC9               	incf	___fldiv@new_exp+1,f
  3989  043F  3000               	movlw	0
  3990  0440  07C9               	addwf	___fldiv@new_exp+1,f
  3991  0441                     l1474:
  3992  0441  0849               	movf	___fldiv@new_exp+1,w
  3993  0442  3A80               	xorlw	128
  3994  0443  00FF               	movwf	btemp+1
  3995  0444  3080               	movlw	128
  3996  0445  027F               	subwf	btemp+1,w
  3997  0446  1D03               	skipz
  3998  0447  2C4A               	goto	u1755
  3999  0448  30FF               	movlw	255
  4000  0449  0248               	subwf	___fldiv@new_exp,w
  4001  044A                     u1755:
  4002  044A  1C03               	skipc
  4003  044B  2C4D               	goto	u1751
  4004  044C  2C4E               	goto	u1750
  4005  044D                     u1751:
  4006  044D  2C5C               	goto	l1478
  4007  044E                     u1750:
  4008  044E                     l1476:
  4009  044E  30FF               	movlw	255
  4010  044F  1283               	bcf	3,5	;RP0=0, select bank0
  4011  0450  1303               	bcf	3,6	;RP1=0, select bank0
  4012  0451  00C8               	movwf	___fldiv@new_exp
  4013  0452  3000               	movlw	0
  4014  0453  00C9               	movwf	___fldiv@new_exp+1
  4015  0454  3000               	movlw	0
  4016  0455  00BD               	movwf	___fldiv@b+3
  4017  0456  3000               	movlw	0
  4018  0457  00BC               	movwf	___fldiv@b+2
  4019  0458  3000               	movlw	0
  4020  0459  00BB               	movwf	___fldiv@b+1
  4021  045A  3000               	movlw	0
  4022  045B  00BA               	movwf	___fldiv@b
  4023  045C                     l1478:
  4024  045C  1283               	bcf	3,5	;RP0=0, select bank0
  4025  045D  1303               	bcf	3,6	;RP1=0, select bank0
  4026  045E  0849               	movf	___fldiv@new_exp+1,w
  4027  045F  3A80               	xorlw	128
  4028  0460  00FF               	movwf	btemp+1
  4029  0461  3080               	movlw	128
  4030  0462  027F               	subwf	btemp+1,w
  4031  0463  1D03               	skipz
  4032  0464  2C67               	goto	u1765
  4033  0465  3001               	movlw	1
  4034  0466  0248               	subwf	___fldiv@new_exp,w
  4035  0467                     u1765:
  4036  0467  1803               	skipnc
  4037  0468  2C6A               	goto	u1761
  4038  0469  2C6B               	goto	u1760
  4039  046A                     u1761:
  4040  046A  2C78               	goto	l1486
  4041  046B                     u1760:
  4042  046B                     l1480:
  4043  046B  1283               	bcf	3,5	;RP0=0, select bank0
  4044  046C  1303               	bcf	3,6	;RP1=0, select bank0
  4045  046D  01C8               	clrf	___fldiv@new_exp
  4046  046E  01C9               	clrf	___fldiv@new_exp+1
  4047  046F                     l1482:
  4048  046F  3000               	movlw	0
  4049  0470  00BD               	movwf	___fldiv@b+3
  4050  0471  3000               	movlw	0
  4051  0472  00BC               	movwf	___fldiv@b+2
  4052  0473  3000               	movlw	0
  4053  0474  00BB               	movwf	___fldiv@b+1
  4054  0475  3000               	movlw	0
  4055  0476  00BA               	movwf	___fldiv@b
  4056  0477                     l1484:
  4057  0477  01C7               	clrf	___fldiv@sign
  4058  0478                     l1486:
  4059  0478  1283               	bcf	3,5	;RP0=0, select bank0
  4060  0479  1303               	bcf	3,6	;RP1=0, select bank0
  4061  047A  0848               	movf	___fldiv@new_exp,w
  4062  047B  00FF               	movwf	btemp+1
  4063  047C  087F               	movf	btemp+1,w
  4064  047D  00CE               	movwf	___fldiv@bexp
  4065  047E                     l1488:
  4066  047E  1C4E               	btfss	___fldiv@bexp,0
  4067  047F  2C81               	goto	u1771
  4068  0480  2C82               	goto	u1770
  4069  0481                     u1771:
  4070  0481  2C84               	goto	l1492
  4071  0482                     u1770:
  4072  0482                     l1490:
  4073  0482  17BC               	bsf	___fldiv@b+2,7
  4074  0483  2C88               	goto	l575
  4075  0484                     l1492:
  4076  0484  307F               	movlw	127
  4077  0485  00FF               	movwf	btemp+1
  4078  0486  087F               	movf	btemp+1,w
  4079  0487  05BC               	andwf	___fldiv@b+2,f
  4080  0488                     l575:
  4081  0488  084E               	movf	___fldiv@bexp,w
  4082  0489  00BE               	movwf	??___fldiv
  4083  048A  1003               	clrc
  4084  048B  0C3E               	rrf	??___fldiv,w
  4085  048C  00FF               	movwf	btemp+1
  4086  048D  087F               	movf	btemp+1,w
  4087  048E  00BD               	movwf	___fldiv@b+3
  4088  048F  0847               	movf	___fldiv@sign,w
  4089  0490  00FF               	movwf	btemp+1
  4090  0491  087F               	movf	btemp+1,w
  4091  0492  04BD               	iorwf	___fldiv@b+3,f
  4092  0493  2B2C               	goto	l1398
  4093  0494                     l553:
  4094  0494  0008               	return
  4095  0495                     __end_of___fldiv:
  4096                           
  4097                           	psect	text12
  4098  0CEB                     __ptext12:	
  4099 ;; *************** function _PWM1_Max_Duty *****************
  4100 ;; Defined at:
  4101 ;;		line 3 in file "pwm.c"
  4102 ;; Parameters:    Size  Location     Type
  4103 ;;		None
  4104 ;; Auto vars:     Size  Location     Type
  4105 ;;		None
  4106 ;; Return value:  Size  Location     Type
  4107 ;;                  2    6[BANK0 ] int 
  4108 ;; Registers used:
  4109 ;;		wreg, status,2, status,0, btemp+1, pclath, cstack
  4110 ;; Tracked objects:
  4111 ;;		On entry : 0/0
  4112 ;;		On exit  : 0/0
  4113 ;;		Unchanged: 0/0
  4114 ;; Data sizes:     COMMON   BANK0   BANK1   BANK3   BANK2
  4115 ;;      Params:         0       2       0       0       0
  4116 ;;      Locals:         0       0       0       0       0
  4117 ;;      Temps:          4       0       0       0       0
  4118 ;;      Totals:         4       2       0       0       0
  4119 ;;Total ram usage:        6 bytes
  4120 ;; Hardware stack levels used:    1
  4121 ;; Hardware stack levels required when called:    1
  4122 ;; This function calls:
  4123 ;;		___aldiv
  4124 ;; This function is called by:
  4125 ;;		_PWM1_Set_Duty
  4126 ;; This function uses a non-reentrant model
  4127 ;;
  4128                           
  4129                           
  4130                           ;psect for function _PWM1_Max_Duty
  4131  0CEB                     _PWM1_Max_Duty:
  4132  0CEB                     l1308:	
  4133                           ;incstack = 0
  4134                           ; Regs used in _PWM1_Max_Duty: [wreg+status,2+status,0+btemp+1+pclath+cstack]
  4135                           
  4136                           
  4137                           ;pwm.c: 5:   return(8000000/(frequency1*4));
  4138  0CEB  1683               	bsf	3,5	;RP0=1, select bank1
  4139  0CEC  1303               	bcf	3,6	;RP1=0, select bank1
  4140  0CED  0824               	movf	_frequency1^(0+128),w
  4141  0CEE  00F9               	movwf	??_PWM1_Max_Duty
  4142  0CEF  0825               	movf	(_frequency1+1)^(0+128),w
  4143  0CF0  00FA               	movwf	??_PWM1_Max_Duty+1
  4144  0CF1  0826               	movf	(_frequency1+2)^(0+128),w
  4145  0CF2  00FB               	movwf	??_PWM1_Max_Duty+2
  4146  0CF3  0827               	movf	(_frequency1+3)^(0+128),w
  4147  0CF4  00FC               	movwf	??_PWM1_Max_Duty+3
  4148  0CF5  3002               	movlw	2
  4149  0CF6                     u1375:
  4150  0CF6  1003               	clrc
  4151  0CF7  0DF9               	rlf	??_PWM1_Max_Duty,f
  4152  0CF8  0DFA               	rlf	??_PWM1_Max_Duty+1,f
  4153  0CF9  0DFB               	rlf	??_PWM1_Max_Duty+2,f
  4154  0CFA  0DFC               	rlf	??_PWM1_Max_Duty+3,f
  4155  0CFB                     u1370:
  4156  0CFB  3EFF               	addlw	-1
  4157  0CFC  1D03               	skipz
  4158  0CFD  2CF6               	goto	u1375
  4159  0CFE  087C               	movf	??_PWM1_Max_Duty+3,w
  4160  0CFF  00F3               	movwf	___aldiv@divisor+3
  4161  0D00  087B               	movf	??_PWM1_Max_Duty+2,w
  4162  0D01  00F2               	movwf	___aldiv@divisor+2
  4163  0D02  087A               	movf	??_PWM1_Max_Duty+1,w
  4164  0D03  00F1               	movwf	___aldiv@divisor+1
  4165  0D04  0879               	movf	??_PWM1_Max_Duty,w
  4166  0D05  00F0               	movwf	___aldiv@divisor
  4167  0D06  3000               	movlw	0
  4168  0D07  00F7               	movwf	___aldiv@dividend+3
  4169  0D08  307A               	movlw	122
  4170  0D09  00F6               	movwf	___aldiv@dividend+2
  4171  0D0A  3012               	movlw	18
  4172  0D0B  00F5               	movwf	___aldiv@dividend+1
  4173  0D0C  3000               	movlw	0
  4174  0D0D  00F4               	movwf	___aldiv@dividend
  4175  0D0E  120A  118A  2005  120A  158A  	fcall	___aldiv
  4176  0D13  0871               	movf	?___aldiv+1,w
  4177  0D14  1283               	bcf	3,5	;RP0=0, select bank0
  4178  0D15  1303               	bcf	3,6	;RP1=0, select bank0
  4179  0D16  00A7               	movwf	?_PWM1_Max_Duty+1
  4180  0D17  0870               	movf	?___aldiv,w
  4181  0D18  00A6               	movwf	?_PWM1_Max_Duty
  4182  0D19                     l87:
  4183  0D19  0008               	return
  4184  0D1A                     __end_of_PWM1_Max_Duty:
  4185                           
  4186                           	psect	text13
  4187  0D49                     __ptext13:	
  4188 ;; *************** function _PWM1_Init *****************
  4189 ;; Defined at:
  4190 ;;		line 14 in file "pwm.c"
  4191 ;; Parameters:    Size  Location     Type
  4192 ;;  freq            4    6[BANK0 ] long 
  4193 ;; Auto vars:     Size  Location     Type
  4194 ;;		None
  4195 ;; Return value:  Size  Location     Type
  4196 ;;                  1    wreg      void 
  4197 ;; Registers used:
  4198 ;;		wreg, status,2, status,0, btemp+1, pclath, cstack
  4199 ;; Tracked objects:
  4200 ;;		On entry : 0/0
  4201 ;;		On exit  : 0/0
  4202 ;;		Unchanged: 0/0
  4203 ;; Data sizes:     COMMON   BANK0   BANK1   BANK3   BANK2
  4204 ;;      Params:         0       4       0       0       0
  4205 ;;      Locals:         0       0       0       0       0
  4206 ;;      Temps:          4       0       0       0       0
  4207 ;;      Totals:         4       4       0       0       0
  4208 ;;Total ram usage:        8 bytes
  4209 ;; Hardware stack levels used:    1
  4210 ;; Hardware stack levels required when called:    1
  4211 ;; This function calls:
  4212 ;;		___aldiv
  4213 ;; This function is called by:
  4214 ;;		_main
  4215 ;; This function uses a non-reentrant model
  4216 ;;
  4217                           
  4218                           
  4219                           ;psect for function _PWM1_Init
  4220  0D49                     _PWM1_Init:
  4221  0D49                     l1688:	
  4222                           ;incstack = 0
  4223                           ; Regs used in _PWM1_Init: [wreg+status,2+status,0+btemp+1+pclath+cstack]
  4224                           
  4225                           
  4226                           ;pwm.c: 14: void PWM1_Init(long freq);pwm.c: 15: {;pwm.c: 16:   PR2 = (8000000/(freq*4*4
      +                          )) - 1;
  4227  0D49  1283               	bcf	3,5	;RP0=0, select bank0
  4228  0D4A  1303               	bcf	3,6	;RP1=0, select bank0
  4229  0D4B  0826               	movf	PWM1_Init@freq,w
  4230  0D4C  00F9               	movwf	??_PWM1_Init
  4231  0D4D  0827               	movf	PWM1_Init@freq+1,w
  4232  0D4E  00FA               	movwf	??_PWM1_Init+1
  4233  0D4F  0828               	movf	PWM1_Init@freq+2,w
  4234  0D50  00FB               	movwf	??_PWM1_Init+2
  4235  0D51  0829               	movf	PWM1_Init@freq+3,w
  4236  0D52  00FC               	movwf	??_PWM1_Init+3
  4237  0D53  3002               	movlw	2
  4238  0D54                     u2295:
  4239  0D54  1003               	clrc
  4240  0D55  0DF9               	rlf	??_PWM1_Init,f
  4241  0D56  0DFA               	rlf	??_PWM1_Init+1,f
  4242  0D57  0DFB               	rlf	??_PWM1_Init+2,f
  4243  0D58  0DFC               	rlf	??_PWM1_Init+3,f
  4244  0D59                     u2290:
  4245  0D59  3EFF               	addlw	-1
  4246  0D5A  1D03               	skipz
  4247  0D5B  2D54               	goto	u2295
  4248  0D5C  3002               	movlw	2
  4249  0D5D                     u2305:
  4250  0D5D  1003               	clrc
  4251  0D5E  0DF9               	rlf	??_PWM1_Init,f
  4252  0D5F  0DFA               	rlf	??_PWM1_Init+1,f
  4253  0D60  0DFB               	rlf	??_PWM1_Init+2,f
  4254  0D61  0DFC               	rlf	??_PWM1_Init+3,f
  4255  0D62                     u2300:
  4256  0D62  3EFF               	addlw	-1
  4257  0D63  1D03               	skipz
  4258  0D64  2D5D               	goto	u2305
  4259  0D65  087C               	movf	??_PWM1_Init+3,w
  4260  0D66  00F3               	movwf	___aldiv@divisor+3
  4261  0D67  087B               	movf	??_PWM1_Init+2,w
  4262  0D68  00F2               	movwf	___aldiv@divisor+2
  4263  0D69  087A               	movf	??_PWM1_Init+1,w
  4264  0D6A  00F1               	movwf	___aldiv@divisor+1
  4265  0D6B  0879               	movf	??_PWM1_Init,w
  4266  0D6C  00F0               	movwf	___aldiv@divisor
  4267  0D6D  3000               	movlw	0
  4268  0D6E  00F7               	movwf	___aldiv@dividend+3
  4269  0D6F  307A               	movlw	122
  4270  0D70  00F6               	movwf	___aldiv@dividend+2
  4271  0D71  3012               	movlw	18
  4272  0D72  00F5               	movwf	___aldiv@dividend+1
  4273  0D73  3000               	movlw	0
  4274  0D74  00F4               	movwf	___aldiv@dividend
  4275  0D75  120A  118A  2005  120A  158A  	fcall	___aldiv
  4276  0D7A  0870               	movf	?___aldiv,w
  4277  0D7B  3EFF               	addlw	255
  4278  0D7C  1683               	bsf	3,5	;RP0=1, select bank1
  4279  0D7D  1303               	bcf	3,6	;RP1=0, select bank1
  4280  0D7E  0092               	movwf	18	;volatile
  4281  0D7F                     l1690:
  4282                           
  4283                           ;pwm.c: 17:   frequency1 = freq;
  4284  0D7F  1283               	bcf	3,5	;RP0=0, select bank0
  4285  0D80  1303               	bcf	3,6	;RP1=0, select bank0
  4286  0D81  0829               	movf	PWM1_Init@freq+3,w
  4287  0D82  1683               	bsf	3,5	;RP0=1, select bank1
  4288  0D83  1303               	bcf	3,6	;RP1=0, select bank1
  4289  0D84  00A7               	movwf	(_frequency1+3)^(0+128)
  4290  0D85  1283               	bcf	3,5	;RP0=0, select bank0
  4291  0D86  1303               	bcf	3,6	;RP1=0, select bank0
  4292  0D87  0828               	movf	PWM1_Init@freq+2,w
  4293  0D88  1683               	bsf	3,5	;RP0=1, select bank1
  4294  0D89  1303               	bcf	3,6	;RP1=0, select bank1
  4295  0D8A  00A6               	movwf	(_frequency1+2)^(0+128)
  4296  0D8B  1283               	bcf	3,5	;RP0=0, select bank0
  4297  0D8C  1303               	bcf	3,6	;RP1=0, select bank0
  4298  0D8D  0827               	movf	PWM1_Init@freq+1,w
  4299  0D8E  1683               	bsf	3,5	;RP0=1, select bank1
  4300  0D8F  1303               	bcf	3,6	;RP1=0, select bank1
  4301  0D90  00A5               	movwf	(_frequency1+1)^(0+128)
  4302  0D91  1283               	bcf	3,5	;RP0=0, select bank0
  4303  0D92  1303               	bcf	3,6	;RP1=0, select bank0
  4304  0D93  0826               	movf	PWM1_Init@freq,w
  4305  0D94  1683               	bsf	3,5	;RP0=1, select bank1
  4306  0D95  1303               	bcf	3,6	;RP1=0, select bank1
  4307  0D96  00A4               	movwf	_frequency1^(0+128)
  4308  0D97                     l93:
  4309  0D97  0008               	return
  4310  0D98                     __end_of_PWM1_Init:
  4311                           
  4312                           	psect	text14
  4313  0005                     __ptext14:	
  4314 ;; *************** function ___aldiv *****************
  4315 ;; Defined at:
  4316 ;;		line 5 in file "C:\Program Files\Microchip\xc8\v2.20\pic\sources\c90\common\aldiv.c"
  4317 ;; Parameters:    Size  Location     Type
  4318 ;;  divisor         4    0[COMMON] long 
  4319 ;;  dividend        4    4[COMMON] long 
  4320 ;; Auto vars:     Size  Location     Type
  4321 ;;  quotient        4    2[BANK0 ] long 
  4322 ;;  sign            1    1[BANK0 ] unsigned char 
  4323 ;;  counter         1    0[BANK0 ] unsigned char 
  4324 ;; Return value:  Size  Location     Type
  4325 ;;                  4    0[COMMON] long 
  4326 ;; Registers used:
  4327 ;;		wreg, status,2, status,0, btemp+1
  4328 ;; Tracked objects:
  4329 ;;		On entry : 0/0
  4330 ;;		On exit  : 0/0
  4331 ;;		Unchanged: 0/0
  4332 ;; Data sizes:     COMMON   BANK0   BANK1   BANK3   BANK2
  4333 ;;      Params:         8       0       0       0       0
  4334 ;;      Locals:         0       6       0       0       0
  4335 ;;      Temps:          1       0       0       0       0
  4336 ;;      Totals:         9       6       0       0       0
  4337 ;;Total ram usage:       15 bytes
  4338 ;; Hardware stack levels used:    1
  4339 ;; This function calls:
  4340 ;;		Nothing
  4341 ;; This function is called by:
  4342 ;;		_PWM1_Max_Duty
  4343 ;;		_PWM2_Max_Duty
  4344 ;;		_PWM1_Init
  4345 ;;		_PWM2_Init
  4346 ;; This function uses a non-reentrant model
  4347 ;;
  4348                           
  4349                           
  4350                           ;psect for function ___aldiv
  4351  0005                     ___aldiv:
  4352  0005                     l1252:	
  4353                           ;incstack = 0
  4354                           ; Regs used in ___aldiv: [wreg+status,2+status,0+btemp+1]
  4355                           
  4356  0005  1283               	bcf	3,5	;RP0=0, select bank0
  4357  0006  1303               	bcf	3,6	;RP1=0, select bank0
  4358  0007  01A1               	clrf	___aldiv@sign
  4359  0008                     l1254:
  4360  0008  1FF3               	btfss	___aldiv@divisor+3,7
  4361  0009  280B               	goto	u1241
  4362  000A  280C               	goto	u1240
  4363  000B                     u1241:
  4364  000B  2819               	goto	l267
  4365  000C                     u1240:
  4366  000C                     l1256:
  4367  000C  09F0               	comf	___aldiv@divisor,f
  4368  000D  09F1               	comf	___aldiv@divisor+1,f
  4369  000E  09F2               	comf	___aldiv@divisor+2,f
  4370  000F  09F3               	comf	___aldiv@divisor+3,f
  4371  0010  0AF0               	incf	___aldiv@divisor,f
  4372  0011  1903               	skipnz
  4373  0012  0AF1               	incf	___aldiv@divisor+1,f
  4374  0013  1903               	skipnz
  4375  0014  0AF2               	incf	___aldiv@divisor+2,f
  4376  0015  1903               	skipnz
  4377  0016  0AF3               	incf	___aldiv@divisor+3,f
  4378  0017  01A1               	clrf	___aldiv@sign
  4379  0018  0AA1               	incf	___aldiv@sign,f
  4380  0019                     l267:
  4381  0019  1FF7               	btfss	___aldiv@dividend+3,7
  4382  001A  281C               	goto	u1251
  4383  001B  281D               	goto	u1250
  4384  001C                     u1251:
  4385  001C  282C               	goto	l1262
  4386  001D                     u1250:
  4387  001D                     l1258:
  4388  001D  09F4               	comf	___aldiv@dividend,f
  4389  001E  09F5               	comf	___aldiv@dividend+1,f
  4390  001F  09F6               	comf	___aldiv@dividend+2,f
  4391  0020  09F7               	comf	___aldiv@dividend+3,f
  4392  0021  0AF4               	incf	___aldiv@dividend,f
  4393  0022  1903               	skipnz
  4394  0023  0AF5               	incf	___aldiv@dividend+1,f
  4395  0024  1903               	skipnz
  4396  0025  0AF6               	incf	___aldiv@dividend+2,f
  4397  0026  1903               	skipnz
  4398  0027  0AF7               	incf	___aldiv@dividend+3,f
  4399  0028                     l1260:
  4400  0028  3001               	movlw	1
  4401  0029  00FF               	movwf	btemp+1
  4402  002A  087F               	movf	btemp+1,w
  4403  002B  06A1               	xorwf	___aldiv@sign,f
  4404  002C                     l1262:
  4405  002C  3000               	movlw	0
  4406  002D  00A5               	movwf	___aldiv@quotient+3
  4407  002E  3000               	movlw	0
  4408  002F  00A4               	movwf	___aldiv@quotient+2
  4409  0030  3000               	movlw	0
  4410  0031  00A3               	movwf	___aldiv@quotient+1
  4411  0032  3000               	movlw	0
  4412  0033  00A2               	movwf	___aldiv@quotient
  4413  0034                     l1264:
  4414  0034  0873               	movf	___aldiv@divisor+3,w
  4415  0035  0472               	iorwf	___aldiv@divisor+2,w
  4416  0036  0471               	iorwf	___aldiv@divisor+1,w
  4417  0037  0470               	iorwf	___aldiv@divisor,w
  4418  0038  1903               	skipnz
  4419  0039  283B               	goto	u1261
  4420  003A  283C               	goto	u1260
  4421  003B                     u1261:
  4422  003B  2889               	goto	l1286
  4423  003C                     u1260:
  4424  003C                     l1266:
  4425  003C  01A0               	clrf	___aldiv@counter
  4426  003D  0AA0               	incf	___aldiv@counter,f
  4427  003E  284C               	goto	l1272
  4428  003F                     l1268:
  4429  003F  3001               	movlw	1
  4430  0040  00F8               	movwf	??___aldiv
  4431  0041                     u1275:
  4432  0041  1003               	clrc
  4433  0042  0DF0               	rlf	___aldiv@divisor,f
  4434  0043  0DF1               	rlf	___aldiv@divisor+1,f
  4435  0044  0DF2               	rlf	___aldiv@divisor+2,f
  4436  0045  0DF3               	rlf	___aldiv@divisor+3,f
  4437  0046  0BF8               	decfsz	??___aldiv,f
  4438  0047  2841               	goto	u1275
  4439  0048                     l1270:
  4440  0048  3001               	movlw	1
  4441  0049  00FF               	movwf	btemp+1
  4442  004A  087F               	movf	btemp+1,w
  4443  004B  07A0               	addwf	___aldiv@counter,f
  4444  004C                     l1272:
  4445  004C  1FF3               	btfss	___aldiv@divisor+3,7
  4446  004D  284F               	goto	u1281
  4447  004E  2850               	goto	u1280
  4448  004F                     u1281:
  4449  004F  283F               	goto	l1268
  4450  0050                     u1280:
  4451  0050                     l1274:
  4452  0050  3001               	movlw	1
  4453  0051  00F8               	movwf	??___aldiv
  4454  0052                     u1295:
  4455  0052  1003               	clrc
  4456  0053  0DA2               	rlf	___aldiv@quotient,f
  4457  0054  0DA3               	rlf	___aldiv@quotient+1,f
  4458  0055  0DA4               	rlf	___aldiv@quotient+2,f
  4459  0056  0DA5               	rlf	___aldiv@quotient+3,f
  4460  0057  0BF8               	decfsz	??___aldiv,f
  4461  0058  2852               	goto	u1295
  4462  0059                     l1276:
  4463  0059  0873               	movf	___aldiv@divisor+3,w
  4464  005A  0277               	subwf	___aldiv@dividend+3,w
  4465  005B  1D03               	skipz
  4466  005C  2867               	goto	u1305
  4467  005D  0872               	movf	___aldiv@divisor+2,w
  4468  005E  0276               	subwf	___aldiv@dividend+2,w
  4469  005F  1D03               	skipz
  4470  0060  2867               	goto	u1305
  4471  0061  0871               	movf	___aldiv@divisor+1,w
  4472  0062  0275               	subwf	___aldiv@dividend+1,w
  4473  0063  1D03               	skipz
  4474  0064  2867               	goto	u1305
  4475  0065  0870               	movf	___aldiv@divisor,w
  4476  0066  0274               	subwf	___aldiv@dividend,w
  4477  0067                     u1305:
  4478  0067  1C03               	skipc
  4479  0068  286A               	goto	u1301
  4480  0069  286B               	goto	u1300
  4481  006A                     u1301:
  4482  006A  287A               	goto	l1282
  4483  006B                     u1300:
  4484  006B                     l1278:
  4485  006B  0870               	movf	___aldiv@divisor,w
  4486  006C  02F4               	subwf	___aldiv@dividend,f
  4487  006D  0871               	movf	___aldiv@divisor+1,w
  4488  006E  1C03               	skipc
  4489  006F  0F71               	incfsz	___aldiv@divisor+1,w
  4490  0070  02F5               	subwf	___aldiv@dividend+1,f
  4491  0071  0872               	movf	___aldiv@divisor+2,w
  4492  0072  1C03               	skipc
  4493  0073  0F72               	incfsz	___aldiv@divisor+2,w
  4494  0074  02F6               	subwf	___aldiv@dividend+2,f
  4495  0075  0873               	movf	___aldiv@divisor+3,w
  4496  0076  1C03               	skipc
  4497  0077  0F73               	incfsz	___aldiv@divisor+3,w
  4498  0078  02F7               	subwf	___aldiv@dividend+3,f
  4499  0079                     l1280:
  4500  0079  1422               	bsf	___aldiv@quotient,0
  4501  007A                     l1282:
  4502  007A  3001               	movlw	1
  4503  007B                     u1315:
  4504  007B  1003               	clrc
  4505  007C  0CF3               	rrf	___aldiv@divisor+3,f
  4506  007D  0CF2               	rrf	___aldiv@divisor+2,f
  4507  007E  0CF1               	rrf	___aldiv@divisor+1,f
  4508  007F  0CF0               	rrf	___aldiv@divisor,f
  4509  0080  3EFF               	addlw	-1
  4510  0081  1D03               	skipz
  4511  0082  287B               	goto	u1315
  4512  0083                     l1284:
  4513  0083  3001               	movlw	1
  4514  0084  02A0               	subwf	___aldiv@counter,f
  4515  0085  1D03               	btfss	3,2
  4516  0086  2888               	goto	u1321
  4517  0087  2889               	goto	u1320
  4518  0088                     u1321:
  4519  0088  2850               	goto	l1274
  4520  0089                     u1320:
  4521  0089                     l1286:
  4522  0089  0821               	movf	___aldiv@sign,w
  4523  008A  1903               	btfsc	3,2
  4524  008B  288D               	goto	u1331
  4525  008C  288E               	goto	u1330
  4526  008D                     u1331:
  4527  008D  2899               	goto	l1290
  4528  008E                     u1330:
  4529  008E                     l1288:
  4530  008E  09A2               	comf	___aldiv@quotient,f
  4531  008F  09A3               	comf	___aldiv@quotient+1,f
  4532  0090  09A4               	comf	___aldiv@quotient+2,f
  4533  0091  09A5               	comf	___aldiv@quotient+3,f
  4534  0092  0AA2               	incf	___aldiv@quotient,f
  4535  0093  1903               	skipnz
  4536  0094  0AA3               	incf	___aldiv@quotient+1,f
  4537  0095  1903               	skipnz
  4538  0096  0AA4               	incf	___aldiv@quotient+2,f
  4539  0097  1903               	skipnz
  4540  0098  0AA5               	incf	___aldiv@quotient+3,f
  4541  0099                     l1290:
  4542  0099  0825               	movf	___aldiv@quotient+3,w
  4543  009A  00F3               	movwf	?___aldiv+3
  4544  009B  0824               	movf	___aldiv@quotient+2,w
  4545  009C  00F2               	movwf	?___aldiv+2
  4546  009D  0823               	movf	___aldiv@quotient+1,w
  4547  009E  00F1               	movwf	?___aldiv+1
  4548  009F  0822               	movf	___aldiv@quotient,w
  4549  00A0  00F0               	movwf	?___aldiv
  4550  00A1                     l277:
  4551  00A1  0008               	return
  4552  00A2                     __end_of___aldiv:
  4553  007E                     btemp	set	126	;btemp
  4554  007E                     wtemp0	set	126
  4555                           
  4556                           	psect	config
  4557                           
  4558                           ;Config register CONFIG @ 0x2007
  4559                           ;	Oscillator Selection bits
  4560                           ;	FOSC = HS, HS oscillator
  4561                           ;	Watchdog Timer Enable bit
  4562                           ;	WDTE = OFF, WDT disabled
  4563                           ;	Power-up Timer Enable bit
  4564                           ;	PWRTE = ON, PWRT enabled
  4565                           ;	Brown-out Reset Enable bit
  4566                           ;	BOREN = ON, BOR enabled
  4567                           ;	Low-Voltage (Single-Supply) In-Circuit Serial Programming Enable bit
  4568                           ;	LVP = ON, RB3/PGM pin has PGM function; low-voltage programming enabled
  4569                           ;	Data EEPROM Memory Code Protection bit
  4570                           ;	CPD = OFF, Data EEPROM code protection off
  4571                           ;	Flash Program Memory Write Enable bits
  4572                           ;	WRT = OFF, Write protection off; all program memory may be written to by EECON control
  4573                           ;	In-Circuit Debugger Mode bit
  4574                           ;	DEBUG = 0x1, unprogrammed default
  4575                           ;	Flash Program Memory Code Protection bit
  4576                           ;	CP = OFF, Code protection off
  4577  2007                     	org	8199
  4578  2007  3FF2               	dw	16370

Data Sizes:
    Strings     0
    Constant    0
    Data        0
    BSS         4
    Persistent  8
    Stack       0

Auto Spaces:
    Space          Size  Autos    Used
    COMMON           14     13      13
    BANK0            80     80      80
    BANK1            80      8      20
    BANK3            96      0       0
    BANK2            96      0       0

Pointer List with Targets:

    None.

Critical Paths under _main in COMMON

    _main->_PWM1_Init
    _main->_PWM2_Init
    _PWM2_Set_Duty->_PWM2_Max_Duty
    _PWM2_Max_Duty->___aldiv
    _PWM2_Init->___aldiv
    _PWM1_Set_Duty->_PWM1_Max_Duty
    ___xxtofl->_PWM1_Max_Duty
    ___xxtofl->_PWM2_Max_Duty
    ___fltol->_PWM1_Max_Duty
    ___fltol->_PWM2_Max_Duty
    ___flmul->_PWM1_Max_Duty
    ___flmul->_PWM2_Max_Duty
    _PWM1_Max_Duty->___aldiv
    _PWM1_Init->___aldiv

Critical Paths under _main in BANK0

    _PWM2_Set_Duty->___fltol
    _PWM2_Max_Duty->___aldiv
    _PWM2_Init->___aldiv
    _PWM1_Set_Duty->___fltol
    ___xxtofl->_PWM1_Max_Duty
    ___xxtofl->_PWM2_Max_Duty
    ___fltol->___flmul
    ___flmul->___fldiv
    ___fldiv->___xxtofl
    _PWM1_Max_Duty->___aldiv
    _PWM1_Init->___aldiv

Critical Paths under _main in BANK1

    _main->_PWM1_Set_Duty
    _main->_PWM2_Set_Duty
    _PWM2_Set_Duty->___fltol
    _PWM1_Set_Duty->___fltol

Critical Paths under _main in BANK3

    None.

Critical Paths under _main in BANK2

    None.

Call Graph Tables:

 ---------------------------------------------------------------------------------
 (Depth) Function   	        Calls       Base Space   Used Autos Params    Refs
 ---------------------------------------------------------------------------------
 (0) _main                                                 0     0      0   16270
                          _PWM1_Init
                      _PWM1_Set_Duty
                         _PWM1_Start
                          _PWM2_Init
                      _PWM2_Set_Duty
                         _PWM2_Start
 ---------------------------------------------------------------------------------
 (1) _PWM2_Start                                           0     0      0       0
 ---------------------------------------------------------------------------------
 (1) _PWM2_Set_Duty                                        4     2      2    7107
                                              4 BANK1      4     2      2
                      _PWM2_Max_Duty
                            ___fldiv
                            ___flmul
                            ___fltol
                           ___xxtofl
 ---------------------------------------------------------------------------------
 (2) _PWM2_Max_Duty                                        6     4      2     908
                                              9 COMMON     4     4      0
                                              6 BANK0      2     0      2
                            ___aldiv
 ---------------------------------------------------------------------------------
 (1) _PWM2_Init                                            8     4      4    1028
                                              9 COMMON     4     4      0
                                              6 BANK0      4     0      4
                            ___aldiv
 ---------------------------------------------------------------------------------
 (1) _PWM1_Start                                           0     0      0       0
 ---------------------------------------------------------------------------------
 (1) _PWM1_Set_Duty                                        4     2      2    7107
                                              4 BANK1      4     2      2
                      _PWM1_Max_Duty
                            ___fldiv
                            ___flmul
                            ___fltol
                           ___xxtofl
 ---------------------------------------------------------------------------------
 (2) ___xxtofl                                            14    10      4     778
                                              8 BANK0     14    10      4
                      _PWM1_Max_Duty (ARG)
                      _PWM2_Max_Duty (ARG)
 ---------------------------------------------------------------------------------
 (2) ___fltol                                             10     6      4     533
                                             74 BANK0      6     2      4
                                              0 BANK1      4     4      0
                      _PWM1_Max_Duty (ARG)
                      _PWM2_Max_Duty (ARG)
                            ___fldiv (ARG)
                            ___flmul (ARG)
                           ___xxtofl (ARG)
 ---------------------------------------------------------------------------------
 (2) ___flmul                                             26    18      8    2873
                                             48 BANK0     26    18      8
                      _PWM1_Max_Duty (ARG)
                      _PWM2_Max_Duty (ARG)
                          __Umul8_16
                            ___fldiv (ARG)
                           ___xxtofl (ARG)
 ---------------------------------------------------------------------------------
 (3) __Umul8_16                                            9     7      2     799
                                              0 COMMON     9     7      2
 ---------------------------------------------------------------------------------
 (2) ___fldiv                                             26    18      8    1729
                                             22 BANK0     26    18      8
                           ___xxtofl (ARG)
 ---------------------------------------------------------------------------------
 (2) _PWM1_Max_Duty                                        6     4      2     908
                                              9 COMMON     4     4      0
                                              6 BANK0      2     0      2
                            ___aldiv
 ---------------------------------------------------------------------------------
 (1) _PWM1_Init                                            8     4      4    1028
                                              9 COMMON     4     4      0
                                              6 BANK0      4     0      4
                            ___aldiv
 ---------------------------------------------------------------------------------
 (3) ___aldiv                                             15     7      8     908
                                              0 COMMON     9     1      8
                                              0 BANK0      6     6      0
 ---------------------------------------------------------------------------------
 Estimated maximum stack depth 3
 ---------------------------------------------------------------------------------

 Call Graph Graphs:

 _main (ROOT)
   _PWM1_Init
     ___aldiv
   _PWM1_Set_Duty
     _PWM1_Max_Duty
       ___aldiv
     ___fldiv
       ___xxtofl (ARG)
         _PWM1_Max_Duty (ARG)
           ___aldiv
         _PWM2_Max_Duty (ARG)
           ___aldiv
     ___flmul
       _PWM1_Max_Duty (ARG)
         ___aldiv
       _PWM2_Max_Duty (ARG)
         ___aldiv
       __Umul8_16 (ARG)
       ___fldiv (ARG)
         ___xxtofl (ARG)
           _PWM1_Max_Duty (ARG)
             ___aldiv
           _PWM2_Max_Duty (ARG)
             ___aldiv
       ___xxtofl (ARG)
         _PWM1_Max_Duty (ARG)
           ___aldiv
         _PWM2_Max_Duty (ARG)
           ___aldiv
     ___fltol
       _PWM1_Max_Duty (ARG)
         ___aldiv
       _PWM2_Max_Duty (ARG)
         ___aldiv
       ___fldiv (ARG)
         ___xxtofl (ARG)
           _PWM1_Max_Duty (ARG)
             ___aldiv
           _PWM2_Max_Duty (ARG)
             ___aldiv
       ___flmul (ARG)
         _PWM1_Max_Duty (ARG)
           ___aldiv
         _PWM2_Max_Duty (ARG)
           ___aldiv
         __Umul8_16 (ARG)
         ___fldiv (ARG)
           ___xxtofl (ARG)
             _PWM1_Max_Duty (ARG)
               ___aldiv
             _PWM2_Max_Duty (ARG)
               ___aldiv
         ___xxtofl (ARG)
           _PWM1_Max_Duty (ARG)
             ___aldiv
           _PWM2_Max_Duty (ARG)
             ___aldiv
       ___xxtofl (ARG)
         _PWM1_Max_Duty (ARG)
           ___aldiv
         _PWM2_Max_Duty (ARG)
           ___aldiv
     ___xxtofl
       _PWM1_Max_Duty (ARG)
         ___aldiv
       _PWM2_Max_Duty (ARG)
         ___aldiv
   _PWM1_Start
   _PWM2_Init
     ___aldiv
   _PWM2_Set_Duty
     _PWM2_Max_Duty
       ___aldiv
     ___fldiv
       ___xxtofl (ARG)
         _PWM1_Max_Duty (ARG)
           ___aldiv
         _PWM2_Max_Duty (ARG)
           ___aldiv
     ___flmul
       _PWM1_Max_Duty (ARG)
         ___aldiv
       _PWM2_Max_Duty (ARG)
         ___aldiv
       __Umul8_16 (ARG)
       ___fldiv (ARG)
         ___xxtofl (ARG)
           _PWM1_Max_Duty (ARG)
             ___aldiv
           _PWM2_Max_Duty (ARG)
             ___aldiv
       ___xxtofl (ARG)
         _PWM1_Max_Duty (ARG)
           ___aldiv
         _PWM2_Max_Duty (ARG)
           ___aldiv
     ___fltol
       _PWM1_Max_Duty (ARG)
         ___aldiv
       _PWM2_Max_Duty (ARG)
         ___aldiv
       ___fldiv (ARG)
         ___xxtofl (ARG)
           _PWM1_Max_Duty (ARG)
             ___aldiv
           _PWM2_Max_Duty (ARG)
             ___aldiv
       ___flmul (ARG)
         _PWM1_Max_Duty (ARG)
           ___aldiv
         _PWM2_Max_Duty (ARG)
           ___aldiv
         __Umul8_16 (ARG)
         ___fldiv (ARG)
           ___xxtofl (ARG)
             _PWM1_Max_Duty (ARG)
               ___aldiv
             _PWM2_Max_Duty (ARG)
               ___aldiv
         ___xxtofl (ARG)
           _PWM1_Max_Duty (ARG)
             ___aldiv
           _PWM2_Max_Duty (ARG)
             ___aldiv
       ___xxtofl (ARG)
         _PWM1_Max_Duty (ARG)
           ___aldiv
         _PWM2_Max_Duty (ARG)
           ___aldiv
     ___xxtofl
       _PWM1_Max_Duty (ARG)
         ___aldiv
       _PWM2_Max_Duty (ARG)
         ___aldiv
   _PWM2_Start

 Address spaces:
Name               Size   Autos  Total    Cost      Usage
BITCOMMON            E      0       0       0        0.0%
EEDATA             100      0       0       0        0.0%
NULL                 0      0       0       0        0.0%
CODE                 0      0       0       0        0.0%
COMMON               E      D       D       1       92.9%
BITSFR0              0      0       0       1        0.0%
SFR0                 0      0       0       1        0.0%
BITSFR1              0      0       0       2        0.0%
SFR1                 0      0       0       2        0.0%
STACK                0      0       0       2        0.0%
ABS                  0      0      71       3        0.0%
BITBANK0            50      0       0       4        0.0%
BITSFR3              0      0       0       4        0.0%
SFR3                 0      0       0       4        0.0%
BANK0               50     50      50       5      100.0%
BITSFR2              0      0       0       5        0.0%
SFR2                 0      0       0       5        0.0%
BITBANK1            50      0       0       6        0.0%
BANK1               50      8      14       7       25.0%
BITBANK3            60      0       0       8        0.0%
BANK3               60      0       0       9        0.0%
BITBANK2            60      0       0      10        0.0%
BANK2               60      0       0      11        0.0%
DATA                 0      0      71      12        0.0%


Microchip Technology PIC Macro Assembler V2.20 build 20200408173844 
Symbol Table                                                                                   Thu Dec 16 05:46:56 2021

           ___fldiv@aexp 004F             ___fldiv@bexp 004E             ___fldiv@sign 0047  
      PWM1_Set_Duty@duty 00AC                       l42 0FA6                       l52 0FE3  
                     l44 0FAA                       l37 0F85                       l54 0FE7  
                     l47 0FC2                       l39 0F89                       l49 0FC6  
                     l90 0D48                       l93 0D97                       l87 0D19  
                     l96 0DE6      __Umul8_16@word_mpld 0076                      l100 01AC  
                    l104 02B7                      l113 0CC3                      l107 0CB8  
                    l610 0CD8                      l267 0019                      l603 07E9  
                    l612 0CEA                      l277 00A1                      l551 0314  
                    l553 0494                      l395 0E65                      l635 0E9F  
                    l388 0E7A                      l637 0F36                      l398 0E7A  
                    l575 0488                      l567 0406                      l591 07F5  
                    l648 0F00                      l649 0F0C                      l597 0761  
                    _RB0 0030                      _PR2 0092             ___flmul@aexp 0062  
           ___flmul@bexp 0063             ___flmul@sign 005D             ___flmul@temp 0068  
           ___flmul@prod 0064             ___fltol@exp1 006F                     l1300 0CD2  
                   l1302 0CE1                     l1304 0CE6                     l1312 0D1A  
                   l1410 0355                     l1402 0335                     l1330 0E2D  
                   l1322 0DFD                     l1260 0028                     l1252 0005  
                   l1308 0CEB                     l1420 0374                     l1412 035D  
                   l1404 033A                     l1500 049C                     l1340 0E42  
                   l1332 0E31                     l1324 0E22                     l1316 0DE7  
                   l1270 0048                     l1262 002C                     l1254 0008  
                   l1430 03A6                     l1422 0386                     l1414 0365  
                   l1510 04B1                     l1502 04A2                     l1350 0E6A  
                   l1342 0E4B                     l1326 0E23                     l1318 0DF4  
                   l1280 0079                     l1272 004C                     l1264 0034  
                   l1256 000C                     l1440 03C7                     l1432 03A7  
                   l1424 038A                     l1416 036D                     l1408 0343  
                   l1360 02C9                     l1600 074A                     l1520 04CE  
                   l1512 04B9                     l1504 04A6                     l1352 0E6F  
                   l1328 0E2B                     l1290 0099                     l1282 007A  
                   l1274 0050                     l1266 003C                     l1258 001D  
                   l1450 03E0                     l1442 03C9                     l1434 03B5  
                   l1426 038B                     l1418 036F                     l1370 02DD  
                   l1362 02CA                     l1354 02B8                     l1610 0779  
                   l1602 075E                     l1530 04E5                     l1522 04D2  
                   l1514 04BB                     l1506 04A7                     l1338 0E39  
                   l1284 0083                     l1276 0059                     l1268 003F  
                   l1460 0403                     l1444 03D2                     l1452 03E6  
                   l1428 0394                     l1436 03B9                     l1380 02F6  
                   l1364 02CF                     l1372 02DF                     l1356 02BF  
                   l1620 07B4                     l1612 077D                     l1532 04E7  
                   l1524 04D3                     l1516 04C3                     l1508 04AC  
                   l1348 0E52                     l1700 00A2                     l1278 006B  
                   l1286 0089                     l1470 0422                     l1454 03EA  
                   l1446 03D6                     l1438 03BF                     l1390 030A  
                   l1382 02F7                     l1374 02E7                     l1366 02D4  
                   l1358 02C5                     l1294 0CC5                     l1630 07DD  
                   l1622 07C3                     l1614 0796                     l1606 0766  
                   l1550 0558                     l1542 0502                     l1534 04EF  
                   l1526 04D8                     l1518 04C8                     l1710 019C  
                   l1702 00FF                     l1288 008E                     l1480 046B  
                   l1472 043B                     l1464 040B                     l1456 03EB  
                   l1448 03D7                     l1384 02FC                     l1392 030C  
                   l1376 02EC                     l1368 02DC                     l1296 0CC7  
                   l1632 07E1                     l1624 07CD                     l1608 076B  
                   l1616 079C                     l1560 05D5                     l1552 0584  
                   l1544 0512                     l1536 04F4                     l1528 04DD  
                   l1640 0E7E                     l1704 0108                     l1720 0296  
                   l1712 01AD                     l1490 0482                     l1482 046F  
                   l1466 0410                     l1474 0441                     l1458 03EF  
                   l1394 031C                     l1386 0301                     l1378 02F2  
                   l1298 0CCE                     l1634 07E2                     l1626 07CF  
                   l1618 07A9                     l1570 0655                     l1562 05F2  
                   l1554 05A0                     l1546 051F                     l1538 04F9  
                   l1642 0E83                     l1706 017B                     l1722 02A7  
                   l1714 020A                     l1730 0F3D                     l1492 0484  
                   l1484 0477                     l1476 044E                     l1468 041E  
                   l1396 0328                     l1388 0309                     l1636 07ED  
                   l1628 07D5                     l1580 070D                     l1572 0682  
                   l1564 0602                     l1556 05BC                     l1548 053C  
                   l1660 0EC9                     l1652 0EB0                     l1644 0E87  
                   l1708 018B                     l1716 0213                     l1740 0F50  
                   l1732 0F3E                     l1724 0F37                     l1486 0478  
                   l1478 045C                     l1398 032C                     l1590 0732  
                   l1582 0716                     l1574 0692                     l1566 061F  
                   l1558 05C5                     l1670 0EF6                     l1662 0ECD  
                   l1654 0EB5                     l1646 0E97                     l1718 0286  
                   l1750 0F7F                     l1742 0F55                     l1734 0F3F  
                   l1726 0F3B                     l1488 047E                     l1592 073B  
                   l1584 0724                     l1576 06BF                     l1568 0638  
                   l1680 0F29                     l1672 0EFA                     l1664 0EDB  
                   l1656 0EB9                     l1648 0EA7                     l1760 0FA1  
                   l1744 0F64                     l1736 0F40                     l1728 0F3C  
                   l1690 0D7F                     l1586 072D                     l1594 0741  
                   l1578 06E5                     l1498 0495                     l1682 0F2D  
                   l1674 0F04                     l1666 0EE4                     l1658 0EC2  
                   l1754 0F8A                     l1746 0F69                     l1738 0F43  
                   l1596 0745                     l1588 0731                     l1684 0F2E  
                   l1676 0F0E                     l1668 0EEB                     l1692 0CAE  
                   l1772 0FC7                     l1764 0FAB                     l1756 0F94  
                   l1748 0F74                     l1598 0746                     l1678 0F24  
                   l1694 0D98                     l1782 0FE8                     l1774 0FD1  
                   l1766 0FBB                     l1758 0F9D                     l1688 0D49  
                   l1696 0DCE                     l1784 0FF8                     l1776 0FDA  
                   l1768 0FBD                     l1698 0CB9                     l1786 0FFA  
                   l1778 0FDE                     u2001 06FF                     u2002 0706  
                   u2003 070D                     u1300 006B                     u2100 077D  
                   u1301 006A                     u2101 077C                     u2110 078C  
                   u2030 0731                     u2031 0730                     u2015 070F  
                   u1320 0089                     u1240 000C                     u2120 07A9  
                   u1400 0E19                     u1321 0088                     u1305 0067  
                   u1241 000B                     u2121 07A8                     u2025 0726  
                   u1330 008E                     u1250 001D                     u2130 07C3  
                   u2050 0745                     u1410 0E31                     u2210 0EEA  
                   u1331 008D                     u1315 007B                     u1251 001C  
                   u2131 07C2                     u2115 0787                     u2051 0744  
                   u1411 0E30                     u2211 0EE9                     u1260 003C  
                   u2300 0D62                     u1500 02CF                     u1340 0CD2  
                   u2140 07E1                     u2060 074A                     u1420 0E38  
                   u1261 003B                     u1501 02CE                     u1341 0CD1  
                   u2141 07E0                     u2125 07A5                     u2061 0749  
                   u2045 0734                     u1421 0E37                     u1405 0E14  
                   u2205 0EDC                     u1510 02D4                     u2070 075E  
                   u2230 0EFA                     u2150 0E83                     u2310 0DA8  
                   u1511 02D3                     u2135 07BF                     u2071 075D  
                   u2231 0EF9                     u2151 0E82                     u1280 0050  
                   u1600 038A                     u1520 02F6                     u1360 0CE6  
                   u2080 0765                     u1440 0E4A                     u2240 0F00  
                   u2160 0E87                     u2320 0DB1                     u2400 0FBB  
                   u1281 004F                     u2305 0D5D                     u1601 0389  
                   u1521 02F5                     u1361 0CE5                     u2081 0764  
                   u1441 0E49                     u2241 0EFF                     u2225 0EEF  
                   u2161 0E86                     u2401 0FBA                     u1370 0CFB  
                   u1530 02FC                     u2090 076B                     u1450 0E51  
                   u2250 0F04                     u2170 0EA7                     u2330 0108  
                   u2410 0FC2                     u1275 0041                     u1531 02FB  
                   u1355 0CD9                     u2091 076A                     u1451 0E50  
                   u1435 0E3A                     u2251 0F03                     u2171 0EA6  
                   u2331 0107                     u2315 0DA3                     u2411 0FC1  
                   u1700 0403                     u1620 03A6                     u1540 0301  
                   u2260 0F19                     u1380 0D2A                     u2340 0213  
                   u2420 0FC6                     u1701 0402                     u1621 03A5  
                   u1541 0300                     u2325 0DAC                     u2341 0212  
                   u2421 0FC5                     u1710 040A                     u1630 03BF  
                   u1550 031C                     u1470 0E6A                     u1390 0DF4  
                   u2270 0F29                     u2190 0EC8                     u2430 0FDA  
                   u2350 0F85                     u1295 0052                     u1375 0CF6  
                   u1711 0409                     u1631 03BE                     u1615 038D  
                   u1551 031B                     u1471 0E69                     u1391 0DF3  
                   u2271 0F28                     u2191 0EC7                     u2431 0FD9  
                   u2351 0F84                     u1720 0410                     u1640 03C7  
                   u1560 033A                     u1800 04B1                     u1480 0E6F  
                   u2280 0F2D                     u2440 0FE3                     u2360 0F89  
                   u1721 040F                     u1641 03C6                     u1625 03A2  
                   u1561 0339                     u1801 04B0                     u1481 0E6E  
                   u1465 0E56                     u2281 0F2C                     u2265 0F14  
                   u2185 0EBA                     u1385 0D25                     u2441 0FE2  
                   u2361 0F88                     u2290 0D59                     u1730 0422  
                   u1570 0374                     u1490 02C9                     u1810 04D2  
                   u2450 0FE7                     u2370 0F9D                     u1731 0421  
                   u1571 0373                     u1491 02C8                     u1811 04D1  
                   u2451 0FE6                     u2371 0F9C                     u1740 0431  
                   u1660 03D6                     u1820 04D8                     u2460 0FF8  
                   u2380 0FA6                     u1661 03D5                     u1821 04D7  
                   u2461 0FF7                     u2381 0FA5                     u1750 044E  
                   u1830 04DD                     u2390 0FAA                     u2295 0D54  
                   u1751 044D                     u1655 03CB                     u1911 05E4  
                   u1831 04DC                     u2391 0FA9                     u1760 046B  
                   u1680 03EA                     u1912 05EB                     u1840 04F4  
                   u1761 046A                     u1745 042C                     u1681 03E9  
                   u1585 0376                     u1921 0611                     u1913 05F2  
                   u1905 05BE                     u1841 04F3                     u1770 0482  
                   u1690 03EF                     u1922 0618                     u1850 04F9  
                   u1771 0481                     u1755 044A                     u1691 03EE  
                   u1675 03D9                     u1595 037F                     u1923 061F  
                   u1851 04F8                     u1780 04A6                     u1765 0467  
                   u1941 0647                     u1861 054A                     u1781 04A5  
                   u1942 064E                     u1862 0551                     u1790 04AC  
                   u1951 0674                     u1943 0655                     u1935 0621  
                   u1871 0566                     u1863 0558                     u1791 04AB  
                   u1952 067B                     u1872 056D                     u1961 06A1  
                   u1953 0682                     u1881 0592                     u1873 0574  
                   u1970 06CB                     u1962 06A8                     u1882 0599  
                   u1963 06AF                     u1891 05AE                     u1883 05A0  
                   u1892 05B5                     u1981 06D7                     u1893 05BC  
                   u1990 06F3                     u1982 06DE                     u1983 06E5  
                   u1975 06C6                     u1995 06EE                     _main 0F37  
                   btemp 007E                     start 0000          ___fldiv@new_exp 0048  
          ___fltol@sign1 006E          __end_of___aldiv 00A2                    ?_main 0070  
        __end_of___fldiv 0495          __end_of___flmul 07F6          __end_of___fltol 0E7B  
     __size_of_PWM1_Init 004F              ?_PWM1_Start 0070       __size_of_PWM2_Init 004F  
            ?_PWM2_Start 0070                    status 0003                    wtemp0 007E  
        __initialization 07F6             __end_of_main 1000                   ??_main 007D  
                 _ADCON1 009F                   _CCP1M2 00BA                   _CCP1M3 00BB  
                 _CCPR1L 0015                   _CCPR2L 001B                   _TMR2ON 0092  
                 _TRISB0 0430                   _TRISC1 0439                   _TRISC2 043A  
       __end_of___xxtofl 0F37        __end_of_PWM1_Init 0D98        __end_of_PWM2_Init 0DE7  
              ??___aldiv 0078                ??___fldiv 003E      __size_of_PWM1_Start 000B  
              ??___flmul 0058                ??___fltol 00A8      __size_of_PWM2_Start 000B  
                 _value1 00B2                   _value2 00B0       __size_of__Umul8_16 0027  
           ___xxtofl@arg 0032             ___xxtofl@exp 0031             ___xxtofl@val 0028  
__end_of__initialization 07FC    __end_of_PWM1_Max_Duty 0D1A               ___fltol@f1 006A  
  __end_of_PWM2_Max_Duty 0D49           __pcstackCOMMON 0070    __end_of_PWM1_Set_Duty 01AD  
  __end_of_PWM2_Set_Duty 02B8        PWM2_Set_Duty@duty 00AC               __pbssBANK1 00B0  
      __end_of__Umul8_16 0CEB               __pmaintext 0F37                ?___xxtofl 0028  
           ??_PWM1_Start 0070             ??_PWM2_Start 0070               _frequency1 00A4  
             _frequency2 00A0                  ___aldiv 0005                  ___fldiv 02B8  
                ___flmul 0495                  ___fltol 0DE7       __end_of_PWM1_Start 0CB9  
     __end_of_PWM2_Start 0CC4                  __ptext1 0CB9                  __ptext2 01AD  
                __ptext3 0D1A                  __ptext4 0D98                  __ptext5 0CAE  
                __ptext6 00A2                  __ptext7 0E7B                  __ptext8 0DE7  
                __ptext9 0495                _T2CONbits 0012               ??___xxtofl 002C  
       ___aldiv@dividend 0074     end_of_initialization 07FC         ___aldiv@quotient 0022  
              _PWM1_Init 0D49                _PWM2_Init 0D98                _PORTDbits 0008  
          ___xxtofl@sign 0030                _TRISDbits 0088              ___fldiv@grs 004A  
            ___fldiv@rem 0043              ___flmul@grs 005E              _CCP1CONbits 0017  
            _CCP2CONbits 001D               ?_PWM1_Init 0026               ?_PWM2_Init 0026  
    start_initialization 07F6                __Umul8_16 0CC4                ___fldiv@a 0036  
              ___fldiv@b 003A   __size_of_PWM1_Max_Duty 002F                ___flmul@a 0054  
              ___flmul@b 0050                ___latbits 0002            __pcstackBANK0 0020  
          __pcstackBANK1 00A8   __size_of_PWM2_Max_Duty 002F        __size_of___xxtofl 00BC  
 __size_of_PWM1_Set_Duty 010B   __size_of_PWM2_Set_Duty 010B                __pnvBANK1 00A0  
               ?___aldiv 0070                 ?___fldiv 0036                 ?___flmul 0050  
               ?___fltol 006A               ?__Umul8_16 0070              ??_PWM1_Init 0079  
            ??_PWM2_Init 0079          ___aldiv@divisor 0070          ___aldiv@counter 0020  
          PWM1_Init@freq 0026            _PWM1_Max_Duty 0CEB            _PWM2_Max_Duty 0D1A  
          _PWM1_Set_Duty 00A2            PWM2_Init@freq 0026            _PWM2_Set_Duty 01AD  
         ?_PWM1_Max_Duty 0026           ?_PWM2_Max_Duty 0026           ?_PWM1_Set_Duty 00AC  
            ??__Umul8_16 0072         __size_of___aldiv 009D         __size_of___fldiv 01DD  
         ?_PWM2_Set_Duty 00AC         __size_of___flmul 0361         __size_of___fltol 0094  
               ___xxtofl 0E7B                 __ptext10 0CC4                 __ptext11 02B8  
               __ptext12 0CEB                 __ptext13 0D49                 __ptext14 0005  
          __size_of_main 00C9          ??_PWM1_Max_Duty 0079          ??_PWM2_Max_Duty 0079  
        ??_PWM1_Set_Duty 00AE          ??_PWM2_Set_Duty 00AE   __Umul8_16@multiplicand 0070  
           ___aldiv@sign 0021               _PWM1_Start 0CAE               _PWM2_Start 0CB9  
   __Umul8_16@multiplier 0078        __Umul8_16@product 0074  
