

Microchip MPLAB XC8 Assembler V2.20 build 20200408173844 
                                                                                               Tue Dec 14 08:00:22 2021

Microchip MPLAB XC8 C Compiler v2.20 (Free license) build 20200408173844 Og1 
     1                           	processor	16F877A
     2                           	pagewidth 120
     3                           	opt	flic
     4                           	psect	strings,global,class=STRING,delta=2,noexec
     5                           	psect	cinit,global,class=CODE,merge=1,delta=2
     6                           	psect	bssBANK1,global,class=BANK1,space=1,delta=1,noexec
     7                           	psect	bssBANK3,global,class=BANK3,space=1,delta=1,noexec
     8                           	psect	clrtext,global,class=CODE,delta=2
     9                           	psect	cstackBANK1,global,class=BANK1,space=1,delta=1,noexec
    10                           	psect	cstackCOMMON,global,class=COMMON,space=1,delta=1,noexec
    11                           	psect	cstackBANK0,global,class=BANK0,space=1,delta=1,noexec
    12                           	psect	maintext,global,class=CODE,split=1,delta=2
    13                           	psect	text1,local,class=CODE,merge=1,delta=2
    14                           	psect	text2,local,class=CODE,merge=1,delta=2,group=1
    15                           	psect	text3,local,class=CODE,merge=1,delta=2,group=1
    16                           	psect	text4,local,class=CODE,merge=1,delta=2,group=2
    17                           	psect	text5,local,class=CODE,merge=1,delta=2,group=2
    18                           	psect	text6,local,class=CODE,merge=1,delta=2,group=1
    19                           	psect	text7,local,class=CODE,merge=1,delta=2,group=2
    20                           	psect	text8,local,class=CODE,merge=1,delta=2,group=2
    21                           	psect	text9,local,class=CODE,merge=1,delta=2,group=2
    22                           	psect	text10,local,class=CODE,merge=1,delta=2,group=2
    23                           	psect	text11,local,class=CODE,merge=1,delta=2,group=2
    24                           	psect	text12,local,class=CODE,merge=1,delta=2,group=2
    25                           	psect	text13,local,class=CODE,merge=1,delta=2,group=2
    26                           	psect	text14,local,class=CODE,merge=1,delta=2,group=2
    27                           	psect	text15,local,class=CODE,merge=1,delta=2,group=2
    28                           	psect	text16,local,class=CODE,merge=1,delta=2,group=2
    29                           	psect	text17,local,class=CODE,merge=1,delta=2,group=2
    30                           	psect	text18,local,class=CODE,merge=1,delta=2,group=2
    31                           	psect	text19,local,class=CODE,merge=1,delta=2,group=2
    32                           	psect	text20,local,class=CODE,merge=1,delta=2,group=2
    33                           	psect	text21,local,class=CODE,merge=1,delta=2,group=2
    34                           	psect	text22,local,class=CODE,merge=1,delta=2,group=2
    35                           	psect	text23,local,class=CODE,merge=1,delta=2,group=2
    36                           	psect	text24,local,class=CODE,merge=1,delta=2
    37                           	psect	text25,local,class=CODE,merge=1,delta=2
    38                           	psect	text26,local,class=CODE,merge=1,delta=2
    39                           	psect	text27,local,class=CODE,merge=1,delta=2
    40                           	psect	text28,local,class=CODE,merge=1,delta=2
    41                           	psect	text29,local,class=CODE,merge=1,delta=2
    42                           	psect	text30,local,class=CODE,merge=1,delta=2
    43                           	psect	text31,local,class=CODE,merge=1,delta=2
    44                           	psect	intentry,global,class=CODE,delta=2
    45                           	psect	config,global,abs,ovrld,class=CONFIG,space=4,delta=2,noexec
    46                           	dabs	1,0x7E,2
    47  0000                     
    48                           ; Version 2.20
    49                           ; Generated 12/02/2020 GMT
    50                           ; 
    51                           ; Copyright © 2020, Microchip Technology Inc. and its subsidiaries ("Microchip")
    52                           ; All rights reserved.
    53                           ; 
    54                           ; This software is developed by Microchip Technology Inc. and its subsidiaries ("Microch
      +                          ip").
    55                           ; 
    56                           ; Redistribution and use in source and binary forms, with or without modification, are
    57                           ; permitted provided that the following conditions are met:
    58                           ; 
    59                           ;     1. Redistributions of source code must retain the above copyright notice, this lis
      +                          t of
    60                           ;        conditions and the following disclaimer.
    61                           ; 
    62                           ;     2. Redistributions in binary form must reproduce the above copyright notice, this 
      +                          list
    63                           ;        of conditions and the following disclaimer in the documentation and/or other
    64                           ;        materials provided with the distribution.
    65                           ; 
    66                           ;     3. Microchip's name may not be used to endorse or promote products derived from th
      +                          is
    67                           ;        software without specific prior written permission.
    68                           ; 
    69                           ; THIS SOFTWARE IS PROVIDED BY MICROCHIP "AS IS" AND ANY EXPRESS OR IMPLIED WARRANTIES,
    70                           ; INCLUDING, BUT NOT LIMITED TO, THE IMPLIED WARRANTIES OF MERCHANTABILITY AND FITNESS F
      +                          OR
    71                           ; PURPOSE ARE DISCLAIMED.  IN NO EVENT SHALL MICROCHIP BE LIABLE FOR ANY DIRECT, INDIREC
      +                          T,
    72                           ; INCIDENTAL, SPECIAL, EXEMPLARY, OR CONSEQUENTIAL DAMAGES (INCLUDING BUT NOT LIMITED TO
    73                           ; PROCUREMENT OF SUBSTITUTE GOODS OR SERVICES; LOSS OF USE, DATA OR PROFITS; OR BUSINESS
    74                           ; INTERRUPTION) HOWSOEVER CAUSED AND ON ANY THEORY OF LIABILITY, WHETHER IN CONTRACT, ST
      +                          RICT
    75                           ; LIABILITY, OR TORT (INCLUDING NEGLIGENCE OR OTHERWISE) ARISING IN ANY WAY OUT OF THE U
      +                          SE OF
    76                           ; THIS SOFTWARE, EVEN IF ADVISED OF THE POSSIBILITY OF SUCH DAMAGE.
    77                           ; 
    78                           ; 
    79                           ; Code-generator required, PIC16F877A Definitions
    80                           ; 
    81                           ; SFR Addresses
    82  0000                     	;# 
    83  0001                     	;# 
    84  0002                     	;# 
    85  0003                     	;# 
    86  0004                     	;# 
    87  0005                     	;# 
    88  0006                     	;# 
    89  0007                     	;# 
    90  0008                     	;# 
    91  0009                     	;# 
    92  000A                     	;# 
    93  000B                     	;# 
    94  000C                     	;# 
    95  000D                     	;# 
    96  000E                     	;# 
    97  000E                     	;# 
    98  000F                     	;# 
    99  0010                     	;# 
   100  0011                     	;# 
   101  0012                     	;# 
   102  0013                     	;# 
   103  0014                     	;# 
   104  0015                     	;# 
   105  0015                     	;# 
   106  0016                     	;# 
   107  0017                     	;# 
   108  0018                     	;# 
   109  0019                     	;# 
   110  001A                     	;# 
   111  001B                     	;# 
   112  001B                     	;# 
   113  001C                     	;# 
   114  001D                     	;# 
   115  001E                     	;# 
   116  001F                     	;# 
   117  0081                     	;# 
   118  0085                     	;# 
   119  0086                     	;# 
   120  0087                     	;# 
   121  0088                     	;# 
   122  0089                     	;# 
   123  008C                     	;# 
   124  008D                     	;# 
   125  008E                     	;# 
   126  0091                     	;# 
   127  0092                     	;# 
   128  0093                     	;# 
   129  0094                     	;# 
   130  0098                     	;# 
   131  0099                     	;# 
   132  009C                     	;# 
   133  009D                     	;# 
   134  009E                     	;# 
   135  009F                     	;# 
   136  010C                     	;# 
   137  010D                     	;# 
   138  010E                     	;# 
   139  010F                     	;# 
   140  018C                     	;# 
   141  018D                     	;# 
   142  0000                     	;# 
   143  0001                     	;# 
   144  0002                     	;# 
   145  0003                     	;# 
   146  0004                     	;# 
   147  0005                     	;# 
   148  0006                     	;# 
   149  0007                     	;# 
   150  0008                     	;# 
   151  0009                     	;# 
   152  000A                     	;# 
   153  000B                     	;# 
   154  000C                     	;# 
   155  000D                     	;# 
   156  000E                     	;# 
   157  000E                     	;# 
   158  000F                     	;# 
   159  0010                     	;# 
   160  0011                     	;# 
   161  0012                     	;# 
   162  0013                     	;# 
   163  0014                     	;# 
   164  0015                     	;# 
   165  0015                     	;# 
   166  0016                     	;# 
   167  0017                     	;# 
   168  0018                     	;# 
   169  0019                     	;# 
   170  001A                     	;# 
   171  001B                     	;# 
   172  001B                     	;# 
   173  001C                     	;# 
   174  001D                     	;# 
   175  001E                     	;# 
   176  001F                     	;# 
   177  0081                     	;# 
   178  0085                     	;# 
   179  0086                     	;# 
   180  0087                     	;# 
   181  0088                     	;# 
   182  0089                     	;# 
   183  008C                     	;# 
   184  008D                     	;# 
   185  008E                     	;# 
   186  0091                     	;# 
   187  0092                     	;# 
   188  0093                     	;# 
   189  0094                     	;# 
   190  0098                     	;# 
   191  0099                     	;# 
   192  009C                     	;# 
   193  009D                     	;# 
   194  009E                     	;# 
   195  009F                     	;# 
   196  010C                     	;# 
   197  010D                     	;# 
   198  010E                     	;# 
   199  010F                     	;# 
   200  018C                     	;# 
   201  018D                     	;# 
   202  0000                     	;# 
   203  0001                     	;# 
   204  0002                     	;# 
   205  0003                     	;# 
   206  0004                     	;# 
   207  0005                     	;# 
   208  0006                     	;# 
   209  0007                     	;# 
   210  0008                     	;# 
   211  0009                     	;# 
   212  000A                     	;# 
   213  000B                     	;# 
   214  000C                     	;# 
   215  000D                     	;# 
   216  000E                     	;# 
   217  000E                     	;# 
   218  000F                     	;# 
   219  0010                     	;# 
   220  0011                     	;# 
   221  0012                     	;# 
   222  0013                     	;# 
   223  0014                     	;# 
   224  0015                     	;# 
   225  0015                     	;# 
   226  0016                     	;# 
   227  0017                     	;# 
   228  0018                     	;# 
   229  0019                     	;# 
   230  001A                     	;# 
   231  001B                     	;# 
   232  001B                     	;# 
   233  001C                     	;# 
   234  001D                     	;# 
   235  001E                     	;# 
   236  001F                     	;# 
   237  0081                     	;# 
   238  0085                     	;# 
   239  0086                     	;# 
   240  0087                     	;# 
   241  0088                     	;# 
   242  0089                     	;# 
   243  008C                     	;# 
   244  008D                     	;# 
   245  008E                     	;# 
   246  0091                     	;# 
   247  0092                     	;# 
   248  0093                     	;# 
   249  0094                     	;# 
   250  0098                     	;# 
   251  0099                     	;# 
   252  009C                     	;# 
   253  009D                     	;# 
   254  009E                     	;# 
   255  009F                     	;# 
   256  010C                     	;# 
   257  010D                     	;# 
   258  010E                     	;# 
   259  010F                     	;# 
   260  018C                     	;# 
   261  018D                     	;# 
   262                           
   263                           	psect	strings
   264  1000                     __pstrings:
   265  1000                     stringtab:
   266  1000                     __stringtab:
   267  1000                     stringcode:	
   268                           ;	String table - string pointers are 1 byte each
   269                           
   270  1000                     stringdir:
   271  1000  3010               	movlw	high stringdir
   272  1001  008A               	movwf	10
   273  1002  0804               	movf	4,w
   274  1003  0A84               	incf	4,f
   275  1004  0782               	addwf	2,f
   276  1005                     __stringbase:
   277  1005  3400               	retlw	0
   278  1006                     __end_of__stringtab:
   279  1006                     __powers_:
   280  1006  3400               	retlw	0
   281  1007  3400               	retlw	0
   282  1008  3480               	retlw	128
   283  1009  343F               	retlw	63
   284  100A  3400               	retlw	0
   285  100B  3400               	retlw	0
   286  100C  3420               	retlw	32
   287  100D  3441               	retlw	65
   288  100E  3400               	retlw	0
   289  100F  3400               	retlw	0
   290  1010  34C8               	retlw	200
   291  1011  3442               	retlw	66
   292  1012  3400               	retlw	0
   293  1013  3400               	retlw	0
   294  1014  347A               	retlw	122
   295  1015  3444               	retlw	68
   296  1016  3400               	retlw	0
   297  1017  3440               	retlw	64
   298  1018  341C               	retlw	28
   299  1019  3446               	retlw	70
   300  101A  3400               	retlw	0
   301  101B  3450               	retlw	80
   302  101C  34C3               	retlw	195
   303  101D  3447               	retlw	71
   304  101E  3400               	retlw	0
   305  101F  3424               	retlw	36
   306  1020  3474               	retlw	116
   307  1021  3449               	retlw	73
   308  1022  3480               	retlw	128
   309  1023  3496               	retlw	150
   310  1024  3418               	retlw	24
   311  1025  344B               	retlw	75
   312  1026  3420               	retlw	32
   313  1027  34BC               	retlw	188
   314  1028  34BE               	retlw	190
   315  1029  344C               	retlw	76
   316  102A  3428               	retlw	40
   317  102B  346B               	retlw	107
   318  102C  346E               	retlw	110
   319  102D  344E               	retlw	78
   320  102E  34F9               	retlw	249
   321  102F  3402               	retlw	2
   322  1030  3415               	retlw	21
   323  1031  3450               	retlw	80
   324  1032  34EC               	retlw	236
   325  1033  3478               	retlw	120
   326  1034  34AD               	retlw	173
   327  1035  3460               	retlw	96
   328  1036  34CA               	retlw	202
   329  1037  34F2               	retlw	242
   330  1038  3449               	retlw	73
   331  1039  3471               	retlw	113
   332  103A                     __end_of__powers_:
   333  103A                     __npowers_:
   334  103A  3400               	retlw	0
   335  103B  3400               	retlw	0
   336  103C  3480               	retlw	128
   337  103D  343F               	retlw	63
   338  103E  34CD               	retlw	205
   339  103F  34CC               	retlw	204
   340  1040  34CC               	retlw	204
   341  1041  343D               	retlw	61
   342  1042  340A               	retlw	10
   343  1043  34D7               	retlw	215
   344  1044  3423               	retlw	35
   345  1045  343C               	retlw	60
   346  1046  346F               	retlw	111
   347  1047  3412               	retlw	18
   348  1048  3483               	retlw	131
   349  1049  343A               	retlw	58
   350  104A  3417               	retlw	23
   351  104B  34B7               	retlw	183
   352  104C  34D1               	retlw	209
   353  104D  3438               	retlw	56
   354  104E  34AC               	retlw	172
   355  104F  34C5               	retlw	197
   356  1050  3427               	retlw	39
   357  1051  3437               	retlw	55
   358  1052  34BD               	retlw	189
   359  1053  3437               	retlw	55
   360  1054  3486               	retlw	134
   361  1055  3435               	retlw	53
   362  1056  3495               	retlw	149
   363  1057  34BF               	retlw	191
   364  1058  34D6               	retlw	214
   365  1059  3433               	retlw	51
   366  105A  3477               	retlw	119
   367  105B  34CC               	retlw	204
   368  105C  342B               	retlw	43
   369  105D  3432               	retlw	50
   370  105E  345F               	retlw	95
   371  105F  3470               	retlw	112
   372  1060  3489               	retlw	137
   373  1061  3430               	retlw	48
   374  1062  34FF               	retlw	255
   375  1063  34E6               	retlw	230
   376  1064  34DB               	retlw	219
   377  1065  342E               	retlw	46
   378  1066  3408               	retlw	8
   379  1067  34E5               	retlw	229
   380  1068  343C               	retlw	60
   381  1069  341E               	retlw	30
   382  106A  3460               	retlw	96
   383  106B  3442               	retlw	66
   384  106C  34A2               	retlw	162
   385  106D  340D               	retlw	13
   386  106E                     __end_of__npowers_:
   387  106E                     _dpowers:
   388  106E  3401               	retlw	1
   389  106F  3400               	retlw	0
   390  1070  3400               	retlw	0
   391  1071  3400               	retlw	0
   392  1072  340A               	retlw	10
   393  1073  3400               	retlw	0
   394  1074  3400               	retlw	0
   395  1075  3400               	retlw	0
   396  1076  3464               	retlw	100
   397  1077  3400               	retlw	0
   398  1078  3400               	retlw	0
   399  1079  3400               	retlw	0
   400  107A  34E8               	retlw	232
   401  107B  3403               	retlw	3
   402  107C  3400               	retlw	0
   403  107D  3400               	retlw	0
   404  107E  3410               	retlw	16
   405  107F  3427               	retlw	39
   406  1080  3400               	retlw	0
   407  1081  3400               	retlw	0
   408  1082  34A0               	retlw	160
   409  1083  3486               	retlw	134
   410  1084  3401               	retlw	1
   411  1085  3400               	retlw	0
   412  1086  3440               	retlw	64
   413  1087  3442               	retlw	66
   414  1088  340F               	retlw	15
   415  1089  3400               	retlw	0
   416  108A  3480               	retlw	128
   417  108B  3496               	retlw	150
   418  108C  3498               	retlw	152
   419  108D  3400               	retlw	0
   420  108E  3400               	retlw	0
   421  108F  34E1               	retlw	225
   422  1090  34F5               	retlw	245
   423  1091  3405               	retlw	5
   424  1092  3400               	retlw	0
   425  1093  34CA               	retlw	202
   426  1094  349A               	retlw	154
   427  1095  343B               	retlw	59
   428  1096                     __end_of_dpowers:
   429  000E                     _TMR1L	set	14
   430  000F                     _TMR1H	set	15
   431  0043                     _RD3	set	67
   432  0042                     _RD2	set	66
   433  0047                     _RD7	set	71
   434  0046                     _RD6	set	70
   435  0045                     _RD5	set	69
   436  0044                     _RD4	set	68
   437  0080                     _TMR1ON	set	128
   438  0030                     _RB0	set	48
   439  0085                     _T1CKPS1	set	133
   440  0084                     _T1CKPS0	set	132
   441  0081                     _TMR1CS	set	129
   442  0060                     _TMR1IF	set	96
   443  005E                     _PEIE	set	94
   444  005F                     _GIE	set	95
   445  0088                     _TRISD	set	136
   446  0087                     _TRISC	set	135
   447  009F                     _ADCON1	set	159
   448  0443                     _TRISD3	set	1091
   449  0442                     _TRISD2	set	1090
   450  0430                     _TRISB0	set	1072
   451  0460                     _TMR1IE	set	1120
   452  1096                     STR_1:
   453  1096  3425               	retlw	37	;'%'
   454  1097  3466               	retlw	102	;'f'
   455  1098  3400               	retlw	0
   456                           
   457                           	psect	cinit
   458  000F                     start_initialization:	
   459                           ; #config settings
   460                           
   461  000F                     __initialization:
   462                           
   463                           ; Clear objects allocated to BANK1
   464  000F  1383               	bcf	3,7	;select IRP bank0
   465  0010  30CB               	movlw	low __pbssBANK1
   466  0011  0084               	movwf	4
   467  0012  30D3               	movlw	low (__pbssBANK1+8)
   468  0013  120A  118A  27F7  120A  118A  	fcall	clear_ram0
   469                           
   470                           ; Clear objects allocated to BANK3
   471  0018  1783               	bsf	3,7	;select IRP bank2
   472  0019  3090               	movlw	low __pbssBANK3
   473  001A  0084               	movwf	4
   474  001B  30AE               	movlw	low (__pbssBANK3+30)
   475  001C  120A  118A  27F7  120A  118A  	fcall	clear_ram0
   476  0021                     end_of_initialization:	
   477                           ;End of C runtime variable initialization code
   478                           
   479  0021                     __end_of__initialization:
   480  0021  0183               	clrf	3
   481  0022  120A  158A  2876   	ljmp	_main	;jump to C main() function
   482                           
   483                           	psect	bssBANK1
   484  00CB                     __pbssBANK1:
   485  00CB                     _fFrequency:
   486  00CB                     	ds	4
   487  00CF                     _u32NumberOfCounterOver:
   488  00CF                     	ds	2
   489  00D1                     _NumberOfTick:
   490  00D1                     	ds	2
   491                           
   492                           	psect	bssBANK3
   493  0190                     __pbssBANK3:
   494  0190                     _str:
   495  0190                     	ds	30
   496                           
   497                           	psect	clrtext
   498  07F7                     clear_ram0:	
   499                           ;	Called with FSR containing the base address, and
   500                           ;	W with the last address+1
   501                           
   502  07F7  0064               	clrwdt	;clear the watchdog before getting into this loop
   503  07F8                     clrloop0:
   504  07F8  0180               	clrf	0	;clear RAM location pointed to by FSR
   505  07F9  0A84               	incf	4,f	;increment pointer
   506  07FA  0604               	xorwf	4,w	;XOR with final address
   507  07FB  1903               	btfsc	3,2	;have we reached the end yet?
   508  07FC  3400               	retlw	0	;all done for this memory range, return
   509  07FD  0604               	xorwf	4,w	;XOR again to restore value
   510  07FE  2FF8               	goto	clrloop0	;do the next byte
   511                           
   512                           	psect	cstackBANK1
   513  00A0                     __pcstackBANK1:
   514  00A0                     ?_sprintf:
   515  00A0                     sprintf@f:	
   516                           ; 2 bytes @ 0x0
   517                           
   518                           
   519                           ; 1 bytes @ 0x0
   520  00A0                     	ds	5
   521  00A5                     ??_sprintf:
   522                           
   523                           ; 1 bytes @ 0x5
   524  00A5                     	ds	5
   525  00AA                     _sprintf$806:
   526                           
   527                           ; 4 bytes @ 0xA
   528  00AA                     	ds	4
   529  00AE                     sprintf@ap:
   530                           
   531                           ; 1 bytes @ 0xE
   532  00AE                     	ds	1
   533  00AF                     sprintf@flag:
   534                           
   535                           ; 2 bytes @ 0xF
   536  00AF                     	ds	2
   537  00B1                     sprintf@prec:
   538                           
   539                           ; 2 bytes @ 0x11
   540  00B1                     	ds	2
   541  00B3                     sprintf@val:
   542                           
   543                           ; 4 bytes @ 0x13
   544  00B3                     	ds	4
   545  00B7                     sprintf@eexp:
   546                           
   547                           ; 2 bytes @ 0x17
   548  00B7                     	ds	2
   549  00B9                     sprintf@tmpval:
   550                           
   551                           ; 4 bytes @ 0x19
   552  00B9                     	ds	4
   553  00BD                     sprintf@sp:
   554                           
   555                           ; 1 bytes @ 0x1D
   556  00BD                     	ds	1
   557  00BE                     sprintf@fval:
   558                           
   559                           ; 4 bytes @ 0x1E
   560  00BE                     	ds	4
   561  00C2                     sprintf@c:
   562                           
   563                           ; 1 bytes @ 0x22
   564  00C2                     	ds	1
   565  00C3                     ??_main:
   566                           
   567                           ; 1 bytes @ 0x23
   568  00C3                     	ds	8
   569                           
   570                           	psect	cstackCOMMON
   571  0070                     __pcstackCOMMON:
   572  0070                     ?_LCD_Init:
   573  0070                     ?_LCD_Clear:	
   574                           ; 1 bytes @ 0x0
   575                           
   576  0070                     ?_LCD_Write_String:	
   577                           ; 1 bytes @ 0x0
   578                           
   579  0070                     ?_timer1_config:	
   580                           ; 1 bytes @ 0x0
   581                           
   582  0070                     ?_ISR:	
   583                           ; 1 bytes @ 0x0
   584                           
   585  0070                     ??_ISR:	
   586                           ; 1 bytes @ 0x0
   587                           
   588  0070                     ?_main:	
   589                           ; 1 bytes @ 0x0
   590                           
   591  0070                     ?_LCD_DATA:	
   592                           ; 1 bytes @ 0x0
   593                           
   594  0070                     ?_LCD_CMD:	
   595                           ; 1 bytes @ 0x0
   596                           
   597  0070                     ?_LCD_Write_Char:	
   598                           ; 1 bytes @ 0x0
   599                           
   600                           
   601                           ; 1 bytes @ 0x0
   602  0070                     	ds	2
   603  0072                     ?___fleq:
   604  0072                     ?___flge:	
   605                           ; 1 bit 
   606                           
   607  0072                     ??_timer1_config:	
   608                           ; 1 bit 
   609                           
   610  0072                     ??_LCD_DATA:	
   611                           ; 1 bytes @ 0x2
   612                           
   613  0072                     ?__Umul8_16:	
   614                           ; 1 bytes @ 0x2
   615                           
   616  0072                     ?___wmul:	
   617                           ; 2 bytes @ 0x2
   618                           
   619  0072                     ?___awmod:	
   620                           ; 2 bytes @ 0x2
   621                           
   622  0072                     ?___lwmod:	
   623                           ; 2 bytes @ 0x2
   624                           
   625  0072                     ?__tdiv_to_l_:	
   626                           ; 2 bytes @ 0x2
   627                           
   628  0072                     ?__div_to_l_:	
   629                           ; 4 bytes @ 0x2
   630                           
   631  0072                     ?___lldiv:	
   632                           ; 4 bytes @ 0x2
   633                           
   634  0072                     ?___flneg:	
   635                           ; 4 bytes @ 0x2
   636                           
   637  0072                     ?___llmod:	
   638                           ; 4 bytes @ 0x2
   639                           
   640  0072                     ?___xxtofl:	
   641                           ; 4 bytes @ 0x2
   642                           
   643  0072                     LCD_DATA@Data:	
   644                           ; 4 bytes @ 0x2
   645                           
   646  0072                     __Umul8_16@multiplicand:	
   647                           ; 1 bytes @ 0x2
   648                           
   649  0072                     ___wmul@multiplier:	
   650                           ; 1 bytes @ 0x2
   651                           
   652  0072                     ___awmod@divisor:	
   653                           ; 2 bytes @ 0x2
   654                           
   655  0072                     ___lwmod@divisor:	
   656                           ; 2 bytes @ 0x2
   657                           
   658  0072                     ___lldiv@divisor:	
   659                           ; 2 bytes @ 0x2
   660                           
   661  0072                     __div_to_l_@f1:	
   662                           ; 4 bytes @ 0x2
   663                           
   664  0072                     ___fleq@ff1:	
   665                           ; 4 bytes @ 0x2
   666                           
   667  0072                     ___flge@ff1:	
   668                           ; 4 bytes @ 0x2
   669                           
   670  0072                     ___flneg@f1:	
   671                           ; 4 bytes @ 0x2
   672                           
   673  0072                     __tdiv_to_l_@f1:	
   674                           ; 4 bytes @ 0x2
   675                           
   676  0072                     ___llmod@divisor:	
   677                           ; 4 bytes @ 0x2
   678                           
   679  0072                     ___xxtofl@val:	
   680                           ; 4 bytes @ 0x2
   681                           
   682                           
   683                           ; 4 bytes @ 0x2
   684  0072                     	ds	1
   685  0073                     ??_LCD_CMD:
   686  0073                     ??_LCD_Write_Char:	
   687                           ; 1 bytes @ 0x3
   688                           
   689                           
   690                           ; 1 bytes @ 0x3
   691  0073                     	ds	1
   692  0074                     ??__Umul8_16:
   693  0074                     ___wmul@multiplicand:	
   694                           ; 1 bytes @ 0x4
   695                           
   696  0074                     ___awmod@dividend:	
   697                           ; 2 bytes @ 0x4
   698                           
   699  0074                     ___lwmod@dividend:	
   700                           ; 2 bytes @ 0x4
   701                           
   702                           
   703                           ; 2 bytes @ 0x4
   704  0074                     	ds	1
   705  0075                     LCD_CMD@CMD:
   706  0075                     LCD_Write_Char@Low4:	
   707                           ; 1 bytes @ 0x5
   708                           
   709                           
   710                           ; 1 bytes @ 0x5
   711  0075                     	ds	1
   712  0076                     ??_LCD_Init:
   713  0076                     ??_LCD_Clear:	
   714                           ; 1 bytes @ 0x6
   715                           
   716  0076                     ?_LCD_Set_Cursor:	
   717                           ; 1 bytes @ 0x6
   718                           
   719  0076                     ??___wmul:	
   720                           ; 1 bytes @ 0x6
   721                           
   722  0076                     ??___awmod:	
   723                           ; 1 bytes @ 0x6
   724                           
   725  0076                     ??___flneg:	
   726                           ; 1 bytes @ 0x6
   727                           
   728  0076                     ??___lwmod:	
   729                           ; 1 bytes @ 0x6
   730                           
   731  0076                     ??___xxtofl:	
   732                           ; 1 bytes @ 0x6
   733                           
   734  0076                     LCD_Set_Cursor@c:	
   735                           ; 1 bytes @ 0x6
   736                           
   737  0076                     LCD_Write_Char@High4:	
   738                           ; 1 bytes @ 0x6
   739                           
   740  0076                     ___awmod@counter:	
   741                           ; 1 bytes @ 0x6
   742                           
   743  0076                     ___lwmod@counter:	
   744                           ; 1 bytes @ 0x6
   745                           
   746  0076                     ___wmul@product:	
   747                           ; 1 bytes @ 0x6
   748                           
   749  0076                     __Umul8_16@product:	
   750                           ; 2 bytes @ 0x6
   751                           
   752  0076                     ___lldiv@dividend:	
   753                           ; 2 bytes @ 0x6
   754                           
   755  0076                     __div_to_l_@f2:	
   756                           ; 4 bytes @ 0x6
   757                           
   758  0076                     ___fleq@ff2:	
   759                           ; 4 bytes @ 0x6
   760                           
   761  0076                     ___flge@ff2:	
   762                           ; 4 bytes @ 0x6
   763                           
   764  0076                     __tdiv_to_l_@f2:	
   765                           ; 4 bytes @ 0x6
   766                           
   767  0076                     ___llmod@dividend:	
   768                           ; 4 bytes @ 0x6
   769                           
   770                           
   771                           ; 4 bytes @ 0x6
   772  0076                     	ds	1
   773  0077                     ??_LCD_Set_Cursor:
   774  0077                     ?___lwdiv:	
   775                           ; 1 bytes @ 0x7
   776                           
   777  0077                     LCD_Write_Char@Data:	
   778                           ; 2 bytes @ 0x7
   779                           
   780  0077                     ___awmod@sign:	
   781                           ; 1 bytes @ 0x7
   782                           
   783  0077                     ___lwdiv@divisor:	
   784                           ; 1 bytes @ 0x7
   785                           
   786                           
   787                           ; 2 bytes @ 0x7
   788  0077                     	ds	1
   789  0078                     ??_LCD_Write_String:
   790  0078                     ?___awdiv:	
   791                           ; 1 bytes @ 0x8
   792                           
   793  0078                     LCD_Set_Cursor@r:	
   794                           ; 2 bytes @ 0x8
   795                           
   796  0078                     ___awdiv@divisor:	
   797                           ; 1 bytes @ 0x8
   798                           
   799  0078                     __Umul8_16@word_mpld:	
   800                           ; 2 bytes @ 0x8
   801                           
   802                           
   803                           ; 2 bytes @ 0x8
   804  0078                     	ds	1
   805  0079                     LCD_Set_Cursor@Low4:
   806  0079                     LCD_Write_String@i:	
   807                           ; 1 bytes @ 0x9
   808                           
   809  0079                     ___lwdiv@dividend:	
   810                           ; 2 bytes @ 0x9
   811                           
   812                           
   813                           ; 2 bytes @ 0x9
   814  0079                     	ds	1
   815  007A                     ??__div_to_l_:
   816  007A                     ??___lldiv:	
   817                           ; 1 bytes @ 0xA
   818                           
   819  007A                     ??___llmod:	
   820                           ; 1 bytes @ 0xA
   821                           
   822  007A                     LCD_Set_Cursor@High4:	
   823                           ; 1 bytes @ 0xA
   824                           
   825  007A                     __Umul8_16@multiplier:	
   826                           ; 1 bytes @ 0xA
   827                           
   828  007A                     ___awdiv@dividend:	
   829                           ; 1 bytes @ 0xA
   830                           
   831                           
   832                           ; 2 bytes @ 0xA
   833  007A                     	ds	1
   834  007B                     ??___lwdiv:
   835  007B                     LCD_Set_Cursor@Temp:	
   836                           ; 1 bytes @ 0xB
   837                           
   838  007B                     LCD_Write_String@str:	
   839                           ; 1 bytes @ 0xB
   840                           
   841  007B                     ___llmod@counter:	
   842                           ; 1 bytes @ 0xB
   843                           
   844                           
   845                           ; 1 bytes @ 0xB
   846  007B                     	ds	1
   847  007C                     ??___awdiv:
   848  007C                     ??___flsub:	
   849                           ; 1 bytes @ 0xC
   850                           
   851                           
   852                           	psect	cstackBANK0
   853  0020                     __pcstackBANK0:	
   854                           ; 1 bytes @ 0xC
   855                           
   856  0020                     ??__tdiv_to_l_:
   857  0020                     ??___fleq:	
   858                           ; 1 bytes @ 0x0
   859                           
   860  0020                     ??___flge:	
   861                           ; 1 bytes @ 0x0
   862                           
   863  0020                     ___awdiv@counter:	
   864                           ; 1 bytes @ 0x0
   865                           
   866  0020                     ___xxtofl@sign:	
   867                           ; 1 bytes @ 0x0
   868                           
   869  0020                     ___lwdiv@quotient:	
   870                           ; 1 bytes @ 0x0
   871                           
   872  0020                     ___lldiv@quotient:	
   873                           ; 2 bytes @ 0x0
   874                           
   875  0020                     __div_to_l_@quot:	
   876                           ; 4 bytes @ 0x0
   877                           
   878                           
   879                           ; 4 bytes @ 0x0
   880  0020                     	ds	1
   881  0021                     ___awdiv@sign:
   882  0021                     ___xxtofl@exp:	
   883                           ; 1 bytes @ 0x1
   884                           
   885                           
   886                           ; 1 bytes @ 0x1
   887  0021                     	ds	1
   888  0022                     ___lwdiv@counter:
   889  0022                     ___awdiv@quotient:	
   890                           ; 1 bytes @ 0x2
   891                           
   892  0022                     ___xxtofl@arg:	
   893                           ; 2 bytes @ 0x2
   894                           
   895                           
   896                           ; 4 bytes @ 0x2
   897  0022                     	ds	1
   898  0023                     __tdiv_to_l_@quot:
   899                           
   900                           ; 4 bytes @ 0x3
   901  0023                     	ds	1
   902  0024                     ?___flmul:
   903  0024                     ___lldiv@counter:	
   904                           ; 4 bytes @ 0x4
   905                           
   906  0024                     __div_to_l_@cntr:	
   907                           ; 1 bytes @ 0x4
   908                           
   909  0024                     ___flmul@b:	
   910                           ; 1 bytes @ 0x4
   911                           
   912                           
   913                           ; 4 bytes @ 0x4
   914  0024                     	ds	1
   915  0025                     __div_to_l_@exp1:
   916                           
   917                           ; 1 bytes @ 0x5
   918  0025                     	ds	1
   919  0026                     ?___fldiv:
   920  0026                     ___fldiv@a:	
   921                           ; 4 bytes @ 0x6
   922                           
   923                           
   924                           ; 4 bytes @ 0x6
   925  0026                     	ds	1
   926  0027                     __tdiv_to_l_@cntr:
   927                           
   928                           ; 1 bytes @ 0x7
   929  0027                     	ds	1
   930  0028                     __tdiv_to_l_@exp1:
   931  0028                     ___flmul@a:	
   932                           ; 1 bytes @ 0x8
   933                           
   934                           
   935                           ; 4 bytes @ 0x8
   936  0028                     	ds	2
   937  002A                     ___fldiv@b:
   938                           
   939                           ; 4 bytes @ 0xA
   940  002A                     	ds	2
   941  002C                     ??___flmul:
   942                           
   943                           ; 1 bytes @ 0xC
   944  002C                     	ds	2
   945  002E                     ??___fldiv:
   946                           
   947                           ; 1 bytes @ 0xE
   948  002E                     	ds	3
   949  0031                     ___flmul@sign:
   950                           
   951                           ; 1 bytes @ 0x11
   952  0031                     	ds	1
   953  0032                     ___flmul@grs:
   954                           
   955                           ; 4 bytes @ 0x12
   956  0032                     	ds	1
   957  0033                     ___fldiv@rem:
   958                           
   959                           ; 4 bytes @ 0x13
   960  0033                     	ds	3
   961  0036                     ___flmul@aexp:
   962                           
   963                           ; 1 bytes @ 0x16
   964  0036                     	ds	1
   965  0037                     ___fldiv@sign:
   966  0037                     ___flmul@bexp:	
   967                           ; 1 bytes @ 0x17
   968                           
   969                           
   970                           ; 1 bytes @ 0x17
   971  0037                     	ds	1
   972  0038                     ___fldiv@new_exp:
   973  0038                     ___flmul@prod:	
   974                           ; 2 bytes @ 0x18
   975                           
   976                           
   977                           ; 4 bytes @ 0x18
   978  0038                     	ds	2
   979  003A                     ___fldiv@grs:
   980                           
   981                           ; 4 bytes @ 0x1A
   982  003A                     	ds	2
   983  003C                     ___flmul@temp:
   984                           
   985                           ; 2 bytes @ 0x1C
   986  003C                     	ds	2
   987  003E                     ?_fround:
   988  003E                     ?_scale:	
   989                           ; 4 bytes @ 0x1E
   990                           
   991  003E                     ___fldiv@bexp:	
   992                           ; 4 bytes @ 0x1E
   993                           
   994                           
   995                           ; 1 bytes @ 0x1E
   996  003E                     	ds	1
   997  003F                     ___fldiv@aexp:
   998                           
   999                           ; 1 bytes @ 0x1F
  1000  003F                     	ds	3
  1001  0042                     ??_fround:
  1002  0042                     ??_scale:	
  1003                           ; 1 bytes @ 0x22
  1004                           
  1005                           
  1006                           ; 1 bytes @ 0x22
  1007  0042                     	ds	7
  1008  0049                     _fround$804:
  1009                           
  1010                           ; 4 bytes @ 0x29
  1011  0049                     	ds	3
  1012  004C                     _scale$805:
  1013                           
  1014                           ; 4 bytes @ 0x2C
  1015  004C                     	ds	1
  1016  004D                     _fround$803:
  1017                           
  1018                           ; 4 bytes @ 0x2D
  1019  004D                     	ds	3
  1020  0050                     scale@scl:
  1021                           
  1022                           ; 1 bytes @ 0x30
  1023  0050                     	ds	1
  1024  0051                     ?___fltol:
  1025  0051                     fround@prec:	
  1026                           ; 4 bytes @ 0x31
  1027                           
  1028  0051                     ___fltol@f1:	
  1029                           ; 1 bytes @ 0x31
  1030                           
  1031                           
  1032                           ; 4 bytes @ 0x31
  1033  0051                     	ds	1
  1034  0052                     ?___fladd:
  1035  0052                     ___fladd@b:	
  1036                           ; 4 bytes @ 0x32
  1037                           
  1038                           
  1039                           ; 4 bytes @ 0x32
  1040  0052                     	ds	3
  1041  0055                     ??___fltol:
  1042                           
  1043                           ; 1 bytes @ 0x35
  1044  0055                     	ds	1
  1045  0056                     ___fladd@a:
  1046                           
  1047                           ; 4 bytes @ 0x36
  1048  0056                     	ds	3
  1049  0059                     ___fltol@sign1:
  1050                           
  1051                           ; 1 bytes @ 0x39
  1052  0059                     	ds	1
  1053  005A                     ??___fladd:
  1054  005A                     ___fltol@exp1:	
  1055                           ; 1 bytes @ 0x3A
  1056                           
  1057                           
  1058                           ; 1 bytes @ 0x3A
  1059  005A                     	ds	8
  1060  0062                     ___fladd@signs:
  1061                           
  1062                           ; 1 bytes @ 0x42
  1063  0062                     	ds	1
  1064  0063                     ___fladd@aexp:
  1065                           
  1066                           ; 1 bytes @ 0x43
  1067  0063                     	ds	1
  1068  0064                     ___fladd@bexp:
  1069                           
  1070                           ; 1 bytes @ 0x44
  1071  0064                     	ds	1
  1072  0065                     ___fladd@grs:
  1073                           
  1074                           ; 1 bytes @ 0x45
  1075  0065                     	ds	1
  1076  0066                     ?___flsub:
  1077  0066                     ___flsub@a:	
  1078                           ; 4 bytes @ 0x46
  1079                           
  1080                           
  1081                           ; 4 bytes @ 0x46
  1082  0066                     	ds	4
  1083  006A                     ___flsub@b:
  1084                           
  1085                           ; 4 bytes @ 0x4A
  1086  006A                     	ds	4
  1087                           
  1088                           	psect	maintext
  1089  0876                     __pmaintext:	
  1090 ;;
  1091 ;;Main: autosize = 0, tempsize = 8, incstack = 0, save=0
  1092 ;;
  1093 ;; *************** function _main *****************
  1094 ;; Defined at:
  1095 ;;		line 52 in file "main_do_tan-so.c"
  1096 ;; Parameters:    Size  Location     Type
  1097 ;;		None
  1098 ;; Auto vars:     Size  Location     Type
  1099 ;;		None
  1100 ;; Return value:  Size  Location     Type
  1101 ;;                  1    wreg      void 
  1102 ;; Registers used:
  1103 ;;		wreg, fsr0l, fsr0h, status,2, status,0, btemp+1, pclath, cstack
  1104 ;; Tracked objects:
  1105 ;;		On entry : B00/0
  1106 ;;		On exit  : 0/0
  1107 ;;		Unchanged: 0/0
  1108 ;; Data sizes:     COMMON   BANK0   BANK1   BANK3   BANK2
  1109 ;;      Params:         0       0       0       0       0
  1110 ;;      Locals:         0       0       0       0       0
  1111 ;;      Temps:          0       0       8       0       0
  1112 ;;      Totals:         0       0       8       0       0
  1113 ;;Total ram usage:        8 bytes
  1114 ;; Hardware stack levels required when called:    5
  1115 ;; This function calls:
  1116 ;;		_LCD_Clear
  1117 ;;		_LCD_Init
  1118 ;;		_LCD_Set_Cursor
  1119 ;;		_LCD_Write_String
  1120 ;;		___fldiv
  1121 ;;		___xxtofl
  1122 ;;		_sprintf
  1123 ;;		_timer1_config
  1124 ;; This function is called by:
  1125 ;;		Startup code after reset
  1126 ;; This function uses a non-reentrant model
  1127 ;;
  1128                           
  1129                           
  1130                           ;psect for function _main
  1131  0876                     _main:
  1132  0876                     l3530:	
  1133                           ;incstack = 0
  1134                           ; Regs used in _main: [wreg-fsr0h+status,2+status,0+btemp+1+pclath+cstack]
  1135                           
  1136  0876  3006               	movlw	6
  1137  0877  1683               	bsf	3,5	;RP0=1, select bank1
  1138  0878  1303               	bcf	3,6	;RP1=0, select bank1
  1139  0879  009F               	movwf	31	;volatile
  1140  087A                     l3532:
  1141  087A  1406               	bsf	6,0	;volatile
  1142  087B                     l3534:
  1143  087B  0187               	clrf	7	;volatile
  1144  087C                     l3536:
  1145  087C  0188               	clrf	8	;volatile
  1146  087D                     l3538:
  1147  087D  160A  158A  26B5  120A  158A  	fcall	_LCD_Init
  1148  0882                     l3540:
  1149  0882  120A  118A  27EA  120A  158A  	fcall	_LCD_Clear
  1150  0887                     l3542:
  1151  0887  01F6               	clrf	LCD_Set_Cursor@c
  1152  0888  0AF6               	incf	LCD_Set_Cursor@c,f
  1153  0889  3001               	movlw	1
  1154  088A  160A  158A  2564  120A  158A  	fcall	_LCD_Set_Cursor
  1155  088F                     l3544:
  1156  088F  120A  158A  2001  120A  158A  	fcall	_timer1_config
  1157  0894                     l3546:
  1158  0894  1283               	bcf	3,5	;RP0=0, select bank0
  1159  0895  1303               	bcf	3,6	;RP1=0, select bank0
  1160  0896  018F               	clrf	15	;volatile
  1161  0897                     l3548:
  1162  0897  018E               	clrf	14	;volatile
  1163  0898                     l63:
  1164  0898  1806               	btfsc	6,0	;volatile
  1165  0899  289B               	goto	u5851
  1166  089A  289C               	goto	u5850
  1167  089B                     u5851:
  1168  089B  2898               	goto	l63
  1169  089C                     u5850:
  1170  089C                     l66:
  1171  089C  1C06               	btfss	6,0	;volatile
  1172  089D  289F               	goto	u5861
  1173  089E  28A0               	goto	u5860
  1174  089F                     u5861:
  1175  089F  289C               	goto	l66
  1176  08A0                     u5860:
  1177  08A0                     l68:
  1178  08A0  1410               	bsf	16,0	;volatile
  1179  08A1                     l69:
  1180  08A1  1806               	btfsc	6,0	;volatile
  1181  08A2  28A4               	goto	u5871
  1182  08A3  28A5               	goto	u5870
  1183  08A4                     u5871:
  1184  08A4  28A1               	goto	l69
  1185  08A5                     u5870:
  1186  08A5                     l72:
  1187  08A5  1C06               	btfss	6,0	;volatile
  1188  08A6  28A8               	goto	u5881
  1189  08A7  28A9               	goto	u5880
  1190  08A8                     u5881:
  1191  08A8  28A5               	goto	l72
  1192  08A9                     u5880:
  1193  08A9                     l74:
  1194  08A9  1010               	bcf	16,0	;volatile
  1195  08AA                     l3550:
  1196  08AA  080F               	movf	15,w	;volatile
  1197  08AB  1683               	bsf	3,5	;RP0=1, select bank1
  1198  08AC  1303               	bcf	3,6	;RP1=0, select bank1
  1199  08AD  00D2               	movwf	(_NumberOfTick+1)^(0+128)
  1200  08AE  1283               	bcf	3,5	;RP0=0, select bank0
  1201  08AF  1303               	bcf	3,6	;RP1=0, select bank0
  1202  08B0  080E               	movf	14,w	;volatile
  1203  08B1  1683               	bsf	3,5	;RP0=1, select bank1
  1204  08B2  1303               	bcf	3,6	;RP1=0, select bank1
  1205  08B3  00D1               	movwf	_NumberOfTick^(0+128)
  1206  08B4                     l3552:
  1207                           
  1208                           ;main_do_tan-so.c: 91:         fFrequency = 5000000.0/(NumberOfTick+u32NumberOfCounterOv
      +                          er*65536);
  1209  08B4  084F               	movf	_u32NumberOfCounterOver^(0+128),w
  1210  08B5  00C3               	movwf	??_main^(0+128)
  1211  08B6  0850               	movf	(_u32NumberOfCounterOver+1)^(0+128),w
  1212  08B7  00C4               	movwf	(??_main^(0+128)+1)
  1213  08B8  01C5               	clrf	(??_main^(0+128)+2)
  1214  08B9  01C6               	clrf	(??_main^(0+128)+3)
  1215  08BA  3010               	movlw	16
  1216  08BB                     u5895:
  1217  08BB  1003               	clrc
  1218  08BC  0DC3               	rlf	??_main^(0+128),f
  1219  08BD  0DC4               	rlf	(??_main^(0+128)+1),f
  1220  08BE  0DC5               	rlf	(??_main^(0+128)+2),f
  1221  08BF  0DC6               	rlf	(??_main^(0+128)+3),f
  1222  08C0                     u5890:
  1223  08C0  3EFF               	addlw	-1
  1224  08C1  1D03               	skipz
  1225  08C2  28BB               	goto	u5895
  1226  08C3  0851               	movf	_NumberOfTick^(0+128),w
  1227  08C4  00C7               	movwf	(??_main+4)^(0+128)
  1228  08C5  0852               	movf	(_NumberOfTick+1)^(0+128),w
  1229  08C6  00C8               	movwf	((??_main+4)^(0+128)+1)
  1230  08C7  01C9               	clrf	((??_main+4)^(0+128)+2)
  1231  08C8  01CA               	clrf	((??_main+4)^(0+128)+3)
  1232  08C9  0847               	movf	(??_main+4)^(0+128),w
  1233  08CA  07C3               	addwf	??_main^(0+128),f
  1234  08CB  0848               	movf	(??_main+5)^(0+128),w
  1235  08CC  1803               	skipnc
  1236  08CD  0F48               	incfsz	(??_main+5)^(0+128),w
  1237  08CE  28D0               	goto	u5900
  1238  08CF  28D1               	goto	u5901
  1239  08D0                     u5900:
  1240  08D0  07C4               	addwf	(??_main^(0+128)+1),f
  1241  08D1                     u5901:
  1242  08D1  0849               	movf	(??_main+6)^(0+128),w
  1243  08D2  1803               	skipnc
  1244  08D3  0F49               	incfsz	(??_main+6)^(0+128),w
  1245  08D4  28D6               	goto	u5902
  1246  08D5  28D7               	goto	u5903
  1247  08D6                     u5902:
  1248  08D6  07C5               	addwf	(??_main^(0+128)+2),f
  1249  08D7                     u5903:
  1250  08D7  084A               	movf	(??_main+7)^(0+128),w
  1251  08D8  1803               	skipnc
  1252  08D9  0A4A               	incf	(??_main+7)^(0+128),w
  1253  08DA  07C6               	addwf	(??_main^(0+128)+3),f
  1254  08DB  0846               	movf	(??_main+3)^(0+128),w
  1255  08DC  00F5               	movwf	___xxtofl@val+3
  1256  08DD  0845               	movf	(??_main+2)^(0+128),w
  1257  08DE  00F4               	movwf	___xxtofl@val+2
  1258  08DF  0844               	movf	(??_main+1)^(0+128),w
  1259  08E0  00F3               	movwf	___xxtofl@val+1
  1260  08E1  0843               	movf	??_main^(0+128),w
  1261  08E2  00F2               	movwf	___xxtofl@val
  1262  08E3  3001               	movlw	1
  1263  08E4  160A  118A  2164  120A  158A  	fcall	___xxtofl
  1264  08E9  0875               	movf	?___xxtofl+3,w
  1265  08EA  1283               	bcf	3,5	;RP0=0, select bank0
  1266  08EB  1303               	bcf	3,6	;RP1=0, select bank0
  1267  08EC  00A9               	movwf	___fldiv@a+3
  1268  08ED  0874               	movf	?___xxtofl+2,w
  1269  08EE  00A8               	movwf	___fldiv@a+2
  1270  08EF  0873               	movf	?___xxtofl+1,w
  1271  08F0  00A7               	movwf	___fldiv@a+1
  1272  08F1  0872               	movf	?___xxtofl,w
  1273  08F2  00A6               	movwf	___fldiv@a
  1274  08F3  304A               	movlw	74
  1275  08F4  00AD               	movwf	___fldiv@b+3
  1276  08F5  3098               	movlw	152
  1277  08F6  00AC               	movwf	___fldiv@b+2
  1278  08F7  3096               	movlw	150
  1279  08F8  00AB               	movwf	___fldiv@b+1
  1280  08F9  3080               	movlw	128
  1281  08FA  00AA               	movwf	___fldiv@b
  1282  08FB  160A  118A  239B  120A  158A  	fcall	___fldiv
  1283  0900  1283               	bcf	3,5	;RP0=0, select bank0
  1284  0901  1303               	bcf	3,6	;RP1=0, select bank0
  1285  0902  0829               	movf	?___fldiv+3,w
  1286  0903  1683               	bsf	3,5	;RP0=1, select bank1
  1287  0904  1303               	bcf	3,6	;RP1=0, select bank1
  1288  0905  00CE               	movwf	(_fFrequency+3)^(0+128)
  1289  0906  1283               	bcf	3,5	;RP0=0, select bank0
  1290  0907  1303               	bcf	3,6	;RP1=0, select bank0
  1291  0908  0828               	movf	?___fldiv+2,w
  1292  0909  1683               	bsf	3,5	;RP0=1, select bank1
  1293  090A  1303               	bcf	3,6	;RP1=0, select bank1
  1294  090B  00CD               	movwf	(_fFrequency+2)^(0+128)
  1295  090C  1283               	bcf	3,5	;RP0=0, select bank0
  1296  090D  1303               	bcf	3,6	;RP1=0, select bank0
  1297  090E  0827               	movf	?___fldiv+1,w
  1298  090F  1683               	bsf	3,5	;RP0=1, select bank1
  1299  0910  1303               	bcf	3,6	;RP1=0, select bank1
  1300  0911  00CC               	movwf	(_fFrequency+1)^(0+128)
  1301  0912  1283               	bcf	3,5	;RP0=0, select bank0
  1302  0913  1303               	bcf	3,6	;RP1=0, select bank0
  1303  0914  0826               	movf	?___fldiv,w
  1304  0915  1683               	bsf	3,5	;RP0=1, select bank1
  1305  0916  1303               	bcf	3,6	;RP1=0, select bank1
  1306  0917  00CB               	movwf	_fFrequency^(0+128)
  1307  0918                     l3554:
  1308                           
  1309                           ;main_do_tan-so.c: 93:         sprintf(&str[0], "%f", fFrequency);
  1310  0918  3091               	movlw	(low ((STR_1-__stringbase)| (0+32768)))& (0+255)
  1311  0919  00FF               	movwf	btemp+1
  1312  091A  087F               	movf	btemp+1,w
  1313  091B  00A0               	movwf	sprintf@f^(0+128)
  1314  091C  084E               	movf	(_fFrequency+3)^(0+128),w
  1315  091D  00A4               	movwf	((?_sprintf+3)^(0+128)+1)
  1316  091E  084D               	movf	(_fFrequency+2)^(0+128),w
  1317  091F  00A3               	movwf	((?_sprintf+2)^(0+128)+1)
  1318  0920  084C               	movf	(_fFrequency+1)^(0+128),w
  1319  0921  00A2               	movwf	((?_sprintf+1)^(0+128)+1)
  1320  0922  084B               	movf	_fFrequency^(0+128),w
  1321  0923  00A1               	movwf	(?_sprintf^(0+128)+1)
  1322  0924  3090               	movlw	(low (_str| (0+256)))& (0+255)
  1323  0925  120A  118A  2025  120A  158A  	fcall	_sprintf
  1324  092A                     l3556:
  1325                           
  1326                           ;main_do_tan-so.c: 94:         LCD_Set_Cursor(1,1);
  1327  092A  01F6               	clrf	LCD_Set_Cursor@c
  1328  092B  0AF6               	incf	LCD_Set_Cursor@c,f
  1329  092C  3001               	movlw	1
  1330  092D  160A  158A  2564  120A  158A  	fcall	_LCD_Set_Cursor
  1331  0932                     l3558:
  1332                           
  1333                           ;main_do_tan-so.c: 95:         LCD_Write_String(&str[0]);
  1334  0932  3090               	movlw	(low (_str| (0+256)))& (0+255)
  1335  0933  160A  158A  2408  120A  158A  	fcall	_LCD_Write_String
  1336  0938                     l3560:
  1337                           
  1338                           ;main_do_tan-so.c: 97:         u32NumberOfCounterOver = 0;
  1339  0938  1683               	bsf	3,5	;RP0=1, select bank1
  1340  0939  1303               	bcf	3,6	;RP1=0, select bank1
  1341  093A  01CF               	clrf	_u32NumberOfCounterOver^(0+128)
  1342  093B  01D0               	clrf	(_u32NumberOfCounterOver+1)^(0+128)
  1343  093C  2894               	goto	l3546
  1344  093D  120A  118A  280C   	ljmp	start
  1345  0940                     __end_of_main:
  1346                           
  1347                           	psect	text1
  1348  0801                     __ptext1:	
  1349 ;; *************** function _timer1_config *****************
  1350 ;; Defined at:
  1351 ;;		line 28 in file "main_do_tan-so.c"
  1352 ;; Parameters:    Size  Location     Type
  1353 ;;		None
  1354 ;; Auto vars:     Size  Location     Type
  1355 ;;		None
  1356 ;; Return value:  Size  Location     Type
  1357 ;;                  1    wreg      void 
  1358 ;; Registers used:
  1359 ;;		None
  1360 ;; Tracked objects:
  1361 ;;		On entry : 0/0
  1362 ;;		On exit  : 0/0
  1363 ;;		Unchanged: 0/0
  1364 ;; Data sizes:     COMMON   BANK0   BANK1   BANK3   BANK2
  1365 ;;      Params:         0       0       0       0       0
  1366 ;;      Locals:         0       0       0       0       0
  1367 ;;      Temps:          0       0       0       0       0
  1368 ;;      Totals:         0       0       0       0       0
  1369 ;;Total ram usage:        0 bytes
  1370 ;; Hardware stack levels used:    1
  1371 ;; Hardware stack levels required when called:    1
  1372 ;; This function calls:
  1373 ;;		Nothing
  1374 ;; This function is called by:
  1375 ;;		_main
  1376 ;; This function uses a non-reentrant model
  1377 ;;
  1378                           
  1379                           
  1380                           ;psect for function _timer1_config
  1381  0801                     _timer1_config:
  1382  0801                     l3134:	
  1383                           ;incstack = 0
  1384                           ; Regs used in _timer1_config: []
  1385                           
  1386                           
  1387                           ;main_do_tan-so.c: 30: {
  1388  0801  178B               	bsf	11,7	;volatile
  1389                           
  1390                           ;main_do_tan-so.c: 31:     ADCON1=0x06;
  1391  0802  170B               	bsf	11,6	;volatile
  1392                           
  1393                           ;main_do_tan-so.c: 32: 
  1394  0803  1683               	bsf	3,5	;RP0=1, select bank1
  1395  0804  1303               	bcf	3,6	;RP1=0, select bank1
  1396  0805  140C               	bsf	12,0	;volatile
  1397                           
  1398                           ;main_do_tan-so.c: 33:     TRISB0=1;
  1399  0806  1283               	bcf	3,5	;RP0=0, select bank0
  1400  0807  1303               	bcf	3,6	;RP1=0, select bank0
  1401  0808  100C               	bcf	12,0	;volatile
  1402                           
  1403                           ;main_do_tan-so.c: 35:     TRISD=0;
  1404  0809  1090               	bcf	16,1	;volatile
  1405                           
  1406                           ;main_do_tan-so.c: 37:     LCD_Init();
  1407  080A  1210               	bcf	16,4	;volatile
  1408                           
  1409                           ;main_do_tan-so.c: 38:     LCD_Clear();
  1410  080B  1290               	bcf	16,5	;volatile
  1411  080C                     l51:
  1412  080C  0008               	return
  1413  080D                     __end_of_timer1_config:
  1414                           
  1415                           	psect	text2
  1416  0025                     __ptext2:	
  1417 ;; *************** function _sprintf *****************
  1418 ;; Defined at:
  1419 ;;		line 505 in file "C:\Program Files\Microchip\xc8\v2.20\pic\sources\c90\common\doprnt.c"
  1420 ;; Parameters:    Size  Location     Type
  1421 ;;  sp              1    wreg     PTR unsigned char 
  1422 ;;		 -> str(30), 
  1423 ;;  f               1    0[BANK1 ] PTR const unsigned char 
  1424 ;;		 -> STR_1(3), 
  1425 ;; Auto vars:     Size  Location     Type
  1426 ;;  sp              1   29[BANK1 ] PTR unsigned char 
  1427 ;;		 -> str(30), 
  1428 ;;  fval            4   30[BANK1 ] PTR unsigned char 
  1429 ;;  tmpval          4   25[BANK1 ] struct .
  1430 ;;  val             4   19[BANK1 ] unsigned long 
  1431 ;;  eexp            2   23[BANK1 ] int 
  1432 ;;  prec            2   17[BANK1 ] int 
  1433 ;;  flag            2   15[BANK1 ] unsigned short 
  1434 ;;  cp              2    0        PTR const unsigned char 
  1435 ;;  len             2    0        unsigned int 
  1436 ;;  width           2    0        int 
  1437 ;;  c               1   34[BANK1 ] unsigned char 
  1438 ;;  ap              1   14[BANK1 ] PTR void [1]
  1439 ;;		 -> ?_sprintf(2), 
  1440 ;;  d               1    0        unsigned char 
  1441 ;; Return value:  Size  Location     Type
  1442 ;;                  2    0[BANK1 ] int 
  1443 ;; Registers used:
  1444 ;;		wreg, fsr0l, fsr0h, status,2, status,0, btemp+1, pclath, cstack
  1445 ;; Tracked objects:
  1446 ;;		On entry : 0/0
  1447 ;;		On exit  : 0/0
  1448 ;;		Unchanged: 0/0
  1449 ;; Data sizes:     COMMON   BANK0   BANK1   BANK3   BANK2
  1450 ;;      Params:         0       0       5       0       0
  1451 ;;      Locals:         0       0      25       0       0
  1452 ;;      Temps:          0       0       5       0       0
  1453 ;;      Totals:         0       0      35       0       0
  1454 ;;Total ram usage:       35 bytes
  1455 ;; Hardware stack levels used:    1
  1456 ;; Hardware stack levels required when called:    4
  1457 ;; This function calls:
  1458 ;;		___awdiv
  1459 ;;		___fladd
  1460 ;;		___fleq
  1461 ;;		___flge
  1462 ;;		___flmul
  1463 ;;		___flneg
  1464 ;;		___flsub
  1465 ;;		___fltol
  1466 ;;		___lldiv
  1467 ;;		___llmod
  1468 ;;		___wmul
  1469 ;;		___xxtofl
  1470 ;;		__div_to_l_
  1471 ;;		__tdiv_to_l_
  1472 ;;		_fround
  1473 ;;		_scale
  1474 ;; This function is called by:
  1475 ;;		_main
  1476 ;; This function uses a non-reentrant model
  1477 ;;
  1478                           
  1479                           
  1480                           ;psect for function _sprintf
  1481  0025                     _sprintf:
  1482                           
  1483                           ;incstack = 0
  1484                           ; Regs used in _sprintf: [wreg-fsr0h+status,2+status,0+btemp+1+pclath+cstack]
  1485                           ;sprintf@sp stored from wreg
  1486  0025  1683               	bsf	3,5	;RP0=1, select bank1
  1487  0026  1303               	bcf	3,6	;RP1=0, select bank1
  1488  0027  00BD               	movwf	sprintf@sp^(0+128)
  1489  0028                     l3194:
  1490                           
  1491                           ;C:\Program Files\Microchip\xc8\v2.20\pic\sources\c90\common\doprnt.c: 505: sprintf(char
      +                           * sp, const char * f, ...);C:\Program Files\Microchip\xc8\v2.20\pic\sources\c90\common\
      +                          doprnt.c: 506: {;C:\Program Files\Microchip\xc8\v2.20\pic\sources\c90\common\doprnt.c: 5
      +                          07:  va_list ap;;C:\Program Files\Microchip\xc8\v2.20\pic\sources\c90\common\doprnt.c: 5
      +                          12:  char c;;C:\Program Files\Microchip\xc8\v2.20\pic\sources\c90\common\doprnt.c: 514: 
      +                           int width;;C:\Program Files\Microchip\xc8\v2.20\pic\sources\c90\common\doprnt.c: 517:  
      +                          int prec;
  1492  0028  30A1               	movlw	(low ((?_sprintf| 0+1)))& (0+255)
  1493  0029  00FF               	movwf	btemp+1
  1494  002A  087F               	movf	btemp+1,w
  1495  002B  00AE               	movwf	sprintf@ap^(0+128)
  1496                           
  1497                           ;C:\Program Files\Microchip\xc8\v2.20\pic\sources\c90\common\doprnt.c: 553:  while((c = 
      +                          *f++)) {
  1498  002C  2DC8               	goto	l3358
  1499  002D                     l3196:
  1500                           
  1501                           ;C:\Program Files\Microchip\xc8\v2.20\pic\sources\c90\common\doprnt.c: 555:   if(c != '%
      +                          ')
  1502  002D  3025               	movlw	37
  1503  002E  0642               	xorwf	sprintf@c^(0+128),w
  1504  002F  1903               	btfsc	3,2
  1505  0030  2832               	goto	u5261
  1506  0031  2833               	goto	u5260
  1507  0032                     u5261:
  1508  0032  283F               	goto	l3202
  1509  0033                     u5260:
  1510  0033                     l3198:
  1511                           
  1512                           ;C:\Program Files\Microchip\xc8\v2.20\pic\sources\c90\common\doprnt.c: 557:   {;C:\Progr
      +                          am Files\Microchip\xc8\v2.20\pic\sources\c90\common\doprnt.c: 558:    ((*sp++ = (c)));
  1513  0033  0842               	movf	sprintf@c^(0+128),w
  1514  0034  00FF               	movwf	btemp+1
  1515  0035  083D               	movf	sprintf@sp^(0+128),w
  1516  0036  0084               	movwf	4
  1517  0037  087F               	movf	btemp+1,w
  1518  0038  1783               	bsf	3,7	;select IRP bank2
  1519  0039  0080               	movwf	0
  1520  003A                     l3200:
  1521  003A  3001               	movlw	1
  1522  003B  00FF               	movwf	btemp+1
  1523  003C  087F               	movf	btemp+1,w
  1524  003D  07BD               	addwf	sprintf@sp^(0+128),f
  1525                           
  1526                           ;C:\Program Files\Microchip\xc8\v2.20\pic\sources\c90\common\doprnt.c: 559:    continue;
  1527  003E  2DC8               	goto	l3358
  1528  003F                     l3202:
  1529                           
  1530                           ;C:\Program Files\Microchip\xc8\v2.20\pic\sources\c90\common\doprnt.c: 565:   flag = 0;
  1531  003F  01AF               	clrf	sprintf@flag^(0+128)
  1532  0040  01B0               	clrf	(sprintf@flag+1)^(0+128)
  1533                           
  1534                           ;C:\Program Files\Microchip\xc8\v2.20\pic\sources\c90\common\doprnt.c: 661:   switch(c =
      +                           *f++) {
  1535  0041  2844               	goto	l3206
  1536  0042                     l258:	
  1537                           ;C:\Program Files\Microchip\xc8\v2.20\pic\sources\c90\common\doprnt.c: 688:   case 'f':
  1538                           
  1539                           
  1540                           ;C:\Program Files\Microchip\xc8\v2.20\pic\sources\c90\common\doprnt.c: 689:    flag |= 0
      +                          x400;
  1541  0042  1530               	bsf	(sprintf@flag^(0+128)+1),2
  1542                           
  1543                           ;C:\Program Files\Microchip\xc8\v2.20\pic\sources\c90\common\doprnt.c: 690:    break;
  1544  0043  285E               	goto	l3208
  1545  0044                     l3206:
  1546  0044  3001               	movlw	1
  1547  0045  07A0               	addwf	sprintf@f^(0+128),f
  1548  0046  30FF               	movlw	-1
  1549  0047  0720               	addwf	sprintf@f^(0+128),w
  1550  0048  0084               	movwf	4
  1551  0049  160A  118A  2000  120A  118A  	fcall	stringdir
  1552  004E  00C2               	movwf	sprintf@c^(0+128)
  1553  004F  00A5               	movwf	??_sprintf^(0+128)
  1554  0050  01A6               	clrf	(??_sprintf^(0+128)+1)
  1555                           
  1556                           ; Switch on 2 bytes has been partitioned into a top level switch of size 1, and 1 sub-sw
      +                          itches
  1557                           ; Switch size 1, requested type "simple"
  1558                           ; Number of cases is 1, Range of values is 0 to 0
  1559                           ; switch strategies available:
  1560                           ; Name         Instructions Cycles
  1561                           ; simple_byte            4     3 (average)
  1562                           ; direct_byte           11     8 (fixed)
  1563                           ; jumptable            260     6 (fixed)
  1564                           ;	Chosen strategy is simple_byte
  1565  0051  0826               	movf	(??_sprintf+1)^(0+128),w
  1566  0052  3A00               	xorlw	0	; case 0
  1567  0053  1903               	skipnz
  1568  0054  2856               	goto	l3596
  1569  0055  2DC8               	goto	l3358
  1570  0056                     l3596:
  1571                           
  1572                           ; Switch size 1, requested type "simple"
  1573                           ; Number of cases is 2, Range of values is 0 to 102
  1574                           ; switch strategies available:
  1575                           ; Name         Instructions Cycles
  1576                           ; simple_byte            7     4 (average)
  1577                           ; jumptable            260     6 (fixed)
  1578                           ;	Chosen strategy is simple_byte
  1579  0056  0825               	movf	??_sprintf^(0+128),w
  1580  0057  3A00               	xorlw	0	; case 0
  1581  0058  1903               	skipnz
  1582  0059  2DDA               	goto	l3360
  1583  005A  3A66               	xorlw	102	; case 102
  1584  005B  1903               	skipnz
  1585  005C  2842               	goto	l258
  1586  005D  2DC8               	goto	l3358
  1587  005E                     l3208:
  1588                           
  1589                           ;C:\Program Files\Microchip\xc8\v2.20\pic\sources\c90\common\doprnt.c: 851:   if(flag & 
      +                          (0x700)) {
  1590  005E  3000               	movlw	0
  1591  005F  052F               	andwf	sprintf@flag^(0+128),w
  1592  0060  00A5               	movwf	??_sprintf^(0+128)
  1593  0061  3007               	movlw	7
  1594  0062  0530               	andwf	(sprintf@flag+1)^(0+128),w
  1595  0063  00A6               	movwf	(??_sprintf+1)^(0+128)
  1596  0064  0825               	movf	??_sprintf^(0+128),w
  1597  0065  0426               	iorwf	(??_sprintf^(0+128)+1),w
  1598  0066  1903               	btfsc	3,2
  1599  0067  2869               	goto	u5271
  1600  0068  286A               	goto	u5270
  1601  0069                     u5271:
  1602  0069  2DB4               	goto	l3352
  1603  006A                     u5270:
  1604  006A                     l3210:
  1605                           
  1606                           ;C:\Program Files\Microchip\xc8\v2.20\pic\sources\c90\common\doprnt.c: 855:     prec = 6
      +                          ;
  1607  006A  3006               	movlw	6
  1608  006B  00B1               	movwf	sprintf@prec^(0+128)
  1609  006C  3000               	movlw	0
  1610  006D  00B2               	movwf	(sprintf@prec^(0+128)+1)
  1611  006E                     l3212:
  1612                           
  1613                           ;C:\Program Files\Microchip\xc8\v2.20\pic\sources\c90\common\doprnt.c: 856:    fval = (*
      +                          (double *)__va_arg((*(double **)ap), (double)0));
  1614  006E  082E               	movf	sprintf@ap^(0+128),w
  1615  006F  0084               	movwf	4
  1616  0070  1383               	bcf	3,7	;select IRP bank0
  1617  0071  0800               	movf	0,w
  1618  0072  00BE               	movwf	sprintf@fval^(0+128)
  1619  0073  0A84               	incf	4,f
  1620  0074  0800               	movf	0,w
  1621  0075  00BF               	movwf	(sprintf@fval+1)^(0+128)
  1622  0076  0A84               	incf	4,f
  1623  0077  0800               	movf	0,w
  1624  0078  00C0               	movwf	(sprintf@fval+2)^(0+128)
  1625  0079  0A84               	incf	4,f
  1626  007A  0800               	movf	0,w
  1627  007B  00C1               	movwf	(sprintf@fval+3)^(0+128)
  1628  007C                     l3214:
  1629  007C  3004               	movlw	4
  1630  007D  00FF               	movwf	btemp+1
  1631  007E  087F               	movf	btemp+1,w
  1632  007F  07AE               	addwf	sprintf@ap^(0+128),f
  1633  0080                     l3216:
  1634                           
  1635                           ;C:\Program Files\Microchip\xc8\v2.20\pic\sources\c90\common\doprnt.c: 857:    if(fval <
      +                           0.0) {
  1636  0080  0841               	movf	(sprintf@fval+3)^(0+128),w
  1637  0081  00F5               	movwf	___flge@ff1+3
  1638  0082  0840               	movf	(sprintf@fval+2)^(0+128),w
  1639  0083  00F4               	movwf	___flge@ff1+2
  1640  0084  083F               	movf	(sprintf@fval+1)^(0+128),w
  1641  0085  00F3               	movwf	___flge@ff1+1
  1642  0086  083E               	movf	sprintf@fval^(0+128),w
  1643  0087  00F2               	movwf	___flge@ff1
  1644  0088  3000               	movlw	0
  1645  0089  00F9               	movwf	___flge@ff2+3
  1646  008A  3000               	movlw	0
  1647  008B  00F8               	movwf	___flge@ff2+2
  1648  008C  3000               	movlw	0
  1649  008D  00F7               	movwf	___flge@ff2+1
  1650  008E  3000               	movlw	0
  1651  008F  00F6               	movwf	___flge@ff2
  1652  0090  160A  118A  20C0  120A  118A  	fcall	___flge
  1653  0095  1803               	btfsc	3,0
  1654  0096  2898               	goto	u5281
  1655  0097  2899               	goto	u5280
  1656  0098                     u5281:
  1657  0098  28B6               	goto	l3222
  1658  0099                     u5280:
  1659  0099                     l3218:
  1660                           
  1661                           ;C:\Program Files\Microchip\xc8\v2.20\pic\sources\c90\common\doprnt.c: 858:     fval = -
      +                          fval;
  1662  0099  1683               	bsf	3,5	;RP0=1, select bank1
  1663  009A  1303               	bcf	3,6	;RP1=0, select bank1
  1664  009B  0841               	movf	(sprintf@fval+3)^(0+128),w
  1665  009C  00F5               	movwf	___flneg@f1+3
  1666  009D  0840               	movf	(sprintf@fval+2)^(0+128),w
  1667  009E  00F4               	movwf	___flneg@f1+2
  1668  009F  083F               	movf	(sprintf@fval+1)^(0+128),w
  1669  00A0  00F3               	movwf	___flneg@f1+1
  1670  00A1  083E               	movf	sprintf@fval^(0+128),w
  1671  00A2  00F2               	movwf	___flneg@f1
  1672  00A3  160A  158A  23C5  120A  118A  	fcall	___flneg
  1673  00A8  0875               	movf	?___flneg+3,w
  1674  00A9  1683               	bsf	3,5	;RP0=1, select bank1
  1675  00AA  1303               	bcf	3,6	;RP1=0, select bank1
  1676  00AB  00C1               	movwf	(sprintf@fval+3)^(0+128)
  1677  00AC  0874               	movf	?___flneg+2,w
  1678  00AD  00C0               	movwf	(sprintf@fval+2)^(0+128)
  1679  00AE  0873               	movf	?___flneg+1,w
  1680  00AF  00BF               	movwf	(sprintf@fval+1)^(0+128)
  1681  00B0  0872               	movf	?___flneg,w
  1682  00B1  00BE               	movwf	sprintf@fval^(0+128)
  1683  00B2                     l3220:
  1684                           
  1685                           ;C:\Program Files\Microchip\xc8\v2.20\pic\sources\c90\common\doprnt.c: 859:     flag |= 
      +                          0x03;
  1686  00B2  3003               	movlw	3
  1687  00B3  04AF               	iorwf	sprintf@flag^(0+128),f
  1688  00B4  3000               	movlw	0
  1689  00B5  04B0               	iorwf	(sprintf@flag+1)^(0+128),f
  1690  00B6                     l3222:
  1691                           
  1692                           ;C:\Program Files\Microchip\xc8\v2.20\pic\sources\c90\common\doprnt.c: 861:    eexp = 0;
  1693  00B6  1683               	bsf	3,5	;RP0=1, select bank1
  1694  00B7  1303               	bcf	3,6	;RP1=0, select bank1
  1695  00B8  01B7               	clrf	sprintf@eexp^(0+128)
  1696  00B9  01B8               	clrf	(sprintf@eexp+1)^(0+128)
  1697  00BA                     l3224:
  1698                           
  1699                           ;C:\Program Files\Microchip\xc8\v2.20\pic\sources\c90\common\doprnt.c: 862:    if( fval!
      +                          =0) {
  1700  00BA  0841               	movf	(sprintf@fval+3)^(0+128),w
  1701  00BB  00F5               	movwf	___fleq@ff1+3
  1702  00BC  0840               	movf	(sprintf@fval+2)^(0+128),w
  1703  00BD  00F4               	movwf	___fleq@ff1+2
  1704  00BE  083F               	movf	(sprintf@fval+1)^(0+128),w
  1705  00BF  00F3               	movwf	___fleq@ff1+1
  1706  00C0  083E               	movf	sprintf@fval^(0+128),w
  1707  00C1  00F2               	movwf	___fleq@ff1
  1708  00C2  3000               	movlw	0
  1709  00C3  00F9               	movwf	___fleq@ff2+3
  1710  00C4  3000               	movlw	0
  1711  00C5  00F8               	movwf	___fleq@ff2+2
  1712  00C6  3000               	movlw	0
  1713  00C7  00F7               	movwf	___fleq@ff2+1
  1714  00C8  3000               	movlw	0
  1715  00C9  00F6               	movwf	___fleq@ff2
  1716  00CA  160A  158A  2514  120A  118A  	fcall	___fleq
  1717  00CF  1803               	btfsc	3,0
  1718  00D0  28D2               	goto	u5291
  1719  00D1  28D3               	goto	u5290
  1720  00D2                     u5291:
  1721  00D2  29C3               	goto	l3250
  1722  00D3                     u5290:
  1723  00D3                     l3226:
  1724                           
  1725                           ;C:\Program Files\Microchip\xc8\v2.20\pic\sources\c90\common\doprnt.c: 863:     (void)(*
      +                          (&eexp) = (unsigned char)((*(unsigned long *)&fval >> 23) & 255) - 126);
  1726  00D3  1003               	clrc
  1727  00D4  1683               	bsf	3,5	;RP0=1, select bank1
  1728  00D5  1303               	bcf	3,6	;RP1=0, select bank1
  1729  00D6  0D40               	rlf	(sprintf@fval+2)^(0+128),w
  1730  00D7  0D41               	rlf	(sprintf@fval+3)^(0+128),w
  1731  00D8  3E82               	addlw	130
  1732  00D9  00B7               	movwf	sprintf@eexp^(0+128)
  1733  00DA  30FF               	movlw	255
  1734  00DB  1803               	skipnc
  1735  00DC  3000               	movlw	0
  1736  00DD  00B8               	movwf	(sprintf@eexp^(0+128)+1)
  1737  00DE                     l3228:
  1738                           
  1739                           ;C:\Program Files\Microchip\xc8\v2.20\pic\sources\c90\common\doprnt.c: 864:     eexp--;
  1740  00DE  30FF               	movlw	255
  1741  00DF  07B7               	addwf	sprintf@eexp^(0+128),f
  1742  00E0  1803               	skipnc
  1743  00E1  0AB8               	incf	(sprintf@eexp+1)^(0+128),f
  1744  00E2  30FF               	movlw	255
  1745  00E3  07B8               	addwf	(sprintf@eexp+1)^(0+128),f
  1746  00E4                     l3230:
  1747                           
  1748                           ;C:\Program Files\Microchip\xc8\v2.20\pic\sources\c90\common\doprnt.c: 865:     eexp *= 
      +                          3;
  1749  00E4  3003               	movlw	3
  1750  00E5  00F2               	movwf	___wmul@multiplier
  1751  00E6  3000               	movlw	0
  1752  00E7  00F3               	movwf	___wmul@multiplier+1
  1753  00E8  0838               	movf	(sprintf@eexp+1)^(0+128),w
  1754  00E9  00F5               	movwf	___wmul@multiplicand+1
  1755  00EA  0837               	movf	sprintf@eexp^(0+128),w
  1756  00EB  00F4               	movwf	___wmul@multiplicand
  1757  00EC  160A  158A  246F  120A  118A  	fcall	___wmul
  1758  00F1  0873               	movf	?___wmul+1,w
  1759  00F2  1683               	bsf	3,5	;RP0=1, select bank1
  1760  00F3  1303               	bcf	3,6	;RP1=0, select bank1
  1761  00F4  00B8               	movwf	(sprintf@eexp+1)^(0+128)
  1762  00F5  0872               	movf	?___wmul,w
  1763  00F6  00B7               	movwf	sprintf@eexp^(0+128)
  1764  00F7                     l3232:
  1765                           
  1766                           ;C:\Program Files\Microchip\xc8\v2.20\pic\sources\c90\common\doprnt.c: 866:     eexp /= 
      +                          10;
  1767  00F7  300A               	movlw	10
  1768  00F8  00F8               	movwf	___awdiv@divisor
  1769  00F9  3000               	movlw	0
  1770  00FA  00F9               	movwf	___awdiv@divisor+1
  1771  00FB  0838               	movf	(sprintf@eexp+1)^(0+128),w
  1772  00FC  00FB               	movwf	___awdiv@dividend+1
  1773  00FD  0837               	movf	sprintf@eexp^(0+128),w
  1774  00FE  00FA               	movwf	___awdiv@dividend
  1775  00FF  120A  158A  200D  120A  118A  	fcall	___awdiv
  1776  0104  0879               	movf	?___awdiv+1,w
  1777  0105  1683               	bsf	3,5	;RP0=1, select bank1
  1778  0106  1303               	bcf	3,6	;RP1=0, select bank1
  1779  0107  00B8               	movwf	(sprintf@eexp+1)^(0+128)
  1780  0108  0878               	movf	?___awdiv,w
  1781  0109  00B7               	movwf	sprintf@eexp^(0+128)
  1782  010A                     l3234:
  1783                           
  1784                           ;C:\Program Files\Microchip\xc8\v2.20\pic\sources\c90\common\doprnt.c: 867:     if(eexp 
      +                          < 0)
  1785  010A  1FB8               	btfss	(sprintf@eexp+1)^(0+128),7
  1786  010B  290D               	goto	u5301
  1787  010C  290E               	goto	u5300
  1788  010D                     u5301:
  1789  010D  2914               	goto	l3238
  1790  010E                     u5300:
  1791  010E                     l3236:
  1792                           
  1793                           ;C:\Program Files\Microchip\xc8\v2.20\pic\sources\c90\common\doprnt.c: 868:      eexp--;
  1794  010E  30FF               	movlw	255
  1795  010F  07B7               	addwf	sprintf@eexp^(0+128),f
  1796  0110  1803               	skipnc
  1797  0111  0AB8               	incf	(sprintf@eexp+1)^(0+128),f
  1798  0112  30FF               	movlw	255
  1799  0113  07B8               	addwf	(sprintf@eexp+1)^(0+128),f
  1800  0114                     l3238:
  1801                           
  1802                           ;C:\Program Files\Microchip\xc8\v2.20\pic\sources\c90\common\doprnt.c: 872:     tmpval.i
      +                          nteg = scale(-eexp);
  1803  0114  0337               	decf	sprintf@eexp^(0+128),w
  1804  0115  3AFF               	xorlw	255
  1805  0116  120A  158A  2140  120A  118A  	fcall	_scale
  1806  011B  1283               	bcf	3,5	;RP0=0, select bank0
  1807  011C  1303               	bcf	3,6	;RP1=0, select bank0
  1808  011D  0841               	movf	?_scale+3,w
  1809  011E  1683               	bsf	3,5	;RP0=1, select bank1
  1810  011F  1303               	bcf	3,6	;RP1=0, select bank1
  1811  0120  00BC               	movwf	(sprintf@tmpval+3)^(0+128)
  1812  0121  1283               	bcf	3,5	;RP0=0, select bank0
  1813  0122  1303               	bcf	3,6	;RP1=0, select bank0
  1814  0123  0840               	movf	?_scale+2,w
  1815  0124  1683               	bsf	3,5	;RP0=1, select bank1
  1816  0125  1303               	bcf	3,6	;RP1=0, select bank1
  1817  0126  00BB               	movwf	(sprintf@tmpval+2)^(0+128)
  1818  0127  1283               	bcf	3,5	;RP0=0, select bank0
  1819  0128  1303               	bcf	3,6	;RP1=0, select bank0
  1820  0129  083F               	movf	?_scale+1,w
  1821  012A  1683               	bsf	3,5	;RP0=1, select bank1
  1822  012B  1303               	bcf	3,6	;RP1=0, select bank1
  1823  012C  00BA               	movwf	(sprintf@tmpval+1)^(0+128)
  1824  012D  1283               	bcf	3,5	;RP0=0, select bank0
  1825  012E  1303               	bcf	3,6	;RP1=0, select bank0
  1826  012F  083E               	movf	?_scale,w
  1827  0130  1683               	bsf	3,5	;RP0=1, select bank1
  1828  0131  1303               	bcf	3,6	;RP1=0, select bank1
  1829  0132  00B9               	movwf	sprintf@tmpval^(0+128)
  1830  0133                     l3240:
  1831                           
  1832                           ;C:\Program Files\Microchip\xc8\v2.20\pic\sources\c90\common\doprnt.c: 873:     tmpval.i
      +                          nteg *= fval;
  1833  0133  0841               	movf	(sprintf@fval+3)^(0+128),w
  1834  0134  1283               	bcf	3,5	;RP0=0, select bank0
  1835  0135  1303               	bcf	3,6	;RP1=0, select bank0
  1836  0136  00A7               	movwf	___flmul@b+3
  1837  0137  1683               	bsf	3,5	;RP0=1, select bank1
  1838  0138  1303               	bcf	3,6	;RP1=0, select bank1
  1839  0139  0840               	movf	(sprintf@fval+2)^(0+128),w
  1840  013A  1283               	bcf	3,5	;RP0=0, select bank0
  1841  013B  1303               	bcf	3,6	;RP1=0, select bank0
  1842  013C  00A6               	movwf	___flmul@b+2
  1843  013D  1683               	bsf	3,5	;RP0=1, select bank1
  1844  013E  1303               	bcf	3,6	;RP1=0, select bank1
  1845  013F  083F               	movf	(sprintf@fval+1)^(0+128),w
  1846  0140  1283               	bcf	3,5	;RP0=0, select bank0
  1847  0141  1303               	bcf	3,6	;RP1=0, select bank0
  1848  0142  00A5               	movwf	___flmul@b+1
  1849  0143  1683               	bsf	3,5	;RP0=1, select bank1
  1850  0144  1303               	bcf	3,6	;RP1=0, select bank1
  1851  0145  083E               	movf	sprintf@fval^(0+128),w
  1852  0146  1283               	bcf	3,5	;RP0=0, select bank0
  1853  0147  1303               	bcf	3,6	;RP1=0, select bank0
  1854  0148  00A4               	movwf	___flmul@b
  1855  0149  1683               	bsf	3,5	;RP0=1, select bank1
  1856  014A  1303               	bcf	3,6	;RP1=0, select bank1
  1857  014B  083C               	movf	(sprintf@tmpval+3)^(0+128),w
  1858  014C  1283               	bcf	3,5	;RP0=0, select bank0
  1859  014D  1303               	bcf	3,6	;RP1=0, select bank0
  1860  014E  00AB               	movwf	___flmul@a+3
  1861  014F  1683               	bsf	3,5	;RP0=1, select bank1
  1862  0150  1303               	bcf	3,6	;RP1=0, select bank1
  1863  0151  083B               	movf	(sprintf@tmpval+2)^(0+128),w
  1864  0152  1283               	bcf	3,5	;RP0=0, select bank0
  1865  0153  1303               	bcf	3,6	;RP1=0, select bank0
  1866  0154  00AA               	movwf	___flmul@a+2
  1867  0155  1683               	bsf	3,5	;RP0=1, select bank1
  1868  0156  1303               	bcf	3,6	;RP1=0, select bank1
  1869  0157  083A               	movf	(sprintf@tmpval+1)^(0+128),w
  1870  0158  1283               	bcf	3,5	;RP0=0, select bank0
  1871  0159  1303               	bcf	3,6	;RP1=0, select bank0
  1872  015A  00A9               	movwf	___flmul@a+1
  1873  015B  1683               	bsf	3,5	;RP0=1, select bank1
  1874  015C  1303               	bcf	3,6	;RP1=0, select bank1
  1875  015D  0839               	movf	sprintf@tmpval^(0+128),w
  1876  015E  1283               	bcf	3,5	;RP0=0, select bank0
  1877  015F  1303               	bcf	3,6	;RP1=0, select bank0
  1878  0160  00A8               	movwf	___flmul@a
  1879  0161  120A  158A  249F  120A  118A  	fcall	___flmul
  1880  0166  1283               	bcf	3,5	;RP0=0, select bank0
  1881  0167  1303               	bcf	3,6	;RP1=0, select bank0
  1882  0168  0827               	movf	?___flmul+3,w
  1883  0169  1683               	bsf	3,5	;RP0=1, select bank1
  1884  016A  1303               	bcf	3,6	;RP1=0, select bank1
  1885  016B  00BC               	movwf	(sprintf@tmpval+3)^(0+128)
  1886  016C  1283               	bcf	3,5	;RP0=0, select bank0
  1887  016D  1303               	bcf	3,6	;RP1=0, select bank0
  1888  016E  0826               	movf	?___flmul+2,w
  1889  016F  1683               	bsf	3,5	;RP0=1, select bank1
  1890  0170  1303               	bcf	3,6	;RP1=0, select bank1
  1891  0171  00BB               	movwf	(sprintf@tmpval+2)^(0+128)
  1892  0172  1283               	bcf	3,5	;RP0=0, select bank0
  1893  0173  1303               	bcf	3,6	;RP1=0, select bank0
  1894  0174  0825               	movf	?___flmul+1,w
  1895  0175  1683               	bsf	3,5	;RP0=1, select bank1
  1896  0176  1303               	bcf	3,6	;RP1=0, select bank1
  1897  0177  00BA               	movwf	(sprintf@tmpval+1)^(0+128)
  1898  0178  1283               	bcf	3,5	;RP0=0, select bank0
  1899  0179  1303               	bcf	3,6	;RP1=0, select bank0
  1900  017A  0824               	movf	?___flmul,w
  1901  017B  1683               	bsf	3,5	;RP0=1, select bank1
  1902  017C  1303               	bcf	3,6	;RP1=0, select bank1
  1903  017D  00B9               	movwf	sprintf@tmpval^(0+128)
  1904  017E                     l3242:
  1905                           
  1906                           ;C:\Program Files\Microchip\xc8\v2.20\pic\sources\c90\common\doprnt.c: 874:     if(tmpva
      +                          l.integ < 1.0)
  1907  017E  083C               	movf	(sprintf@tmpval+3)^(0+128),w
  1908  017F  00F5               	movwf	___flge@ff1+3
  1909  0180  083B               	movf	(sprintf@tmpval+2)^(0+128),w
  1910  0181  00F4               	movwf	___flge@ff1+2
  1911  0182  083A               	movf	(sprintf@tmpval+1)^(0+128),w
  1912  0183  00F3               	movwf	___flge@ff1+1
  1913  0184  0839               	movf	sprintf@tmpval^(0+128),w
  1914  0185  00F2               	movwf	___flge@ff1
  1915  0186  303F               	movlw	63
  1916  0187  00F9               	movwf	___flge@ff2+3
  1917  0188  3080               	movlw	128
  1918  0189  00F8               	movwf	___flge@ff2+2
  1919  018A  3000               	movlw	0
  1920  018B  00F7               	movwf	___flge@ff2+1
  1921  018C  3000               	movlw	0
  1922  018D  00F6               	movwf	___flge@ff2
  1923  018E  160A  118A  20C0  120A  118A  	fcall	___flge
  1924  0193  1803               	btfsc	3,0
  1925  0194  2996               	goto	u5311
  1926  0195  2997               	goto	u5310
  1927  0196                     u5311:
  1928  0196  29A0               	goto	l3246
  1929  0197                     u5310:
  1930  0197                     l3244:
  1931                           
  1932                           ;C:\Program Files\Microchip\xc8\v2.20\pic\sources\c90\common\doprnt.c: 875:      eexp--;
  1933  0197  30FF               	movlw	255
  1934  0198  1683               	bsf	3,5	;RP0=1, select bank1
  1935  0199  1303               	bcf	3,6	;RP1=0, select bank1
  1936  019A  07B7               	addwf	sprintf@eexp^(0+128),f
  1937  019B  1803               	skipnc
  1938  019C  0AB8               	incf	(sprintf@eexp+1)^(0+128),f
  1939  019D  30FF               	movlw	255
  1940  019E  07B8               	addwf	(sprintf@eexp+1)^(0+128),f
  1941  019F  29C3               	goto	l3250
  1942  01A0                     l3246:
  1943  01A0  1683               	bsf	3,5	;RP0=1, select bank1
  1944  01A1  1303               	bcf	3,6	;RP1=0, select bank1
  1945  01A2  083C               	movf	(sprintf@tmpval+3)^(0+128),w
  1946  01A3  00F5               	movwf	___flge@ff1+3
  1947  01A4  083B               	movf	(sprintf@tmpval+2)^(0+128),w
  1948  01A5  00F4               	movwf	___flge@ff1+2
  1949  01A6  083A               	movf	(sprintf@tmpval+1)^(0+128),w
  1950  01A7  00F3               	movwf	___flge@ff1+1
  1951  01A8  0839               	movf	sprintf@tmpval^(0+128),w
  1952  01A9  00F2               	movwf	___flge@ff1
  1953  01AA  3041               	movlw	65
  1954  01AB  00F9               	movwf	___flge@ff2+3
  1955  01AC  3020               	movlw	32
  1956  01AD  00F8               	movwf	___flge@ff2+2
  1957  01AE  3000               	movlw	0
  1958  01AF  00F7               	movwf	___flge@ff2+1
  1959  01B0  3000               	movlw	0
  1960  01B1  00F6               	movwf	___flge@ff2
  1961  01B2  160A  118A  20C0  120A  118A  	fcall	___flge
  1962  01B7  1C03               	btfss	3,0
  1963  01B8  29BA               	goto	u5321
  1964  01B9  29BB               	goto	u5320
  1965  01BA                     u5321:
  1966  01BA  29C3               	goto	l3250
  1967  01BB                     u5320:
  1968  01BB                     l3248:
  1969                           
  1970                           ;C:\Program Files\Microchip\xc8\v2.20\pic\sources\c90\common\doprnt.c: 877:      eexp++;
  1971  01BB  3001               	movlw	1
  1972  01BC  1683               	bsf	3,5	;RP0=1, select bank1
  1973  01BD  1303               	bcf	3,6	;RP1=0, select bank1
  1974  01BE  07B7               	addwf	sprintf@eexp^(0+128),f
  1975  01BF  1803               	skipnc
  1976  01C0  0AB8               	incf	(sprintf@eexp+1)^(0+128),f
  1977  01C1  3000               	movlw	0
  1978  01C2  07B8               	addwf	(sprintf@eexp+1)^(0+128),f
  1979  01C3                     l3250:
  1980  01C3                     l3252:	
  1981                           ;C:\Program Files\Microchip\xc8\v2.20\pic\sources\c90\common\doprnt.c: 1138:      if(pre
      +                          c <= 12)
  1982                           
  1983                           
  1984                           ;C:\Program Files\Microchip\xc8\v2.20\pic\sources\c90\common\doprnt.c: 1139:       fval 
      +                          += fround((unsigned int)prec);
  1985  01C3  3006               	movlw	6
  1986  01C4  120A  118A  25DF  120A  118A  	fcall	_fround
  1987  01C9  1283               	bcf	3,5	;RP0=0, select bank0
  1988  01CA  1303               	bcf	3,6	;RP1=0, select bank0
  1989  01CB  0841               	movf	?_fround+3,w
  1990  01CC  00D5               	movwf	___fladd@b+3
  1991  01CD  0840               	movf	?_fround+2,w
  1992  01CE  00D4               	movwf	___fladd@b+2
  1993  01CF  083F               	movf	?_fround+1,w
  1994  01D0  00D3               	movwf	___fladd@b+1
  1995  01D1  083E               	movf	?_fround,w
  1996  01D2  00D2               	movwf	___fladd@b
  1997  01D3  1683               	bsf	3,5	;RP0=1, select bank1
  1998  01D4  1303               	bcf	3,6	;RP1=0, select bank1
  1999  01D5  0841               	movf	(sprintf@fval+3)^(0+128),w
  2000  01D6  1283               	bcf	3,5	;RP0=0, select bank0
  2001  01D7  1303               	bcf	3,6	;RP1=0, select bank0
  2002  01D8  00D9               	movwf	___fladd@a+3
  2003  01D9  1683               	bsf	3,5	;RP0=1, select bank1
  2004  01DA  1303               	bcf	3,6	;RP1=0, select bank1
  2005  01DB  0840               	movf	(sprintf@fval+2)^(0+128),w
  2006  01DC  1283               	bcf	3,5	;RP0=0, select bank0
  2007  01DD  1303               	bcf	3,6	;RP1=0, select bank0
  2008  01DE  00D8               	movwf	___fladd@a+2
  2009  01DF  1683               	bsf	3,5	;RP0=1, select bank1
  2010  01E0  1303               	bcf	3,6	;RP1=0, select bank1
  2011  01E1  083F               	movf	(sprintf@fval+1)^(0+128),w
  2012  01E2  1283               	bcf	3,5	;RP0=0, select bank0
  2013  01E3  1303               	bcf	3,6	;RP1=0, select bank0
  2014  01E4  00D7               	movwf	___fladd@a+1
  2015  01E5  1683               	bsf	3,5	;RP0=1, select bank1
  2016  01E6  1303               	bcf	3,6	;RP1=0, select bank1
  2017  01E7  083E               	movf	sprintf@fval^(0+128),w
  2018  01E8  1283               	bcf	3,5	;RP0=0, select bank0
  2019  01E9  1303               	bcf	3,6	;RP1=0, select bank0
  2020  01EA  00D6               	movwf	___fladd@a
  2021  01EB  160A  118A  2578  120A  118A  	fcall	___fladd
  2022  01F0  1283               	bcf	3,5	;RP0=0, select bank0
  2023  01F1  1303               	bcf	3,6	;RP1=0, select bank0
  2024  01F2  0855               	movf	?___fladd+3,w
  2025  01F3  1683               	bsf	3,5	;RP0=1, select bank1
  2026  01F4  1303               	bcf	3,6	;RP1=0, select bank1
  2027  01F5  00C1               	movwf	(sprintf@fval+3)^(0+128)
  2028  01F6  1283               	bcf	3,5	;RP0=0, select bank0
  2029  01F7  1303               	bcf	3,6	;RP1=0, select bank0
  2030  01F8  0854               	movf	?___fladd+2,w
  2031  01F9  1683               	bsf	3,5	;RP0=1, select bank1
  2032  01FA  1303               	bcf	3,6	;RP1=0, select bank1
  2033  01FB  00C0               	movwf	(sprintf@fval+2)^(0+128)
  2034  01FC  1283               	bcf	3,5	;RP0=0, select bank0
  2035  01FD  1303               	bcf	3,6	;RP1=0, select bank0
  2036  01FE  0853               	movf	?___fladd+1,w
  2037  01FF  1683               	bsf	3,5	;RP0=1, select bank1
  2038  0200  1303               	bcf	3,6	;RP1=0, select bank1
  2039  0201  00BF               	movwf	(sprintf@fval+1)^(0+128)
  2040  0202  1283               	bcf	3,5	;RP0=0, select bank0
  2041  0203  1303               	bcf	3,6	;RP1=0, select bank0
  2042  0204  0852               	movf	?___fladd,w
  2043  0205  1683               	bsf	3,5	;RP0=1, select bank1
  2044  0206  1303               	bcf	3,6	;RP1=0, select bank1
  2045  0207  00BE               	movwf	sprintf@fval^(0+128)
  2046  0208                     l3254:
  2047                           
  2048                           ;C:\Program Files\Microchip\xc8\v2.20\pic\sources\c90\common\doprnt.c: 1142:     if((eex
      +                          p > 9)||(fval != 0 && (unsigned long)fval == 0 && eexp > 1)) {
  2049  0208  0838               	movf	(sprintf@eexp+1)^(0+128),w
  2050  0209  3A80               	xorlw	128
  2051  020A  00FF               	movwf	btemp+1
  2052  020B  3080               	movlw	128
  2053  020C  027F               	subwf	btemp+1,w
  2054  020D  1D03               	skipz
  2055  020E  2A11               	goto	u5335
  2056  020F  300A               	movlw	10
  2057  0210  0237               	subwf	sprintf@eexp^(0+128),w
  2058  0211                     u5335:
  2059  0211  1803               	skipnc
  2060  0212  2A14               	goto	u5331
  2061  0213  2A15               	goto	u5330
  2062  0214                     u5331:
  2063  0214  2A66               	goto	l3262
  2064  0215                     u5330:
  2065  0215                     l3256:
  2066  0215  1683               	bsf	3,5	;RP0=1, select bank1
  2067  0216  1303               	bcf	3,6	;RP1=0, select bank1
  2068  0217  0841               	movf	(sprintf@fval+3)^(0+128),w
  2069  0218  00F5               	movwf	___fleq@ff1+3
  2070  0219  0840               	movf	(sprintf@fval+2)^(0+128),w
  2071  021A  00F4               	movwf	___fleq@ff1+2
  2072  021B  083F               	movf	(sprintf@fval+1)^(0+128),w
  2073  021C  00F3               	movwf	___fleq@ff1+1
  2074  021D  083E               	movf	sprintf@fval^(0+128),w
  2075  021E  00F2               	movwf	___fleq@ff1
  2076  021F  3000               	movlw	0
  2077  0220  00F9               	movwf	___fleq@ff2+3
  2078  0221  3000               	movlw	0
  2079  0222  00F8               	movwf	___fleq@ff2+2
  2080  0223  3000               	movlw	0
  2081  0224  00F7               	movwf	___fleq@ff2+1
  2082  0225  3000               	movlw	0
  2083  0226  00F6               	movwf	___fleq@ff2
  2084  0227  160A  158A  2514  120A  118A  	fcall	___fleq
  2085  022C  1803               	btfsc	3,0
  2086  022D  2A2F               	goto	u5341
  2087  022E  2A30               	goto	u5340
  2088  022F                     u5341:
  2089  022F  2AD8               	goto	l3276
  2090  0230                     u5340:
  2091  0230                     l3258:
  2092  0230  1683               	bsf	3,5	;RP0=1, select bank1
  2093  0231  1303               	bcf	3,6	;RP1=0, select bank1
  2094  0232  0841               	movf	(sprintf@fval+3)^(0+128),w
  2095  0233  1283               	bcf	3,5	;RP0=0, select bank0
  2096  0234  1303               	bcf	3,6	;RP1=0, select bank0
  2097  0235  00D4               	movwf	___fltol@f1+3
  2098  0236  1683               	bsf	3,5	;RP0=1, select bank1
  2099  0237  1303               	bcf	3,6	;RP1=0, select bank1
  2100  0238  0840               	movf	(sprintf@fval+2)^(0+128),w
  2101  0239  1283               	bcf	3,5	;RP0=0, select bank0
  2102  023A  1303               	bcf	3,6	;RP1=0, select bank0
  2103  023B  00D3               	movwf	___fltol@f1+2
  2104  023C  1683               	bsf	3,5	;RP0=1, select bank1
  2105  023D  1303               	bcf	3,6	;RP1=0, select bank1
  2106  023E  083F               	movf	(sprintf@fval+1)^(0+128),w
  2107  023F  1283               	bcf	3,5	;RP0=0, select bank0
  2108  0240  1303               	bcf	3,6	;RP1=0, select bank0
  2109  0241  00D2               	movwf	___fltol@f1+1
  2110  0242  1683               	bsf	3,5	;RP0=1, select bank1
  2111  0243  1303               	bcf	3,6	;RP1=0, select bank1
  2112  0244  083E               	movf	sprintf@fval^(0+128),w
  2113  0245  1283               	bcf	3,5	;RP0=0, select bank0
  2114  0246  1303               	bcf	3,6	;RP1=0, select bank0
  2115  0247  00D1               	movwf	___fltol@f1
  2116  0248  160A  158A  2784  120A  118A  	fcall	___fltol
  2117  024D  1283               	bcf	3,5	;RP0=0, select bank0
  2118  024E  1303               	bcf	3,6	;RP1=0, select bank0
  2119  024F  0854               	movf	?___fltol+3,w
  2120  0250  0453               	iorwf	?___fltol+2,w
  2121  0251  0452               	iorwf	?___fltol+1,w
  2122  0252  0451               	iorwf	?___fltol,w
  2123  0253  1D03               	skipz
  2124  0254  2A56               	goto	u5351
  2125  0255  2A57               	goto	u5350
  2126  0256                     u5351:
  2127  0256  2AD8               	goto	l3276
  2128  0257                     u5350:
  2129  0257                     l3260:
  2130  0257  1683               	bsf	3,5	;RP0=1, select bank1
  2131  0258  1303               	bcf	3,6	;RP1=0, select bank1
  2132  0259  0838               	movf	(sprintf@eexp+1)^(0+128),w
  2133  025A  3A80               	xorlw	128
  2134  025B  00FF               	movwf	btemp+1
  2135  025C  3080               	movlw	128
  2136  025D  027F               	subwf	btemp+1,w
  2137  025E  1D03               	skipz
  2138  025F  2A62               	goto	u5365
  2139  0260  3002               	movlw	2
  2140  0261  0237               	subwf	sprintf@eexp^(0+128),w
  2141  0262                     u5365:
  2142  0262  1C03               	skipc
  2143  0263  2A65               	goto	u5361
  2144  0264  2A66               	goto	u5360
  2145  0265                     u5361:
  2146  0265  2AD8               	goto	l3276
  2147  0266                     u5360:
  2148  0266                     l3262:
  2149                           
  2150                           ;C:\Program Files\Microchip\xc8\v2.20\pic\sources\c90\common\doprnt.c: 1146:      if(tmp
      +                          val.integ < 4.294967296){
  2151  0266  1683               	bsf	3,5	;RP0=1, select bank1
  2152  0267  1303               	bcf	3,6	;RP1=0, select bank1
  2153  0268  083C               	movf	(sprintf@tmpval+3)^(0+128),w
  2154  0269  00F5               	movwf	___flge@ff1+3
  2155  026A  083B               	movf	(sprintf@tmpval+2)^(0+128),w
  2156  026B  00F4               	movwf	___flge@ff1+2
  2157  026C  083A               	movf	(sprintf@tmpval+1)^(0+128),w
  2158  026D  00F3               	movwf	___flge@ff1+1
  2159  026E  0839               	movf	sprintf@tmpval^(0+128),w
  2160  026F  00F2               	movwf	___flge@ff1
  2161  0270  3040               	movlw	64
  2162  0271  00F9               	movwf	___flge@ff2+3
  2163  0272  3089               	movlw	137
  2164  0273  00F8               	movwf	___flge@ff2+2
  2165  0274  3070               	movlw	112
  2166  0275  00F7               	movwf	___flge@ff2+1
  2167  0276  305F               	movlw	95
  2168  0277  00F6               	movwf	___flge@ff2
  2169  0278  160A  118A  20C0  120A  118A  	fcall	___flge
  2170  027D  1803               	btfsc	3,0
  2171  027E  2A80               	goto	u5371
  2172  027F  2A81               	goto	u5370
  2173  0280                     u5371:
  2174  0280  2A8A               	goto	l3266
  2175  0281                     u5370:
  2176  0281                     l3264:
  2177                           
  2178                           ;C:\Program Files\Microchip\xc8\v2.20\pic\sources\c90\common\doprnt.c: 1147:       eexp 
      +                          -= (sizeof dpowers/sizeof dpowers[0])-1;
  2179  0281  30F7               	movlw	247
  2180  0282  1683               	bsf	3,5	;RP0=1, select bank1
  2181  0283  1303               	bcf	3,6	;RP1=0, select bank1
  2182  0284  07B7               	addwf	sprintf@eexp^(0+128),f
  2183  0285  1803               	skipnc
  2184  0286  0AB8               	incf	(sprintf@eexp+1)^(0+128),f
  2185  0287  30FF               	movlw	255
  2186  0288  07B8               	addwf	(sprintf@eexp+1)^(0+128),f
  2187                           
  2188                           ;C:\Program Files\Microchip\xc8\v2.20\pic\sources\c90\common\doprnt.c: 1148:      }else{
  2189  0289  2A92               	goto	l3268
  2190  028A                     l3266:
  2191                           
  2192                           ;C:\Program Files\Microchip\xc8\v2.20\pic\sources\c90\common\doprnt.c: 1149:       eexp 
      +                          -= (sizeof dpowers/sizeof dpowers[0])-2;
  2193  028A  30F8               	movlw	248
  2194  028B  1683               	bsf	3,5	;RP0=1, select bank1
  2195  028C  1303               	bcf	3,6	;RP1=0, select bank1
  2196  028D  07B7               	addwf	sprintf@eexp^(0+128),f
  2197  028E  1803               	skipnc
  2198  028F  0AB8               	incf	(sprintf@eexp+1)^(0+128),f
  2199  0290  30FF               	movlw	255
  2200  0291  07B8               	addwf	(sprintf@eexp+1)^(0+128),f
  2201  0292                     l3268:
  2202                           
  2203                           ;C:\Program Files\Microchip\xc8\v2.20\pic\sources\c90\common\doprnt.c: 1152:      val = 
      +                          ((sizeof(double)== 3) ? _tdiv_to_l_(fval,tmpval.integ) : _div_to_l_(fval,tmpval.integ));
  2204  0292  0837               	movf	sprintf@eexp^(0+128),w
  2205  0293  120A  158A  2140  120A  118A  	fcall	_scale
  2206  0298  1283               	bcf	3,5	;RP0=0, select bank0
  2207  0299  1303               	bcf	3,6	;RP1=0, select bank0
  2208  029A  0841               	movf	?_scale+3,w
  2209  029B  1683               	bsf	3,5	;RP0=1, select bank1
  2210  029C  1303               	bcf	3,6	;RP1=0, select bank1
  2211  029D  00BC               	movwf	(sprintf@tmpval+3)^(0+128)
  2212  029E  1283               	bcf	3,5	;RP0=0, select bank0
  2213  029F  1303               	bcf	3,6	;RP1=0, select bank0
  2214  02A0  0840               	movf	?_scale+2,w
  2215  02A1  1683               	bsf	3,5	;RP0=1, select bank1
  2216  02A2  1303               	bcf	3,6	;RP1=0, select bank1
  2217  02A3  00BB               	movwf	(sprintf@tmpval+2)^(0+128)
  2218  02A4  1283               	bcf	3,5	;RP0=0, select bank0
  2219  02A5  1303               	bcf	3,6	;RP1=0, select bank0
  2220  02A6  083F               	movf	?_scale+1,w
  2221  02A7  1683               	bsf	3,5	;RP0=1, select bank1
  2222  02A8  1303               	bcf	3,6	;RP1=0, select bank1
  2223  02A9  00BA               	movwf	(sprintf@tmpval+1)^(0+128)
  2224  02AA  1283               	bcf	3,5	;RP0=0, select bank0
  2225  02AB  1303               	bcf	3,6	;RP1=0, select bank0
  2226  02AC  083E               	movf	?_scale,w
  2227  02AD  1683               	bsf	3,5	;RP0=1, select bank1
  2228  02AE  1303               	bcf	3,6	;RP1=0, select bank1
  2229  02AF  00B9               	movwf	sprintf@tmpval^(0+128)
  2230  02B0                     l3270:
  2231  02B0  0841               	movf	(sprintf@fval+3)^(0+128),w
  2232  02B1  00F5               	movwf	__div_to_l_@f1+3
  2233  02B2  0840               	movf	(sprintf@fval+2)^(0+128),w
  2234  02B3  00F4               	movwf	__div_to_l_@f1+2
  2235  02B4  083F               	movf	(sprintf@fval+1)^(0+128),w
  2236  02B5  00F3               	movwf	__div_to_l_@f1+1
  2237  02B6  083E               	movf	sprintf@fval^(0+128),w
  2238  02B7  00F2               	movwf	__div_to_l_@f1
  2239  02B8  083C               	movf	(sprintf@tmpval+3)^(0+128),w
  2240  02B9  00F9               	movwf	__div_to_l_@f2+3
  2241  02BA  083B               	movf	(sprintf@tmpval+2)^(0+128),w
  2242  02BB  00F8               	movwf	__div_to_l_@f2+2
  2243  02BC  083A               	movf	(sprintf@tmpval+1)^(0+128),w
  2244  02BD  00F7               	movwf	__div_to_l_@f2+1
  2245  02BE  0839               	movf	sprintf@tmpval^(0+128),w
  2246  02BF  00F6               	movwf	__div_to_l_@f2
  2247  02C0  160A  118A  22DD  120A  118A  	fcall	__div_to_l_
  2248  02C5  0875               	movf	?__div_to_l_+3,w
  2249  02C6  1683               	bsf	3,5	;RP0=1, select bank1
  2250  02C7  1303               	bcf	3,6	;RP1=0, select bank1
  2251  02C8  00B6               	movwf	(sprintf@val+3)^(0+128)
  2252  02C9  0874               	movf	?__div_to_l_+2,w
  2253  02CA  00B5               	movwf	(sprintf@val+2)^(0+128)
  2254  02CB  0873               	movf	?__div_to_l_+1,w
  2255  02CC  00B4               	movwf	(sprintf@val+1)^(0+128)
  2256  02CD  0872               	movf	?__div_to_l_,w
  2257  02CE  00B3               	movwf	sprintf@val^(0+128)
  2258  02CF                     l3274:
  2259                           
  2260                           ;C:\Program Files\Microchip\xc8\v2.20\pic\sources\c90\common\doprnt.c: 1155:      fval =
      +                           0.0;
  2261  02CF  3000               	movlw	0
  2262  02D0  00C1               	movwf	(sprintf@fval+3)^(0+128)
  2263  02D1  3000               	movlw	0
  2264  02D2  00C0               	movwf	(sprintf@fval+2)^(0+128)
  2265  02D3  3000               	movlw	0
  2266  02D4  00BF               	movwf	(sprintf@fval+1)^(0+128)
  2267  02D5  3000               	movlw	0
  2268  02D6  00BE               	movwf	sprintf@fval^(0+128)
  2269                           
  2270                           ;C:\Program Files\Microchip\xc8\v2.20\pic\sources\c90\common\doprnt.c: 1156:     } else 
      +                          {
  2271  02D7  2B5C               	goto	l3280
  2272  02D8                     l3276:
  2273                           
  2274                           ;C:\Program Files\Microchip\xc8\v2.20\pic\sources\c90\common\doprnt.c: 1157:      val = 
      +                          (unsigned long)fval;
  2275  02D8  1683               	bsf	3,5	;RP0=1, select bank1
  2276  02D9  1303               	bcf	3,6	;RP1=0, select bank1
  2277  02DA  0841               	movf	(sprintf@fval+3)^(0+128),w
  2278  02DB  1283               	bcf	3,5	;RP0=0, select bank0
  2279  02DC  1303               	bcf	3,6	;RP1=0, select bank0
  2280  02DD  00D4               	movwf	___fltol@f1+3
  2281  02DE  1683               	bsf	3,5	;RP0=1, select bank1
  2282  02DF  1303               	bcf	3,6	;RP1=0, select bank1
  2283  02E0  0840               	movf	(sprintf@fval+2)^(0+128),w
  2284  02E1  1283               	bcf	3,5	;RP0=0, select bank0
  2285  02E2  1303               	bcf	3,6	;RP1=0, select bank0
  2286  02E3  00D3               	movwf	___fltol@f1+2
  2287  02E4  1683               	bsf	3,5	;RP0=1, select bank1
  2288  02E5  1303               	bcf	3,6	;RP1=0, select bank1
  2289  02E6  083F               	movf	(sprintf@fval+1)^(0+128),w
  2290  02E7  1283               	bcf	3,5	;RP0=0, select bank0
  2291  02E8  1303               	bcf	3,6	;RP1=0, select bank0
  2292  02E9  00D2               	movwf	___fltol@f1+1
  2293  02EA  1683               	bsf	3,5	;RP0=1, select bank1
  2294  02EB  1303               	bcf	3,6	;RP1=0, select bank1
  2295  02EC  083E               	movf	sprintf@fval^(0+128),w
  2296  02ED  1283               	bcf	3,5	;RP0=0, select bank0
  2297  02EE  1303               	bcf	3,6	;RP1=0, select bank0
  2298  02EF  00D1               	movwf	___fltol@f1
  2299  02F0  160A  158A  2784  120A  118A  	fcall	___fltol
  2300  02F5  1283               	bcf	3,5	;RP0=0, select bank0
  2301  02F6  1303               	bcf	3,6	;RP1=0, select bank0
  2302  02F7  0854               	movf	?___fltol+3,w
  2303  02F8  1683               	bsf	3,5	;RP0=1, select bank1
  2304  02F9  1303               	bcf	3,6	;RP1=0, select bank1
  2305  02FA  00B6               	movwf	(sprintf@val+3)^(0+128)
  2306  02FB  1283               	bcf	3,5	;RP0=0, select bank0
  2307  02FC  1303               	bcf	3,6	;RP1=0, select bank0
  2308  02FD  0853               	movf	?___fltol+2,w
  2309  02FE  1683               	bsf	3,5	;RP0=1, select bank1
  2310  02FF  1303               	bcf	3,6	;RP1=0, select bank1
  2311  0300  00B5               	movwf	(sprintf@val+2)^(0+128)
  2312  0301  1283               	bcf	3,5	;RP0=0, select bank0
  2313  0302  1303               	bcf	3,6	;RP1=0, select bank0
  2314  0303  0852               	movf	?___fltol+1,w
  2315  0304  1683               	bsf	3,5	;RP0=1, select bank1
  2316  0305  1303               	bcf	3,6	;RP1=0, select bank1
  2317  0306  00B4               	movwf	(sprintf@val+1)^(0+128)
  2318  0307  1283               	bcf	3,5	;RP0=0, select bank0
  2319  0308  1303               	bcf	3,6	;RP1=0, select bank0
  2320  0309  0851               	movf	?___fltol,w
  2321  030A  1683               	bsf	3,5	;RP0=1, select bank1
  2322  030B  1303               	bcf	3,6	;RP1=0, select bank1
  2323  030C  00B3               	movwf	sprintf@val^(0+128)
  2324                           
  2325                           ;C:\Program Files\Microchip\xc8\v2.20\pic\sources\c90\common\doprnt.c: 1158:      fval -
      +                          = (double)val;
  2326  030D  0836               	movf	(sprintf@val+3)^(0+128),w
  2327  030E  00F5               	movwf	___xxtofl@val+3
  2328  030F  0835               	movf	(sprintf@val+2)^(0+128),w
  2329  0310  00F4               	movwf	___xxtofl@val+2
  2330  0311  0834               	movf	(sprintf@val+1)^(0+128),w
  2331  0312  00F3               	movwf	___xxtofl@val+1
  2332  0313  0833               	movf	sprintf@val^(0+128),w
  2333  0314  00F2               	movwf	___xxtofl@val
  2334  0315  3000               	movlw	0
  2335  0316  160A  118A  2164  120A  118A  	fcall	___xxtofl
  2336  031B  0875               	movf	?___xxtofl+3,w
  2337  031C  1283               	bcf	3,5	;RP0=0, select bank0
  2338  031D  1303               	bcf	3,6	;RP1=0, select bank0
  2339  031E  00E9               	movwf	___flsub@a+3
  2340  031F  0874               	movf	?___xxtofl+2,w
  2341  0320  00E8               	movwf	___flsub@a+2
  2342  0321  0873               	movf	?___xxtofl+1,w
  2343  0322  00E7               	movwf	___flsub@a+1
  2344  0323  0872               	movf	?___xxtofl,w
  2345  0324  00E6               	movwf	___flsub@a
  2346  0325  1683               	bsf	3,5	;RP0=1, select bank1
  2347  0326  1303               	bcf	3,6	;RP1=0, select bank1
  2348  0327  0841               	movf	(sprintf@fval+3)^(0+128),w
  2349  0328  1283               	bcf	3,5	;RP0=0, select bank0
  2350  0329  1303               	bcf	3,6	;RP1=0, select bank0
  2351  032A  00ED               	movwf	___flsub@b+3
  2352  032B  1683               	bsf	3,5	;RP0=1, select bank1
  2353  032C  1303               	bcf	3,6	;RP1=0, select bank1
  2354  032D  0840               	movf	(sprintf@fval+2)^(0+128),w
  2355  032E  1283               	bcf	3,5	;RP0=0, select bank0
  2356  032F  1303               	bcf	3,6	;RP1=0, select bank0
  2357  0330  00EC               	movwf	___flsub@b+2
  2358  0331  1683               	bsf	3,5	;RP0=1, select bank1
  2359  0332  1303               	bcf	3,6	;RP1=0, select bank1
  2360  0333  083F               	movf	(sprintf@fval+1)^(0+128),w
  2361  0334  1283               	bcf	3,5	;RP0=0, select bank0
  2362  0335  1303               	bcf	3,6	;RP1=0, select bank0
  2363  0336  00EB               	movwf	___flsub@b+1
  2364  0337  1683               	bsf	3,5	;RP0=1, select bank1
  2365  0338  1303               	bcf	3,6	;RP1=0, select bank1
  2366  0339  083E               	movf	sprintf@fval^(0+128),w
  2367  033A  1283               	bcf	3,5	;RP0=0, select bank0
  2368  033B  1303               	bcf	3,6	;RP1=0, select bank0
  2369  033C  00EA               	movwf	___flsub@b
  2370  033D  160A  158A  244B  120A  118A  	fcall	___flsub
  2371  0342  1283               	bcf	3,5	;RP0=0, select bank0
  2372  0343  1303               	bcf	3,6	;RP1=0, select bank0
  2373  0344  0869               	movf	?___flsub+3,w
  2374  0345  1683               	bsf	3,5	;RP0=1, select bank1
  2375  0346  1303               	bcf	3,6	;RP1=0, select bank1
  2376  0347  00C1               	movwf	(sprintf@fval+3)^(0+128)
  2377  0348  1283               	bcf	3,5	;RP0=0, select bank0
  2378  0349  1303               	bcf	3,6	;RP1=0, select bank0
  2379  034A  0868               	movf	?___flsub+2,w
  2380  034B  1683               	bsf	3,5	;RP0=1, select bank1
  2381  034C  1303               	bcf	3,6	;RP1=0, select bank1
  2382  034D  00C0               	movwf	(sprintf@fval+2)^(0+128)
  2383  034E  1283               	bcf	3,5	;RP0=0, select bank0
  2384  034F  1303               	bcf	3,6	;RP1=0, select bank0
  2385  0350  0867               	movf	?___flsub+1,w
  2386  0351  1683               	bsf	3,5	;RP0=1, select bank1
  2387  0352  1303               	bcf	3,6	;RP1=0, select bank1
  2388  0353  00BF               	movwf	(sprintf@fval+1)^(0+128)
  2389  0354  1283               	bcf	3,5	;RP0=0, select bank0
  2390  0355  1303               	bcf	3,6	;RP1=0, select bank0
  2391  0356  0866               	movf	?___flsub,w
  2392  0357  1683               	bsf	3,5	;RP0=1, select bank1
  2393  0358  1303               	bcf	3,6	;RP1=0, select bank1
  2394  0359  00BE               	movwf	sprintf@fval^(0+128)
  2395  035A                     l3278:
  2396                           
  2397                           ;C:\Program Files\Microchip\xc8\v2.20\pic\sources\c90\common\doprnt.c: 1159:      eexp =
      +                           0;
  2398  035A  01B7               	clrf	sprintf@eexp^(0+128)
  2399  035B  01B8               	clrf	(sprintf@eexp+1)^(0+128)
  2400  035C                     l3280:
  2401                           
  2402                           ;C:\Program Files\Microchip\xc8\v2.20\pic\sources\c90\common\doprnt.c: 1162:     for(c =
      +                           1 ; c != (sizeof dpowers/sizeof dpowers[0]) ; c++)
  2403  035C  01C2               	clrf	sprintf@c^(0+128)
  2404  035D  0AC2               	incf	sprintf@c^(0+128),f
  2405  035E                     l3286:
  2406                           
  2407                           ;C:\Program Files\Microchip\xc8\v2.20\pic\sources\c90\common\doprnt.c: 1163:      if(val
      +                           < dpowers[c])
  2408  035E  0842               	movf	sprintf@c^(0+128),w
  2409  035F  00A5               	movwf	??_sprintf^(0+128)
  2410  0360  3001               	movlw	1
  2411  0361                     u5385:
  2412  0361  1003               	clrc
  2413  0362  0DA5               	rlf	??_sprintf^(0+128),f
  2414  0363  3EFF               	addlw	-1
  2415  0364  1D03               	skipz
  2416  0365  2B61               	goto	u5385
  2417  0366  1003               	clrc
  2418  0367  0D25               	rlf	??_sprintf^(0+128),w
  2419  0368  3E69               	addlw	low ((_dpowers-__stringbase)| (0+32768))
  2420  0369  0084               	movwf	4
  2421  036A  160A  118A  2000  120A  118A  	fcall	stringdir
  2422  036F  00A6               	movwf	(??_sprintf+1)^(0+128)
  2423  0370  160A  118A  2000  120A  118A  	fcall	stringdir
  2424  0375  00A7               	movwf	((??_sprintf+1)^(0+128)+1)
  2425  0376  160A  118A  2000  120A  118A  	fcall	stringdir
  2426  037B  00A8               	movwf	((??_sprintf+1)^(0+128)+2)
  2427  037C  160A  118A  2000  120A  118A  	fcall	stringdir
  2428  0381  00A9               	movwf	((??_sprintf+1)^(0+128)+3)
  2429  0382  0829               	movf	(??_sprintf+4)^(0+128),w
  2430  0383  0236               	subwf	(sprintf@val+3)^(0+128),w
  2431  0384  1D03               	skipz
  2432  0385  2B90               	goto	u5395
  2433  0386  0828               	movf	(??_sprintf+3)^(0+128),w
  2434  0387  0235               	subwf	(sprintf@val+2)^(0+128),w
  2435  0388  1D03               	skipz
  2436  0389  2B90               	goto	u5395
  2437  038A  0827               	movf	(??_sprintf+2)^(0+128),w
  2438  038B  0234               	subwf	(sprintf@val+1)^(0+128),w
  2439  038C  1D03               	skipz
  2440  038D  2B90               	goto	u5395
  2441  038E  0826               	movf	(??_sprintf+1)^(0+128),w
  2442  038F  0233               	subwf	sprintf@val^(0+128),w
  2443  0390                     u5395:
  2444  0390  1803               	skipnc
  2445  0391  2B93               	goto	u5391
  2446  0392  2B94               	goto	u5390
  2447  0393                     u5391:
  2448  0393  2B95               	goto	l3290
  2449  0394                     u5390:
  2450  0394  2B9F               	goto	l3294
  2451  0395                     l3290:
  2452  0395  3001               	movlw	1
  2453  0396  00FF               	movwf	btemp+1
  2454  0397  087F               	movf	btemp+1,w
  2455  0398  07C2               	addwf	sprintf@c^(0+128),f
  2456  0399                     l3292:
  2457  0399  300A               	movlw	10
  2458  039A  0642               	xorwf	sprintf@c^(0+128),w
  2459  039B  1D03               	btfss	3,2
  2460  039C  2B9E               	goto	u5401
  2461  039D  2B9F               	goto	u5400
  2462  039E                     u5401:
  2463  039E  2B5E               	goto	l3286
  2464  039F                     u5400:
  2465  039F                     l3294:
  2466                           
  2467                           ;C:\Program Files\Microchip\xc8\v2.20\pic\sources\c90\common\doprnt.c: 1201:     {;C:\Pr
      +                          ogram Files\Microchip\xc8\v2.20\pic\sources\c90\common\doprnt.c: 1214:     if(flag & 0x0
      +                          3)
  2468  039F  3003               	movlw	3
  2469  03A0  052F               	andwf	sprintf@flag^(0+128),w
  2470  03A1  00A5               	movwf	??_sprintf^(0+128)
  2471  03A2  3000               	movlw	0
  2472  03A3  0530               	andwf	(sprintf@flag+1)^(0+128),w
  2473  03A4  00A6               	movwf	(??_sprintf+1)^(0+128)
  2474  03A5  0825               	movf	??_sprintf^(0+128),w
  2475  03A6  0426               	iorwf	(??_sprintf^(0+128)+1),w
  2476  03A7  1903               	btfsc	3,2
  2477  03A8  2BAA               	goto	u5411
  2478  03A9  2BAB               	goto	u5410
  2479  03AA                     u5411:
  2480  03AA  2C1D               	goto	l3306
  2481  03AB                     u5410:
  2482  03AB                     l3296:
  2483                           
  2484                           ;C:\Program Files\Microchip\xc8\v2.20\pic\sources\c90\common\doprnt.c: 1216:      ((*sp+
      +                          + = ('-')));
  2485  03AB  302D               	movlw	45
  2486  03AC  00FF               	movwf	btemp+1
  2487  03AD  083D               	movf	sprintf@sp^(0+128),w
  2488  03AE  0084               	movwf	4
  2489  03AF  087F               	movf	btemp+1,w
  2490  03B0  1783               	bsf	3,7	;select IRP bank2
  2491  03B1  0080               	movwf	0
  2492  03B2                     l3298:
  2493  03B2  3001               	movlw	1
  2494  03B3  00FF               	movwf	btemp+1
  2495  03B4  087F               	movf	btemp+1,w
  2496  03B5  07BD               	addwf	sprintf@sp^(0+128),f
  2497  03B6  2C1D               	goto	l3306
  2498  03B7                     l3300:
  2499                           
  2500                           ;C:\Program Files\Microchip\xc8\v2.20\pic\sources\c90\common\doprnt.c: 1226:     {;C:\Pr
      +                          ogram Files\Microchip\xc8\v2.20\pic\sources\c90\common\doprnt.c: 1227:      tmpval.vd = 
      +                          val/dpowers[c];
  2501  03B7  0842               	movf	sprintf@c^(0+128),w
  2502  03B8  00A5               	movwf	??_sprintf^(0+128)
  2503  03B9  3001               	movlw	1
  2504  03BA                     u5425:
  2505  03BA  1003               	clrc
  2506  03BB  0DA5               	rlf	??_sprintf^(0+128),f
  2507  03BC  3EFF               	addlw	-1
  2508  03BD  1D03               	skipz
  2509  03BE  2BBA               	goto	u5425
  2510  03BF  1003               	clrc
  2511  03C0  0D25               	rlf	??_sprintf^(0+128),w
  2512  03C1  3E69               	addlw	low ((_dpowers-__stringbase)| (0+32768))
  2513  03C2  0084               	movwf	4
  2514  03C3  160A  118A  2000  120A  118A  	fcall	stringdir
  2515  03C8  00F2               	movwf	___lldiv@divisor
  2516  03C9  160A  118A  2000  120A  118A  	fcall	stringdir
  2517  03CE  00F3               	movwf	___lldiv@divisor+1
  2518  03CF  160A  118A  2000  120A  118A  	fcall	stringdir
  2519  03D4  00F4               	movwf	___lldiv@divisor+2
  2520  03D5  160A  118A  2000  120A  118A  	fcall	stringdir
  2521  03DA  00F5               	movwf	___lldiv@divisor+3
  2522  03DB  0836               	movf	(sprintf@val+3)^(0+128),w
  2523  03DC  00F9               	movwf	___lldiv@dividend+3
  2524  03DD  0835               	movf	(sprintf@val+2)^(0+128),w
  2525  03DE  00F8               	movwf	___lldiv@dividend+2
  2526  03DF  0834               	movf	(sprintf@val+1)^(0+128),w
  2527  03E0  00F7               	movwf	___lldiv@dividend+1
  2528  03E1  0833               	movf	sprintf@val^(0+128),w
  2529  03E2  00F6               	movwf	___lldiv@dividend
  2530  03E3  160A  158A  271C  120A  118A  	fcall	___lldiv
  2531  03E8  0875               	movf	?___lldiv+3,w
  2532  03E9  1683               	bsf	3,5	;RP0=1, select bank1
  2533  03EA  1303               	bcf	3,6	;RP1=0, select bank1
  2534  03EB  00BC               	movwf	(sprintf@tmpval+3)^(0+128)
  2535  03EC  0874               	movf	?___lldiv+2,w
  2536  03ED  00BB               	movwf	(sprintf@tmpval+2)^(0+128)
  2537  03EE  0873               	movf	?___lldiv+1,w
  2538  03EF  00BA               	movwf	(sprintf@tmpval+1)^(0+128)
  2539  03F0  0872               	movf	?___lldiv,w
  2540  03F1  00B9               	movwf	sprintf@tmpval^(0+128)
  2541  03F2                     l3302:
  2542                           
  2543                           ;C:\Program Files\Microchip\xc8\v2.20\pic\sources\c90\common\doprnt.c: 1228:      tmpval
      +                          .vd %= 10;
  2544  03F2  3000               	movlw	0
  2545  03F3  00F5               	movwf	___llmod@divisor+3
  2546  03F4  3000               	movlw	0
  2547  03F5  00F4               	movwf	___llmod@divisor+2
  2548  03F6  3000               	movlw	0
  2549  03F7  00F3               	movwf	___llmod@divisor+1
  2550  03F8  300A               	movlw	10
  2551  03F9  00F2               	movwf	___llmod@divisor
  2552  03FA  083C               	movf	(sprintf@tmpval+3)^(0+128),w
  2553  03FB  00F9               	movwf	___llmod@dividend+3
  2554  03FC  083B               	movf	(sprintf@tmpval+2)^(0+128),w
  2555  03FD  00F8               	movwf	___llmod@dividend+2
  2556  03FE  083A               	movf	(sprintf@tmpval+1)^(0+128),w
  2557  03FF  00F7               	movwf	___llmod@dividend+1
  2558  0400  0839               	movf	sprintf@tmpval^(0+128),w
  2559  0401  00F6               	movwf	___llmod@dividend
  2560  0402  160A  158A  2608  120A  118A  	fcall	___llmod
  2561  0407  0875               	movf	?___llmod+3,w
  2562  0408  1683               	bsf	3,5	;RP0=1, select bank1
  2563  0409  1303               	bcf	3,6	;RP1=0, select bank1
  2564  040A  00BC               	movwf	(sprintf@tmpval+3)^(0+128)
  2565  040B  0874               	movf	?___llmod+2,w
  2566  040C  00BB               	movwf	(sprintf@tmpval+2)^(0+128)
  2567  040D  0873               	movf	?___llmod+1,w
  2568  040E  00BA               	movwf	(sprintf@tmpval+1)^(0+128)
  2569  040F  0872               	movf	?___llmod,w
  2570  0410  00B9               	movwf	sprintf@tmpval^(0+128)
  2571  0411                     l3304:
  2572                           
  2573                           ;C:\Program Files\Microchip\xc8\v2.20\pic\sources\c90\common\doprnt.c: 1229:      ((*sp+
      +                          + = ('0' + tmpval.vd)));
  2574  0411  0839               	movf	sprintf@tmpval^(0+128),w
  2575  0412  3E30               	addlw	48
  2576  0413  00FF               	movwf	btemp+1
  2577  0414  083D               	movf	sprintf@sp^(0+128),w
  2578  0415  0084               	movwf	4
  2579  0416  087F               	movf	btemp+1,w
  2580  0417  1783               	bsf	3,7	;select IRP bank2
  2581  0418  0080               	movwf	0
  2582  0419  3001               	movlw	1
  2583  041A  00FF               	movwf	btemp+1
  2584  041B  087F               	movf	btemp+1,w
  2585  041C  07BD               	addwf	sprintf@sp^(0+128),f
  2586  041D                     l3306:
  2587                           
  2588                           ;C:\Program Files\Microchip\xc8\v2.20\pic\sources\c90\common\doprnt.c: 1222:    while(c-
      +                          -) {
  2589  041D  3001               	movlw	1
  2590  041E  02C2               	subwf	sprintf@c^(0+128),f
  2591  041F  0A42               	incf	sprintf@c^(0+128),w
  2592  0420  1D03               	btfss	3,2
  2593  0421  2C23               	goto	u5431
  2594  0422  2C24               	goto	u5430
  2595  0423                     u5431:
  2596  0423  2BB7               	goto	l3300
  2597  0424                     u5430:
  2598  0424  2C38               	goto	l3314
  2599  0425                     l3308:
  2600                           
  2601                           ;C:\Program Files\Microchip\xc8\v2.20\pic\sources\c90\common\doprnt.c: 1234:     ((*sp++
      +                           = ('0')));
  2602  0425  3030               	movlw	48
  2603  0426  00FF               	movwf	btemp+1
  2604  0427  1683               	bsf	3,5	;RP0=1, select bank1
  2605  0428  1303               	bcf	3,6	;RP1=0, select bank1
  2606  0429  083D               	movf	sprintf@sp^(0+128),w
  2607  042A  0084               	movwf	4
  2608  042B  087F               	movf	btemp+1,w
  2609  042C  1783               	bsf	3,7	;select IRP bank2
  2610  042D  0080               	movwf	0
  2611  042E                     l3310:
  2612  042E  3001               	movlw	1
  2613  042F  00FF               	movwf	btemp+1
  2614  0430  087F               	movf	btemp+1,w
  2615  0431  07BD               	addwf	sprintf@sp^(0+128),f
  2616  0432                     l3312:
  2617                           
  2618                           ;C:\Program Files\Microchip\xc8\v2.20\pic\sources\c90\common\doprnt.c: 1235:     eexp--;
  2619  0432  30FF               	movlw	255
  2620  0433  07B7               	addwf	sprintf@eexp^(0+128),f
  2621  0434  1803               	skipnc
  2622  0435  0AB8               	incf	(sprintf@eexp+1)^(0+128),f
  2623  0436  30FF               	movlw	255
  2624  0437  07B8               	addwf	(sprintf@eexp+1)^(0+128),f
  2625  0438                     l3314:
  2626                           
  2627                           ;C:\Program Files\Microchip\xc8\v2.20\pic\sources\c90\common\doprnt.c: 1233:    while(ee
      +                          xp > 0) {
  2628  0438  0838               	movf	(sprintf@eexp+1)^(0+128),w
  2629  0439  3A80               	xorlw	128
  2630  043A  00FF               	movwf	btemp+1
  2631  043B  3080               	movlw	128
  2632  043C  027F               	subwf	btemp+1,w
  2633  043D  1D03               	skipz
  2634  043E  2C41               	goto	u5445
  2635  043F  3001               	movlw	1
  2636  0440  0237               	subwf	sprintf@eexp^(0+128),w
  2637  0441                     u5445:
  2638  0441  1803               	skipnc
  2639  0442  2C44               	goto	u5441
  2640  0443  2C45               	goto	u5440
  2641  0444                     u5441:
  2642  0444  2C25               	goto	l3308
  2643  0445                     u5440:
  2644  0445                     l3316:
  2645                           
  2646                           ;C:\Program Files\Microchip\xc8\v2.20\pic\sources\c90\common\doprnt.c: 1237:    if(prec 
      +                          > (int)((sizeof dpowers/sizeof dpowers[0])-2))
  2647  0445  1683               	bsf	3,5	;RP0=1, select bank1
  2648  0446  1303               	bcf	3,6	;RP1=0, select bank1
  2649  0447  0832               	movf	(sprintf@prec+1)^(0+128),w
  2650  0448  3A80               	xorlw	128
  2651  0449  00FF               	movwf	btemp+1
  2652  044A  3080               	movlw	128
  2653  044B  027F               	subwf	btemp+1,w
  2654  044C  1D03               	skipz
  2655  044D  2C50               	goto	u5455
  2656  044E  3009               	movlw	9
  2657  044F  0231               	subwf	sprintf@prec^(0+128),w
  2658  0450                     u5455:
  2659  0450  1C03               	skipc
  2660  0451  2C53               	goto	u5451
  2661  0452  2C54               	goto	u5450
  2662  0453                     u5451:
  2663  0453  2C5B               	goto	l3320
  2664  0454                     u5450:
  2665  0454                     l3318:
  2666                           
  2667                           ;C:\Program Files\Microchip\xc8\v2.20\pic\sources\c90\common\doprnt.c: 1238:     c = (si
      +                          zeof dpowers/sizeof dpowers[0])-2;
  2668  0454  3008               	movlw	8
  2669  0455  00FF               	movwf	btemp+1
  2670  0456  087F               	movf	btemp+1,w
  2671  0457  1683               	bsf	3,5	;RP0=1, select bank1
  2672  0458  1303               	bcf	3,6	;RP1=0, select bank1
  2673  0459  00C2               	movwf	sprintf@c^(0+128)
  2674  045A  2C61               	goto	l3322
  2675  045B                     l3320:
  2676                           
  2677                           ;C:\Program Files\Microchip\xc8\v2.20\pic\sources\c90\common\doprnt.c: 1240:     c = (ch
      +                          ar)prec;
  2678  045B  1683               	bsf	3,5	;RP0=1, select bank1
  2679  045C  1303               	bcf	3,6	;RP1=0, select bank1
  2680  045D  0831               	movf	sprintf@prec^(0+128),w
  2681  045E  00FF               	movwf	btemp+1
  2682  045F  087F               	movf	btemp+1,w
  2683  0460  00C2               	movwf	sprintf@c^(0+128)
  2684  0461                     l3322:
  2685                           
  2686                           ;C:\Program Files\Microchip\xc8\v2.20\pic\sources\c90\common\doprnt.c: 1241:    prec -= 
      +                          (int)c;
  2687  0461  0842               	movf	sprintf@c^(0+128),w
  2688  0462  00A5               	movwf	??_sprintf^(0+128)
  2689  0463  01A6               	clrf	(??_sprintf^(0+128)+1)
  2690  0464  0825               	movf	??_sprintf^(0+128),w
  2691  0465  02B1               	subwf	sprintf@prec^(0+128),f
  2692  0466  0826               	movf	(??_sprintf+1)^(0+128),w
  2693  0467  1C03               	skipc
  2694  0468  03B2               	decf	(sprintf@prec+1)^(0+128),f
  2695  0469  02B2               	subwf	(sprintf@prec+1)^(0+128),f
  2696  046A                     l3324:
  2697                           
  2698                           ;C:\Program Files\Microchip\xc8\v2.20\pic\sources\c90\common\doprnt.c: 1245:    if(c)
  2699  046A  0842               	movf	sprintf@c^(0+128),w
  2700  046B  1903               	btfsc	3,2
  2701  046C  2C6E               	goto	u5461
  2702  046D  2C6F               	goto	u5460
  2703  046E                     u5461:
  2704  046E  2C7A               	goto	l3330
  2705  046F                     u5460:
  2706  046F                     l3326:
  2707                           
  2708                           ;C:\Program Files\Microchip\xc8\v2.20\pic\sources\c90\common\doprnt.c: 1247:     ((*sp++
      +                           = ('.')));
  2709  046F  302E               	movlw	46
  2710  0470  00FF               	movwf	btemp+1
  2711  0471  083D               	movf	sprintf@sp^(0+128),w
  2712  0472  0084               	movwf	4
  2713  0473  087F               	movf	btemp+1,w
  2714  0474  1783               	bsf	3,7	;select IRP bank2
  2715  0475  0080               	movwf	0
  2716  0476                     l3328:
  2717  0476  3001               	movlw	1
  2718  0477  00FF               	movwf	btemp+1
  2719  0478  087F               	movf	btemp+1,w
  2720  0479  07BD               	addwf	sprintf@sp^(0+128),f
  2721  047A                     l3330:
  2722                           
  2723                           ;C:\Program Files\Microchip\xc8\v2.20\pic\sources\c90\common\doprnt.c: 1253:    val = (u
      +                          nsigned long)(fval * scale((signed char)c));
  2724  047A  0842               	movf	sprintf@c^(0+128),w
  2725  047B  120A  158A  2140  120A  118A  	fcall	_scale
  2726  0480  1283               	bcf	3,5	;RP0=0, select bank0
  2727  0481  1303               	bcf	3,6	;RP1=0, select bank0
  2728  0482  0841               	movf	?_scale+3,w
  2729  0483  1683               	bsf	3,5	;RP0=1, select bank1
  2730  0484  1303               	bcf	3,6	;RP1=0, select bank1
  2731  0485  00AD               	movwf	(_sprintf$806+3)^(0+128)
  2732  0486  1283               	bcf	3,5	;RP0=0, select bank0
  2733  0487  1303               	bcf	3,6	;RP1=0, select bank0
  2734  0488  0840               	movf	?_scale+2,w
  2735  0489  1683               	bsf	3,5	;RP0=1, select bank1
  2736  048A  1303               	bcf	3,6	;RP1=0, select bank1
  2737  048B  00AC               	movwf	(_sprintf$806+2)^(0+128)
  2738  048C  1283               	bcf	3,5	;RP0=0, select bank0
  2739  048D  1303               	bcf	3,6	;RP1=0, select bank0
  2740  048E  083F               	movf	?_scale+1,w
  2741  048F  1683               	bsf	3,5	;RP0=1, select bank1
  2742  0490  1303               	bcf	3,6	;RP1=0, select bank1
  2743  0491  00AB               	movwf	(_sprintf$806+1)^(0+128)
  2744  0492  1283               	bcf	3,5	;RP0=0, select bank0
  2745  0493  1303               	bcf	3,6	;RP1=0, select bank0
  2746  0494  083E               	movf	?_scale,w
  2747  0495  1683               	bsf	3,5	;RP0=1, select bank1
  2748  0496  1303               	bcf	3,6	;RP1=0, select bank1
  2749  0497  00AA               	movwf	_sprintf$806^(0+128)
  2750  0498                     l3332:
  2751                           
  2752                           ;C:\Program Files\Microchip\xc8\v2.20\pic\sources\c90\common\doprnt.c: 1253:    val = (u
      +                          nsigned long)(fval * scale((signed char)c));
  2753  0498  082D               	movf	(_sprintf$806+3)^(0+128),w
  2754  0499  1283               	bcf	3,5	;RP0=0, select bank0
  2755  049A  1303               	bcf	3,6	;RP1=0, select bank0
  2756  049B  00AB               	movwf	___flmul@a+3
  2757  049C  1683               	bsf	3,5	;RP0=1, select bank1
  2758  049D  1303               	bcf	3,6	;RP1=0, select bank1
  2759  049E  082C               	movf	(_sprintf$806+2)^(0+128),w
  2760  049F  1283               	bcf	3,5	;RP0=0, select bank0
  2761  04A0  1303               	bcf	3,6	;RP1=0, select bank0
  2762  04A1  00AA               	movwf	___flmul@a+2
  2763  04A2  1683               	bsf	3,5	;RP0=1, select bank1
  2764  04A3  1303               	bcf	3,6	;RP1=0, select bank1
  2765  04A4  082B               	movf	(_sprintf$806+1)^(0+128),w
  2766  04A5  1283               	bcf	3,5	;RP0=0, select bank0
  2767  04A6  1303               	bcf	3,6	;RP1=0, select bank0
  2768  04A7  00A9               	movwf	___flmul@a+1
  2769  04A8  1683               	bsf	3,5	;RP0=1, select bank1
  2770  04A9  1303               	bcf	3,6	;RP1=0, select bank1
  2771  04AA  082A               	movf	_sprintf$806^(0+128),w
  2772  04AB  1283               	bcf	3,5	;RP0=0, select bank0
  2773  04AC  1303               	bcf	3,6	;RP1=0, select bank0
  2774  04AD  00A8               	movwf	___flmul@a
  2775  04AE  1683               	bsf	3,5	;RP0=1, select bank1
  2776  04AF  1303               	bcf	3,6	;RP1=0, select bank1
  2777  04B0  0841               	movf	(sprintf@fval+3)^(0+128),w
  2778  04B1  1283               	bcf	3,5	;RP0=0, select bank0
  2779  04B2  1303               	bcf	3,6	;RP1=0, select bank0
  2780  04B3  00A7               	movwf	___flmul@b+3
  2781  04B4  1683               	bsf	3,5	;RP0=1, select bank1
  2782  04B5  1303               	bcf	3,6	;RP1=0, select bank1
  2783  04B6  0840               	movf	(sprintf@fval+2)^(0+128),w
  2784  04B7  1283               	bcf	3,5	;RP0=0, select bank0
  2785  04B8  1303               	bcf	3,6	;RP1=0, select bank0
  2786  04B9  00A6               	movwf	___flmul@b+2
  2787  04BA  1683               	bsf	3,5	;RP0=1, select bank1
  2788  04BB  1303               	bcf	3,6	;RP1=0, select bank1
  2789  04BC  083F               	movf	(sprintf@fval+1)^(0+128),w
  2790  04BD  1283               	bcf	3,5	;RP0=0, select bank0
  2791  04BE  1303               	bcf	3,6	;RP1=0, select bank0
  2792  04BF  00A5               	movwf	___flmul@b+1
  2793  04C0  1683               	bsf	3,5	;RP0=1, select bank1
  2794  04C1  1303               	bcf	3,6	;RP1=0, select bank1
  2795  04C2  083E               	movf	sprintf@fval^(0+128),w
  2796  04C3  1283               	bcf	3,5	;RP0=0, select bank0
  2797  04C4  1303               	bcf	3,6	;RP1=0, select bank0
  2798  04C5  00A4               	movwf	___flmul@b
  2799  04C6  120A  158A  249F  120A  118A  	fcall	___flmul
  2800  04CB  1283               	bcf	3,5	;RP0=0, select bank0
  2801  04CC  1303               	bcf	3,6	;RP1=0, select bank0
  2802  04CD  0827               	movf	?___flmul+3,w
  2803  04CE  00D4               	movwf	___fltol@f1+3
  2804  04CF  0826               	movf	?___flmul+2,w
  2805  04D0  00D3               	movwf	___fltol@f1+2
  2806  04D1  0825               	movf	?___flmul+1,w
  2807  04D2  00D2               	movwf	___fltol@f1+1
  2808  04D3  0824               	movf	?___flmul,w
  2809  04D4  00D1               	movwf	___fltol@f1
  2810  04D5  160A  158A  2784  120A  118A  	fcall	___fltol
  2811  04DA  1283               	bcf	3,5	;RP0=0, select bank0
  2812  04DB  1303               	bcf	3,6	;RP1=0, select bank0
  2813  04DC  0854               	movf	?___fltol+3,w
  2814  04DD  1683               	bsf	3,5	;RP0=1, select bank1
  2815  04DE  1303               	bcf	3,6	;RP1=0, select bank1
  2816  04DF  00B6               	movwf	(sprintf@val+3)^(0+128)
  2817  04E0  1283               	bcf	3,5	;RP0=0, select bank0
  2818  04E1  1303               	bcf	3,6	;RP1=0, select bank0
  2819  04E2  0853               	movf	?___fltol+2,w
  2820  04E3  1683               	bsf	3,5	;RP0=1, select bank1
  2821  04E4  1303               	bcf	3,6	;RP1=0, select bank1
  2822  04E5  00B5               	movwf	(sprintf@val+2)^(0+128)
  2823  04E6  1283               	bcf	3,5	;RP0=0, select bank0
  2824  04E7  1303               	bcf	3,6	;RP1=0, select bank0
  2825  04E8  0852               	movf	?___fltol+1,w
  2826  04E9  1683               	bsf	3,5	;RP0=1, select bank1
  2827  04EA  1303               	bcf	3,6	;RP1=0, select bank1
  2828  04EB  00B4               	movwf	(sprintf@val+1)^(0+128)
  2829  04EC  1283               	bcf	3,5	;RP0=0, select bank0
  2830  04ED  1303               	bcf	3,6	;RP1=0, select bank0
  2831  04EE  0851               	movf	?___fltol,w
  2832  04EF  1683               	bsf	3,5	;RP0=1, select bank1
  2833  04F0  1303               	bcf	3,6	;RP1=0, select bank1
  2834  04F1  00B3               	movwf	sprintf@val^(0+128)
  2835                           
  2836                           ;C:\Program Files\Microchip\xc8\v2.20\pic\sources\c90\common\doprnt.c: 1254:    while(c-
      +                          -) {
  2837  04F2  2D94               	goto	l3342
  2838  04F3                     l3334:
  2839                           
  2840                           ;C:\Program Files\Microchip\xc8\v2.20\pic\sources\c90\common\doprnt.c: 1255:     tmpval.
      +                          vd = val/dpowers[c];
  2841  04F3  0842               	movf	sprintf@c^(0+128),w
  2842  04F4  00A5               	movwf	??_sprintf^(0+128)
  2843  04F5  3001               	movlw	1
  2844  04F6                     u5475:
  2845  04F6  1003               	clrc
  2846  04F7  0DA5               	rlf	??_sprintf^(0+128),f
  2847  04F8  3EFF               	addlw	-1
  2848  04F9  1D03               	skipz
  2849  04FA  2CF6               	goto	u5475
  2850  04FB  1003               	clrc
  2851  04FC  0D25               	rlf	??_sprintf^(0+128),w
  2852  04FD  3E69               	addlw	low ((_dpowers-__stringbase)| (0+32768))
  2853  04FE  0084               	movwf	4
  2854  04FF  160A  118A  2000  120A  118A  	fcall	stringdir
  2855  0504  00F2               	movwf	___lldiv@divisor
  2856  0505  160A  118A  2000  120A  118A  	fcall	stringdir
  2857  050A  00F3               	movwf	___lldiv@divisor+1
  2858  050B  160A  118A  2000  120A  118A  	fcall	stringdir
  2859  0510  00F4               	movwf	___lldiv@divisor+2
  2860  0511  160A  118A  2000  120A  118A  	fcall	stringdir
  2861  0516  00F5               	movwf	___lldiv@divisor+3
  2862  0517  0836               	movf	(sprintf@val+3)^(0+128),w
  2863  0518  00F9               	movwf	___lldiv@dividend+3
  2864  0519  0835               	movf	(sprintf@val+2)^(0+128),w
  2865  051A  00F8               	movwf	___lldiv@dividend+2
  2866  051B  0834               	movf	(sprintf@val+1)^(0+128),w
  2867  051C  00F7               	movwf	___lldiv@dividend+1
  2868  051D  0833               	movf	sprintf@val^(0+128),w
  2869  051E  00F6               	movwf	___lldiv@dividend
  2870  051F  160A  158A  271C  120A  118A  	fcall	___lldiv
  2871  0524  0875               	movf	?___lldiv+3,w
  2872  0525  1683               	bsf	3,5	;RP0=1, select bank1
  2873  0526  1303               	bcf	3,6	;RP1=0, select bank1
  2874  0527  00BC               	movwf	(sprintf@tmpval+3)^(0+128)
  2875  0528  0874               	movf	?___lldiv+2,w
  2876  0529  00BB               	movwf	(sprintf@tmpval+2)^(0+128)
  2877  052A  0873               	movf	?___lldiv+1,w
  2878  052B  00BA               	movwf	(sprintf@tmpval+1)^(0+128)
  2879  052C  0872               	movf	?___lldiv,w
  2880  052D  00B9               	movwf	sprintf@tmpval^(0+128)
  2881  052E                     l3336:
  2882                           
  2883                           ;C:\Program Files\Microchip\xc8\v2.20\pic\sources\c90\common\doprnt.c: 1256:     tmpval.
      +                          vd %= 10;
  2884  052E  3000               	movlw	0
  2885  052F  00F5               	movwf	___llmod@divisor+3
  2886  0530  3000               	movlw	0
  2887  0531  00F4               	movwf	___llmod@divisor+2
  2888  0532  3000               	movlw	0
  2889  0533  00F3               	movwf	___llmod@divisor+1
  2890  0534  300A               	movlw	10
  2891  0535  00F2               	movwf	___llmod@divisor
  2892  0536  083C               	movf	(sprintf@tmpval+3)^(0+128),w
  2893  0537  00F9               	movwf	___llmod@dividend+3
  2894  0538  083B               	movf	(sprintf@tmpval+2)^(0+128),w
  2895  0539  00F8               	movwf	___llmod@dividend+2
  2896  053A  083A               	movf	(sprintf@tmpval+1)^(0+128),w
  2897  053B  00F7               	movwf	___llmod@dividend+1
  2898  053C  0839               	movf	sprintf@tmpval^(0+128),w
  2899  053D  00F6               	movwf	___llmod@dividend
  2900  053E  160A  158A  2608  120A  118A  	fcall	___llmod
  2901  0543  0875               	movf	?___llmod+3,w
  2902  0544  1683               	bsf	3,5	;RP0=1, select bank1
  2903  0545  1303               	bcf	3,6	;RP1=0, select bank1
  2904  0546  00BC               	movwf	(sprintf@tmpval+3)^(0+128)
  2905  0547  0874               	movf	?___llmod+2,w
  2906  0548  00BB               	movwf	(sprintf@tmpval+2)^(0+128)
  2907  0549  0873               	movf	?___llmod+1,w
  2908  054A  00BA               	movwf	(sprintf@tmpval+1)^(0+128)
  2909  054B  0872               	movf	?___llmod,w
  2910  054C  00B9               	movwf	sprintf@tmpval^(0+128)
  2911  054D                     l3338:
  2912                           
  2913                           ;C:\Program Files\Microchip\xc8\v2.20\pic\sources\c90\common\doprnt.c: 1257:     ((*sp++
      +                           = ('0' + tmpval.vd)));
  2914  054D  0839               	movf	sprintf@tmpval^(0+128),w
  2915  054E  3E30               	addlw	48
  2916  054F  00FF               	movwf	btemp+1
  2917  0550  083D               	movf	sprintf@sp^(0+128),w
  2918  0551  0084               	movwf	4
  2919  0552  087F               	movf	btemp+1,w
  2920  0553  1783               	bsf	3,7	;select IRP bank2
  2921  0554  0080               	movwf	0
  2922  0555  3001               	movlw	1
  2923  0556  00FF               	movwf	btemp+1
  2924  0557  087F               	movf	btemp+1,w
  2925  0558  07BD               	addwf	sprintf@sp^(0+128),f
  2926  0559                     l3340:
  2927                           
  2928                           ;C:\Program Files\Microchip\xc8\v2.20\pic\sources\c90\common\doprnt.c: 1258:     val %= 
      +                          dpowers[c];
  2929  0559  0842               	movf	sprintf@c^(0+128),w
  2930  055A  00A5               	movwf	??_sprintf^(0+128)
  2931  055B  3001               	movlw	1
  2932  055C                     u5485:
  2933  055C  1003               	clrc
  2934  055D  0DA5               	rlf	??_sprintf^(0+128),f
  2935  055E  3EFF               	addlw	-1
  2936  055F  1D03               	skipz
  2937  0560  2D5C               	goto	u5485
  2938  0561  1003               	clrc
  2939  0562  0D25               	rlf	??_sprintf^(0+128),w
  2940  0563  3E69               	addlw	low ((_dpowers-__stringbase)| (0+32768))
  2941  0564  0084               	movwf	4
  2942  0565  160A  118A  2000  120A  118A  	fcall	stringdir
  2943  056A  00F2               	movwf	___llmod@divisor
  2944  056B  160A  118A  2000  120A  118A  	fcall	stringdir
  2945  0570  00F3               	movwf	___llmod@divisor+1
  2946  0571  160A  118A  2000  120A  118A  	fcall	stringdir
  2947  0576  00F4               	movwf	___llmod@divisor+2
  2948  0577  160A  118A  2000  120A  118A  	fcall	stringdir
  2949  057C  00F5               	movwf	___llmod@divisor+3
  2950  057D  0836               	movf	(sprintf@val+3)^(0+128),w
  2951  057E  00F9               	movwf	___llmod@dividend+3
  2952  057F  0835               	movf	(sprintf@val+2)^(0+128),w
  2953  0580  00F8               	movwf	___llmod@dividend+2
  2954  0581  0834               	movf	(sprintf@val+1)^(0+128),w
  2955  0582  00F7               	movwf	___llmod@dividend+1
  2956  0583  0833               	movf	sprintf@val^(0+128),w
  2957  0584  00F6               	movwf	___llmod@dividend
  2958  0585  160A  158A  2608  120A  118A  	fcall	___llmod
  2959  058A  0875               	movf	?___llmod+3,w
  2960  058B  1683               	bsf	3,5	;RP0=1, select bank1
  2961  058C  1303               	bcf	3,6	;RP1=0, select bank1
  2962  058D  00B6               	movwf	(sprintf@val+3)^(0+128)
  2963  058E  0874               	movf	?___llmod+2,w
  2964  058F  00B5               	movwf	(sprintf@val+2)^(0+128)
  2965  0590  0873               	movf	?___llmod+1,w
  2966  0591  00B4               	movwf	(sprintf@val+1)^(0+128)
  2967  0592  0872               	movf	?___llmod,w
  2968  0593  00B3               	movwf	sprintf@val^(0+128)
  2969  0594                     l3342:
  2970                           
  2971                           ;C:\Program Files\Microchip\xc8\v2.20\pic\sources\c90\common\doprnt.c: 1254:    while(c-
      +                          -) {
  2972  0594  3001               	movlw	1
  2973  0595  02C2               	subwf	sprintf@c^(0+128),f
  2974  0596  0A42               	incf	sprintf@c^(0+128),w
  2975  0597  1D03               	btfss	3,2
  2976  0598  2D9A               	goto	u5491
  2977  0599  2D9B               	goto	u5490
  2978  059A                     u5491:
  2979  059A  2CF3               	goto	l3334
  2980  059B                     u5490:
  2981  059B  2DAD               	goto	l3350
  2982  059C                     l3344:
  2983                           
  2984                           ;C:\Program Files\Microchip\xc8\v2.20\pic\sources\c90\common\doprnt.c: 1262:     ((*sp++
      +                           = ('0')));
  2985  059C  3030               	movlw	48
  2986  059D  00FF               	movwf	btemp+1
  2987  059E  083D               	movf	sprintf@sp^(0+128),w
  2988  059F  0084               	movwf	4
  2989  05A0  087F               	movf	btemp+1,w
  2990  05A1  1783               	bsf	3,7	;select IRP bank2
  2991  05A2  0080               	movwf	0
  2992  05A3                     l3346:
  2993  05A3  3001               	movlw	1
  2994  05A4  00FF               	movwf	btemp+1
  2995  05A5  087F               	movf	btemp+1,w
  2996  05A6  07BD               	addwf	sprintf@sp^(0+128),f
  2997  05A7                     l3348:
  2998                           
  2999                           ;C:\Program Files\Microchip\xc8\v2.20\pic\sources\c90\common\doprnt.c: 1263:     prec--;
  3000  05A7  30FF               	movlw	255
  3001  05A8  07B1               	addwf	sprintf@prec^(0+128),f
  3002  05A9  1803               	skipnc
  3003  05AA  0AB2               	incf	(sprintf@prec+1)^(0+128),f
  3004  05AB  30FF               	movlw	255
  3005  05AC  07B2               	addwf	(sprintf@prec+1)^(0+128),f
  3006  05AD                     l3350:
  3007                           
  3008                           ;C:\Program Files\Microchip\xc8\v2.20\pic\sources\c90\common\doprnt.c: 1261:    while(pr
      +                          ec) {
  3009  05AD  0831               	movf	sprintf@prec^(0+128),w
  3010  05AE  0432               	iorwf	(sprintf@prec+1)^(0+128),w
  3011  05AF  1D03               	btfss	3,2
  3012  05B0  2DB2               	goto	u5501
  3013  05B1  2DB3               	goto	u5500
  3014  05B2                     u5501:
  3015  05B2  2D9C               	goto	l3344
  3016  05B3                     u5500:
  3017  05B3  2DC8               	goto	l3358
  3018  05B4                     l3352:
  3019                           
  3020                           ;C:\Program Files\Microchip\xc8\v2.20\pic\sources\c90\common\doprnt.c: 1448:   {;C:\Prog
      +                          ram Files\Microchip\xc8\v2.20\pic\sources\c90\common\doprnt.c: 1464:    if(flag & 0x03)
  3021  05B4  3003               	movlw	3
  3022  05B5  052F               	andwf	sprintf@flag^(0+128),w
  3023  05B6  00A5               	movwf	??_sprintf^(0+128)
  3024  05B7  3000               	movlw	0
  3025  05B8  0530               	andwf	(sprintf@flag+1)^(0+128),w
  3026  05B9  00A6               	movwf	(??_sprintf+1)^(0+128)
  3027  05BA  0825               	movf	??_sprintf^(0+128),w
  3028  05BB  0426               	iorwf	(??_sprintf^(0+128)+1),w
  3029  05BC  1903               	btfsc	3,2
  3030  05BD  2DBF               	goto	u5511
  3031  05BE  2DC0               	goto	u5510
  3032  05BF                     u5511:
  3033  05BF  2DC8               	goto	l3358
  3034  05C0                     u5510:
  3035  05C0                     l3354:
  3036                           
  3037                           ;C:\Program Files\Microchip\xc8\v2.20\pic\sources\c90\common\doprnt.c: 1465:     ((*sp++
      +                           = ('-')));
  3038  05C0  302D               	movlw	45
  3039  05C1  00FF               	movwf	btemp+1
  3040  05C2  083D               	movf	sprintf@sp^(0+128),w
  3041  05C3  0084               	movwf	4
  3042  05C4  087F               	movf	btemp+1,w
  3043  05C5  1783               	bsf	3,7	;select IRP bank2
  3044  05C6  0080               	movwf	0
  3045  05C7  283A               	goto	l3200
  3046  05C8                     l3358:
  3047                           
  3048                           ;C:\Program Files\Microchip\xc8\v2.20\pic\sources\c90\common\doprnt.c: 553:  while((c = 
      +                          *f++)) {
  3049  05C8  3001               	movlw	1
  3050  05C9  07A0               	addwf	sprintf@f^(0+128),f
  3051  05CA  30FF               	movlw	-1
  3052  05CB  0720               	addwf	sprintf@f^(0+128),w
  3053  05CC  0084               	movwf	4
  3054  05CD  160A  118A  2000  120A  118A  	fcall	stringdir
  3055  05D2  00FF               	movwf	btemp+1
  3056  05D3  087F               	movf	btemp+1,w
  3057  05D4  00C2               	movwf	sprintf@c^(0+128)
  3058  05D5  0842               	movf	sprintf@c^(0+128),w
  3059  05D6  1D03               	btfss	3,2
  3060  05D7  2DD9               	goto	u5521
  3061  05D8  2DDA               	goto	u5520
  3062  05D9                     u5521:
  3063  05D9  282D               	goto	l3196
  3064  05DA                     u5520:
  3065  05DA                     l3360:
  3066                           
  3067                           ;C:\Program Files\Microchip\xc8\v2.20\pic\sources\c90\common\doprnt.c: 1564:  *sp = 0;
  3068  05DA  083D               	movf	sprintf@sp^(0+128),w
  3069  05DB  0084               	movwf	4
  3070  05DC  1783               	bsf	3,7	;select IRP bank2
  3071  05DD  0180               	clrf	0
  3072  05DE                     l300:
  3073  05DE  0008               	return
  3074  05DF                     __end_of_sprintf:
  3075                           
  3076                           	psect	text3
  3077  0940                     __ptext3:	
  3078 ;; *************** function _scale *****************
  3079 ;; Defined at:
  3080 ;;		line 433 in file "C:\Program Files\Microchip\xc8\v2.20\pic\sources\c90\common\doprnt.c"
  3081 ;; Parameters:    Size  Location     Type
  3082 ;;  scl             1    wreg     char 
  3083 ;; Auto vars:     Size  Location     Type
  3084 ;;  scl             1   48[BANK0 ] char 
  3085 ;; Return value:  Size  Location     Type
  3086 ;;                  4   30[BANK0 ] char 
  3087 ;; Registers used:
  3088 ;;		wreg, fsr0l, fsr0h, status,2, status,0, btemp+1, pclath, cstack
  3089 ;; Tracked objects:
  3090 ;;		On entry : 0/0
  3091 ;;		On exit  : 0/0
  3092 ;;		Unchanged: 0/0
  3093 ;; Data sizes:     COMMON   BANK0   BANK1   BANK3   BANK2
  3094 ;;      Params:         0       4       0       0       0
  3095 ;;      Locals:         0       5       0       0       0
  3096 ;;      Temps:          0      10       0       0       0
  3097 ;;      Totals:         0      19       0       0       0
  3098 ;;Total ram usage:       19 bytes
  3099 ;; Hardware stack levels used:    1
  3100 ;; Hardware stack levels required when called:    3
  3101 ;; This function calls:
  3102 ;;		___awdiv
  3103 ;;		___awmod
  3104 ;;		___flmul
  3105 ;; This function is called by:
  3106 ;;		_sprintf
  3107 ;; This function uses a non-reentrant model
  3108 ;;
  3109                           
  3110                           
  3111                           ;psect for function _scale
  3112  0940                     _scale:
  3113                           
  3114                           ;incstack = 0
  3115                           ; Regs used in _scale: [wreg-fsr0h+status,2+status,0+btemp+1+pclath+cstack]
  3116                           ;scale@scl stored from wreg
  3117  0940  1283               	bcf	3,5	;RP0=0, select bank0
  3118  0941  1303               	bcf	3,6	;RP1=0, select bank0
  3119  0942  00D0               	movwf	scale@scl
  3120  0943                     l2788:
  3121                           
  3122                           ;C:\Program Files\Microchip\xc8\v2.20\pic\sources\c90\common\doprnt.c: 433: scale(signed
      +                           char scl);C:\Program Files\Microchip\xc8\v2.20\pic\sources\c90\common\doprnt.c: 434: {;
      +                          C:\Program Files\Microchip\xc8\v2.20\pic\sources\c90\common\doprnt.c: 436:  if(scl < 0) 
      +                          {
  3123  0943  1FD0               	btfss	scale@scl,7
  3124  0944  2946               	goto	u4271
  3125  0945  2947               	goto	u4270
  3126  0946                     u4271:
  3127  0946  2AF4               	goto	l2810
  3128  0947                     u4270:
  3129  0947                     l2790:
  3130                           
  3131                           ;C:\Program Files\Microchip\xc8\v2.20\pic\sources\c90\common\doprnt.c: 437:   scl = -scl
      +                          ;
  3132  0947  09D0               	comf	scale@scl,f
  3133  0948  0AD0               	incf	scale@scl,f
  3134  0949                     l2792:
  3135                           
  3136                           ;C:\Program Files\Microchip\xc8\v2.20\pic\sources\c90\common\doprnt.c: 438:   if(scl>=11
      +                          0)
  3137  0949  0850               	movf	scale@scl,w
  3138  094A  3A80               	xorlw	128
  3139  094B  3E12               	addlw	-238
  3140  094C  1C03               	skipc
  3141  094D  294F               	goto	u4281
  3142  094E  2950               	goto	u4280
  3143  094F                     u4281:
  3144  094F  2A38               	goto	l2800
  3145  0950                     u4280:
  3146  0950                     l2794:
  3147                           
  3148                           ;C:\Program Files\Microchip\xc8\v2.20\pic\sources\c90\common\doprnt.c: 439:    return _n
      +                          powers_[(unsigned char)(scl/100+18)] * _npowers_[(unsigned char)((scl%100)/10+9)] * _npo
      +                          wers_[(unsigned char)(scl%10)];
  3149  0950  300A               	movlw	10
  3150  0951  00F8               	movwf	___awdiv@divisor
  3151  0952  3000               	movlw	0
  3152  0953  00F9               	movwf	___awdiv@divisor+1
  3153  0954  0850               	movf	scale@scl,w
  3154  0955  00F4               	movwf	___awmod@dividend
  3155  0956  01F5               	clrf	___awmod@dividend+1
  3156  0957  1BF4               	btfsc	___awmod@dividend,7
  3157  0958  03F5               	decf	___awmod@dividend+1,f
  3158  0959  3064               	movlw	100
  3159  095A  00F2               	movwf	___awmod@divisor
  3160  095B  3000               	movlw	0
  3161  095C  00F3               	movwf	___awmod@divisor+1
  3162  095D  160A  158A  265C  120A  158A  	fcall	___awmod
  3163  0962  0873               	movf	?___awmod+1,w
  3164  0963  00FB               	movwf	___awdiv@dividend+1
  3165  0964  0872               	movf	?___awmod,w
  3166  0965  00FA               	movwf	___awdiv@dividend
  3167  0966  120A  158A  200D  120A  158A  	fcall	___awdiv
  3168  096B  0878               	movf	?___awdiv,w
  3169  096C  1283               	bcf	3,5	;RP0=0, select bank0
  3170  096D  1303               	bcf	3,6	;RP1=0, select bank0
  3171  096E  00C2               	movwf	??_scale
  3172  096F  3001               	movlw	1
  3173  0970                     u4295:
  3174  0970  1003               	clrc
  3175  0971  0DC2               	rlf	??_scale,f
  3176  0972  3EFF               	addlw	-1
  3177  0973  1D03               	skipz
  3178  0974  2970               	goto	u4295
  3179  0975  1003               	clrc
  3180  0976  0D42               	rlf	??_scale,w
  3181  0977  3E59               	addlw	low (((__npowers_-__stringbase)| (0+32768)+36))
  3182  0978  0084               	movwf	4
  3183  0979  160A  118A  2000  120A  158A  	fcall	stringdir
  3184  097E  00C3               	movwf	??_scale+1
  3185  097F  160A  118A  2000  120A  158A  	fcall	stringdir
  3186  0984  00C4               	movwf	??_scale+2
  3187  0985  160A  118A  2000  120A  158A  	fcall	stringdir
  3188  098A  00C5               	movwf	??_scale+3
  3189  098B  160A  118A  2000  120A  158A  	fcall	stringdir
  3190  0990  00C6               	movwf	??_scale+4
  3191  0991  0846               	movf	??_scale+4,w
  3192  0992  00A7               	movwf	___flmul@b+3
  3193  0993  0845               	movf	??_scale+3,w
  3194  0994  00A6               	movwf	___flmul@b+2
  3195  0995  0844               	movf	??_scale+2,w
  3196  0996  00A5               	movwf	___flmul@b+1
  3197  0997  0843               	movf	??_scale+1,w
  3198  0998  00A4               	movwf	___flmul@b
  3199  0999  3064               	movlw	100
  3200  099A  00F8               	movwf	___awdiv@divisor
  3201  099B  3000               	movlw	0
  3202  099C  00F9               	movwf	___awdiv@divisor+1
  3203  099D  0850               	movf	scale@scl,w
  3204  099E  00FA               	movwf	___awdiv@dividend
  3205  099F  01FB               	clrf	___awdiv@dividend+1
  3206  09A0  1BFA               	btfsc	___awdiv@dividend,7
  3207  09A1  03FB               	decf	___awdiv@dividend+1,f
  3208  09A2  120A  158A  200D  120A  158A  	fcall	___awdiv
  3209  09A7  0878               	movf	?___awdiv,w
  3210  09A8  1283               	bcf	3,5	;RP0=0, select bank0
  3211  09A9  1303               	bcf	3,6	;RP1=0, select bank0
  3212  09AA  00C7               	movwf	??_scale+5
  3213  09AB  3001               	movlw	1
  3214  09AC                     u4305:
  3215  09AC  1003               	clrc
  3216  09AD  0DC7               	rlf	??_scale+5,f
  3217  09AE  3EFF               	addlw	-1
  3218  09AF  1D03               	skipz
  3219  09B0  29AC               	goto	u4305
  3220  09B1  1003               	clrc
  3221  09B2  0D47               	rlf	??_scale+5,w
  3222  09B3  3E7D               	addlw	low (((__npowers_-__stringbase)| (0+32768)+72))
  3223  09B4  0084               	movwf	4
  3224  09B5  160A  118A  2000  120A  158A  	fcall	stringdir
  3225  09BA  00C8               	movwf	??_scale+6
  3226  09BB  160A  118A  2000  120A  158A  	fcall	stringdir
  3227  09C0  00C9               	movwf	??_scale+7
  3228  09C1  160A  118A  2000  120A  158A  	fcall	stringdir
  3229  09C6  00CA               	movwf	??_scale+8
  3230  09C7  160A  118A  2000  120A  158A  	fcall	stringdir
  3231  09CC  00CB               	movwf	??_scale+9
  3232  09CD  084B               	movf	??_scale+9,w
  3233  09CE  00AB               	movwf	___flmul@a+3
  3234  09CF  084A               	movf	??_scale+8,w
  3235  09D0  00AA               	movwf	___flmul@a+2
  3236  09D1  0849               	movf	??_scale+7,w
  3237  09D2  00A9               	movwf	___flmul@a+1
  3238  09D3  0848               	movf	??_scale+6,w
  3239  09D4  00A8               	movwf	___flmul@a
  3240  09D5  120A  158A  249F  120A  158A  	fcall	___flmul
  3241  09DA  1283               	bcf	3,5	;RP0=0, select bank0
  3242  09DB  1303               	bcf	3,6	;RP1=0, select bank0
  3243  09DC  0827               	movf	?___flmul+3,w
  3244  09DD  00CF               	movwf	_scale$805+3
  3245  09DE  0826               	movf	?___flmul+2,w
  3246  09DF  00CE               	movwf	_scale$805+2
  3247  09E0  0825               	movf	?___flmul+1,w
  3248  09E1  00CD               	movwf	_scale$805+1
  3249  09E2  0824               	movf	?___flmul,w
  3250  09E3  00CC               	movwf	_scale$805
  3251                           
  3252                           ;C:\Program Files\Microchip\xc8\v2.20\pic\sources\c90\common\doprnt.c: 439:    return _n
      +                          powers_[(unsigned char)(scl/100+18)] * _npowers_[(unsigned char)((scl%100)/10+9)] * _npo
      +                          wers_[(unsigned char)(scl%10)];
  3253  09E4  300A               	movlw	10
  3254  09E5  00F2               	movwf	___awmod@divisor
  3255  09E6  3000               	movlw	0
  3256  09E7  00F3               	movwf	___awmod@divisor+1
  3257  09E8  0850               	movf	scale@scl,w
  3258  09E9  00F4               	movwf	___awmod@dividend
  3259  09EA  01F5               	clrf	___awmod@dividend+1
  3260  09EB  1BF4               	btfsc	___awmod@dividend,7
  3261  09EC  03F5               	decf	___awmod@dividend+1,f
  3262  09ED  160A  158A  265C  120A  158A  	fcall	___awmod
  3263  09F2  0872               	movf	?___awmod,w
  3264  09F3  1283               	bcf	3,5	;RP0=0, select bank0
  3265  09F4  1303               	bcf	3,6	;RP1=0, select bank0
  3266  09F5  00C2               	movwf	??_scale
  3267  09F6  3001               	movlw	1
  3268  09F7                     u4315:
  3269  09F7  1003               	clrc
  3270  09F8  0DC2               	rlf	??_scale,f
  3271  09F9  3EFF               	addlw	-1
  3272  09FA  1D03               	skipz
  3273  09FB  29F7               	goto	u4315
  3274  09FC  1003               	clrc
  3275  09FD  0D42               	rlf	??_scale,w
  3276  09FE  3E35               	addlw	low ((__npowers_-__stringbase)| (0+32768))
  3277  09FF  0084               	movwf	4
  3278  0A00  160A  118A  2000  120A  158A  	fcall	stringdir
  3279  0A05  00C3               	movwf	??_scale+1
  3280  0A06  160A  118A  2000  120A  158A  	fcall	stringdir
  3281  0A0B  00C4               	movwf	??_scale+2
  3282  0A0C  160A  118A  2000  120A  158A  	fcall	stringdir
  3283  0A11  00C5               	movwf	??_scale+3
  3284  0A12  160A  118A  2000  120A  158A  	fcall	stringdir
  3285  0A17  00C6               	movwf	??_scale+4
  3286  0A18  0846               	movf	??_scale+4,w
  3287  0A19  00A7               	movwf	___flmul@b+3
  3288  0A1A  0845               	movf	??_scale+3,w
  3289  0A1B  00A6               	movwf	___flmul@b+2
  3290  0A1C  0844               	movf	??_scale+2,w
  3291  0A1D  00A5               	movwf	___flmul@b+1
  3292  0A1E  0843               	movf	??_scale+1,w
  3293  0A1F  00A4               	movwf	___flmul@b
  3294  0A20  084F               	movf	_scale$805+3,w
  3295  0A21  00AB               	movwf	___flmul@a+3
  3296  0A22  084E               	movf	_scale$805+2,w
  3297  0A23  00AA               	movwf	___flmul@a+2
  3298  0A24  084D               	movf	_scale$805+1,w
  3299  0A25  00A9               	movwf	___flmul@a+1
  3300  0A26  084C               	movf	_scale$805,w
  3301  0A27  00A8               	movwf	___flmul@a
  3302  0A28  120A  158A  249F  120A  158A  	fcall	___flmul
  3303  0A2D  1283               	bcf	3,5	;RP0=0, select bank0
  3304  0A2E  1303               	bcf	3,6	;RP1=0, select bank0
  3305  0A2F  0827               	movf	?___flmul+3,w
  3306  0A30  00C1               	movwf	?_scale+3
  3307  0A31  0826               	movf	?___flmul+2,w
  3308  0A32  00C0               	movwf	?_scale+2
  3309  0A33  0825               	movf	?___flmul+1,w
  3310  0A34  00BF               	movwf	?_scale+1
  3311  0A35  0824               	movf	?___flmul,w
  3312  0A36  00BE               	movwf	?_scale
  3313  0A37  2C9E               	goto	l244
  3314  0A38                     l2800:
  3315  0A38  0850               	movf	scale@scl,w
  3316  0A39  3A80               	xorlw	128
  3317  0A3A  3E75               	addlw	-139
  3318  0A3B  1C03               	skipc
  3319  0A3C  2A3E               	goto	u4321
  3320  0A3D  2A3F               	goto	u4320
  3321  0A3E                     u4321:
  3322  0A3E  2AC7               	goto	l2806
  3323  0A3F                     u4320:
  3324  0A3F                     l2802:
  3325                           
  3326                           ;C:\Program Files\Microchip\xc8\v2.20\pic\sources\c90\common\doprnt.c: 441:    return _n
      +                          powers_[(unsigned char)(scl/10+9)] * _npowers_[(unsigned char)(scl%10)];
  3327  0A3F  300A               	movlw	10
  3328  0A40  00F2               	movwf	___awmod@divisor
  3329  0A41  3000               	movlw	0
  3330  0A42  00F3               	movwf	___awmod@divisor+1
  3331  0A43  0850               	movf	scale@scl,w
  3332  0A44  00F4               	movwf	___awmod@dividend
  3333  0A45  01F5               	clrf	___awmod@dividend+1
  3334  0A46  1BF4               	btfsc	___awmod@dividend,7
  3335  0A47  03F5               	decf	___awmod@dividend+1,f
  3336  0A48  160A  158A  265C  120A  158A  	fcall	___awmod
  3337  0A4D  0872               	movf	?___awmod,w
  3338  0A4E  1283               	bcf	3,5	;RP0=0, select bank0
  3339  0A4F  1303               	bcf	3,6	;RP1=0, select bank0
  3340  0A50  00C2               	movwf	??_scale
  3341  0A51  3001               	movlw	1
  3342  0A52                     u4335:
  3343  0A52  1003               	clrc
  3344  0A53  0DC2               	rlf	??_scale,f
  3345  0A54  3EFF               	addlw	-1
  3346  0A55  1D03               	skipz
  3347  0A56  2A52               	goto	u4335
  3348  0A57  1003               	clrc
  3349  0A58  0D42               	rlf	??_scale,w
  3350  0A59  3E35               	addlw	low ((__npowers_-__stringbase)| (0+32768))
  3351  0A5A  0084               	movwf	4
  3352  0A5B  160A  118A  2000  120A  158A  	fcall	stringdir
  3353  0A60  00C3               	movwf	??_scale+1
  3354  0A61  160A  118A  2000  120A  158A  	fcall	stringdir
  3355  0A66  00C4               	movwf	??_scale+2
  3356  0A67  160A  118A  2000  120A  158A  	fcall	stringdir
  3357  0A6C  00C5               	movwf	??_scale+3
  3358  0A6D  160A  118A  2000  120A  158A  	fcall	stringdir
  3359  0A72  00C6               	movwf	??_scale+4
  3360  0A73  0846               	movf	??_scale+4,w
  3361  0A74  00A7               	movwf	___flmul@b+3
  3362  0A75  0845               	movf	??_scale+3,w
  3363  0A76  00A6               	movwf	___flmul@b+2
  3364  0A77  0844               	movf	??_scale+2,w
  3365  0A78  00A5               	movwf	___flmul@b+1
  3366  0A79  0843               	movf	??_scale+1,w
  3367  0A7A  00A4               	movwf	___flmul@b
  3368  0A7B  300A               	movlw	10
  3369  0A7C  00F8               	movwf	___awdiv@divisor
  3370  0A7D  3000               	movlw	0
  3371  0A7E  00F9               	movwf	___awdiv@divisor+1
  3372  0A7F  0850               	movf	scale@scl,w
  3373  0A80  00FA               	movwf	___awdiv@dividend
  3374  0A81  01FB               	clrf	___awdiv@dividend+1
  3375  0A82  1BFA               	btfsc	___awdiv@dividend,7
  3376  0A83  03FB               	decf	___awdiv@dividend+1,f
  3377  0A84  120A  158A  200D  120A  158A  	fcall	___awdiv
  3378  0A89  0878               	movf	?___awdiv,w
  3379  0A8A  1283               	bcf	3,5	;RP0=0, select bank0
  3380  0A8B  1303               	bcf	3,6	;RP1=0, select bank0
  3381  0A8C  00C7               	movwf	??_scale+5
  3382  0A8D  3001               	movlw	1
  3383  0A8E                     u4345:
  3384  0A8E  1003               	clrc
  3385  0A8F  0DC7               	rlf	??_scale+5,f
  3386  0A90  3EFF               	addlw	-1
  3387  0A91  1D03               	skipz
  3388  0A92  2A8E               	goto	u4345
  3389  0A93  1003               	clrc
  3390  0A94  0D47               	rlf	??_scale+5,w
  3391  0A95  3E59               	addlw	low (((__npowers_-__stringbase)| (0+32768)+36))
  3392  0A96  0084               	movwf	4
  3393  0A97  160A  118A  2000  120A  158A  	fcall	stringdir
  3394  0A9C  00C8               	movwf	??_scale+6
  3395  0A9D  160A  118A  2000  120A  158A  	fcall	stringdir
  3396  0AA2  00C9               	movwf	??_scale+7
  3397  0AA3  160A  118A  2000  120A  158A  	fcall	stringdir
  3398  0AA8  00CA               	movwf	??_scale+8
  3399  0AA9  160A  118A  2000  120A  158A  	fcall	stringdir
  3400  0AAE  00CB               	movwf	??_scale+9
  3401  0AAF  084B               	movf	??_scale+9,w
  3402  0AB0  00AB               	movwf	___flmul@a+3
  3403  0AB1  084A               	movf	??_scale+8,w
  3404  0AB2  00AA               	movwf	___flmul@a+2
  3405  0AB3  0849               	movf	??_scale+7,w
  3406  0AB4  00A9               	movwf	___flmul@a+1
  3407  0AB5  0848               	movf	??_scale+6,w
  3408  0AB6  00A8               	movwf	___flmul@a
  3409  0AB7  120A  158A  249F  120A  158A  	fcall	___flmul
  3410  0ABC  1283               	bcf	3,5	;RP0=0, select bank0
  3411  0ABD  1303               	bcf	3,6	;RP1=0, select bank0
  3412  0ABE  0827               	movf	?___flmul+3,w
  3413  0ABF  00C1               	movwf	?_scale+3
  3414  0AC0  0826               	movf	?___flmul+2,w
  3415  0AC1  00C0               	movwf	?_scale+2
  3416  0AC2  0825               	movf	?___flmul+1,w
  3417  0AC3  00BF               	movwf	?_scale+1
  3418  0AC4  0824               	movf	?___flmul,w
  3419  0AC5  00BE               	movwf	?_scale
  3420  0AC6  2C9E               	goto	l244
  3421  0AC7                     l2806:
  3422                           
  3423                           ;C:\Program Files\Microchip\xc8\v2.20\pic\sources\c90\common\doprnt.c: 442:   return _np
      +                          owers_[(unsigned char)scl];
  3424  0AC7  0850               	movf	scale@scl,w
  3425  0AC8  00C2               	movwf	??_scale
  3426  0AC9  3001               	movlw	1
  3427  0ACA                     u4355:
  3428  0ACA  1003               	clrc
  3429  0ACB  0DC2               	rlf	??_scale,f
  3430  0ACC  3EFF               	addlw	-1
  3431  0ACD  1D03               	skipz
  3432  0ACE  2ACA               	goto	u4355
  3433  0ACF  1003               	clrc
  3434  0AD0  0D42               	rlf	??_scale,w
  3435  0AD1  3E35               	addlw	low ((__npowers_-__stringbase)| (0+32768))
  3436  0AD2  0084               	movwf	4
  3437  0AD3  160A  118A  2000  120A  158A  	fcall	stringdir
  3438  0AD8  00C3               	movwf	??_scale+1
  3439  0AD9  160A  118A  2000  120A  158A  	fcall	stringdir
  3440  0ADE  00C4               	movwf	??_scale+2
  3441  0ADF  160A  118A  2000  120A  158A  	fcall	stringdir
  3442  0AE4  00C5               	movwf	??_scale+3
  3443  0AE5  160A  118A  2000  120A  158A  	fcall	stringdir
  3444  0AEA  00C6               	movwf	??_scale+4
  3445  0AEB  0846               	movf	??_scale+4,w
  3446  0AEC  00C1               	movwf	?_scale+3
  3447  0AED  0845               	movf	??_scale+3,w
  3448  0AEE  00C0               	movwf	?_scale+2
  3449  0AEF  0844               	movf	??_scale+2,w
  3450  0AF0  00BF               	movwf	?_scale+1
  3451  0AF1  0843               	movf	??_scale+1,w
  3452  0AF2  00BE               	movwf	?_scale
  3453  0AF3  2C9E               	goto	l244
  3454  0AF4                     l2810:
  3455                           
  3456                           ;C:\Program Files\Microchip\xc8\v2.20\pic\sources\c90\common\doprnt.c: 444:  if(scl>=110
      +                          )
  3457  0AF4  0850               	movf	scale@scl,w
  3458  0AF5  3A80               	xorlw	128
  3459  0AF6  3E12               	addlw	-238
  3460  0AF7  1C03               	skipc
  3461  0AF8  2AFA               	goto	u4361
  3462  0AF9  2AFB               	goto	u4360
  3463  0AFA                     u4361:
  3464  0AFA  2BE3               	goto	l2818
  3465  0AFB                     u4360:
  3466  0AFB                     l2812:
  3467                           
  3468                           ;C:\Program Files\Microchip\xc8\v2.20\pic\sources\c90\common\doprnt.c: 445:   return _po
      +                          wers_[(unsigned char)(scl/100+18)] * _powers_[(unsigned char)((scl%100)/10+9)] * _powers
      +                          _[(unsigned char)(scl%10)];
  3469  0AFB  300A               	movlw	10
  3470  0AFC  00F8               	movwf	___awdiv@divisor
  3471  0AFD  3000               	movlw	0
  3472  0AFE  00F9               	movwf	___awdiv@divisor+1
  3473  0AFF  0850               	movf	scale@scl,w
  3474  0B00  00F4               	movwf	___awmod@dividend
  3475  0B01  01F5               	clrf	___awmod@dividend+1
  3476  0B02  1BF4               	btfsc	___awmod@dividend,7
  3477  0B03  03F5               	decf	___awmod@dividend+1,f
  3478  0B04  3064               	movlw	100
  3479  0B05  00F2               	movwf	___awmod@divisor
  3480  0B06  3000               	movlw	0
  3481  0B07  00F3               	movwf	___awmod@divisor+1
  3482  0B08  160A  158A  265C  120A  158A  	fcall	___awmod
  3483  0B0D  0873               	movf	?___awmod+1,w
  3484  0B0E  00FB               	movwf	___awdiv@dividend+1
  3485  0B0F  0872               	movf	?___awmod,w
  3486  0B10  00FA               	movwf	___awdiv@dividend
  3487  0B11  120A  158A  200D  120A  158A  	fcall	___awdiv
  3488  0B16  0878               	movf	?___awdiv,w
  3489  0B17  1283               	bcf	3,5	;RP0=0, select bank0
  3490  0B18  1303               	bcf	3,6	;RP1=0, select bank0
  3491  0B19  00C2               	movwf	??_scale
  3492  0B1A  3001               	movlw	1
  3493  0B1B                     u4375:
  3494  0B1B  1003               	clrc
  3495  0B1C  0DC2               	rlf	??_scale,f
  3496  0B1D  3EFF               	addlw	-1
  3497  0B1E  1D03               	skipz
  3498  0B1F  2B1B               	goto	u4375
  3499  0B20  1003               	clrc
  3500  0B21  0D42               	rlf	??_scale,w
  3501  0B22  3E25               	addlw	low (((__powers_-__stringbase)| (0+32768)+36))
  3502  0B23  0084               	movwf	4
  3503  0B24  160A  118A  2000  120A  158A  	fcall	stringdir
  3504  0B29  00C3               	movwf	??_scale+1
  3505  0B2A  160A  118A  2000  120A  158A  	fcall	stringdir
  3506  0B2F  00C4               	movwf	??_scale+2
  3507  0B30  160A  118A  2000  120A  158A  	fcall	stringdir
  3508  0B35  00C5               	movwf	??_scale+3
  3509  0B36  160A  118A  2000  120A  158A  	fcall	stringdir
  3510  0B3B  00C6               	movwf	??_scale+4
  3511  0B3C  0846               	movf	??_scale+4,w
  3512  0B3D  00A7               	movwf	___flmul@b+3
  3513  0B3E  0845               	movf	??_scale+3,w
  3514  0B3F  00A6               	movwf	___flmul@b+2
  3515  0B40  0844               	movf	??_scale+2,w
  3516  0B41  00A5               	movwf	___flmul@b+1
  3517  0B42  0843               	movf	??_scale+1,w
  3518  0B43  00A4               	movwf	___flmul@b
  3519  0B44  3064               	movlw	100
  3520  0B45  00F8               	movwf	___awdiv@divisor
  3521  0B46  3000               	movlw	0
  3522  0B47  00F9               	movwf	___awdiv@divisor+1
  3523  0B48  0850               	movf	scale@scl,w
  3524  0B49  00FA               	movwf	___awdiv@dividend
  3525  0B4A  01FB               	clrf	___awdiv@dividend+1
  3526  0B4B  1BFA               	btfsc	___awdiv@dividend,7
  3527  0B4C  03FB               	decf	___awdiv@dividend+1,f
  3528  0B4D  120A  158A  200D  120A  158A  	fcall	___awdiv
  3529  0B52  0878               	movf	?___awdiv,w
  3530  0B53  1283               	bcf	3,5	;RP0=0, select bank0
  3531  0B54  1303               	bcf	3,6	;RP1=0, select bank0
  3532  0B55  00C7               	movwf	??_scale+5
  3533  0B56  3001               	movlw	1
  3534  0B57                     u4385:
  3535  0B57  1003               	clrc
  3536  0B58  0DC7               	rlf	??_scale+5,f
  3537  0B59  3EFF               	addlw	-1
  3538  0B5A  1D03               	skipz
  3539  0B5B  2B57               	goto	u4385
  3540  0B5C  1003               	clrc
  3541  0B5D  0D47               	rlf	??_scale+5,w
  3542  0B5E  3E49               	addlw	low (((__powers_-__stringbase)| (0+32768)+72))
  3543  0B5F  0084               	movwf	4
  3544  0B60  160A  118A  2000  120A  158A  	fcall	stringdir
  3545  0B65  00C8               	movwf	??_scale+6
  3546  0B66  160A  118A  2000  120A  158A  	fcall	stringdir
  3547  0B6B  00C9               	movwf	??_scale+7
  3548  0B6C  160A  118A  2000  120A  158A  	fcall	stringdir
  3549  0B71  00CA               	movwf	??_scale+8
  3550  0B72  160A  118A  2000  120A  158A  	fcall	stringdir
  3551  0B77  00CB               	movwf	??_scale+9
  3552  0B78  084B               	movf	??_scale+9,w
  3553  0B79  00AB               	movwf	___flmul@a+3
  3554  0B7A  084A               	movf	??_scale+8,w
  3555  0B7B  00AA               	movwf	___flmul@a+2
  3556  0B7C  0849               	movf	??_scale+7,w
  3557  0B7D  00A9               	movwf	___flmul@a+1
  3558  0B7E  0848               	movf	??_scale+6,w
  3559  0B7F  00A8               	movwf	___flmul@a
  3560  0B80  120A  158A  249F  120A  158A  	fcall	___flmul
  3561  0B85  1283               	bcf	3,5	;RP0=0, select bank0
  3562  0B86  1303               	bcf	3,6	;RP1=0, select bank0
  3563  0B87  0827               	movf	?___flmul+3,w
  3564  0B88  00CF               	movwf	_scale$805+3
  3565  0B89  0826               	movf	?___flmul+2,w
  3566  0B8A  00CE               	movwf	_scale$805+2
  3567  0B8B  0825               	movf	?___flmul+1,w
  3568  0B8C  00CD               	movwf	_scale$805+1
  3569  0B8D  0824               	movf	?___flmul,w
  3570  0B8E  00CC               	movwf	_scale$805
  3571                           
  3572                           ;C:\Program Files\Microchip\xc8\v2.20\pic\sources\c90\common\doprnt.c: 445:   return _po
      +                          wers_[(unsigned char)(scl/100+18)] * _powers_[(unsigned char)((scl%100)/10+9)] * _powers
      +                          _[(unsigned char)(scl%10)];
  3573  0B8F  300A               	movlw	10
  3574  0B90  00F2               	movwf	___awmod@divisor
  3575  0B91  3000               	movlw	0
  3576  0B92  00F3               	movwf	___awmod@divisor+1
  3577  0B93  0850               	movf	scale@scl,w
  3578  0B94  00F4               	movwf	___awmod@dividend
  3579  0B95  01F5               	clrf	___awmod@dividend+1
  3580  0B96  1BF4               	btfsc	___awmod@dividend,7
  3581  0B97  03F5               	decf	___awmod@dividend+1,f
  3582  0B98  160A  158A  265C  120A  158A  	fcall	___awmod
  3583  0B9D  0872               	movf	?___awmod,w
  3584  0B9E  1283               	bcf	3,5	;RP0=0, select bank0
  3585  0B9F  1303               	bcf	3,6	;RP1=0, select bank0
  3586  0BA0  00C2               	movwf	??_scale
  3587  0BA1  3001               	movlw	1
  3588  0BA2                     u4395:
  3589  0BA2  1003               	clrc
  3590  0BA3  0DC2               	rlf	??_scale,f
  3591  0BA4  3EFF               	addlw	-1
  3592  0BA5  1D03               	skipz
  3593  0BA6  2BA2               	goto	u4395
  3594  0BA7  1003               	clrc
  3595  0BA8  0D42               	rlf	??_scale,w
  3596  0BA9  3E01               	addlw	low ((__powers_-__stringbase)| (0+32768))
  3597  0BAA  0084               	movwf	4
  3598  0BAB  160A  118A  2000  120A  158A  	fcall	stringdir
  3599  0BB0  00C3               	movwf	??_scale+1
  3600  0BB1  160A  118A  2000  120A  158A  	fcall	stringdir
  3601  0BB6  00C4               	movwf	??_scale+2
  3602  0BB7  160A  118A  2000  120A  158A  	fcall	stringdir
  3603  0BBC  00C5               	movwf	??_scale+3
  3604  0BBD  160A  118A  2000  120A  158A  	fcall	stringdir
  3605  0BC2  00C6               	movwf	??_scale+4
  3606  0BC3  0846               	movf	??_scale+4,w
  3607  0BC4  00A7               	movwf	___flmul@b+3
  3608  0BC5  0845               	movf	??_scale+3,w
  3609  0BC6  00A6               	movwf	___flmul@b+2
  3610  0BC7  0844               	movf	??_scale+2,w
  3611  0BC8  00A5               	movwf	___flmul@b+1
  3612  0BC9  0843               	movf	??_scale+1,w
  3613  0BCA  00A4               	movwf	___flmul@b
  3614  0BCB  084F               	movf	_scale$805+3,w
  3615  0BCC  00AB               	movwf	___flmul@a+3
  3616  0BCD  084E               	movf	_scale$805+2,w
  3617  0BCE  00AA               	movwf	___flmul@a+2
  3618  0BCF  084D               	movf	_scale$805+1,w
  3619  0BD0  00A9               	movwf	___flmul@a+1
  3620  0BD1  084C               	movf	_scale$805,w
  3621  0BD2  00A8               	movwf	___flmul@a
  3622  0BD3  120A  158A  249F  120A  158A  	fcall	___flmul
  3623  0BD8  1283               	bcf	3,5	;RP0=0, select bank0
  3624  0BD9  1303               	bcf	3,6	;RP1=0, select bank0
  3625  0BDA  0827               	movf	?___flmul+3,w
  3626  0BDB  00C1               	movwf	?_scale+3
  3627  0BDC  0826               	movf	?___flmul+2,w
  3628  0BDD  00C0               	movwf	?_scale+2
  3629  0BDE  0825               	movf	?___flmul+1,w
  3630  0BDF  00BF               	movwf	?_scale+1
  3631  0BE0  0824               	movf	?___flmul,w
  3632  0BE1  00BE               	movwf	?_scale
  3633  0BE2  2C9E               	goto	l244
  3634  0BE3                     l2818:
  3635  0BE3  0850               	movf	scale@scl,w
  3636  0BE4  3A80               	xorlw	128
  3637  0BE5  3E75               	addlw	-139
  3638  0BE6  1C03               	skipc
  3639  0BE7  2BE9               	goto	u4401
  3640  0BE8  2BEA               	goto	u4400
  3641  0BE9                     u4401:
  3642  0BE9  2C72               	goto	l2824
  3643  0BEA                     u4400:
  3644  0BEA                     l2820:
  3645                           
  3646                           ;C:\Program Files\Microchip\xc8\v2.20\pic\sources\c90\common\doprnt.c: 447:   return _po
      +                          wers_[(unsigned char)(scl/10+9)] * _powers_[(unsigned char)(scl%10)];
  3647  0BEA  300A               	movlw	10
  3648  0BEB  00F2               	movwf	___awmod@divisor
  3649  0BEC  3000               	movlw	0
  3650  0BED  00F3               	movwf	___awmod@divisor+1
  3651  0BEE  0850               	movf	scale@scl,w
  3652  0BEF  00F4               	movwf	___awmod@dividend
  3653  0BF0  01F5               	clrf	___awmod@dividend+1
  3654  0BF1  1BF4               	btfsc	___awmod@dividend,7
  3655  0BF2  03F5               	decf	___awmod@dividend+1,f
  3656  0BF3  160A  158A  265C  120A  158A  	fcall	___awmod
  3657  0BF8  0872               	movf	?___awmod,w
  3658  0BF9  1283               	bcf	3,5	;RP0=0, select bank0
  3659  0BFA  1303               	bcf	3,6	;RP1=0, select bank0
  3660  0BFB  00C2               	movwf	??_scale
  3661  0BFC  3001               	movlw	1
  3662  0BFD                     u4415:
  3663  0BFD  1003               	clrc
  3664  0BFE  0DC2               	rlf	??_scale,f
  3665  0BFF  3EFF               	addlw	-1
  3666  0C00  1D03               	skipz
  3667  0C01  2BFD               	goto	u4415
  3668  0C02  1003               	clrc
  3669  0C03  0D42               	rlf	??_scale,w
  3670  0C04  3E01               	addlw	low ((__powers_-__stringbase)| (0+32768))
  3671  0C05  0084               	movwf	4
  3672  0C06  160A  118A  2000  120A  158A  	fcall	stringdir
  3673  0C0B  00C3               	movwf	??_scale+1
  3674  0C0C  160A  118A  2000  120A  158A  	fcall	stringdir
  3675  0C11  00C4               	movwf	??_scale+2
  3676  0C12  160A  118A  2000  120A  158A  	fcall	stringdir
  3677  0C17  00C5               	movwf	??_scale+3
  3678  0C18  160A  118A  2000  120A  158A  	fcall	stringdir
  3679  0C1D  00C6               	movwf	??_scale+4
  3680  0C1E  0846               	movf	??_scale+4,w
  3681  0C1F  00A7               	movwf	___flmul@b+3
  3682  0C20  0845               	movf	??_scale+3,w
  3683  0C21  00A6               	movwf	___flmul@b+2
  3684  0C22  0844               	movf	??_scale+2,w
  3685  0C23  00A5               	movwf	___flmul@b+1
  3686  0C24  0843               	movf	??_scale+1,w
  3687  0C25  00A4               	movwf	___flmul@b
  3688  0C26  300A               	movlw	10
  3689  0C27  00F8               	movwf	___awdiv@divisor
  3690  0C28  3000               	movlw	0
  3691  0C29  00F9               	movwf	___awdiv@divisor+1
  3692  0C2A  0850               	movf	scale@scl,w
  3693  0C2B  00FA               	movwf	___awdiv@dividend
  3694  0C2C  01FB               	clrf	___awdiv@dividend+1
  3695  0C2D  1BFA               	btfsc	___awdiv@dividend,7
  3696  0C2E  03FB               	decf	___awdiv@dividend+1,f
  3697  0C2F  120A  158A  200D  120A  158A  	fcall	___awdiv
  3698  0C34  0878               	movf	?___awdiv,w
  3699  0C35  1283               	bcf	3,5	;RP0=0, select bank0
  3700  0C36  1303               	bcf	3,6	;RP1=0, select bank0
  3701  0C37  00C7               	movwf	??_scale+5
  3702  0C38  3001               	movlw	1
  3703  0C39                     u4425:
  3704  0C39  1003               	clrc
  3705  0C3A  0DC7               	rlf	??_scale+5,f
  3706  0C3B  3EFF               	addlw	-1
  3707  0C3C  1D03               	skipz
  3708  0C3D  2C39               	goto	u4425
  3709  0C3E  1003               	clrc
  3710  0C3F  0D47               	rlf	??_scale+5,w
  3711  0C40  3E25               	addlw	low (((__powers_-__stringbase)| (0+32768)+36))
  3712  0C41  0084               	movwf	4
  3713  0C42  160A  118A  2000  120A  158A  	fcall	stringdir
  3714  0C47  00C8               	movwf	??_scale+6
  3715  0C48  160A  118A  2000  120A  158A  	fcall	stringdir
  3716  0C4D  00C9               	movwf	??_scale+7
  3717  0C4E  160A  118A  2000  120A  158A  	fcall	stringdir
  3718  0C53  00CA               	movwf	??_scale+8
  3719  0C54  160A  118A  2000  120A  158A  	fcall	stringdir
  3720  0C59  00CB               	movwf	??_scale+9
  3721  0C5A  084B               	movf	??_scale+9,w
  3722  0C5B  00AB               	movwf	___flmul@a+3
  3723  0C5C  084A               	movf	??_scale+8,w
  3724  0C5D  00AA               	movwf	___flmul@a+2
  3725  0C5E  0849               	movf	??_scale+7,w
  3726  0C5F  00A9               	movwf	___flmul@a+1
  3727  0C60  0848               	movf	??_scale+6,w
  3728  0C61  00A8               	movwf	___flmul@a
  3729  0C62  120A  158A  249F  120A  158A  	fcall	___flmul
  3730  0C67  1283               	bcf	3,5	;RP0=0, select bank0
  3731  0C68  1303               	bcf	3,6	;RP1=0, select bank0
  3732  0C69  0827               	movf	?___flmul+3,w
  3733  0C6A  00C1               	movwf	?_scale+3
  3734  0C6B  0826               	movf	?___flmul+2,w
  3735  0C6C  00C0               	movwf	?_scale+2
  3736  0C6D  0825               	movf	?___flmul+1,w
  3737  0C6E  00BF               	movwf	?_scale+1
  3738  0C6F  0824               	movf	?___flmul,w
  3739  0C70  00BE               	movwf	?_scale
  3740  0C71  2C9E               	goto	l244
  3741  0C72                     l2824:
  3742                           
  3743                           ;C:\Program Files\Microchip\xc8\v2.20\pic\sources\c90\common\doprnt.c: 448:  return _pow
      +                          ers_[(unsigned char)scl];
  3744  0C72  0850               	movf	scale@scl,w
  3745  0C73  00C2               	movwf	??_scale
  3746  0C74  3001               	movlw	1
  3747  0C75                     u4435:
  3748  0C75  1003               	clrc
  3749  0C76  0DC2               	rlf	??_scale,f
  3750  0C77  3EFF               	addlw	-1
  3751  0C78  1D03               	skipz
  3752  0C79  2C75               	goto	u4435
  3753  0C7A  1003               	clrc
  3754  0C7B  0D42               	rlf	??_scale,w
  3755  0C7C  3E01               	addlw	low ((__powers_-__stringbase)| (0+32768))
  3756  0C7D  0084               	movwf	4
  3757  0C7E  160A  118A  2000  120A  158A  	fcall	stringdir
  3758  0C83  00C3               	movwf	??_scale+1
  3759  0C84  160A  118A  2000  120A  158A  	fcall	stringdir
  3760  0C89  00C4               	movwf	??_scale+2
  3761  0C8A  160A  118A  2000  120A  158A  	fcall	stringdir
  3762  0C8F  00C5               	movwf	??_scale+3
  3763  0C90  160A  118A  2000  120A  158A  	fcall	stringdir
  3764  0C95  00C6               	movwf	??_scale+4
  3765  0C96  0846               	movf	??_scale+4,w
  3766  0C97  00C1               	movwf	?_scale+3
  3767  0C98  0845               	movf	??_scale+3,w
  3768  0C99  00C0               	movwf	?_scale+2
  3769  0C9A  0844               	movf	??_scale+2,w
  3770  0C9B  00BF               	movwf	?_scale+1
  3771  0C9C  0843               	movf	??_scale+1,w
  3772  0C9D  00BE               	movwf	?_scale
  3773  0C9E                     l244:
  3774  0C9E  0008               	return
  3775  0C9F                     __end_of_scale:
  3776                           
  3777                           	psect	text4
  3778  1E5C                     __ptext4:	
  3779 ;; *************** function ___awmod *****************
  3780 ;; Defined at:
  3781 ;;		line 5 in file "C:\Program Files\Microchip\xc8\v2.20\pic\sources\c90\common\awmod.c"
  3782 ;; Parameters:    Size  Location     Type
  3783 ;;  divisor         2    2[COMMON] int 
  3784 ;;  dividend        2    4[COMMON] int 
  3785 ;; Auto vars:     Size  Location     Type
  3786 ;;  sign            1    7[COMMON] unsigned char 
  3787 ;;  counter         1    6[COMMON] unsigned char 
  3788 ;; Return value:  Size  Location     Type
  3789 ;;                  2    2[COMMON] int 
  3790 ;; Registers used:
  3791 ;;		wreg, status,2, status,0, btemp+1
  3792 ;; Tracked objects:
  3793 ;;		On entry : 0/0
  3794 ;;		On exit  : 0/0
  3795 ;;		Unchanged: 0/0
  3796 ;; Data sizes:     COMMON   BANK0   BANK1   BANK3   BANK2
  3797 ;;      Params:         4       0       0       0       0
  3798 ;;      Locals:         2       0       0       0       0
  3799 ;;      Temps:          0       0       0       0       0
  3800 ;;      Totals:         6       0       0       0       0
  3801 ;;Total ram usage:        6 bytes
  3802 ;; Hardware stack levels used:    1
  3803 ;; Hardware stack levels required when called:    1
  3804 ;; This function calls:
  3805 ;;		Nothing
  3806 ;; This function is called by:
  3807 ;;		_scale
  3808 ;; This function uses a non-reentrant model
  3809 ;;
  3810                           
  3811                           
  3812                           ;psect for function ___awmod
  3813  1E5C                     ___awmod:
  3814  1E5C                     l2306:	
  3815                           ;incstack = 0
  3816                           ; Regs used in ___awmod: [wreg+status,2+status,0+btemp+1]
  3817                           
  3818  1E5C  01F7               	clrf	___awmod@sign
  3819  1E5D                     l2308:
  3820  1E5D  1FF5               	btfss	___awmod@dividend+1,7
  3821  1E5E  2E60               	goto	u3131
  3822  1E5F  2E61               	goto	u3130
  3823  1E60                     u3131:
  3824  1E60  2E68               	goto	l2314
  3825  1E61                     u3130:
  3826  1E61                     l2310:
  3827  1E61  09F4               	comf	___awmod@dividend,f
  3828  1E62  09F5               	comf	___awmod@dividend+1,f
  3829  1E63  0AF4               	incf	___awmod@dividend,f
  3830  1E64  1903               	skipnz
  3831  1E65  0AF5               	incf	___awmod@dividend+1,f
  3832  1E66                     l2312:
  3833  1E66  01F7               	clrf	___awmod@sign
  3834  1E67  0AF7               	incf	___awmod@sign,f
  3835  1E68                     l2314:
  3836  1E68  1FF3               	btfss	___awmod@divisor+1,7
  3837  1E69  2E6B               	goto	u3141
  3838  1E6A  2E6C               	goto	u3140
  3839  1E6B                     u3141:
  3840  1E6B  2E71               	goto	l2318
  3841  1E6C                     u3140:
  3842  1E6C                     l2316:
  3843  1E6C  09F2               	comf	___awmod@divisor,f
  3844  1E6D  09F3               	comf	___awmod@divisor+1,f
  3845  1E6E  0AF2               	incf	___awmod@divisor,f
  3846  1E6F  1903               	skipnz
  3847  1E70  0AF3               	incf	___awmod@divisor+1,f
  3848  1E71                     l2318:
  3849  1E71  0872               	movf	___awmod@divisor,w
  3850  1E72  0473               	iorwf	___awmod@divisor+1,w
  3851  1E73  1903               	btfsc	3,2
  3852  1E74  2E76               	goto	u3151
  3853  1E75  2E77               	goto	u3150
  3854  1E76                     u3151:
  3855  1E76  2EA6               	goto	l2336
  3856  1E77                     u3150:
  3857  1E77                     l2320:
  3858  1E77  01F6               	clrf	___awmod@counter
  3859  1E78  0AF6               	incf	___awmod@counter,f
  3860  1E79  2E85               	goto	l2326
  3861  1E7A                     l2322:
  3862  1E7A  3001               	movlw	1
  3863  1E7B                     u3165:
  3864  1E7B  1003               	clrc
  3865  1E7C  0DF2               	rlf	___awmod@divisor,f
  3866  1E7D  0DF3               	rlf	___awmod@divisor+1,f
  3867  1E7E  3EFF               	addlw	-1
  3868  1E7F  1D03               	skipz
  3869  1E80  2E7B               	goto	u3165
  3870  1E81                     l2324:
  3871  1E81  3001               	movlw	1
  3872  1E82  00FF               	movwf	btemp+1
  3873  1E83  087F               	movf	btemp+1,w
  3874  1E84  07F6               	addwf	___awmod@counter,f
  3875  1E85                     l2326:
  3876  1E85  1FF3               	btfss	___awmod@divisor+1,7
  3877  1E86  2E88               	goto	u3171
  3878  1E87  2E89               	goto	u3170
  3879  1E88                     u3171:
  3880  1E88  2E7A               	goto	l2322
  3881  1E89                     u3170:
  3882  1E89                     l2328:
  3883  1E89  0873               	movf	___awmod@divisor+1,w
  3884  1E8A  0275               	subwf	___awmod@dividend+1,w
  3885  1E8B  1D03               	skipz
  3886  1E8C  2E8F               	goto	u3185
  3887  1E8D  0872               	movf	___awmod@divisor,w
  3888  1E8E  0274               	subwf	___awmod@dividend,w
  3889  1E8F                     u3185:
  3890  1E8F  1C03               	skipc
  3891  1E90  2E92               	goto	u3181
  3892  1E91  2E93               	goto	u3180
  3893  1E92                     u3181:
  3894  1E92  2E99               	goto	l2332
  3895  1E93                     u3180:
  3896  1E93                     l2330:
  3897  1E93  0872               	movf	___awmod@divisor,w
  3898  1E94  02F4               	subwf	___awmod@dividend,f
  3899  1E95  0873               	movf	___awmod@divisor+1,w
  3900  1E96  1C03               	skipc
  3901  1E97  03F5               	decf	___awmod@dividend+1,f
  3902  1E98  02F5               	subwf	___awmod@dividend+1,f
  3903  1E99                     l2332:
  3904  1E99  3001               	movlw	1
  3905  1E9A                     u3195:
  3906  1E9A  1003               	clrc
  3907  1E9B  0CF3               	rrf	___awmod@divisor+1,f
  3908  1E9C  0CF2               	rrf	___awmod@divisor,f
  3909  1E9D  3EFF               	addlw	-1
  3910  1E9E  1D03               	skipz
  3911  1E9F  2E9A               	goto	u3195
  3912  1EA0                     l2334:
  3913  1EA0  3001               	movlw	1
  3914  1EA1  02F6               	subwf	___awmod@counter,f
  3915  1EA2  1D03               	btfss	3,2
  3916  1EA3  2EA5               	goto	u3201
  3917  1EA4  2EA6               	goto	u3200
  3918  1EA5                     u3201:
  3919  1EA5  2E89               	goto	l2328
  3920  1EA6                     u3200:
  3921  1EA6                     l2336:
  3922  1EA6  0877               	movf	___awmod@sign,w
  3923  1EA7  1903               	btfsc	3,2
  3924  1EA8  2EAA               	goto	u3211
  3925  1EA9  2EAB               	goto	u3210
  3926  1EAA                     u3211:
  3927  1EAA  2EB0               	goto	l2340
  3928  1EAB                     u3210:
  3929  1EAB                     l2338:
  3930  1EAB  09F4               	comf	___awmod@dividend,f
  3931  1EAC  09F5               	comf	___awmod@dividend+1,f
  3932  1EAD  0AF4               	incf	___awmod@dividend,f
  3933  1EAE  1903               	skipnz
  3934  1EAF  0AF5               	incf	___awmod@dividend+1,f
  3935  1EB0                     l2340:
  3936  1EB0  0875               	movf	___awmod@dividend+1,w
  3937  1EB1  00F3               	movwf	?___awmod+1
  3938  1EB2  0874               	movf	___awmod@dividend,w
  3939  1EB3  00F2               	movwf	?___awmod
  3940  1EB4                     l470:
  3941  1EB4  0008               	return
  3942  1EB5                     __end_of___awmod:
  3943                           
  3944                           	psect	text5
  3945  080D                     __ptext5:	
  3946 ;; *************** function ___awdiv *****************
  3947 ;; Defined at:
  3948 ;;		line 5 in file "C:\Program Files\Microchip\xc8\v2.20\pic\sources\c90\common\awdiv.c"
  3949 ;; Parameters:    Size  Location     Type
  3950 ;;  divisor         2    8[COMMON] int 
  3951 ;;  dividend        2   10[COMMON] int 
  3952 ;; Auto vars:     Size  Location     Type
  3953 ;;  quotient        2    2[BANK0 ] int 
  3954 ;;  sign            1    1[BANK0 ] unsigned char 
  3955 ;;  counter         1    0[BANK0 ] unsigned char 
  3956 ;; Return value:  Size  Location     Type
  3957 ;;                  2    8[COMMON] int 
  3958 ;; Registers used:
  3959 ;;		wreg, status,2, status,0, btemp+1
  3960 ;; Tracked objects:
  3961 ;;		On entry : 0/0
  3962 ;;		On exit  : 0/0
  3963 ;;		Unchanged: 0/0
  3964 ;; Data sizes:     COMMON   BANK0   BANK1   BANK3   BANK2
  3965 ;;      Params:         4       0       0       0       0
  3966 ;;      Locals:         0       4       0       0       0
  3967 ;;      Temps:          0       0       0       0       0
  3968 ;;      Totals:         4       4       0       0       0
  3969 ;;Total ram usage:        8 bytes
  3970 ;; Hardware stack levels used:    1
  3971 ;; Hardware stack levels required when called:    1
  3972 ;; This function calls:
  3973 ;;		Nothing
  3974 ;; This function is called by:
  3975 ;;		_scale
  3976 ;;		_sprintf
  3977 ;; This function uses a non-reentrant model
  3978 ;;
  3979                           
  3980                           
  3981                           ;psect for function ___awdiv
  3982  080D                     ___awdiv:
  3983  080D                     l2262:	
  3984                           ;incstack = 0
  3985                           ; Regs used in ___awdiv: [wreg+status,2+status,0+btemp+1]
  3986                           
  3987  080D  1283               	bcf	3,5	;RP0=0, select bank0
  3988  080E  1303               	bcf	3,6	;RP1=0, select bank0
  3989  080F  01A1               	clrf	___awdiv@sign
  3990  0810                     l2264:
  3991  0810  1FF9               	btfss	___awdiv@divisor+1,7
  3992  0811  2813               	goto	u3031
  3993  0812  2814               	goto	u3030
  3994  0813                     u3031:
  3995  0813  281B               	goto	l2270
  3996  0814                     u3030:
  3997  0814                     l2266:
  3998  0814  09F8               	comf	___awdiv@divisor,f
  3999  0815  09F9               	comf	___awdiv@divisor+1,f
  4000  0816  0AF8               	incf	___awdiv@divisor,f
  4001  0817  1903               	skipnz
  4002  0818  0AF9               	incf	___awdiv@divisor+1,f
  4003  0819                     l2268:
  4004  0819  01A1               	clrf	___awdiv@sign
  4005  081A  0AA1               	incf	___awdiv@sign,f
  4006  081B                     l2270:
  4007  081B  1FFB               	btfss	___awdiv@dividend+1,7
  4008  081C  281E               	goto	u3041
  4009  081D  281F               	goto	u3040
  4010  081E                     u3041:
  4011  081E  2828               	goto	l2276
  4012  081F                     u3040:
  4013  081F                     l2272:
  4014  081F  09FA               	comf	___awdiv@dividend,f
  4015  0820  09FB               	comf	___awdiv@dividend+1,f
  4016  0821  0AFA               	incf	___awdiv@dividend,f
  4017  0822  1903               	skipnz
  4018  0823  0AFB               	incf	___awdiv@dividend+1,f
  4019  0824                     l2274:
  4020  0824  3001               	movlw	1
  4021  0825  00FF               	movwf	btemp+1
  4022  0826  087F               	movf	btemp+1,w
  4023  0827  06A1               	xorwf	___awdiv@sign,f
  4024  0828                     l2276:
  4025  0828  01A2               	clrf	___awdiv@quotient
  4026  0829  01A3               	clrf	___awdiv@quotient+1
  4027  082A                     l2278:
  4028  082A  0878               	movf	___awdiv@divisor,w
  4029  082B  0479               	iorwf	___awdiv@divisor+1,w
  4030  082C  1903               	btfsc	3,2
  4031  082D  282F               	goto	u3051
  4032  082E  2830               	goto	u3050
  4033  082F                     u3051:
  4034  082F  2867               	goto	l2298
  4035  0830                     u3050:
  4036  0830                     l2280:
  4037  0830  01A0               	clrf	___awdiv@counter
  4038  0831  0AA0               	incf	___awdiv@counter,f
  4039  0832  283E               	goto	l2286
  4040  0833                     l2282:
  4041  0833  3001               	movlw	1
  4042  0834                     u3065:
  4043  0834  1003               	clrc
  4044  0835  0DF8               	rlf	___awdiv@divisor,f
  4045  0836  0DF9               	rlf	___awdiv@divisor+1,f
  4046  0837  3EFF               	addlw	-1
  4047  0838  1D03               	skipz
  4048  0839  2834               	goto	u3065
  4049  083A                     l2284:
  4050  083A  3001               	movlw	1
  4051  083B  00FF               	movwf	btemp+1
  4052  083C  087F               	movf	btemp+1,w
  4053  083D  07A0               	addwf	___awdiv@counter,f
  4054  083E                     l2286:
  4055  083E  1FF9               	btfss	___awdiv@divisor+1,7
  4056  083F  2841               	goto	u3071
  4057  0840  2842               	goto	u3070
  4058  0841                     u3071:
  4059  0841  2833               	goto	l2282
  4060  0842                     u3070:
  4061  0842                     l2288:
  4062  0842  3001               	movlw	1
  4063  0843                     u3085:
  4064  0843  1003               	clrc
  4065  0844  0DA2               	rlf	___awdiv@quotient,f
  4066  0845  0DA3               	rlf	___awdiv@quotient+1,f
  4067  0846  3EFF               	addlw	-1
  4068  0847  1D03               	skipz
  4069  0848  2843               	goto	u3085
  4070  0849  0879               	movf	___awdiv@divisor+1,w
  4071  084A  027B               	subwf	___awdiv@dividend+1,w
  4072  084B  1D03               	skipz
  4073  084C  284F               	goto	u3095
  4074  084D  0878               	movf	___awdiv@divisor,w
  4075  084E  027A               	subwf	___awdiv@dividend,w
  4076  084F                     u3095:
  4077  084F  1C03               	skipc
  4078  0850  2852               	goto	u3091
  4079  0851  2853               	goto	u3090
  4080  0852                     u3091:
  4081  0852  285A               	goto	l2294
  4082  0853                     u3090:
  4083  0853                     l2290:
  4084  0853  0878               	movf	___awdiv@divisor,w
  4085  0854  02FA               	subwf	___awdiv@dividend,f
  4086  0855  0879               	movf	___awdiv@divisor+1,w
  4087  0856  1C03               	skipc
  4088  0857  03FB               	decf	___awdiv@dividend+1,f
  4089  0858  02FB               	subwf	___awdiv@dividend+1,f
  4090  0859                     l2292:
  4091  0859  1422               	bsf	___awdiv@quotient,0
  4092  085A                     l2294:
  4093  085A  3001               	movlw	1
  4094  085B                     u3105:
  4095  085B  1003               	clrc
  4096  085C  0CF9               	rrf	___awdiv@divisor+1,f
  4097  085D  0CF8               	rrf	___awdiv@divisor,f
  4098  085E  3EFF               	addlw	-1
  4099  085F  1D03               	skipz
  4100  0860  285B               	goto	u3105
  4101  0861                     l2296:
  4102  0861  3001               	movlw	1
  4103  0862  02A0               	subwf	___awdiv@counter,f
  4104  0863  1D03               	btfss	3,2
  4105  0864  2866               	goto	u3111
  4106  0865  2867               	goto	u3110
  4107  0866                     u3111:
  4108  0866  2842               	goto	l2288
  4109  0867                     u3110:
  4110  0867                     l2298:
  4111  0867  0821               	movf	___awdiv@sign,w
  4112  0868  1903               	btfsc	3,2
  4113  0869  286B               	goto	u3121
  4114  086A  286C               	goto	u3120
  4115  086B                     u3121:
  4116  086B  2871               	goto	l2302
  4117  086C                     u3120:
  4118  086C                     l2300:
  4119  086C  09A2               	comf	___awdiv@quotient,f
  4120  086D  09A3               	comf	___awdiv@quotient+1,f
  4121  086E  0AA2               	incf	___awdiv@quotient,f
  4122  086F  1903               	skipnz
  4123  0870  0AA3               	incf	___awdiv@quotient+1,f
  4124  0871                     l2302:
  4125  0871  0823               	movf	___awdiv@quotient+1,w
  4126  0872  00F9               	movwf	?___awdiv+1
  4127  0873  0822               	movf	___awdiv@quotient,w
  4128  0874  00F8               	movwf	?___awdiv
  4129  0875                     l457:
  4130  0875  0008               	return
  4131  0876                     __end_of___awdiv:
  4132                           
  4133                           	psect	text6
  4134  05DF                     __ptext6:	
  4135 ;; *************** function _fround *****************
  4136 ;; Defined at:
  4137 ;;		line 417 in file "C:\Program Files\Microchip\xc8\v2.20\pic\sources\c90\common\doprnt.c"
  4138 ;; Parameters:    Size  Location     Type
  4139 ;;  prec            1    wreg     unsigned char 
  4140 ;; Auto vars:     Size  Location     Type
  4141 ;;  prec            1   49[BANK0 ] unsigned char 
  4142 ;; Return value:  Size  Location     Type
  4143 ;;                  4   30[BANK0 ] unsigned char 
  4144 ;; Registers used:
  4145 ;;		wreg, fsr0l, fsr0h, status,2, status,0, btemp+1, pclath, cstack
  4146 ;; Tracked objects:
  4147 ;;		On entry : 0/0
  4148 ;;		On exit  : 0/0
  4149 ;;		Unchanged: 0/0
  4150 ;; Data sizes:     COMMON   BANK0   BANK1   BANK3   BANK2
  4151 ;;      Params:         0       4       0       0       0
  4152 ;;      Locals:         0       9       0       0       0
  4153 ;;      Temps:          0       7       0       0       0
  4154 ;;      Totals:         0      20       0       0       0
  4155 ;;Total ram usage:       20 bytes
  4156 ;; Hardware stack levels used:    1
  4157 ;; Hardware stack levels required when called:    3
  4158 ;; This function calls:
  4159 ;;		___flmul
  4160 ;;		___lwdiv
  4161 ;;		___lwmod
  4162 ;; This function is called by:
  4163 ;;		_sprintf
  4164 ;; This function uses a non-reentrant model
  4165 ;;
  4166                           
  4167                           
  4168                           ;psect for function _fround
  4169  05DF                     _fround:
  4170                           
  4171                           ;incstack = 0
  4172                           ; Regs used in _fround: [wreg-fsr0h+status,2+status,0+btemp+1+pclath+cstack]
  4173                           ;fround@prec stored from wreg
  4174  05DF  1283               	bcf	3,5	;RP0=0, select bank0
  4175  05E0  1303               	bcf	3,6	;RP1=0, select bank0
  4176  05E1  00D1               	movwf	fround@prec
  4177  05E2                     l2770:
  4178                           
  4179                           ;C:\Program Files\Microchip\xc8\v2.20\pic\sources\c90\common\doprnt.c: 417: fround(unsig
      +                          ned char prec);C:\Program Files\Microchip\xc8\v2.20\pic\sources\c90\common\doprnt.c: 418
      +                          : {;C:\Program Files\Microchip\xc8\v2.20\pic\sources\c90\common\doprnt.c: 421:  if(prec>
      +                          =110)
  4180  05E2  306E               	movlw	110
  4181  05E3  0251               	subwf	fround@prec,w
  4182  05E4  1C03               	skipc
  4183  05E5  2DE7               	goto	u4191
  4184  05E6  2DE8               	goto	u4190
  4185  05E7                     u4191:
  4186  05E7  2EF5               	goto	l2778
  4187  05E8                     u4190:
  4188  05E8                     l2772:
  4189                           
  4190                           ;C:\Program Files\Microchip\xc8\v2.20\pic\sources\c90\common\doprnt.c: 422:   return 0.5
      +                           * _npowers_[prec/100U+18U] * _npowers_[(prec%100U)/10U+9U] * _npowers_[prec%10U];
  4191  05E8  303F               	movlw	63
  4192  05E9  00A7               	movwf	___flmul@b+3
  4193  05EA  3000               	movlw	0
  4194  05EB  00A6               	movwf	___flmul@b+2
  4195  05EC  3000               	movlw	0
  4196  05ED  00A5               	movwf	___flmul@b+1
  4197  05EE  3000               	movlw	0
  4198  05EF  00A4               	movwf	___flmul@b
  4199  05F0  3064               	movlw	100
  4200  05F1  00F7               	movwf	___lwdiv@divisor
  4201  05F2  3000               	movlw	0
  4202  05F3  00F8               	movwf	___lwdiv@divisor+1
  4203  05F4  0851               	movf	fround@prec,w
  4204  05F5  00C2               	movwf	??_fround
  4205  05F6  01C3               	clrf	??_fround+1
  4206  05F7  0842               	movf	??_fround,w
  4207  05F8  00F9               	movwf	___lwdiv@dividend
  4208  05F9  0843               	movf	??_fround+1,w
  4209  05FA  00FA               	movwf	___lwdiv@dividend+1
  4210  05FB  160A  158A  24CE  120A  118A  	fcall	___lwdiv
  4211  0600  0877               	movf	?___lwdiv,w
  4212  0601  1283               	bcf	3,5	;RP0=0, select bank0
  4213  0602  1303               	bcf	3,6	;RP1=0, select bank0
  4214  0603  00C4               	movwf	??_fround+2
  4215  0604  3001               	movlw	1
  4216  0605                     u4205:
  4217  0605  1003               	clrc
  4218  0606  0DC4               	rlf	??_fround+2,f
  4219  0607  3EFF               	addlw	-1
  4220  0608  1D03               	skipz
  4221  0609  2E05               	goto	u4205
  4222  060A  1003               	clrc
  4223  060B  0D44               	rlf	??_fround+2,w
  4224  060C  3E7D               	addlw	low (((__npowers_-__stringbase)| (0+32768)+72))
  4225  060D  0084               	movwf	4
  4226  060E  160A  118A  2000  120A  118A  	fcall	stringdir
  4227  0613  00C5               	movwf	??_fround+3
  4228  0614  160A  118A  2000  120A  118A  	fcall	stringdir
  4229  0619  00C6               	movwf	??_fround+4
  4230  061A  160A  118A  2000  120A  118A  	fcall	stringdir
  4231  061F  00C7               	movwf	??_fround+5
  4232  0620  160A  118A  2000  120A  118A  	fcall	stringdir
  4233  0625  00C8               	movwf	??_fround+6
  4234  0626  0848               	movf	??_fround+6,w
  4235  0627  00AB               	movwf	___flmul@a+3
  4236  0628  0847               	movf	??_fround+5,w
  4237  0629  00AA               	movwf	___flmul@a+2
  4238  062A  0846               	movf	??_fround+4,w
  4239  062B  00A9               	movwf	___flmul@a+1
  4240  062C  0845               	movf	??_fround+3,w
  4241  062D  00A8               	movwf	___flmul@a
  4242  062E  120A  158A  249F  120A  118A  	fcall	___flmul
  4243  0633  1283               	bcf	3,5	;RP0=0, select bank0
  4244  0634  1303               	bcf	3,6	;RP1=0, select bank0
  4245  0635  0827               	movf	?___flmul+3,w
  4246  0636  00D0               	movwf	_fround$803+3
  4247  0637  0826               	movf	?___flmul+2,w
  4248  0638  00CF               	movwf	_fround$803+2
  4249  0639  0825               	movf	?___flmul+1,w
  4250  063A  00CE               	movwf	_fround$803+1
  4251  063B  0824               	movf	?___flmul,w
  4252  063C  00CD               	movwf	_fround$803
  4253                           
  4254                           ;C:\Program Files\Microchip\xc8\v2.20\pic\sources\c90\common\doprnt.c: 422:   return 0.5
      +                           * _npowers_[prec/100U+18U] * _npowers_[(prec%100U)/10U+9U] * _npowers_[prec%10U];
  4255  063D  300A               	movlw	10
  4256  063E  00F7               	movwf	___lwdiv@divisor
  4257  063F  3000               	movlw	0
  4258  0640  00F8               	movwf	___lwdiv@divisor+1
  4259  0641  0851               	movf	fround@prec,w
  4260  0642  00C2               	movwf	??_fround
  4261  0643  01C3               	clrf	??_fround+1
  4262  0644  0842               	movf	??_fround,w
  4263  0645  00F4               	movwf	___lwmod@dividend
  4264  0646  0843               	movf	??_fround+1,w
  4265  0647  00F5               	movwf	___lwmod@dividend+1
  4266  0648  3064               	movlw	100
  4267  0649  00F2               	movwf	___lwmod@divisor
  4268  064A  3000               	movlw	0
  4269  064B  00F3               	movwf	___lwmod@divisor+1
  4270  064C  160A  158A  2494  120A  118A  	fcall	___lwmod
  4271  0651  0873               	movf	?___lwmod+1,w
  4272  0652  00FA               	movwf	___lwdiv@dividend+1
  4273  0653  0872               	movf	?___lwmod,w
  4274  0654  00F9               	movwf	___lwdiv@dividend
  4275  0655  160A  158A  24CE  120A  118A  	fcall	___lwdiv
  4276  065A  0877               	movf	?___lwdiv,w
  4277  065B  1283               	bcf	3,5	;RP0=0, select bank0
  4278  065C  1303               	bcf	3,6	;RP1=0, select bank0
  4279  065D  00C4               	movwf	??_fround+2
  4280  065E  3001               	movlw	1
  4281  065F                     u4215:
  4282  065F  1003               	clrc
  4283  0660  0DC4               	rlf	??_fround+2,f
  4284  0661  3EFF               	addlw	-1
  4285  0662  1D03               	skipz
  4286  0663  2E5F               	goto	u4215
  4287  0664  1003               	clrc
  4288  0665  0D44               	rlf	??_fround+2,w
  4289  0666  3E59               	addlw	low (((__npowers_-__stringbase)| (0+32768)+36))
  4290  0667  0084               	movwf	4
  4291  0668  160A  118A  2000  120A  118A  	fcall	stringdir
  4292  066D  00C5               	movwf	??_fround+3
  4293  066E  160A  118A  2000  120A  118A  	fcall	stringdir
  4294  0673  00C6               	movwf	??_fround+4
  4295  0674  160A  118A  2000  120A  118A  	fcall	stringdir
  4296  0679  00C7               	movwf	??_fround+5
  4297  067A  160A  118A  2000  120A  118A  	fcall	stringdir
  4298  067F  00C8               	movwf	??_fround+6
  4299  0680  0848               	movf	??_fround+6,w
  4300  0681  00A7               	movwf	___flmul@b+3
  4301  0682  0847               	movf	??_fround+5,w
  4302  0683  00A6               	movwf	___flmul@b+2
  4303  0684  0846               	movf	??_fround+4,w
  4304  0685  00A5               	movwf	___flmul@b+1
  4305  0686  0845               	movf	??_fround+3,w
  4306  0687  00A4               	movwf	___flmul@b
  4307  0688  0850               	movf	_fround$803+3,w
  4308  0689  00AB               	movwf	___flmul@a+3
  4309  068A  084F               	movf	_fround$803+2,w
  4310  068B  00AA               	movwf	___flmul@a+2
  4311  068C  084E               	movf	_fround$803+1,w
  4312  068D  00A9               	movwf	___flmul@a+1
  4313  068E  084D               	movf	_fround$803,w
  4314  068F  00A8               	movwf	___flmul@a
  4315  0690  120A  158A  249F  120A  118A  	fcall	___flmul
  4316  0695  1283               	bcf	3,5	;RP0=0, select bank0
  4317  0696  1303               	bcf	3,6	;RP1=0, select bank0
  4318  0697  0827               	movf	?___flmul+3,w
  4319  0698  00CC               	movwf	_fround$804+3
  4320  0699  0826               	movf	?___flmul+2,w
  4321  069A  00CB               	movwf	_fround$804+2
  4322  069B  0825               	movf	?___flmul+1,w
  4323  069C  00CA               	movwf	_fround$804+1
  4324  069D  0824               	movf	?___flmul,w
  4325  069E  00C9               	movwf	_fround$804
  4326                           
  4327                           ;C:\Program Files\Microchip\xc8\v2.20\pic\sources\c90\common\doprnt.c: 422:   return 0.5
      +                           * _npowers_[prec/100U+18U] * _npowers_[(prec%100U)/10U+9U] * _npowers_[prec%10U];
  4328  069F  300A               	movlw	10
  4329  06A0  00F2               	movwf	___lwmod@divisor
  4330  06A1  3000               	movlw	0
  4331  06A2  00F3               	movwf	___lwmod@divisor+1
  4332  06A3  0851               	movf	fround@prec,w
  4333  06A4  00C2               	movwf	??_fround
  4334  06A5  01C3               	clrf	??_fround+1
  4335  06A6  0842               	movf	??_fround,w
  4336  06A7  00F4               	movwf	___lwmod@dividend
  4337  06A8  0843               	movf	??_fround+1,w
  4338  06A9  00F5               	movwf	___lwmod@dividend+1
  4339  06AA  160A  158A  2494  120A  118A  	fcall	___lwmod
  4340  06AF  0872               	movf	?___lwmod,w
  4341  06B0  1283               	bcf	3,5	;RP0=0, select bank0
  4342  06B1  1303               	bcf	3,6	;RP1=0, select bank0
  4343  06B2  00C4               	movwf	??_fround+2
  4344  06B3  3001               	movlw	1
  4345  06B4                     u4225:
  4346  06B4  1003               	clrc
  4347  06B5  0DC4               	rlf	??_fround+2,f
  4348  06B6  3EFF               	addlw	-1
  4349  06B7  1D03               	skipz
  4350  06B8  2EB4               	goto	u4225
  4351  06B9  1003               	clrc
  4352  06BA  0D44               	rlf	??_fround+2,w
  4353  06BB  3E35               	addlw	low ((__npowers_-__stringbase)| (0+32768))
  4354  06BC  0084               	movwf	4
  4355  06BD  160A  118A  2000  120A  118A  	fcall	stringdir
  4356  06C2  00C5               	movwf	??_fround+3
  4357  06C3  160A  118A  2000  120A  118A  	fcall	stringdir
  4358  06C8  00C6               	movwf	??_fround+4
  4359  06C9  160A  118A  2000  120A  118A  	fcall	stringdir
  4360  06CE  00C7               	movwf	??_fround+5
  4361  06CF  160A  118A  2000  120A  118A  	fcall	stringdir
  4362  06D4  00C8               	movwf	??_fround+6
  4363  06D5  0848               	movf	??_fround+6,w
  4364  06D6  00A7               	movwf	___flmul@b+3
  4365  06D7  0847               	movf	??_fround+5,w
  4366  06D8  00A6               	movwf	___flmul@b+2
  4367  06D9  0846               	movf	??_fround+4,w
  4368  06DA  00A5               	movwf	___flmul@b+1
  4369  06DB  0845               	movf	??_fround+3,w
  4370  06DC  00A4               	movwf	___flmul@b
  4371  06DD  084C               	movf	_fround$804+3,w
  4372  06DE  00AB               	movwf	___flmul@a+3
  4373  06DF  084B               	movf	_fround$804+2,w
  4374  06E0  00AA               	movwf	___flmul@a+2
  4375  06E1  084A               	movf	_fround$804+1,w
  4376  06E2  00A9               	movwf	___flmul@a+1
  4377  06E3  0849               	movf	_fround$804,w
  4378  06E4  00A8               	movwf	___flmul@a
  4379  06E5  120A  158A  249F  120A  118A  	fcall	___flmul
  4380  06EA  1283               	bcf	3,5	;RP0=0, select bank0
  4381  06EB  1303               	bcf	3,6	;RP1=0, select bank0
  4382  06EC  0827               	movf	?___flmul+3,w
  4383  06ED  00C1               	movwf	?_fround+3
  4384  06EE  0826               	movf	?___flmul+2,w
  4385  06EF  00C0               	movwf	?_fround+2
  4386  06F0  0825               	movf	?___flmul+1,w
  4387  06F1  00BF               	movwf	?_fround+1
  4388  06F2  0824               	movf	?___flmul,w
  4389  06F3  00BE               	movwf	?_fround
  4390  06F4  2FE9               	goto	l237
  4391  06F5                     l2778:
  4392  06F5  300B               	movlw	11
  4393  06F6  0251               	subwf	fround@prec,w
  4394  06F7  1C03               	skipc
  4395  06F8  2EFA               	goto	u4231
  4396  06F9  2EFB               	goto	u4230
  4397  06FA                     u4231:
  4398  06FA  2FA6               	goto	l2784
  4399  06FB                     u4230:
  4400  06FB                     l2780:
  4401                           
  4402                           ;C:\Program Files\Microchip\xc8\v2.20\pic\sources\c90\common\doprnt.c: 424:   return 0.5
      +                           * _npowers_[prec/10U+9U] * _npowers_[prec%10U];
  4403  06FB  303F               	movlw	63
  4404  06FC  00A7               	movwf	___flmul@b+3
  4405  06FD  3000               	movlw	0
  4406  06FE  00A6               	movwf	___flmul@b+2
  4407  06FF  3000               	movlw	0
  4408  0700  00A5               	movwf	___flmul@b+1
  4409  0701  3000               	movlw	0
  4410  0702  00A4               	movwf	___flmul@b
  4411  0703  300A               	movlw	10
  4412  0704  00F7               	movwf	___lwdiv@divisor
  4413  0705  3000               	movlw	0
  4414  0706  00F8               	movwf	___lwdiv@divisor+1
  4415  0707  0851               	movf	fround@prec,w
  4416  0708  00C2               	movwf	??_fround
  4417  0709  01C3               	clrf	??_fround+1
  4418  070A  0842               	movf	??_fround,w
  4419  070B  00F9               	movwf	___lwdiv@dividend
  4420  070C  0843               	movf	??_fround+1,w
  4421  070D  00FA               	movwf	___lwdiv@dividend+1
  4422  070E  160A  158A  24CE  120A  118A  	fcall	___lwdiv
  4423  0713  0877               	movf	?___lwdiv,w
  4424  0714  1283               	bcf	3,5	;RP0=0, select bank0
  4425  0715  1303               	bcf	3,6	;RP1=0, select bank0
  4426  0716  00C4               	movwf	??_fround+2
  4427  0717  3001               	movlw	1
  4428  0718                     u4245:
  4429  0718  1003               	clrc
  4430  0719  0DC4               	rlf	??_fround+2,f
  4431  071A  3EFF               	addlw	-1
  4432  071B  1D03               	skipz
  4433  071C  2F18               	goto	u4245
  4434  071D  1003               	clrc
  4435  071E  0D44               	rlf	??_fround+2,w
  4436  071F  3E59               	addlw	low (((__npowers_-__stringbase)| (0+32768)+36))
  4437  0720  0084               	movwf	4
  4438  0721  160A  118A  2000  120A  118A  	fcall	stringdir
  4439  0726  00C5               	movwf	??_fround+3
  4440  0727  160A  118A  2000  120A  118A  	fcall	stringdir
  4441  072C  00C6               	movwf	??_fround+4
  4442  072D  160A  118A  2000  120A  118A  	fcall	stringdir
  4443  0732  00C7               	movwf	??_fround+5
  4444  0733  160A  118A  2000  120A  118A  	fcall	stringdir
  4445  0738  00C8               	movwf	??_fround+6
  4446  0739  0848               	movf	??_fround+6,w
  4447  073A  00AB               	movwf	___flmul@a+3
  4448  073B  0847               	movf	??_fround+5,w
  4449  073C  00AA               	movwf	___flmul@a+2
  4450  073D  0846               	movf	??_fround+4,w
  4451  073E  00A9               	movwf	___flmul@a+1
  4452  073F  0845               	movf	??_fround+3,w
  4453  0740  00A8               	movwf	___flmul@a
  4454  0741  120A  158A  249F  120A  118A  	fcall	___flmul
  4455  0746  1283               	bcf	3,5	;RP0=0, select bank0
  4456  0747  1303               	bcf	3,6	;RP1=0, select bank0
  4457  0748  0827               	movf	?___flmul+3,w
  4458  0749  00D0               	movwf	_fround$803+3
  4459  074A  0826               	movf	?___flmul+2,w
  4460  074B  00CF               	movwf	_fround$803+2
  4461  074C  0825               	movf	?___flmul+1,w
  4462  074D  00CE               	movwf	_fround$803+1
  4463  074E  0824               	movf	?___flmul,w
  4464  074F  00CD               	movwf	_fround$803
  4465                           
  4466                           ;C:\Program Files\Microchip\xc8\v2.20\pic\sources\c90\common\doprnt.c: 424:   return 0.5
      +                           * _npowers_[prec/10U+9U] * _npowers_[prec%10U];
  4467  0750  300A               	movlw	10
  4468  0751  00F2               	movwf	___lwmod@divisor
  4469  0752  3000               	movlw	0
  4470  0753  00F3               	movwf	___lwmod@divisor+1
  4471  0754  0851               	movf	fround@prec,w
  4472  0755  00C2               	movwf	??_fround
  4473  0756  01C3               	clrf	??_fround+1
  4474  0757  0842               	movf	??_fround,w
  4475  0758  00F4               	movwf	___lwmod@dividend
  4476  0759  0843               	movf	??_fround+1,w
  4477  075A  00F5               	movwf	___lwmod@dividend+1
  4478  075B  160A  158A  2494  120A  118A  	fcall	___lwmod
  4479  0760  0872               	movf	?___lwmod,w
  4480  0761  1283               	bcf	3,5	;RP0=0, select bank0
  4481  0762  1303               	bcf	3,6	;RP1=0, select bank0
  4482  0763  00C4               	movwf	??_fround+2
  4483  0764  3001               	movlw	1
  4484  0765                     u4255:
  4485  0765  1003               	clrc
  4486  0766  0DC4               	rlf	??_fround+2,f
  4487  0767  3EFF               	addlw	-1
  4488  0768  1D03               	skipz
  4489  0769  2F65               	goto	u4255
  4490  076A  1003               	clrc
  4491  076B  0D44               	rlf	??_fround+2,w
  4492  076C  3E35               	addlw	low ((__npowers_-__stringbase)| (0+32768))
  4493  076D  0084               	movwf	4
  4494  076E  160A  118A  2000  120A  118A  	fcall	stringdir
  4495  0773  00C5               	movwf	??_fround+3
  4496  0774  160A  118A  2000  120A  118A  	fcall	stringdir
  4497  0779  00C6               	movwf	??_fround+4
  4498  077A  160A  118A  2000  120A  118A  	fcall	stringdir
  4499  077F  00C7               	movwf	??_fround+5
  4500  0780  160A  118A  2000  120A  118A  	fcall	stringdir
  4501  0785  00C8               	movwf	??_fround+6
  4502  0786  0848               	movf	??_fround+6,w
  4503  0787  00A7               	movwf	___flmul@b+3
  4504  0788  0847               	movf	??_fround+5,w
  4505  0789  00A6               	movwf	___flmul@b+2
  4506  078A  0846               	movf	??_fround+4,w
  4507  078B  00A5               	movwf	___flmul@b+1
  4508  078C  0845               	movf	??_fround+3,w
  4509  078D  00A4               	movwf	___flmul@b
  4510  078E  0850               	movf	_fround$803+3,w
  4511  078F  00AB               	movwf	___flmul@a+3
  4512  0790  084F               	movf	_fround$803+2,w
  4513  0791  00AA               	movwf	___flmul@a+2
  4514  0792  084E               	movf	_fround$803+1,w
  4515  0793  00A9               	movwf	___flmul@a+1
  4516  0794  084D               	movf	_fround$803,w
  4517  0795  00A8               	movwf	___flmul@a
  4518  0796  120A  158A  249F  120A  118A  	fcall	___flmul
  4519  079B  1283               	bcf	3,5	;RP0=0, select bank0
  4520  079C  1303               	bcf	3,6	;RP1=0, select bank0
  4521  079D  0827               	movf	?___flmul+3,w
  4522  079E  00C1               	movwf	?_fround+3
  4523  079F  0826               	movf	?___flmul+2,w
  4524  07A0  00C0               	movwf	?_fround+2
  4525  07A1  0825               	movf	?___flmul+1,w
  4526  07A2  00BF               	movwf	?_fround+1
  4527  07A3  0824               	movf	?___flmul,w
  4528  07A4  00BE               	movwf	?_fround
  4529  07A5  2FE9               	goto	l237
  4530  07A6                     l2784:
  4531                           
  4532                           ;C:\Program Files\Microchip\xc8\v2.20\pic\sources\c90\common\doprnt.c: 425:  return 0.5 
      +                          * _npowers_[prec];
  4533  07A6  303F               	movlw	63
  4534  07A7  00A7               	movwf	___flmul@b+3
  4535  07A8  3000               	movlw	0
  4536  07A9  00A6               	movwf	___flmul@b+2
  4537  07AA  3000               	movlw	0
  4538  07AB  00A5               	movwf	___flmul@b+1
  4539  07AC  3000               	movlw	0
  4540  07AD  00A4               	movwf	___flmul@b
  4541  07AE  0851               	movf	fround@prec,w
  4542  07AF  00C2               	movwf	??_fround
  4543  07B0  3001               	movlw	1
  4544  07B1                     u4265:
  4545  07B1  1003               	clrc
  4546  07B2  0DC2               	rlf	??_fround,f
  4547  07B3  3EFF               	addlw	-1
  4548  07B4  1D03               	skipz
  4549  07B5  2FB1               	goto	u4265
  4550  07B6  1003               	clrc
  4551  07B7  0D42               	rlf	??_fround,w
  4552  07B8  3E35               	addlw	low ((__npowers_-__stringbase)| (0+32768))
  4553  07B9  0084               	movwf	4
  4554  07BA  160A  118A  2000  120A  118A  	fcall	stringdir
  4555  07BF  00C3               	movwf	??_fround+1
  4556  07C0  160A  118A  2000  120A  118A  	fcall	stringdir
  4557  07C5  00C4               	movwf	??_fround+2
  4558  07C6  160A  118A  2000  120A  118A  	fcall	stringdir
  4559  07CB  00C5               	movwf	??_fround+3
  4560  07CC  160A  118A  2000  120A  118A  	fcall	stringdir
  4561  07D1  00C6               	movwf	??_fround+4
  4562  07D2  0846               	movf	??_fround+4,w
  4563  07D3  00AB               	movwf	___flmul@a+3
  4564  07D4  0845               	movf	??_fround+3,w
  4565  07D5  00AA               	movwf	___flmul@a+2
  4566  07D6  0844               	movf	??_fround+2,w
  4567  07D7  00A9               	movwf	___flmul@a+1
  4568  07D8  0843               	movf	??_fround+1,w
  4569  07D9  00A8               	movwf	___flmul@a
  4570  07DA  120A  158A  249F  120A  118A  	fcall	___flmul
  4571  07DF  1283               	bcf	3,5	;RP0=0, select bank0
  4572  07E0  1303               	bcf	3,6	;RP1=0, select bank0
  4573  07E1  0827               	movf	?___flmul+3,w
  4574  07E2  00C1               	movwf	?_fround+3
  4575  07E3  0826               	movf	?___flmul+2,w
  4576  07E4  00C0               	movwf	?_fround+2
  4577  07E5  0825               	movf	?___flmul+1,w
  4578  07E6  00BF               	movwf	?_fround+1
  4579  07E7  0824               	movf	?___flmul,w
  4580  07E8  00BE               	movwf	?_fround
  4581  07E9                     l237:
  4582  07E9  0008               	return
  4583  07EA                     __end_of_fround:
  4584                           
  4585                           	psect	text7
  4586  1C94                     __ptext7:	
  4587 ;; *************** function ___lwmod *****************
  4588 ;; Defined at:
  4589 ;;		line 5 in file "C:\Program Files\Microchip\xc8\v2.20\pic\sources\c90\common\lwmod.c"
  4590 ;; Parameters:    Size  Location     Type
  4591 ;;  divisor         2    2[COMMON] unsigned int 
  4592 ;;  dividend        2    4[COMMON] unsigned int 
  4593 ;; Auto vars:     Size  Location     Type
  4594 ;;  counter         1    6[COMMON] unsigned char 
  4595 ;; Return value:  Size  Location     Type
  4596 ;;                  2    2[COMMON] unsigned int 
  4597 ;; Registers used:
  4598 ;;		wreg, status,2, status,0, btemp+1
  4599 ;; Tracked objects:
  4600 ;;		On entry : 0/0
  4601 ;;		On exit  : 0/0
  4602 ;;		Unchanged: 0/0
  4603 ;; Data sizes:     COMMON   BANK0   BANK1   BANK3   BANK2
  4604 ;;      Params:         4       0       0       0       0
  4605 ;;      Locals:         1       0       0       0       0
  4606 ;;      Temps:          0       0       0       0       0
  4607 ;;      Totals:         5       0       0       0       0
  4608 ;;Total ram usage:        5 bytes
  4609 ;; Hardware stack levels used:    1
  4610 ;; Hardware stack levels required when called:    1
  4611 ;; This function calls:
  4612 ;;		Nothing
  4613 ;; This function is called by:
  4614 ;;		_fround
  4615 ;; This function uses a non-reentrant model
  4616 ;;
  4617                           
  4618                           
  4619                           ;psect for function ___lwmod
  4620  1C94                     ___lwmod:
  4621  1C94                     l2370:	
  4622                           ;incstack = 0
  4623                           ; Regs used in ___lwmod: [wreg+status,2+status,0+btemp+1]
  4624                           
  4625  1C94  0872               	movf	___lwmod@divisor,w
  4626  1C95  0473               	iorwf	___lwmod@divisor+1,w
  4627  1C96  1903               	btfsc	3,2
  4628  1C97  2C99               	goto	u3291
  4629  1C98  2C9A               	goto	u3290
  4630  1C99                     u3291:
  4631  1C99  2CC9               	goto	l2388
  4632  1C9A                     u3290:
  4633  1C9A                     l2372:
  4634  1C9A  01F6               	clrf	___lwmod@counter
  4635  1C9B  0AF6               	incf	___lwmod@counter,f
  4636  1C9C  2CA8               	goto	l2378
  4637  1C9D                     l2374:
  4638  1C9D  3001               	movlw	1
  4639  1C9E                     u3305:
  4640  1C9E  1003               	clrc
  4641  1C9F  0DF2               	rlf	___lwmod@divisor,f
  4642  1CA0  0DF3               	rlf	___lwmod@divisor+1,f
  4643  1CA1  3EFF               	addlw	-1
  4644  1CA2  1D03               	skipz
  4645  1CA3  2C9E               	goto	u3305
  4646  1CA4                     l2376:
  4647  1CA4  3001               	movlw	1
  4648  1CA5  00FF               	movwf	btemp+1
  4649  1CA6  087F               	movf	btemp+1,w
  4650  1CA7  07F6               	addwf	___lwmod@counter,f
  4651  1CA8                     l2378:
  4652  1CA8  1FF3               	btfss	___lwmod@divisor+1,7
  4653  1CA9  2CAB               	goto	u3311
  4654  1CAA  2CAC               	goto	u3310
  4655  1CAB                     u3311:
  4656  1CAB  2C9D               	goto	l2374
  4657  1CAC                     u3310:
  4658  1CAC                     l2380:
  4659  1CAC  0873               	movf	___lwmod@divisor+1,w
  4660  1CAD  0275               	subwf	___lwmod@dividend+1,w
  4661  1CAE  1D03               	skipz
  4662  1CAF  2CB2               	goto	u3325
  4663  1CB0  0872               	movf	___lwmod@divisor,w
  4664  1CB1  0274               	subwf	___lwmod@dividend,w
  4665  1CB2                     u3325:
  4666  1CB2  1C03               	skipc
  4667  1CB3  2CB5               	goto	u3321
  4668  1CB4  2CB6               	goto	u3320
  4669  1CB5                     u3321:
  4670  1CB5  2CBC               	goto	l2384
  4671  1CB6                     u3320:
  4672  1CB6                     l2382:
  4673  1CB6  0872               	movf	___lwmod@divisor,w
  4674  1CB7  02F4               	subwf	___lwmod@dividend,f
  4675  1CB8  0873               	movf	___lwmod@divisor+1,w
  4676  1CB9  1C03               	skipc
  4677  1CBA  03F5               	decf	___lwmod@dividend+1,f
  4678  1CBB  02F5               	subwf	___lwmod@dividend+1,f
  4679  1CBC                     l2384:
  4680  1CBC  3001               	movlw	1
  4681  1CBD                     u3335:
  4682  1CBD  1003               	clrc
  4683  1CBE  0CF3               	rrf	___lwmod@divisor+1,f
  4684  1CBF  0CF2               	rrf	___lwmod@divisor,f
  4685  1CC0  3EFF               	addlw	-1
  4686  1CC1  1D03               	skipz
  4687  1CC2  2CBD               	goto	u3335
  4688  1CC3                     l2386:
  4689  1CC3  3001               	movlw	1
  4690  1CC4  02F6               	subwf	___lwmod@counter,f
  4691  1CC5  1D03               	btfss	3,2
  4692  1CC6  2CC8               	goto	u3341
  4693  1CC7  2CC9               	goto	u3340
  4694  1CC8                     u3341:
  4695  1CC8  2CAC               	goto	l2380
  4696  1CC9                     u3340:
  4697  1CC9                     l2388:
  4698  1CC9  0875               	movf	___lwmod@dividend+1,w
  4699  1CCA  00F3               	movwf	?___lwmod+1
  4700  1CCB  0874               	movf	___lwmod@dividend,w
  4701  1CCC  00F2               	movwf	?___lwmod
  4702  1CCD                     l620:
  4703  1CCD  0008               	return
  4704  1CCE                     __end_of___lwmod:
  4705                           
  4706                           	psect	text8
  4707  1CCE                     __ptext8:	
  4708 ;; *************** function ___lwdiv *****************
  4709 ;; Defined at:
  4710 ;;		line 5 in file "C:\Program Files\Microchip\xc8\v2.20\pic\sources\c90\common\lwdiv.c"
  4711 ;; Parameters:    Size  Location     Type
  4712 ;;  divisor         2    7[COMMON] unsigned int 
  4713 ;;  dividend        2    9[COMMON] unsigned int 
  4714 ;; Auto vars:     Size  Location     Type
  4715 ;;  quotient        2    0[BANK0 ] unsigned int 
  4716 ;;  counter         1    2[BANK0 ] unsigned char 
  4717 ;; Return value:  Size  Location     Type
  4718 ;;                  2    7[COMMON] unsigned int 
  4719 ;; Registers used:
  4720 ;;		wreg, status,2, status,0, btemp+1
  4721 ;; Tracked objects:
  4722 ;;		On entry : 0/0
  4723 ;;		On exit  : 0/0
  4724 ;;		Unchanged: 0/0
  4725 ;; Data sizes:     COMMON   BANK0   BANK1   BANK3   BANK2
  4726 ;;      Params:         4       0       0       0       0
  4727 ;;      Locals:         0       3       0       0       0
  4728 ;;      Temps:          0       0       0       0       0
  4729 ;;      Totals:         4       3       0       0       0
  4730 ;;Total ram usage:        7 bytes
  4731 ;; Hardware stack levels used:    1
  4732 ;; Hardware stack levels required when called:    1
  4733 ;; This function calls:
  4734 ;;		Nothing
  4735 ;; This function is called by:
  4736 ;;		_fround
  4737 ;; This function uses a non-reentrant model
  4738 ;;
  4739                           
  4740                           
  4741                           ;psect for function ___lwdiv
  4742  1CCE                     ___lwdiv:
  4743  1CCE                     l2344:	
  4744                           ;incstack = 0
  4745                           ; Regs used in ___lwdiv: [wreg+status,2+status,0+btemp+1]
  4746                           
  4747  1CCE  1283               	bcf	3,5	;RP0=0, select bank0
  4748  1CCF  1303               	bcf	3,6	;RP1=0, select bank0
  4749  1CD0  01A0               	clrf	___lwdiv@quotient
  4750  1CD1  01A1               	clrf	___lwdiv@quotient+1
  4751  1CD2                     l2346:
  4752  1CD2  0877               	movf	___lwdiv@divisor,w
  4753  1CD3  0478               	iorwf	___lwdiv@divisor+1,w
  4754  1CD4  1903               	btfsc	3,2
  4755  1CD5  2CD7               	goto	u3221
  4756  1CD6  2CD8               	goto	u3220
  4757  1CD7                     u3221:
  4758  1CD7  2D0F               	goto	l2366
  4759  1CD8                     u3220:
  4760  1CD8                     l2348:
  4761  1CD8  01A2               	clrf	___lwdiv@counter
  4762  1CD9  0AA2               	incf	___lwdiv@counter,f
  4763  1CDA  2CE6               	goto	l2354
  4764  1CDB                     l2350:
  4765  1CDB  3001               	movlw	1
  4766  1CDC                     u3235:
  4767  1CDC  1003               	clrc
  4768  1CDD  0DF7               	rlf	___lwdiv@divisor,f
  4769  1CDE  0DF8               	rlf	___lwdiv@divisor+1,f
  4770  1CDF  3EFF               	addlw	-1
  4771  1CE0  1D03               	skipz
  4772  1CE1  2CDC               	goto	u3235
  4773  1CE2                     l2352:
  4774  1CE2  3001               	movlw	1
  4775  1CE3  00FF               	movwf	btemp+1
  4776  1CE4  087F               	movf	btemp+1,w
  4777  1CE5  07A2               	addwf	___lwdiv@counter,f
  4778  1CE6                     l2354:
  4779  1CE6  1FF8               	btfss	___lwdiv@divisor+1,7
  4780  1CE7  2CE9               	goto	u3241
  4781  1CE8  2CEA               	goto	u3240
  4782  1CE9                     u3241:
  4783  1CE9  2CDB               	goto	l2350
  4784  1CEA                     u3240:
  4785  1CEA                     l2356:
  4786  1CEA  3001               	movlw	1
  4787  1CEB                     u3255:
  4788  1CEB  1003               	clrc
  4789  1CEC  0DA0               	rlf	___lwdiv@quotient,f
  4790  1CED  0DA1               	rlf	___lwdiv@quotient+1,f
  4791  1CEE  3EFF               	addlw	-1
  4792  1CEF  1D03               	skipz
  4793  1CF0  2CEB               	goto	u3255
  4794  1CF1  0878               	movf	___lwdiv@divisor+1,w
  4795  1CF2  027A               	subwf	___lwdiv@dividend+1,w
  4796  1CF3  1D03               	skipz
  4797  1CF4  2CF7               	goto	u3265
  4798  1CF5  0877               	movf	___lwdiv@divisor,w
  4799  1CF6  0279               	subwf	___lwdiv@dividend,w
  4800  1CF7                     u3265:
  4801  1CF7  1C03               	skipc
  4802  1CF8  2CFA               	goto	u3261
  4803  1CF9  2CFB               	goto	u3260
  4804  1CFA                     u3261:
  4805  1CFA  2D02               	goto	l2362
  4806  1CFB                     u3260:
  4807  1CFB                     l2358:
  4808  1CFB  0877               	movf	___lwdiv@divisor,w
  4809  1CFC  02F9               	subwf	___lwdiv@dividend,f
  4810  1CFD  0878               	movf	___lwdiv@divisor+1,w
  4811  1CFE  1C03               	skipc
  4812  1CFF  03FA               	decf	___lwdiv@dividend+1,f
  4813  1D00  02FA               	subwf	___lwdiv@dividend+1,f
  4814  1D01                     l2360:
  4815  1D01  1420               	bsf	___lwdiv@quotient,0
  4816  1D02                     l2362:
  4817  1D02  3001               	movlw	1
  4818  1D03                     u3275:
  4819  1D03  1003               	clrc
  4820  1D04  0CF8               	rrf	___lwdiv@divisor+1,f
  4821  1D05  0CF7               	rrf	___lwdiv@divisor,f
  4822  1D06  3EFF               	addlw	-1
  4823  1D07  1D03               	skipz
  4824  1D08  2D03               	goto	u3275
  4825  1D09                     l2364:
  4826  1D09  3001               	movlw	1
  4827  1D0A  02A2               	subwf	___lwdiv@counter,f
  4828  1D0B  1D03               	btfss	3,2
  4829  1D0C  2D0E               	goto	u3281
  4830  1D0D  2D0F               	goto	u3280
  4831  1D0E                     u3281:
  4832  1D0E  2CEA               	goto	l2356
  4833  1D0F                     u3280:
  4834  1D0F                     l2366:
  4835  1D0F  0821               	movf	___lwdiv@quotient+1,w
  4836  1D10  00F8               	movwf	?___lwdiv+1
  4837  1D11  0820               	movf	___lwdiv@quotient,w
  4838  1D12  00F7               	movwf	?___lwdiv
  4839  1D13                     l610:
  4840  1D13  0008               	return
  4841  1D14                     __end_of___lwdiv:
  4842                           
  4843                           	psect	text9
  4844  0C9F                     __ptext9:	
  4845 ;; *************** function ___flmul *****************
  4846 ;; Defined at:
  4847 ;;		line 8 in file "C:\Program Files\Microchip\xc8\v2.20\pic\sources\c90\common\sprcmul.c"
  4848 ;; Parameters:    Size  Location     Type
  4849 ;;  b               4    4[BANK0 ] unsigned int 
  4850 ;;  a               4    8[BANK0 ] unsigned int 
  4851 ;; Auto vars:     Size  Location     Type
  4852 ;;  prod            4   24[BANK0 ] struct .
  4853 ;;  grs             4   18[BANK0 ] unsigned long 
  4854 ;;  temp            2   28[BANK0 ] struct .
  4855 ;;  bexp            1   23[BANK0 ] unsigned char 
  4856 ;;  aexp            1   22[BANK0 ] unsigned char 
  4857 ;;  sign            1   17[BANK0 ] unsigned char 
  4858 ;; Return value:  Size  Location     Type
  4859 ;;                  4    4[BANK0 ] unsigned char 
  4860 ;; Registers used:
  4861 ;;		wreg, status,2, status,0, btemp+1, pclath, cstack
  4862 ;; Tracked objects:
  4863 ;;		On entry : 0/0
  4864 ;;		On exit  : 0/0
  4865 ;;		Unchanged: 0/0
  4866 ;; Data sizes:     COMMON   BANK0   BANK1   BANK3   BANK2
  4867 ;;      Params:         0       8       0       0       0
  4868 ;;      Locals:         0      13       0       0       0
  4869 ;;      Temps:          0       5       0       0       0
  4870 ;;      Totals:         0      26       0       0       0
  4871 ;;Total ram usage:       26 bytes
  4872 ;; Hardware stack levels used:    1
  4873 ;; Hardware stack levels required when called:    2
  4874 ;; This function calls:
  4875 ;;		__Umul8_16
  4876 ;; This function is called by:
  4877 ;;		_fround
  4878 ;;		_scale
  4879 ;;		_sprintf
  4880 ;; This function uses a non-reentrant model
  4881 ;;
  4882                           
  4883                           
  4884                           ;psect for function ___flmul
  4885  0C9F                     ___flmul:
  4886  0C9F                     l2594:	
  4887                           ;incstack = 0
  4888                           ; Regs used in ___flmul: [wreg+status,2+status,0+btemp+1+pclath+cstack]
  4889                           
  4890  0C9F  1283               	bcf	3,5	;RP0=0, select bank0
  4891  0CA0  1303               	bcf	3,6	;RP1=0, select bank0
  4892  0CA1  0827               	movf	___flmul@b+3,w
  4893  0CA2  3980               	andlw	128
  4894  0CA3  00FF               	movwf	btemp+1
  4895  0CA4  087F               	movf	btemp+1,w
  4896  0CA5  00B1               	movwf	___flmul@sign
  4897  0CA6                     l2596:
  4898  0CA6  0827               	movf	___flmul@b+3,w
  4899  0CA7  00AC               	movwf	??___flmul
  4900  0CA8  072C               	addwf	??___flmul,w
  4901  0CA9  00FF               	movwf	btemp+1
  4902  0CAA  087F               	movf	btemp+1,w
  4903  0CAB  00B7               	movwf	___flmul@bexp
  4904  0CAC                     l2598:
  4905  0CAC  1FA6               	btfss	___flmul@b+2,7
  4906  0CAD  2CAF               	goto	u3811
  4907  0CAE  2CB0               	goto	u3810
  4908  0CAF                     u3811:
  4909  0CAF  2CB1               	goto	l2602
  4910  0CB0                     u3810:
  4911  0CB0                     l2600:
  4912  0CB0  1437               	bsf	___flmul@bexp,0
  4913  0CB1                     l2602:
  4914  0CB1  0837               	movf	___flmul@bexp,w
  4915  0CB2  1903               	btfsc	3,2
  4916  0CB3  2CB5               	goto	u3821
  4917  0CB4  2CB6               	goto	u3820
  4918  0CB5                     u3821:
  4919  0CB5  2CC5               	goto	l2610
  4920  0CB6                     u3820:
  4921  0CB6                     l2604:
  4922  0CB6  0A37               	incf	___flmul@bexp,w
  4923  0CB7  1D03               	btfss	3,2
  4924  0CB8  2CBA               	goto	u3831
  4925  0CB9  2CBB               	goto	u3830
  4926  0CBA                     u3831:
  4927  0CBA  2CC3               	goto	l2608
  4928  0CBB                     u3830:
  4929  0CBB                     l2606:
  4930  0CBB  3000               	movlw	0
  4931  0CBC  00A7               	movwf	___flmul@b+3
  4932  0CBD  3000               	movlw	0
  4933  0CBE  00A6               	movwf	___flmul@b+2
  4934  0CBF  3000               	movlw	0
  4935  0CC0  00A5               	movwf	___flmul@b+1
  4936  0CC1  3000               	movlw	0
  4937  0CC2  00A4               	movwf	___flmul@b
  4938  0CC3                     l2608:
  4939  0CC3  17A6               	bsf	___flmul@b+2,7
  4940  0CC4  2CCD               	goto	l2612
  4941  0CC5                     l2610:
  4942  0CC5  3000               	movlw	0
  4943  0CC6  00A7               	movwf	___flmul@b+3
  4944  0CC7  3000               	movlw	0
  4945  0CC8  00A6               	movwf	___flmul@b+2
  4946  0CC9  3000               	movlw	0
  4947  0CCA  00A5               	movwf	___flmul@b+1
  4948  0CCB  3000               	movlw	0
  4949  0CCC  00A4               	movwf	___flmul@b
  4950  0CCD                     l2612:
  4951  0CCD  082B               	movf	___flmul@a+3,w
  4952  0CCE  3980               	andlw	128
  4953  0CCF  00FF               	movwf	btemp+1
  4954  0CD0  087F               	movf	btemp+1,w
  4955  0CD1  06B1               	xorwf	___flmul@sign,f
  4956  0CD2                     l2614:
  4957  0CD2  082B               	movf	___flmul@a+3,w
  4958  0CD3  00AC               	movwf	??___flmul
  4959  0CD4  072C               	addwf	??___flmul,w
  4960  0CD5  00FF               	movwf	btemp+1
  4961  0CD6  087F               	movf	btemp+1,w
  4962  0CD7  00B6               	movwf	___flmul@aexp
  4963  0CD8                     l2616:
  4964  0CD8  1FAA               	btfss	___flmul@a+2,7
  4965  0CD9  2CDB               	goto	u3841
  4966  0CDA  2CDC               	goto	u3840
  4967  0CDB                     u3841:
  4968  0CDB  2CDD               	goto	l2620
  4969  0CDC                     u3840:
  4970  0CDC                     l2618:
  4971  0CDC  1436               	bsf	___flmul@aexp,0
  4972  0CDD                     l2620:
  4973  0CDD  0836               	movf	___flmul@aexp,w
  4974  0CDE  1903               	btfsc	3,2
  4975  0CDF  2CE1               	goto	u3851
  4976  0CE0  2CE2               	goto	u3850
  4977  0CE1                     u3851:
  4978  0CE1  2CF1               	goto	l2628
  4979  0CE2                     u3850:
  4980  0CE2                     l2622:
  4981  0CE2  0A36               	incf	___flmul@aexp,w
  4982  0CE3  1D03               	btfss	3,2
  4983  0CE4  2CE6               	goto	u3861
  4984  0CE5  2CE7               	goto	u3860
  4985  0CE6                     u3861:
  4986  0CE6  2CEF               	goto	l2626
  4987  0CE7                     u3860:
  4988  0CE7                     l2624:
  4989  0CE7  3000               	movlw	0
  4990  0CE8  00AB               	movwf	___flmul@a+3
  4991  0CE9  3000               	movlw	0
  4992  0CEA  00AA               	movwf	___flmul@a+2
  4993  0CEB  3000               	movlw	0
  4994  0CEC  00A9               	movwf	___flmul@a+1
  4995  0CED  3000               	movlw	0
  4996  0CEE  00A8               	movwf	___flmul@a
  4997  0CEF                     l2626:
  4998  0CEF  17AA               	bsf	___flmul@a+2,7
  4999  0CF0  2CF9               	goto	l2630
  5000  0CF1                     l2628:
  5001  0CF1  3000               	movlw	0
  5002  0CF2  00AB               	movwf	___flmul@a+3
  5003  0CF3  3000               	movlw	0
  5004  0CF4  00AA               	movwf	___flmul@a+2
  5005  0CF5  3000               	movlw	0
  5006  0CF6  00A9               	movwf	___flmul@a+1
  5007  0CF7  3000               	movlw	0
  5008  0CF8  00A8               	movwf	___flmul@a
  5009  0CF9                     l2630:
  5010  0CF9  0836               	movf	___flmul@aexp,w
  5011  0CFA  1903               	btfsc	3,2
  5012  0CFB  2CFD               	goto	u3871
  5013  0CFC  2CFE               	goto	u3870
  5014  0CFD                     u3871:
  5015  0CFD  2D03               	goto	l2634
  5016  0CFE                     u3870:
  5017  0CFE                     l2632:
  5018  0CFE  0837               	movf	___flmul@bexp,w
  5019  0CFF  1D03               	btfss	3,2
  5020  0D00  2D02               	goto	u3881
  5021  0D01  2D03               	goto	u3880
  5022  0D02                     u3881:
  5023  0D02  2D0C               	goto	l2638
  5024  0D03                     u3880:
  5025  0D03                     l2634:
  5026  0D03  3000               	movlw	0
  5027  0D04  00A7               	movwf	?___flmul+3
  5028  0D05  3000               	movlw	0
  5029  0D06  00A6               	movwf	?___flmul+2
  5030  0D07  3000               	movlw	0
  5031  0D08  00A5               	movwf	?___flmul+1
  5032  0D09  3000               	movlw	0
  5033  0D0A  00A4               	movwf	?___flmul
  5034  0D0B  2FFF               	goto	l727
  5035  0D0C                     l2638:
  5036  0D0C  0824               	movf	___flmul@b,w
  5037  0D0D  00FF               	movwf	btemp+1
  5038  0D0E  087F               	movf	btemp+1,w
  5039  0D0F  00F2               	movwf	__Umul8_16@multiplicand
  5040  0D10  082A               	movf	___flmul@a+2,w
  5041  0D11  160A  118A  2099  120A  158A  	fcall	__Umul8_16
  5042  0D16  0873               	movf	?__Umul8_16+1,w
  5043  0D17  1283               	bcf	3,5	;RP0=0, select bank0
  5044  0D18  1303               	bcf	3,6	;RP1=0, select bank0
  5045  0D19  00BD               	movwf	___flmul@temp+1
  5046  0D1A  0872               	movf	?__Umul8_16,w
  5047  0D1B  00BC               	movwf	___flmul@temp
  5048  0D1C                     l2640:
  5049  0D1C  083C               	movf	___flmul@temp,w
  5050  0D1D  00AC               	movwf	??___flmul
  5051  0D1E  01AD               	clrf	??___flmul+1
  5052  0D1F  01AE               	clrf	??___flmul+2
  5053  0D20  01AF               	clrf	??___flmul+3
  5054  0D21  082F               	movf	??___flmul+3,w
  5055  0D22  00B5               	movwf	___flmul@grs+3
  5056  0D23  082E               	movf	??___flmul+2,w
  5057  0D24  00B4               	movwf	___flmul@grs+2
  5058  0D25  082D               	movf	??___flmul+1,w
  5059  0D26  00B3               	movwf	___flmul@grs+1
  5060  0D27  082C               	movf	??___flmul,w
  5061  0D28  00B2               	movwf	___flmul@grs
  5062  0D29                     l2642:
  5063  0D29  083D               	movf	___flmul@temp+1,w
  5064  0D2A  00AC               	movwf	??___flmul
  5065  0D2B  01AD               	clrf	??___flmul+1
  5066  0D2C  01AE               	clrf	??___flmul+2
  5067  0D2D  01AF               	clrf	??___flmul+3
  5068  0D2E  082F               	movf	??___flmul+3,w
  5069  0D2F  00BB               	movwf	___flmul@prod+3
  5070  0D30  082E               	movf	??___flmul+2,w
  5071  0D31  00BA               	movwf	___flmul@prod+2
  5072  0D32  082D               	movf	??___flmul+1,w
  5073  0D33  00B9               	movwf	___flmul@prod+1
  5074  0D34  082C               	movf	??___flmul,w
  5075  0D35  00B8               	movwf	___flmul@prod
  5076  0D36  0825               	movf	___flmul@b+1,w
  5077  0D37  00FF               	movwf	btemp+1
  5078  0D38  087F               	movf	btemp+1,w
  5079  0D39  00F2               	movwf	__Umul8_16@multiplicand
  5080  0D3A  0829               	movf	___flmul@a+1,w
  5081  0D3B  160A  118A  2099  120A  158A  	fcall	__Umul8_16
  5082  0D40  0873               	movf	?__Umul8_16+1,w
  5083  0D41  1283               	bcf	3,5	;RP0=0, select bank0
  5084  0D42  1303               	bcf	3,6	;RP1=0, select bank0
  5085  0D43  00BD               	movwf	___flmul@temp+1
  5086  0D44  0872               	movf	?__Umul8_16,w
  5087  0D45  00BC               	movwf	___flmul@temp
  5088  0D46                     l2644:
  5089  0D46  083C               	movf	___flmul@temp,w
  5090  0D47  00AC               	movwf	??___flmul
  5091  0D48  01AD               	clrf	??___flmul+1
  5092  0D49  01AE               	clrf	??___flmul+2
  5093  0D4A  01AF               	clrf	??___flmul+3
  5094  0D4B  082C               	movf	??___flmul,w
  5095  0D4C  07B2               	addwf	___flmul@grs,f
  5096  0D4D  082D               	movf	??___flmul+1,w
  5097  0D4E  1103               	clrz
  5098  0D4F  1803               	skipnc
  5099  0D50  3E01               	addlw	1
  5100  0D51  1903               	skipnz
  5101  0D52  2D54               	goto	u3891
  5102  0D53  07B3               	addwf	___flmul@grs+1,f
  5103  0D54                     u3891:
  5104  0D54  082E               	movf	??___flmul+2,w
  5105  0D55  1103               	clrz
  5106  0D56  1803               	skipnc
  5107  0D57  3E01               	addlw	1
  5108  0D58  1903               	skipnz
  5109  0D59  2D5B               	goto	u3892
  5110  0D5A  07B4               	addwf	___flmul@grs+2,f
  5111  0D5B                     u3892:
  5112  0D5B  082F               	movf	??___flmul+3,w
  5113  0D5C  1103               	clrz
  5114  0D5D  1803               	skipnc
  5115  0D5E  3E01               	addlw	1
  5116  0D5F  1903               	skipnz
  5117  0D60  2D62               	goto	u3893
  5118  0D61  07B5               	addwf	___flmul@grs+3,f
  5119  0D62                     u3893:
  5120  0D62                     l2646:
  5121  0D62  083D               	movf	___flmul@temp+1,w
  5122  0D63  00AC               	movwf	??___flmul
  5123  0D64  01AD               	clrf	??___flmul+1
  5124  0D65  01AE               	clrf	??___flmul+2
  5125  0D66  01AF               	clrf	??___flmul+3
  5126  0D67  082C               	movf	??___flmul,w
  5127  0D68  07B8               	addwf	___flmul@prod,f
  5128  0D69  082D               	movf	??___flmul+1,w
  5129  0D6A  1103               	clrz
  5130  0D6B  1803               	skipnc
  5131  0D6C  3E01               	addlw	1
  5132  0D6D  1903               	skipnz
  5133  0D6E  2D70               	goto	u3901
  5134  0D6F  07B9               	addwf	___flmul@prod+1,f
  5135  0D70                     u3901:
  5136  0D70  082E               	movf	??___flmul+2,w
  5137  0D71  1103               	clrz
  5138  0D72  1803               	skipnc
  5139  0D73  3E01               	addlw	1
  5140  0D74  1903               	skipnz
  5141  0D75  2D77               	goto	u3902
  5142  0D76  07BA               	addwf	___flmul@prod+2,f
  5143  0D77                     u3902:
  5144  0D77  082F               	movf	??___flmul+3,w
  5145  0D78  1103               	clrz
  5146  0D79  1803               	skipnc
  5147  0D7A  3E01               	addlw	1
  5148  0D7B  1903               	skipnz
  5149  0D7C  2D7E               	goto	u3903
  5150  0D7D  07BB               	addwf	___flmul@prod+3,f
  5151  0D7E                     u3903:
  5152  0D7E  0826               	movf	___flmul@b+2,w
  5153  0D7F  00FF               	movwf	btemp+1
  5154  0D80  087F               	movf	btemp+1,w
  5155  0D81  00F2               	movwf	__Umul8_16@multiplicand
  5156  0D82  0828               	movf	___flmul@a,w
  5157  0D83  160A  118A  2099  120A  158A  	fcall	__Umul8_16
  5158  0D88  0873               	movf	?__Umul8_16+1,w
  5159  0D89  1283               	bcf	3,5	;RP0=0, select bank0
  5160  0D8A  1303               	bcf	3,6	;RP1=0, select bank0
  5161  0D8B  00BD               	movwf	___flmul@temp+1
  5162  0D8C  0872               	movf	?__Umul8_16,w
  5163  0D8D  00BC               	movwf	___flmul@temp
  5164  0D8E                     l2648:
  5165  0D8E  083C               	movf	___flmul@temp,w
  5166  0D8F  00AC               	movwf	??___flmul
  5167  0D90  01AD               	clrf	??___flmul+1
  5168  0D91  01AE               	clrf	??___flmul+2
  5169  0D92  01AF               	clrf	??___flmul+3
  5170  0D93  082C               	movf	??___flmul,w
  5171  0D94  07B2               	addwf	___flmul@grs,f
  5172  0D95  082D               	movf	??___flmul+1,w
  5173  0D96  1103               	clrz
  5174  0D97  1803               	skipnc
  5175  0D98  3E01               	addlw	1
  5176  0D99  1903               	skipnz
  5177  0D9A  2D9C               	goto	u3911
  5178  0D9B  07B3               	addwf	___flmul@grs+1,f
  5179  0D9C                     u3911:
  5180  0D9C  082E               	movf	??___flmul+2,w
  5181  0D9D  1103               	clrz
  5182  0D9E  1803               	skipnc
  5183  0D9F  3E01               	addlw	1
  5184  0DA0  1903               	skipnz
  5185  0DA1  2DA3               	goto	u3912
  5186  0DA2  07B4               	addwf	___flmul@grs+2,f
  5187  0DA3                     u3912:
  5188  0DA3  082F               	movf	??___flmul+3,w
  5189  0DA4  1103               	clrz
  5190  0DA5  1803               	skipnc
  5191  0DA6  3E01               	addlw	1
  5192  0DA7  1903               	skipnz
  5193  0DA8  2DAA               	goto	u3913
  5194  0DA9  07B5               	addwf	___flmul@grs+3,f
  5195  0DAA                     u3913:
  5196  0DAA                     l2650:
  5197  0DAA  083D               	movf	___flmul@temp+1,w
  5198  0DAB  00AC               	movwf	??___flmul
  5199  0DAC  01AD               	clrf	??___flmul+1
  5200  0DAD  01AE               	clrf	??___flmul+2
  5201  0DAE  01AF               	clrf	??___flmul+3
  5202  0DAF  082C               	movf	??___flmul,w
  5203  0DB0  07B8               	addwf	___flmul@prod,f
  5204  0DB1  082D               	movf	??___flmul+1,w
  5205  0DB2  1103               	clrz
  5206  0DB3  1803               	skipnc
  5207  0DB4  3E01               	addlw	1
  5208  0DB5  1903               	skipnz
  5209  0DB6  2DB8               	goto	u3921
  5210  0DB7  07B9               	addwf	___flmul@prod+1,f
  5211  0DB8                     u3921:
  5212  0DB8  082E               	movf	??___flmul+2,w
  5213  0DB9  1103               	clrz
  5214  0DBA  1803               	skipnc
  5215  0DBB  3E01               	addlw	1
  5216  0DBC  1903               	skipnz
  5217  0DBD  2DBF               	goto	u3922
  5218  0DBE  07BA               	addwf	___flmul@prod+2,f
  5219  0DBF                     u3922:
  5220  0DBF  082F               	movf	??___flmul+3,w
  5221  0DC0  1103               	clrz
  5222  0DC1  1803               	skipnc
  5223  0DC2  3E01               	addlw	1
  5224  0DC3  1903               	skipnz
  5225  0DC4  2DC6               	goto	u3923
  5226  0DC5  07BB               	addwf	___flmul@prod+3,f
  5227  0DC6                     u3923:
  5228  0DC6                     l2652:
  5229  0DC6  3008               	movlw	8
  5230  0DC7  00AC               	movwf	??___flmul
  5231  0DC8                     u3935:
  5232  0DC8  1003               	clrc
  5233  0DC9  0DB2               	rlf	___flmul@grs,f
  5234  0DCA  0DB3               	rlf	___flmul@grs+1,f
  5235  0DCB  0DB4               	rlf	___flmul@grs+2,f
  5236  0DCC  0DB5               	rlf	___flmul@grs+3,f
  5237  0DCD  0BAC               	decfsz	??___flmul,f
  5238  0DCE  2DC8               	goto	u3935
  5239  0DCF                     l2654:
  5240  0DCF  0825               	movf	___flmul@b+1,w
  5241  0DD0  00FF               	movwf	btemp+1
  5242  0DD1  087F               	movf	btemp+1,w
  5243  0DD2  00F2               	movwf	__Umul8_16@multiplicand
  5244  0DD3  0828               	movf	___flmul@a,w
  5245  0DD4  160A  118A  2099  120A  158A  	fcall	__Umul8_16
  5246  0DD9  0873               	movf	?__Umul8_16+1,w
  5247  0DDA  1283               	bcf	3,5	;RP0=0, select bank0
  5248  0DDB  1303               	bcf	3,6	;RP1=0, select bank0
  5249  0DDC  00BD               	movwf	___flmul@temp+1
  5250  0DDD  0872               	movf	?__Umul8_16,w
  5251  0DDE  00BC               	movwf	___flmul@temp
  5252  0DDF                     l2656:
  5253  0DDF  083C               	movf	___flmul@temp,w
  5254  0DE0  00AC               	movwf	??___flmul
  5255  0DE1  083D               	movf	___flmul@temp+1,w
  5256  0DE2  00AD               	movwf	??___flmul+1
  5257  0DE3  01AE               	clrf	??___flmul+2
  5258  0DE4  01AF               	clrf	??___flmul+3
  5259  0DE5  082C               	movf	??___flmul,w
  5260  0DE6  07B2               	addwf	___flmul@grs,f
  5261  0DE7  082D               	movf	??___flmul+1,w
  5262  0DE8  1103               	clrz
  5263  0DE9  1803               	skipnc
  5264  0DEA  3E01               	addlw	1
  5265  0DEB  1903               	skipnz
  5266  0DEC  2DEE               	goto	u3941
  5267  0DED  07B3               	addwf	___flmul@grs+1,f
  5268  0DEE                     u3941:
  5269  0DEE  082E               	movf	??___flmul+2,w
  5270  0DEF  1103               	clrz
  5271  0DF0  1803               	skipnc
  5272  0DF1  3E01               	addlw	1
  5273  0DF2  1903               	skipnz
  5274  0DF3  2DF5               	goto	u3942
  5275  0DF4  07B4               	addwf	___flmul@grs+2,f
  5276  0DF5                     u3942:
  5277  0DF5  082F               	movf	??___flmul+3,w
  5278  0DF6  1103               	clrz
  5279  0DF7  1803               	skipnc
  5280  0DF8  3E01               	addlw	1
  5281  0DF9  1903               	skipnz
  5282  0DFA  2DFC               	goto	u3943
  5283  0DFB  07B5               	addwf	___flmul@grs+3,f
  5284  0DFC                     u3943:
  5285  0DFC                     l2658:
  5286  0DFC  0824               	movf	___flmul@b,w
  5287  0DFD  00FF               	movwf	btemp+1
  5288  0DFE  087F               	movf	btemp+1,w
  5289  0DFF  00F2               	movwf	__Umul8_16@multiplicand
  5290  0E00  0829               	movf	___flmul@a+1,w
  5291  0E01  160A  118A  2099  120A  158A  	fcall	__Umul8_16
  5292  0E06  0873               	movf	?__Umul8_16+1,w
  5293  0E07  1283               	bcf	3,5	;RP0=0, select bank0
  5294  0E08  1303               	bcf	3,6	;RP1=0, select bank0
  5295  0E09  00BD               	movwf	___flmul@temp+1
  5296  0E0A  0872               	movf	?__Umul8_16,w
  5297  0E0B  00BC               	movwf	___flmul@temp
  5298  0E0C                     l2660:
  5299  0E0C  083C               	movf	___flmul@temp,w
  5300  0E0D  00AC               	movwf	??___flmul
  5301  0E0E  083D               	movf	___flmul@temp+1,w
  5302  0E0F  00AD               	movwf	??___flmul+1
  5303  0E10  01AE               	clrf	??___flmul+2
  5304  0E11  01AF               	clrf	??___flmul+3
  5305  0E12  082C               	movf	??___flmul,w
  5306  0E13  07B2               	addwf	___flmul@grs,f
  5307  0E14  082D               	movf	??___flmul+1,w
  5308  0E15  1103               	clrz
  5309  0E16  1803               	skipnc
  5310  0E17  3E01               	addlw	1
  5311  0E18  1903               	skipnz
  5312  0E19  2E1B               	goto	u3951
  5313  0E1A  07B3               	addwf	___flmul@grs+1,f
  5314  0E1B                     u3951:
  5315  0E1B  082E               	movf	??___flmul+2,w
  5316  0E1C  1103               	clrz
  5317  0E1D  1803               	skipnc
  5318  0E1E  3E01               	addlw	1
  5319  0E1F  1903               	skipnz
  5320  0E20  2E22               	goto	u3952
  5321  0E21  07B4               	addwf	___flmul@grs+2,f
  5322  0E22                     u3952:
  5323  0E22  082F               	movf	??___flmul+3,w
  5324  0E23  1103               	clrz
  5325  0E24  1803               	skipnc
  5326  0E25  3E01               	addlw	1
  5327  0E26  1903               	skipnz
  5328  0E27  2E29               	goto	u3953
  5329  0E28  07B5               	addwf	___flmul@grs+3,f
  5330  0E29                     u3953:
  5331  0E29                     l2662:
  5332  0E29  3008               	movlw	8
  5333  0E2A  00AC               	movwf	??___flmul
  5334  0E2B                     u3965:
  5335  0E2B  1003               	clrc
  5336  0E2C  0DB2               	rlf	___flmul@grs,f
  5337  0E2D  0DB3               	rlf	___flmul@grs+1,f
  5338  0E2E  0DB4               	rlf	___flmul@grs+2,f
  5339  0E2F  0DB5               	rlf	___flmul@grs+3,f
  5340  0E30  0BAC               	decfsz	??___flmul,f
  5341  0E31  2E2B               	goto	u3965
  5342  0E32  0824               	movf	___flmul@b,w
  5343  0E33  00FF               	movwf	btemp+1
  5344  0E34  087F               	movf	btemp+1,w
  5345  0E35  00F2               	movwf	__Umul8_16@multiplicand
  5346  0E36  0828               	movf	___flmul@a,w
  5347  0E37  160A  118A  2099  120A  158A  	fcall	__Umul8_16
  5348  0E3C  0873               	movf	?__Umul8_16+1,w
  5349  0E3D  1283               	bcf	3,5	;RP0=0, select bank0
  5350  0E3E  1303               	bcf	3,6	;RP1=0, select bank0
  5351  0E3F  00BD               	movwf	___flmul@temp+1
  5352  0E40  0872               	movf	?__Umul8_16,w
  5353  0E41  00BC               	movwf	___flmul@temp
  5354  0E42                     l2664:
  5355  0E42  083C               	movf	___flmul@temp,w
  5356  0E43  00AC               	movwf	??___flmul
  5357  0E44  083D               	movf	___flmul@temp+1,w
  5358  0E45  00AD               	movwf	??___flmul+1
  5359  0E46  01AE               	clrf	??___flmul+2
  5360  0E47  01AF               	clrf	??___flmul+3
  5361  0E48  082C               	movf	??___flmul,w
  5362  0E49  07B2               	addwf	___flmul@grs,f
  5363  0E4A  082D               	movf	??___flmul+1,w
  5364  0E4B  1103               	clrz
  5365  0E4C  1803               	skipnc
  5366  0E4D  3E01               	addlw	1
  5367  0E4E  1903               	skipnz
  5368  0E4F  2E51               	goto	u3971
  5369  0E50  07B3               	addwf	___flmul@grs+1,f
  5370  0E51                     u3971:
  5371  0E51  082E               	movf	??___flmul+2,w
  5372  0E52  1103               	clrz
  5373  0E53  1803               	skipnc
  5374  0E54  3E01               	addlw	1
  5375  0E55  1903               	skipnz
  5376  0E56  2E58               	goto	u3972
  5377  0E57  07B4               	addwf	___flmul@grs+2,f
  5378  0E58                     u3972:
  5379  0E58  082F               	movf	??___flmul+3,w
  5380  0E59  1103               	clrz
  5381  0E5A  1803               	skipnc
  5382  0E5B  3E01               	addlw	1
  5383  0E5C  1903               	skipnz
  5384  0E5D  2E5F               	goto	u3973
  5385  0E5E  07B5               	addwf	___flmul@grs+3,f
  5386  0E5F                     u3973:
  5387  0E5F                     l2666:
  5388  0E5F  0825               	movf	___flmul@b+1,w
  5389  0E60  00FF               	movwf	btemp+1
  5390  0E61  087F               	movf	btemp+1,w
  5391  0E62  00F2               	movwf	__Umul8_16@multiplicand
  5392  0E63  082A               	movf	___flmul@a+2,w
  5393  0E64  160A  118A  2099  120A  158A  	fcall	__Umul8_16
  5394  0E69  0873               	movf	?__Umul8_16+1,w
  5395  0E6A  1283               	bcf	3,5	;RP0=0, select bank0
  5396  0E6B  1303               	bcf	3,6	;RP1=0, select bank0
  5397  0E6C  00BD               	movwf	___flmul@temp+1
  5398  0E6D  0872               	movf	?__Umul8_16,w
  5399  0E6E  00BC               	movwf	___flmul@temp
  5400  0E6F  083C               	movf	___flmul@temp,w
  5401  0E70  00AC               	movwf	??___flmul
  5402  0E71  083D               	movf	___flmul@temp+1,w
  5403  0E72  00AD               	movwf	??___flmul+1
  5404  0E73  01AE               	clrf	??___flmul+2
  5405  0E74  01AF               	clrf	??___flmul+3
  5406  0E75  082C               	movf	??___flmul,w
  5407  0E76  07B8               	addwf	___flmul@prod,f
  5408  0E77  082D               	movf	??___flmul+1,w
  5409  0E78  1103               	clrz
  5410  0E79  1803               	skipnc
  5411  0E7A  3E01               	addlw	1
  5412  0E7B  1903               	skipnz
  5413  0E7C  2E7E               	goto	u3981
  5414  0E7D  07B9               	addwf	___flmul@prod+1,f
  5415  0E7E                     u3981:
  5416  0E7E  082E               	movf	??___flmul+2,w
  5417  0E7F  1103               	clrz
  5418  0E80  1803               	skipnc
  5419  0E81  3E01               	addlw	1
  5420  0E82  1903               	skipnz
  5421  0E83  2E85               	goto	u3982
  5422  0E84  07BA               	addwf	___flmul@prod+2,f
  5423  0E85                     u3982:
  5424  0E85  082F               	movf	??___flmul+3,w
  5425  0E86  1103               	clrz
  5426  0E87  1803               	skipnc
  5427  0E88  3E01               	addlw	1
  5428  0E89  1903               	skipnz
  5429  0E8A  2E8C               	goto	u3983
  5430  0E8B  07BB               	addwf	___flmul@prod+3,f
  5431  0E8C                     u3983:
  5432  0E8C                     l2668:
  5433  0E8C  0826               	movf	___flmul@b+2,w
  5434  0E8D  00FF               	movwf	btemp+1
  5435  0E8E  087F               	movf	btemp+1,w
  5436  0E8F  00F2               	movwf	__Umul8_16@multiplicand
  5437  0E90  0829               	movf	___flmul@a+1,w
  5438  0E91  160A  118A  2099  120A  158A  	fcall	__Umul8_16
  5439  0E96  0873               	movf	?__Umul8_16+1,w
  5440  0E97  1283               	bcf	3,5	;RP0=0, select bank0
  5441  0E98  1303               	bcf	3,6	;RP1=0, select bank0
  5442  0E99  00BD               	movwf	___flmul@temp+1
  5443  0E9A  0872               	movf	?__Umul8_16,w
  5444  0E9B  00BC               	movwf	___flmul@temp
  5445  0E9C                     l2670:
  5446  0E9C  083C               	movf	___flmul@temp,w
  5447  0E9D  00AC               	movwf	??___flmul
  5448  0E9E  083D               	movf	___flmul@temp+1,w
  5449  0E9F  00AD               	movwf	??___flmul+1
  5450  0EA0  01AE               	clrf	??___flmul+2
  5451  0EA1  01AF               	clrf	??___flmul+3
  5452  0EA2  082C               	movf	??___flmul,w
  5453  0EA3  07B8               	addwf	___flmul@prod,f
  5454  0EA4  082D               	movf	??___flmul+1,w
  5455  0EA5  1103               	clrz
  5456  0EA6  1803               	skipnc
  5457  0EA7  3E01               	addlw	1
  5458  0EA8  1903               	skipnz
  5459  0EA9  2EAB               	goto	u3991
  5460  0EAA  07B9               	addwf	___flmul@prod+1,f
  5461  0EAB                     u3991:
  5462  0EAB  082E               	movf	??___flmul+2,w
  5463  0EAC  1103               	clrz
  5464  0EAD  1803               	skipnc
  5465  0EAE  3E01               	addlw	1
  5466  0EAF  1903               	skipnz
  5467  0EB0  2EB2               	goto	u3992
  5468  0EB1  07BA               	addwf	___flmul@prod+2,f
  5469  0EB2                     u3992:
  5470  0EB2  082F               	movf	??___flmul+3,w
  5471  0EB3  1103               	clrz
  5472  0EB4  1803               	skipnc
  5473  0EB5  3E01               	addlw	1
  5474  0EB6  1903               	skipnz
  5475  0EB7  2EB9               	goto	u3993
  5476  0EB8  07BB               	addwf	___flmul@prod+3,f
  5477  0EB9                     u3993:
  5478  0EB9  0826               	movf	___flmul@b+2,w
  5479  0EBA  00FF               	movwf	btemp+1
  5480  0EBB  087F               	movf	btemp+1,w
  5481  0EBC  00F2               	movwf	__Umul8_16@multiplicand
  5482  0EBD  082A               	movf	___flmul@a+2,w
  5483  0EBE  160A  118A  2099  120A  158A  	fcall	__Umul8_16
  5484  0EC3  0873               	movf	?__Umul8_16+1,w
  5485  0EC4  1283               	bcf	3,5	;RP0=0, select bank0
  5486  0EC5  1303               	bcf	3,6	;RP1=0, select bank0
  5487  0EC6  00BD               	movwf	___flmul@temp+1
  5488  0EC7  0872               	movf	?__Umul8_16,w
  5489  0EC8  00BC               	movwf	___flmul@temp
  5490  0EC9                     l2672:
  5491  0EC9  083C               	movf	___flmul@temp,w
  5492  0ECA  00AC               	movwf	??___flmul
  5493  0ECB  083D               	movf	___flmul@temp+1,w
  5494  0ECC  00AD               	movwf	??___flmul+1
  5495  0ECD  01AE               	clrf	??___flmul+2
  5496  0ECE  01AF               	clrf	??___flmul+3
  5497  0ECF  3008               	movlw	8
  5498  0ED0                     u4005:
  5499  0ED0  1003               	clrc
  5500  0ED1  0DAC               	rlf	??___flmul,f
  5501  0ED2  0DAD               	rlf	??___flmul+1,f
  5502  0ED3  0DAE               	rlf	??___flmul+2,f
  5503  0ED4  0DAF               	rlf	??___flmul+3,f
  5504  0ED5                     u4000:
  5505  0ED5  3EFF               	addlw	-1
  5506  0ED6  1D03               	skipz
  5507  0ED7  2ED0               	goto	u4005
  5508  0ED8  082C               	movf	??___flmul,w
  5509  0ED9  07B8               	addwf	___flmul@prod,f
  5510  0EDA  082D               	movf	??___flmul+1,w
  5511  0EDB  1103               	clrz
  5512  0EDC  1803               	skipnc
  5513  0EDD  3E01               	addlw	1
  5514  0EDE  1903               	skipnz
  5515  0EDF  2EE1               	goto	u4011
  5516  0EE0  07B9               	addwf	___flmul@prod+1,f
  5517  0EE1                     u4011:
  5518  0EE1  082E               	movf	??___flmul+2,w
  5519  0EE2  1103               	clrz
  5520  0EE3  1803               	skipnc
  5521  0EE4  3E01               	addlw	1
  5522  0EE5  1903               	skipnz
  5523  0EE6  2EE8               	goto	u4012
  5524  0EE7  07BA               	addwf	___flmul@prod+2,f
  5525  0EE8                     u4012:
  5526  0EE8  082F               	movf	??___flmul+3,w
  5527  0EE9  1103               	clrz
  5528  0EEA  1803               	skipnc
  5529  0EEB  3E01               	addlw	1
  5530  0EEC  1903               	skipnz
  5531  0EED  2EEF               	goto	u4013
  5532  0EEE  07BB               	addwf	___flmul@prod+3,f
  5533  0EEF                     u4013:
  5534  0EEF                     l2674:
  5535  0EEF  0832               	movf	___flmul@grs,w
  5536  0EF0  00AC               	movwf	??___flmul
  5537  0EF1  0833               	movf	___flmul@grs+1,w
  5538  0EF2  00AD               	movwf	??___flmul+1
  5539  0EF3  0834               	movf	___flmul@grs+2,w
  5540  0EF4  00AE               	movwf	??___flmul+2
  5541  0EF5  0835               	movf	___flmul@grs+3,w
  5542  0EF6  00AF               	movwf	??___flmul+3
  5543  0EF7  3018               	movlw	24
  5544  0EF8                     u4025:
  5545  0EF8  1003               	clrc
  5546  0EF9  0CAF               	rrf	??___flmul+3,f
  5547  0EFA  0CAE               	rrf	??___flmul+2,f
  5548  0EFB  0CAD               	rrf	??___flmul+1,f
  5549  0EFC  0CAC               	rrf	??___flmul,f
  5550  0EFD                     u4020:
  5551  0EFD  3EFF               	addlw	-1
  5552  0EFE  1D03               	skipz
  5553  0EFF  2EF8               	goto	u4025
  5554  0F00  082C               	movf	??___flmul,w
  5555  0F01  07B8               	addwf	___flmul@prod,f
  5556  0F02  082D               	movf	??___flmul+1,w
  5557  0F03  1103               	clrz
  5558  0F04  1803               	skipnc
  5559  0F05  3E01               	addlw	1
  5560  0F06  1903               	skipnz
  5561  0F07  2F09               	goto	u4031
  5562  0F08  07B9               	addwf	___flmul@prod+1,f
  5563  0F09                     u4031:
  5564  0F09  082E               	movf	??___flmul+2,w
  5565  0F0A  1103               	clrz
  5566  0F0B  1803               	skipnc
  5567  0F0C  3E01               	addlw	1
  5568  0F0D  1903               	skipnz
  5569  0F0E  2F10               	goto	u4032
  5570  0F0F  07BA               	addwf	___flmul@prod+2,f
  5571  0F10                     u4032:
  5572  0F10  082F               	movf	??___flmul+3,w
  5573  0F11  1103               	clrz
  5574  0F12  1803               	skipnc
  5575  0F13  3E01               	addlw	1
  5576  0F14  1903               	skipnz
  5577  0F15  2F17               	goto	u4033
  5578  0F16  07BB               	addwf	___flmul@prod+3,f
  5579  0F17                     u4033:
  5580  0F17                     l2676:
  5581  0F17  3008               	movlw	8
  5582  0F18  00AC               	movwf	??___flmul
  5583  0F19                     u4045:
  5584  0F19  1003               	clrc
  5585  0F1A  0DB2               	rlf	___flmul@grs,f
  5586  0F1B  0DB3               	rlf	___flmul@grs+1,f
  5587  0F1C  0DB4               	rlf	___flmul@grs+2,f
  5588  0F1D  0DB5               	rlf	___flmul@grs+3,f
  5589  0F1E  0BAC               	decfsz	??___flmul,f
  5590  0F1F  2F19               	goto	u4045
  5591  0F20                     l2678:
  5592  0F20  0837               	movf	___flmul@bexp,w
  5593  0F21  0736               	addwf	___flmul@aexp,w
  5594  0F22  00AC               	movwf	??___flmul
  5595  0F23  01AD               	clrf	??___flmul+1
  5596  0F24  0DAD               	rlf	??___flmul+1,f
  5597  0F25  082C               	movf	??___flmul,w
  5598  0F26  3E82               	addlw	130
  5599  0F27  00BC               	movwf	___flmul@temp
  5600  0F28  082D               	movf	??___flmul+1,w
  5601  0F29  1803               	skipnc
  5602  0F2A  3E01               	addlw	1
  5603  0F2B  3EFF               	addlw	255
  5604  0F2C  00BD               	movwf	___flmul@temp+1
  5605  0F2D  2F4B               	goto	l2690
  5606  0F2E                     l2680:
  5607  0F2E  3001               	movlw	1
  5608  0F2F  00AC               	movwf	??___flmul
  5609  0F30                     u4055:
  5610  0F30  1003               	clrc
  5611  0F31  0DB8               	rlf	___flmul@prod,f
  5612  0F32  0DB9               	rlf	___flmul@prod+1,f
  5613  0F33  0DBA               	rlf	___flmul@prod+2,f
  5614  0F34  0DBB               	rlf	___flmul@prod+3,f
  5615  0F35  0BAC               	decfsz	??___flmul,f
  5616  0F36  2F30               	goto	u4055
  5617  0F37                     l2682:
  5618  0F37  1FB5               	btfss	___flmul@grs+3,7
  5619  0F38  2F3A               	goto	u4061
  5620  0F39  2F3B               	goto	u4060
  5621  0F3A                     u4061:
  5622  0F3A  2F3C               	goto	l2686
  5623  0F3B                     u4060:
  5624  0F3B                     l2684:
  5625  0F3B  1438               	bsf	___flmul@prod,0
  5626  0F3C                     l2686:
  5627  0F3C  3001               	movlw	1
  5628  0F3D  00AC               	movwf	??___flmul
  5629  0F3E                     u4075:
  5630  0F3E  1003               	clrc
  5631  0F3F  0DB2               	rlf	___flmul@grs,f
  5632  0F40  0DB3               	rlf	___flmul@grs+1,f
  5633  0F41  0DB4               	rlf	___flmul@grs+2,f
  5634  0F42  0DB5               	rlf	___flmul@grs+3,f
  5635  0F43  0BAC               	decfsz	??___flmul,f
  5636  0F44  2F3E               	goto	u4075
  5637  0F45                     l2688:
  5638  0F45  30FF               	movlw	255
  5639  0F46  07BC               	addwf	___flmul@temp,f
  5640  0F47  1803               	skipnc
  5641  0F48  0ABD               	incf	___flmul@temp+1,f
  5642  0F49  30FF               	movlw	255
  5643  0F4A  07BD               	addwf	___flmul@temp+1,f
  5644  0F4B                     l2690:
  5645  0F4B  1FBA               	btfss	___flmul@prod+2,7
  5646  0F4C  2F4E               	goto	u4081
  5647  0F4D  2F4F               	goto	u4080
  5648  0F4E                     u4081:
  5649  0F4E  2F2E               	goto	l2680
  5650  0F4F                     u4080:
  5651  0F4F                     l2692:
  5652  0F4F  01B6               	clrf	___flmul@aexp
  5653  0F50                     l2694:
  5654  0F50  1FB5               	btfss	___flmul@grs+3,7
  5655  0F51  2F53               	goto	u4091
  5656  0F52  2F54               	goto	u4090
  5657  0F53                     u4091:
  5658  0F53  2F70               	goto	l2702
  5659  0F54                     u4090:
  5660  0F54                     l2696:
  5661  0F54  30FF               	movlw	255
  5662  0F55  0532               	andwf	___flmul@grs,w
  5663  0F56  00AC               	movwf	??___flmul
  5664  0F57  30FF               	movlw	255
  5665  0F58  0533               	andwf	___flmul@grs+1,w
  5666  0F59  00AD               	movwf	??___flmul+1
  5667  0F5A  30FF               	movlw	255
  5668  0F5B  0534               	andwf	___flmul@grs+2,w
  5669  0F5C  00AE               	movwf	??___flmul+2
  5670  0F5D  307F               	movlw	127
  5671  0F5E  0535               	andwf	___flmul@grs+3,w
  5672  0F5F  00AF               	movwf	??___flmul+3
  5673  0F60  082F               	movf	??___flmul+3,w
  5674  0F61  042E               	iorwf	??___flmul+2,w
  5675  0F62  042D               	iorwf	??___flmul+1,w
  5676  0F63  042C               	iorwf	??___flmul,w
  5677  0F64  1903               	skipnz
  5678  0F65  2F67               	goto	u4101
  5679  0F66  2F68               	goto	u4100
  5680  0F67                     u4101:
  5681  0F67  2F6B               	goto	l733
  5682  0F68                     u4100:
  5683  0F68                     l2698:
  5684  0F68  01B6               	clrf	___flmul@aexp
  5685  0F69  0AB6               	incf	___flmul@aexp,f
  5686  0F6A  2F70               	goto	l2702
  5687  0F6B                     l733:
  5688  0F6B  1C38               	btfss	___flmul@prod,0
  5689  0F6C  2F6E               	goto	u4111
  5690  0F6D  2F6F               	goto	u4110
  5691  0F6E                     u4111:
  5692  0F6E  2F70               	goto	l2702
  5693  0F6F                     u4110:
  5694  0F6F  2F68               	goto	l2698
  5695  0F70                     l2702:
  5696  0F70  0836               	movf	___flmul@aexp,w
  5697  0F71  1903               	btfsc	3,2
  5698  0F72  2F74               	goto	u4121
  5699  0F73  2F75               	goto	u4120
  5700  0F74                     u4121:
  5701  0F74  2FA6               	goto	l2712
  5702  0F75                     u4120:
  5703  0F75                     l2704:
  5704  0F75  3001               	movlw	1
  5705  0F76  07B8               	addwf	___flmul@prod,f
  5706  0F77  3000               	movlw	0
  5707  0F78  1803               	skipnc
  5708  0F79  3001               	movlw	1
  5709  0F7A  07B9               	addwf	___flmul@prod+1,f
  5710  0F7B  3000               	movlw	0
  5711  0F7C  1803               	skipnc
  5712  0F7D  3001               	movlw	1
  5713  0F7E  07BA               	addwf	___flmul@prod+2,f
  5714  0F7F  3000               	movlw	0
  5715  0F80  1803               	skipnc
  5716  0F81  3001               	movlw	1
  5717  0F82  07BB               	addwf	___flmul@prod+3,f
  5718  0F83                     l2706:
  5719  0F83  1C3B               	btfss	___flmul@prod+3,0
  5720  0F84  2F86               	goto	u4131
  5721  0F85  2F87               	goto	u4130
  5722  0F86                     u4131:
  5723  0F86  2FA6               	goto	l2712
  5724  0F87                     u4130:
  5725  0F87                     l2708:
  5726  0F87  0838               	movf	___flmul@prod,w
  5727  0F88  00AC               	movwf	??___flmul
  5728  0F89  0839               	movf	___flmul@prod+1,w
  5729  0F8A  00AD               	movwf	??___flmul+1
  5730  0F8B  083A               	movf	___flmul@prod+2,w
  5731  0F8C  00AE               	movwf	??___flmul+2
  5732  0F8D  083B               	movf	___flmul@prod+3,w
  5733  0F8E  00AF               	movwf	??___flmul+3
  5734  0F8F  3001               	movlw	1
  5735  0F90  00B0               	movwf	??___flmul+4
  5736  0F91                     u4145:
  5737  0F91  0D2F               	rlf	??___flmul+3,w
  5738  0F92  0CAF               	rrf	??___flmul+3,f
  5739  0F93  0CAE               	rrf	??___flmul+2,f
  5740  0F94  0CAD               	rrf	??___flmul+1,f
  5741  0F95  0CAC               	rrf	??___flmul,f
  5742  0F96                     u4140:
  5743  0F96  0BB0               	decfsz	??___flmul+4,f
  5744  0F97  2F91               	goto	u4145
  5745  0F98  082F               	movf	??___flmul+3,w
  5746  0F99  00BB               	movwf	___flmul@prod+3
  5747  0F9A  082E               	movf	??___flmul+2,w
  5748  0F9B  00BA               	movwf	___flmul@prod+2
  5749  0F9C  082D               	movf	??___flmul+1,w
  5750  0F9D  00B9               	movwf	___flmul@prod+1
  5751  0F9E  082C               	movf	??___flmul,w
  5752  0F9F  00B8               	movwf	___flmul@prod
  5753  0FA0                     l2710:
  5754  0FA0  3001               	movlw	1
  5755  0FA1  07BC               	addwf	___flmul@temp,f
  5756  0FA2  1803               	skipnc
  5757  0FA3  0ABD               	incf	___flmul@temp+1,f
  5758  0FA4  3000               	movlw	0
  5759  0FA5  07BD               	addwf	___flmul@temp+1,f
  5760  0FA6                     l2712:
  5761  0FA6  083D               	movf	___flmul@temp+1,w
  5762  0FA7  3A80               	xorlw	128
  5763  0FA8  00FF               	movwf	btemp+1
  5764  0FA9  3080               	movlw	128
  5765  0FAA  027F               	subwf	btemp+1,w
  5766  0FAB  1D03               	skipz
  5767  0FAC  2FAF               	goto	u4155
  5768  0FAD  30FF               	movlw	255
  5769  0FAE  023C               	subwf	___flmul@temp,w
  5770  0FAF                     u4155:
  5771  0FAF  1C03               	skipc
  5772  0FB0  2FB2               	goto	u4151
  5773  0FB1  2FB3               	goto	u4150
  5774  0FB2                     u4151:
  5775  0FB2  2FBE               	goto	l2716
  5776  0FB3                     u4150:
  5777  0FB3                     l2714:
  5778  0FB3  307F               	movlw	127
  5779  0FB4  1283               	bcf	3,5	;RP0=0, select bank0
  5780  0FB5  1303               	bcf	3,6	;RP1=0, select bank0
  5781  0FB6  00BB               	movwf	___flmul@prod+3
  5782  0FB7  3080               	movlw	128
  5783  0FB8  00BA               	movwf	___flmul@prod+2
  5784  0FB9  3000               	movlw	0
  5785  0FBA  00B9               	movwf	___flmul@prod+1
  5786  0FBB  3000               	movlw	0
  5787  0FBC  00B8               	movwf	___flmul@prod
  5788  0FBD  2FF3               	goto	l739
  5789  0FBE                     l2716:
  5790  0FBE  1283               	bcf	3,5	;RP0=0, select bank0
  5791  0FBF  1303               	bcf	3,6	;RP1=0, select bank0
  5792  0FC0  083D               	movf	___flmul@temp+1,w
  5793  0FC1  3A80               	xorlw	128
  5794  0FC2  00FF               	movwf	btemp+1
  5795  0FC3  3080               	movlw	128
  5796  0FC4  027F               	subwf	btemp+1,w
  5797  0FC5  1D03               	skipz
  5798  0FC6  2FC9               	goto	u4165
  5799  0FC7  3001               	movlw	1
  5800  0FC8  023C               	subwf	___flmul@temp,w
  5801  0FC9                     u4165:
  5802  0FC9  1803               	skipnc
  5803  0FCA  2FCC               	goto	u4161
  5804  0FCB  2FCD               	goto	u4160
  5805  0FCC                     u4161:
  5806  0FCC  2FD9               	goto	l2722
  5807  0FCD                     u4160:
  5808  0FCD                     l2718:
  5809  0FCD  3000               	movlw	0
  5810  0FCE  1283               	bcf	3,5	;RP0=0, select bank0
  5811  0FCF  1303               	bcf	3,6	;RP1=0, select bank0
  5812  0FD0  00BB               	movwf	___flmul@prod+3
  5813  0FD1  3000               	movlw	0
  5814  0FD2  00BA               	movwf	___flmul@prod+2
  5815  0FD3  3000               	movlw	0
  5816  0FD4  00B9               	movwf	___flmul@prod+1
  5817  0FD5  3000               	movlw	0
  5818  0FD6  00B8               	movwf	___flmul@prod
  5819  0FD7                     l2720:
  5820  0FD7  01B1               	clrf	___flmul@sign
  5821  0FD8  2FF3               	goto	l739
  5822  0FD9                     l2722:
  5823  0FD9  1283               	bcf	3,5	;RP0=0, select bank0
  5824  0FDA  1303               	bcf	3,6	;RP1=0, select bank0
  5825  0FDB  083C               	movf	___flmul@temp,w
  5826  0FDC  00FF               	movwf	btemp+1
  5827  0FDD  087F               	movf	btemp+1,w
  5828  0FDE  00B7               	movwf	___flmul@bexp
  5829  0FDF                     l2724:
  5830  0FDF  30FF               	movlw	255
  5831  0FE0  05B8               	andwf	___flmul@prod,f
  5832  0FE1  30FF               	movlw	255
  5833  0FE2  05B9               	andwf	___flmul@prod+1,f
  5834  0FE3  307F               	movlw	127
  5835  0FE4  05BA               	andwf	___flmul@prod+2,f
  5836  0FE5  3000               	movlw	0
  5837  0FE6  05BB               	andwf	___flmul@prod+3,f
  5838  0FE7                     l2726:
  5839  0FE7  1C37               	btfss	___flmul@bexp,0
  5840  0FE8  2FEA               	goto	u4171
  5841  0FE9  2FEB               	goto	u4170
  5842  0FEA                     u4171:
  5843  0FEA  2FEC               	goto	l2730
  5844  0FEB                     u4170:
  5845  0FEB                     l2728:
  5846  0FEB  17BA               	bsf	___flmul@prod+2,7
  5847  0FEC                     l2730:
  5848  0FEC  0837               	movf	___flmul@bexp,w
  5849  0FED  00AC               	movwf	??___flmul
  5850  0FEE  1003               	clrc
  5851  0FEF  0C2C               	rrf	??___flmul,w
  5852  0FF0  00FF               	movwf	btemp+1
  5853  0FF1  087F               	movf	btemp+1,w
  5854  0FF2  00BB               	movwf	___flmul@prod+3
  5855  0FF3                     l739:
  5856  0FF3  0831               	movf	___flmul@sign,w
  5857  0FF4  00FF               	movwf	btemp+1
  5858  0FF5  087F               	movf	btemp+1,w
  5859  0FF6  04BB               	iorwf	___flmul@prod+3,f
  5860  0FF7                     l2732:
  5861  0FF7  083B               	movf	___flmul@prod+3,w
  5862  0FF8  00A7               	movwf	?___flmul+3
  5863  0FF9  083A               	movf	___flmul@prod+2,w
  5864  0FFA  00A6               	movwf	?___flmul+2
  5865  0FFB  0839               	movf	___flmul@prod+1,w
  5866  0FFC  00A5               	movwf	?___flmul+1
  5867  0FFD  0838               	movf	___flmul@prod,w
  5868  0FFE  00A4               	movwf	?___flmul
  5869  0FFF                     l727:
  5870  0FFF  0008               	return
  5871  1000                     __end_of___flmul:
  5872                           
  5873                           	psect	text10
  5874  1099                     __ptext10:	
  5875 ;; *************** function __Umul8_16 *****************
  5876 ;; Defined at:
  5877 ;;		line 4 in file "C:\Program Files\Microchip\xc8\v2.20\pic\sources\c90\common\Umul8_16.c"
  5878 ;; Parameters:    Size  Location     Type
  5879 ;;  multiplier      1    wreg     unsigned char 
  5880 ;;  multiplicand    1    2[COMMON] unsigned char 
  5881 ;; Auto vars:     Size  Location     Type
  5882 ;;  multiplier      1   10[COMMON] unsigned char 
  5883 ;;  word_mpld       2    8[COMMON] unsigned int 
  5884 ;;  product         2    6[COMMON] unsigned int 
  5885 ;; Return value:  Size  Location     Type
  5886 ;;                  2    2[COMMON] unsigned int 
  5887 ;; Registers used:
  5888 ;;		wreg, status,2, status,0
  5889 ;; Tracked objects:
  5890 ;;		On entry : 0/0
  5891 ;;		On exit  : 0/0
  5892 ;;		Unchanged: 0/0
  5893 ;; Data sizes:     COMMON   BANK0   BANK1   BANK3   BANK2
  5894 ;;      Params:         2       0       0       0       0
  5895 ;;      Locals:         5       0       0       0       0
  5896 ;;      Temps:          2       0       0       0       0
  5897 ;;      Totals:         9       0       0       0       0
  5898 ;;Total ram usage:        9 bytes
  5899 ;; Hardware stack levels used:    1
  5900 ;; Hardware stack levels required when called:    1
  5901 ;; This function calls:
  5902 ;;		Nothing
  5903 ;; This function is called by:
  5904 ;;		___flmul
  5905 ;; This function uses a non-reentrant model
  5906 ;;
  5907                           
  5908                           
  5909                           ;psect for function __Umul8_16
  5910  1099                     __Umul8_16:
  5911                           
  5912                           ;incstack = 0
  5913                           ; Regs used in __Umul8_16: [wreg+status,2+status,0]
  5914                           ;__Umul8_16@multiplier stored from wreg
  5915  1099  00FA               	movwf	__Umul8_16@multiplier
  5916  109A                     l2238:
  5917  109A  01F6               	clrf	__Umul8_16@product
  5918  109B  01F7               	clrf	__Umul8_16@product+1
  5919  109C                     l2240:
  5920  109C  0872               	movf	__Umul8_16@multiplicand,w
  5921  109D  00F4               	movwf	??__Umul8_16
  5922  109E  01F5               	clrf	??__Umul8_16+1
  5923  109F  0874               	movf	??__Umul8_16,w
  5924  10A0  00F8               	movwf	__Umul8_16@word_mpld
  5925  10A1  0875               	movf	??__Umul8_16+1,w
  5926  10A2  00F9               	movwf	__Umul8_16@word_mpld+1
  5927  10A3                     l2242:
  5928  10A3  1C7A               	btfss	__Umul8_16@multiplier,0
  5929  10A4  28A6               	goto	u2961
  5930  10A5  28A7               	goto	u2960
  5931  10A6                     u2961:
  5932  10A6  28AD               	goto	l746
  5933  10A7                     u2960:
  5934  10A7                     l2244:
  5935  10A7  0878               	movf	__Umul8_16@word_mpld,w
  5936  10A8  07F6               	addwf	__Umul8_16@product,f
  5937  10A9  1803               	skipnc
  5938  10AA  0AF7               	incf	__Umul8_16@product+1,f
  5939  10AB  0879               	movf	__Umul8_16@word_mpld+1,w
  5940  10AC  07F7               	addwf	__Umul8_16@product+1,f
  5941  10AD                     l746:
  5942  10AD  3001               	movlw	1
  5943  10AE                     u2975:
  5944  10AE  1003               	clrc
  5945  10AF  0DF8               	rlf	__Umul8_16@word_mpld,f
  5946  10B0  0DF9               	rlf	__Umul8_16@word_mpld+1,f
  5947  10B1  3EFF               	addlw	-1
  5948  10B2  1D03               	skipz
  5949  10B3  28AE               	goto	u2975
  5950  10B4  1003               	clrc
  5951  10B5  0CFA               	rrf	__Umul8_16@multiplier,f
  5952  10B6                     l2246:
  5953  10B6  087A               	movf	__Umul8_16@multiplier,w
  5954  10B7  1D03               	btfss	3,2
  5955  10B8  28BA               	goto	u2981
  5956  10B9  28BB               	goto	u2980
  5957  10BA                     u2981:
  5958  10BA  28A3               	goto	l2242
  5959  10BB                     u2980:
  5960  10BB                     l2248:
  5961  10BB  0877               	movf	__Umul8_16@product+1,w
  5962  10BC  00F3               	movwf	?__Umul8_16+1
  5963  10BD  0876               	movf	__Umul8_16@product,w
  5964  10BE  00F2               	movwf	?__Umul8_16
  5965  10BF                     l748:
  5966  10BF  0008               	return
  5967  10C0                     __end_of__Umul8_16:
  5968                           
  5969                           	psect	text11
  5970  1220                     __ptext11:	
  5971 ;; *************** function __tdiv_to_l_ *****************
  5972 ;; Defined at:
  5973 ;;		line 60 in file "C:\Program Files\Microchip\xc8\v2.20\pic\sources\c90\common\ftdivl.c"
  5974 ;; Parameters:    Size  Location     Type
  5975 ;;  f1              4    2[COMMON] float 
  5976 ;;  f2              4    6[COMMON] float 
  5977 ;; Auto vars:     Size  Location     Type
  5978 ;;  quot            4    3[BANK0 ] unsigned long 
  5979 ;;  exp1            1    8[BANK0 ] unsigned char 
  5980 ;;  cntr            1    7[BANK0 ] unsigned char 
  5981 ;; Return value:  Size  Location     Type
  5982 ;;                  4    2[COMMON] unsigned long 
  5983 ;; Registers used:
  5984 ;;		wreg, status,2, status,0, btemp+1
  5985 ;; Tracked objects:
  5986 ;;		On entry : 0/0
  5987 ;;		On exit  : 0/0
  5988 ;;		Unchanged: 0/0
  5989 ;; Data sizes:     COMMON   BANK0   BANK1   BANK3   BANK2
  5990 ;;      Params:         8       0       0       0       0
  5991 ;;      Locals:         0       6       0       0       0
  5992 ;;      Temps:          0       3       0       0       0
  5993 ;;      Totals:         8       9       0       0       0
  5994 ;;Total ram usage:       17 bytes
  5995 ;; Hardware stack levels used:    1
  5996 ;; Hardware stack levels required when called:    1
  5997 ;; This function calls:
  5998 ;;		Nothing
  5999 ;; This function is called by:
  6000 ;;		_sprintf
  6001 ;; This function uses a non-reentrant model
  6002 ;;
  6003                           
  6004                           
  6005                           ;psect for function __tdiv_to_l_
  6006  1220                     __tdiv_to_l_:
  6007  1220                     l2828:	
  6008                           ;incstack = 0
  6009                           ; Regs used in __tdiv_to_l_: [wreg+status,2+status,0+btemp+1]
  6010                           
  6011  1220  0872               	movf	__tdiv_to_l_@f1,w
  6012  1221  1283               	bcf	3,5	;RP0=0, select bank0
  6013  1222  1303               	bcf	3,6	;RP1=0, select bank0
  6014  1223  00A0               	movwf	??__tdiv_to_l_
  6015  1224  0873               	movf	__tdiv_to_l_@f1+1,w
  6016  1225  00A1               	movwf	??__tdiv_to_l_+1
  6017  1226  0874               	movf	__tdiv_to_l_@f1+2,w
  6018  1227  00A2               	movwf	??__tdiv_to_l_+2
  6019  1228  1003               	clrc
  6020  1229  0D21               	rlf	??__tdiv_to_l_+1,w
  6021  122A  0D22               	rlf	??__tdiv_to_l_+2,w
  6022  122B  00FF               	movwf	btemp+1
  6023  122C  087F               	movf	btemp+1,w
  6024  122D  00A8               	movwf	__tdiv_to_l_@exp1
  6025  122E  0828               	movf	__tdiv_to_l_@exp1,w
  6026  122F  1D03               	btfss	3,2
  6027  1230  2A32               	goto	u4441
  6028  1231  2A33               	goto	u4440
  6029  1232                     u4441:
  6030  1232  2A3C               	goto	l2834
  6031  1233                     u4440:
  6032  1233                     l2830:
  6033  1233  3000               	movlw	0
  6034  1234  00F5               	movwf	?__tdiv_to_l_+3
  6035  1235  3000               	movlw	0
  6036  1236  00F4               	movwf	?__tdiv_to_l_+2
  6037  1237  3000               	movlw	0
  6038  1238  00F3               	movwf	?__tdiv_to_l_+1
  6039  1239  3000               	movlw	0
  6040  123A  00F2               	movwf	?__tdiv_to_l_
  6041  123B  2ADC               	goto	l521
  6042  123C                     l2834:
  6043  123C  0876               	movf	__tdiv_to_l_@f2,w
  6044  123D  00A0               	movwf	??__tdiv_to_l_
  6045  123E  0877               	movf	__tdiv_to_l_@f2+1,w
  6046  123F  00A1               	movwf	??__tdiv_to_l_+1
  6047  1240  0878               	movf	__tdiv_to_l_@f2+2,w
  6048  1241  00A2               	movwf	??__tdiv_to_l_+2
  6049  1242  1003               	clrc
  6050  1243  0D21               	rlf	??__tdiv_to_l_+1,w
  6051  1244  0D22               	rlf	??__tdiv_to_l_+2,w
  6052  1245  00FF               	movwf	btemp+1
  6053  1246  087F               	movf	btemp+1,w
  6054  1247  00A7               	movwf	__tdiv_to_l_@cntr
  6055  1248  0827               	movf	__tdiv_to_l_@cntr,w
  6056  1249  1D03               	btfss	3,2
  6057  124A  2A4C               	goto	u4451
  6058  124B  2A4D               	goto	u4450
  6059  124C                     u4451:
  6060  124C  2A4E               	goto	l522
  6061  124D                     u4450:
  6062  124D  2A33               	goto	l2830
  6063  124E                     l522:
  6064  124E  17F3               	bsf	__tdiv_to_l_@f1+1,7
  6065  124F                     l2840:
  6066  124F  30FF               	movlw	255
  6067  1250  05F2               	andwf	__tdiv_to_l_@f1,f
  6068  1251  30FF               	movlw	255
  6069  1252  05F3               	andwf	__tdiv_to_l_@f1+1,f
  6070  1253  3000               	movlw	0
  6071  1254  05F4               	andwf	__tdiv_to_l_@f1+2,f
  6072  1255                     l2842:
  6073  1255  17F7               	bsf	__tdiv_to_l_@f2+1,7
  6074  1256  30FF               	movlw	255
  6075  1257  05F6               	andwf	__tdiv_to_l_@f2,f
  6076  1258  30FF               	movlw	255
  6077  1259  05F7               	andwf	__tdiv_to_l_@f2+1,f
  6078  125A  3000               	movlw	0
  6079  125B  05F8               	andwf	__tdiv_to_l_@f2+2,f
  6080  125C  3000               	movlw	0
  6081  125D  00A6               	movwf	__tdiv_to_l_@quot+3
  6082  125E  3000               	movlw	0
  6083  125F  00A5               	movwf	__tdiv_to_l_@quot+2
  6084  1260  3000               	movlw	0
  6085  1261  00A4               	movwf	__tdiv_to_l_@quot+1
  6086  1262  3000               	movlw	0
  6087  1263  00A3               	movwf	__tdiv_to_l_@quot
  6088  1264                     l2844:
  6089  1264  307F               	movlw	127
  6090  1265  02A8               	subwf	__tdiv_to_l_@exp1,f
  6091  1266                     l2846:
  6092  1266  3098               	movlw	152
  6093  1267  0727               	addwf	__tdiv_to_l_@cntr,w
  6094  1268  00A0               	movwf	??__tdiv_to_l_
  6095  1269  0820               	movf	??__tdiv_to_l_,w
  6096  126A  02A8               	subwf	__tdiv_to_l_@exp1,f
  6097  126B                     l2848:
  6098  126B  3018               	movlw	24
  6099  126C  00FF               	movwf	btemp+1
  6100  126D  087F               	movf	btemp+1,w
  6101  126E  00A7               	movwf	__tdiv_to_l_@cntr
  6102  126F                     l2850:
  6103  126F  3001               	movlw	1
  6104  1270  00A0               	movwf	??__tdiv_to_l_
  6105  1271                     u4465:
  6106  1271  1003               	clrc
  6107  1272  0DA3               	rlf	__tdiv_to_l_@quot,f
  6108  1273  0DA4               	rlf	__tdiv_to_l_@quot+1,f
  6109  1274  0DA5               	rlf	__tdiv_to_l_@quot+2,f
  6110  1275  0DA6               	rlf	__tdiv_to_l_@quot+3,f
  6111  1276  0BA0               	decfsz	??__tdiv_to_l_,f
  6112  1277  2A71               	goto	u4465
  6113  1278                     l2852:
  6114  1278  0878               	movf	__tdiv_to_l_@f2+2,w
  6115  1279  0274               	subwf	__tdiv_to_l_@f1+2,w
  6116  127A  1D03               	skipz
  6117  127B  2A82               	goto	u4475
  6118  127C  0877               	movf	__tdiv_to_l_@f2+1,w
  6119  127D  0273               	subwf	__tdiv_to_l_@f1+1,w
  6120  127E  1D03               	skipz
  6121  127F  2A82               	goto	u4475
  6122  1280  0876               	movf	__tdiv_to_l_@f2,w
  6123  1281  0272               	subwf	__tdiv_to_l_@f1,w
  6124  1282                     u4475:
  6125  1282  1C03               	skipc
  6126  1283  2A85               	goto	u4471
  6127  1284  2A86               	goto	u4470
  6128  1285                     u4471:
  6129  1285  2A91               	goto	l2858
  6130  1286                     u4470:
  6131  1286                     l2854:
  6132  1286  0876               	movf	__tdiv_to_l_@f2,w
  6133  1287  02F2               	subwf	__tdiv_to_l_@f1,f
  6134  1288  0877               	movf	__tdiv_to_l_@f2+1,w
  6135  1289  1C03               	skipc
  6136  128A  0F77               	incfsz	__tdiv_to_l_@f2+1,w
  6137  128B  02F3               	subwf	__tdiv_to_l_@f1+1,f
  6138  128C  0878               	movf	__tdiv_to_l_@f2+2,w
  6139  128D  1C03               	skipc
  6140  128E  0A78               	incf	__tdiv_to_l_@f2+2,w
  6141  128F  02F4               	subwf	__tdiv_to_l_@f1+2,f
  6142  1290                     l2856:
  6143  1290  1423               	bsf	__tdiv_to_l_@quot,0
  6144  1291                     l2858:
  6145  1291  3001               	movlw	1
  6146  1292                     u4485:
  6147  1292  1003               	clrc
  6148  1293  0DF2               	rlf	__tdiv_to_l_@f1,f
  6149  1294  0DF3               	rlf	__tdiv_to_l_@f1+1,f
  6150  1295  0DF4               	rlf	__tdiv_to_l_@f1+2,f
  6151  1296  3EFF               	addlw	-1
  6152  1297  1D03               	skipz
  6153  1298  2A92               	goto	u4485
  6154  1299                     l2860:
  6155  1299  3001               	movlw	1
  6156  129A  02A7               	subwf	__tdiv_to_l_@cntr,f
  6157  129B  1D03               	btfss	3,2
  6158  129C  2A9E               	goto	u4491
  6159  129D  2A9F               	goto	u4490
  6160  129E                     u4491:
  6161  129E  2A6F               	goto	l2850
  6162  129F                     u4490:
  6163  129F                     l525:
  6164  129F  1FA8               	btfss	__tdiv_to_l_@exp1,7
  6165  12A0  2AA2               	goto	u4501
  6166  12A1  2AA3               	goto	u4500
  6167  12A2                     u4501:
  6168  12A2  2ABD               	goto	l2872
  6169  12A3                     u4500:
  6170  12A3                     l2862:
  6171  12A3  0828               	movf	__tdiv_to_l_@exp1,w
  6172  12A4  3A80               	xorlw	128
  6173  12A5  3E97               	addlw	151
  6174  12A6  1803               	skipnc
  6175  12A7  2AA9               	goto	u4511
  6176  12A8  2AAA               	goto	u4510
  6177  12A9                     u4511:
  6178  12A9  2AAB               	goto	l2868
  6179  12AA                     u4510:
  6180  12AA  2A33               	goto	l2830
  6181  12AB                     l2868:
  6182  12AB  3001               	movlw	1
  6183  12AC                     u4525:
  6184  12AC  1003               	clrc
  6185  12AD  0CA6               	rrf	__tdiv_to_l_@quot+3,f
  6186  12AE  0CA5               	rrf	__tdiv_to_l_@quot+2,f
  6187  12AF  0CA4               	rrf	__tdiv_to_l_@quot+1,f
  6188  12B0  0CA3               	rrf	__tdiv_to_l_@quot,f
  6189  12B1  3EFF               	addlw	-1
  6190  12B2  1D03               	skipz
  6191  12B3  2AAC               	goto	u4525
  6192  12B4                     l2870:
  6193  12B4  3001               	movlw	1
  6194  12B5  00FF               	movwf	btemp+1
  6195  12B6  087F               	movf	btemp+1,w
  6196  12B7  07A8               	addwf	__tdiv_to_l_@exp1,f
  6197  12B8  1D03               	btfss	3,2
  6198  12B9  2ABB               	goto	u4531
  6199  12BA  2ABC               	goto	u4530
  6200  12BB                     u4531:
  6201  12BB  2AAB               	goto	l2868
  6202  12BC                     u4530:
  6203  12BC  2AD4               	goto	l2880
  6204  12BD                     l2872:
  6205  12BD  3018               	movlw	24
  6206  12BE  0228               	subwf	__tdiv_to_l_@exp1,w
  6207  12BF  1C03               	skipc
  6208  12C0  2AC2               	goto	u4541
  6209  12C1  2AC3               	goto	u4540
  6210  12C2                     u4541:
  6211  12C2  2ACF               	goto	l532
  6212  12C3                     u4540:
  6213  12C3  2A33               	goto	l2830
  6214  12C4                     l2878:
  6215  12C4  3001               	movlw	1
  6216  12C5  00A0               	movwf	??__tdiv_to_l_
  6217  12C6                     u4555:
  6218  12C6  1003               	clrc
  6219  12C7  0DA3               	rlf	__tdiv_to_l_@quot,f
  6220  12C8  0DA4               	rlf	__tdiv_to_l_@quot+1,f
  6221  12C9  0DA5               	rlf	__tdiv_to_l_@quot+2,f
  6222  12CA  0DA6               	rlf	__tdiv_to_l_@quot+3,f
  6223  12CB  0BA0               	decfsz	??__tdiv_to_l_,f
  6224  12CC  2AC6               	goto	u4555
  6225  12CD  3001               	movlw	1
  6226  12CE  02A8               	subwf	__tdiv_to_l_@exp1,f
  6227  12CF                     l532:
  6228  12CF  0828               	movf	__tdiv_to_l_@exp1,w
  6229  12D0  1D03               	btfss	3,2
  6230  12D1  2AD3               	goto	u4561
  6231  12D2  2AD4               	goto	u4560
  6232  12D3                     u4561:
  6233  12D3  2AC4               	goto	l2878
  6234  12D4                     u4560:
  6235  12D4                     l2880:
  6236  12D4  0826               	movf	__tdiv_to_l_@quot+3,w
  6237  12D5  00F5               	movwf	?__tdiv_to_l_+3
  6238  12D6  0825               	movf	__tdiv_to_l_@quot+2,w
  6239  12D7  00F4               	movwf	?__tdiv_to_l_+2
  6240  12D8  0824               	movf	__tdiv_to_l_@quot+1,w
  6241  12D9  00F3               	movwf	?__tdiv_to_l_+1
  6242  12DA  0823               	movf	__tdiv_to_l_@quot,w
  6243  12DB  00F2               	movwf	?__tdiv_to_l_
  6244  12DC                     l521:
  6245  12DC  0008               	return
  6246  12DD                     __end_of__tdiv_to_l_:
  6247                           
  6248                           	psect	text12
  6249  12DD                     __ptext12:	
  6250 ;; *************** function __div_to_l_ *****************
  6251 ;; Defined at:
  6252 ;;		line 60 in file "C:\Program Files\Microchip\xc8\v2.20\pic\sources\c90\common\fldivl.c"
  6253 ;; Parameters:    Size  Location     Type
  6254 ;;  f1              4    2[COMMON] unsigned long 
  6255 ;;  f2              4    6[COMMON] unsigned long 
  6256 ;; Auto vars:     Size  Location     Type
  6257 ;;  quot            4    0[BANK0 ] unsigned long 
  6258 ;;  exp1            1    5[BANK0 ] unsigned char 
  6259 ;;  cntr            1    4[BANK0 ] unsigned char 
  6260 ;; Return value:  Size  Location     Type
  6261 ;;                  4    2[COMMON] unsigned long 
  6262 ;; Registers used:
  6263 ;;		wreg, status,2, status,0, btemp+1
  6264 ;; Tracked objects:
  6265 ;;		On entry : 0/0
  6266 ;;		On exit  : 0/0
  6267 ;;		Unchanged: 0/0
  6268 ;; Data sizes:     COMMON   BANK0   BANK1   BANK3   BANK2
  6269 ;;      Params:         8       0       0       0       0
  6270 ;;      Locals:         0       6       0       0       0
  6271 ;;      Temps:          1       0       0       0       0
  6272 ;;      Totals:         9       6       0       0       0
  6273 ;;Total ram usage:       15 bytes
  6274 ;; Hardware stack levels used:    1
  6275 ;; Hardware stack levels required when called:    1
  6276 ;; This function calls:
  6277 ;;		Nothing
  6278 ;; This function is called by:
  6279 ;;		_sprintf
  6280 ;; This function uses a non-reentrant model
  6281 ;;
  6282                           
  6283                           
  6284                           ;psect for function __div_to_l_
  6285  12DD                     __div_to_l_:
  6286  12DD                     l2884:	
  6287                           ;incstack = 0
  6288                           ; Regs used in __div_to_l_: [wreg+status,2+status,0+btemp+1]
  6289                           
  6290  12DD  1003               	clrc
  6291  12DE  0D74               	rlf	__div_to_l_@f1+2,w
  6292  12DF  0D75               	rlf	__div_to_l_@f1+3,w
  6293  12E0  00FF               	movwf	btemp+1
  6294  12E1  087F               	movf	btemp+1,w
  6295  12E2  1283               	bcf	3,5	;RP0=0, select bank0
  6296  12E3  1303               	bcf	3,6	;RP1=0, select bank0
  6297  12E4  00A5               	movwf	__div_to_l_@exp1
  6298  12E5  0825               	movf	__div_to_l_@exp1,w
  6299  12E6  1D03               	btfss	3,2
  6300  12E7  2AE9               	goto	u4571
  6301  12E8  2AEA               	goto	u4570
  6302  12E9                     u4571:
  6303  12E9  2AF3               	goto	l2890
  6304  12EA                     u4570:
  6305  12EA                     l2886:
  6306  12EA  3000               	movlw	0
  6307  12EB  00F5               	movwf	?__div_to_l_+3
  6308  12EC  3000               	movlw	0
  6309  12ED  00F4               	movwf	?__div_to_l_+2
  6310  12EE  3000               	movlw	0
  6311  12EF  00F3               	movwf	?__div_to_l_+1
  6312  12F0  3000               	movlw	0
  6313  12F1  00F2               	movwf	?__div_to_l_
  6314  12F2  2B9A               	goto	l474
  6315  12F3                     l2890:
  6316  12F3  1003               	clrc
  6317  12F4  0D78               	rlf	__div_to_l_@f2+2,w
  6318  12F5  0D79               	rlf	__div_to_l_@f2+3,w
  6319  12F6  00FF               	movwf	btemp+1
  6320  12F7  087F               	movf	btemp+1,w
  6321  12F8  00A4               	movwf	__div_to_l_@cntr
  6322  12F9  0824               	movf	__div_to_l_@cntr,w
  6323  12FA  1D03               	btfss	3,2
  6324  12FB  2AFD               	goto	u4581
  6325  12FC  2AFE               	goto	u4580
  6326  12FD                     u4581:
  6327  12FD  2AFF               	goto	l475
  6328  12FE                     u4580:
  6329  12FE  2AEA               	goto	l2886
  6330  12FF                     l475:
  6331  12FF  17F4               	bsf	__div_to_l_@f1+2,7
  6332  1300                     l2896:
  6333  1300  30FF               	movlw	255
  6334  1301  05F2               	andwf	__div_to_l_@f1,f
  6335  1302  30FF               	movlw	255
  6336  1303  05F3               	andwf	__div_to_l_@f1+1,f
  6337  1304  30FF               	movlw	255
  6338  1305  05F4               	andwf	__div_to_l_@f1+2,f
  6339  1306  3000               	movlw	0
  6340  1307  05F5               	andwf	__div_to_l_@f1+3,f
  6341  1308                     l2898:
  6342  1308  17F8               	bsf	__div_to_l_@f2+2,7
  6343  1309  30FF               	movlw	255
  6344  130A  05F6               	andwf	__div_to_l_@f2,f
  6345  130B  30FF               	movlw	255
  6346  130C  05F7               	andwf	__div_to_l_@f2+1,f
  6347  130D  30FF               	movlw	255
  6348  130E  05F8               	andwf	__div_to_l_@f2+2,f
  6349  130F  3000               	movlw	0
  6350  1310  05F9               	andwf	__div_to_l_@f2+3,f
  6351  1311  3000               	movlw	0
  6352  1312  00A3               	movwf	__div_to_l_@quot+3
  6353  1313  3000               	movlw	0
  6354  1314  00A2               	movwf	__div_to_l_@quot+2
  6355  1315  3000               	movlw	0
  6356  1316  00A1               	movwf	__div_to_l_@quot+1
  6357  1317  3000               	movlw	0
  6358  1318  00A0               	movwf	__div_to_l_@quot
  6359  1319                     l2900:
  6360  1319  307F               	movlw	127
  6361  131A  02A5               	subwf	__div_to_l_@exp1,f
  6362  131B                     l2902:
  6363  131B  30A0               	movlw	160
  6364  131C  0724               	addwf	__div_to_l_@cntr,w
  6365  131D  00FA               	movwf	??__div_to_l_
  6366  131E  087A               	movf	??__div_to_l_,w
  6367  131F  02A5               	subwf	__div_to_l_@exp1,f
  6368  1320                     l2904:
  6369  1320  3020               	movlw	32
  6370  1321  00FF               	movwf	btemp+1
  6371  1322  087F               	movf	btemp+1,w
  6372  1323  00A4               	movwf	__div_to_l_@cntr
  6373  1324                     l2906:
  6374  1324  3001               	movlw	1
  6375  1325  00FA               	movwf	??__div_to_l_
  6376  1326                     u4595:
  6377  1326  1003               	clrc
  6378  1327  0DA0               	rlf	__div_to_l_@quot,f
  6379  1328  0DA1               	rlf	__div_to_l_@quot+1,f
  6380  1329  0DA2               	rlf	__div_to_l_@quot+2,f
  6381  132A  0DA3               	rlf	__div_to_l_@quot+3,f
  6382  132B  0BFA               	decfsz	??__div_to_l_,f
  6383  132C  2B26               	goto	u4595
  6384  132D                     l2908:
  6385  132D  0879               	movf	__div_to_l_@f2+3,w
  6386  132E  0275               	subwf	__div_to_l_@f1+3,w
  6387  132F  1D03               	skipz
  6388  1330  2B3B               	goto	u4605
  6389  1331  0878               	movf	__div_to_l_@f2+2,w
  6390  1332  0274               	subwf	__div_to_l_@f1+2,w
  6391  1333  1D03               	skipz
  6392  1334  2B3B               	goto	u4605
  6393  1335  0877               	movf	__div_to_l_@f2+1,w
  6394  1336  0273               	subwf	__div_to_l_@f1+1,w
  6395  1337  1D03               	skipz
  6396  1338  2B3B               	goto	u4605
  6397  1339  0876               	movf	__div_to_l_@f2,w
  6398  133A  0272               	subwf	__div_to_l_@f1,w
  6399  133B                     u4605:
  6400  133B  1C03               	skipc
  6401  133C  2B3E               	goto	u4601
  6402  133D  2B3F               	goto	u4600
  6403  133E                     u4601:
  6404  133E  2B4E               	goto	l2914
  6405  133F                     u4600:
  6406  133F                     l2910:
  6407  133F  0876               	movf	__div_to_l_@f2,w
  6408  1340  02F2               	subwf	__div_to_l_@f1,f
  6409  1341  0877               	movf	__div_to_l_@f2+1,w
  6410  1342  1C03               	skipc
  6411  1343  0F77               	incfsz	__div_to_l_@f2+1,w
  6412  1344  02F3               	subwf	__div_to_l_@f1+1,f
  6413  1345  0878               	movf	__div_to_l_@f2+2,w
  6414  1346  1C03               	skipc
  6415  1347  0F78               	incfsz	__div_to_l_@f2+2,w
  6416  1348  02F4               	subwf	__div_to_l_@f1+2,f
  6417  1349  0879               	movf	__div_to_l_@f2+3,w
  6418  134A  1C03               	skipc
  6419  134B  0F79               	incfsz	__div_to_l_@f2+3,w
  6420  134C  02F5               	subwf	__div_to_l_@f1+3,f
  6421  134D                     l2912:
  6422  134D  1420               	bsf	__div_to_l_@quot,0
  6423  134E                     l2914:
  6424  134E  3001               	movlw	1
  6425  134F  00FA               	movwf	??__div_to_l_
  6426  1350                     u4615:
  6427  1350  1003               	clrc
  6428  1351  0DF2               	rlf	__div_to_l_@f1,f
  6429  1352  0DF3               	rlf	__div_to_l_@f1+1,f
  6430  1353  0DF4               	rlf	__div_to_l_@f1+2,f
  6431  1354  0DF5               	rlf	__div_to_l_@f1+3,f
  6432  1355  0BFA               	decfsz	??__div_to_l_,f
  6433  1356  2B50               	goto	u4615
  6434  1357                     l2916:
  6435  1357  3001               	movlw	1
  6436  1358  02A4               	subwf	__div_to_l_@cntr,f
  6437  1359  1D03               	btfss	3,2
  6438  135A  2B5C               	goto	u4621
  6439  135B  2B5D               	goto	u4620
  6440  135C                     u4621:
  6441  135C  2B24               	goto	l2906
  6442  135D                     u4620:
  6443  135D                     l478:
  6444  135D  1FA5               	btfss	__div_to_l_@exp1,7
  6445  135E  2B60               	goto	u4631
  6446  135F  2B61               	goto	u4630
  6447  1360                     u4631:
  6448  1360  2B7B               	goto	l2928
  6449  1361                     u4630:
  6450  1361                     l2918:
  6451  1361  0825               	movf	__div_to_l_@exp1,w
  6452  1362  3A80               	xorlw	128
  6453  1363  3E9F               	addlw	159
  6454  1364  1803               	skipnc
  6455  1365  2B67               	goto	u4641
  6456  1366  2B68               	goto	u4640
  6457  1367                     u4641:
  6458  1367  2B69               	goto	l2924
  6459  1368                     u4640:
  6460  1368  2AEA               	goto	l2886
  6461  1369                     l2924:
  6462  1369  3001               	movlw	1
  6463  136A                     u4655:
  6464  136A  1003               	clrc
  6465  136B  0CA3               	rrf	__div_to_l_@quot+3,f
  6466  136C  0CA2               	rrf	__div_to_l_@quot+2,f
  6467  136D  0CA1               	rrf	__div_to_l_@quot+1,f
  6468  136E  0CA0               	rrf	__div_to_l_@quot,f
  6469  136F  3EFF               	addlw	-1
  6470  1370  1D03               	skipz
  6471  1371  2B6A               	goto	u4655
  6472  1372                     l2926:
  6473  1372  3001               	movlw	1
  6474  1373  00FF               	movwf	btemp+1
  6475  1374  087F               	movf	btemp+1,w
  6476  1375  07A5               	addwf	__div_to_l_@exp1,f
  6477  1376  1D03               	btfss	3,2
  6478  1377  2B79               	goto	u4661
  6479  1378  2B7A               	goto	u4660
  6480  1379                     u4661:
  6481  1379  2B69               	goto	l2924
  6482  137A                     u4660:
  6483  137A  2B92               	goto	l2936
  6484  137B                     l2928:
  6485  137B  3020               	movlw	32
  6486  137C  0225               	subwf	__div_to_l_@exp1,w
  6487  137D  1C03               	skipc
  6488  137E  2B80               	goto	u4671
  6489  137F  2B81               	goto	u4670
  6490  1380                     u4671:
  6491  1380  2B8D               	goto	l485
  6492  1381                     u4670:
  6493  1381  2AEA               	goto	l2886
  6494  1382                     l2934:
  6495  1382  3001               	movlw	1
  6496  1383  00FA               	movwf	??__div_to_l_
  6497  1384                     u4685:
  6498  1384  1003               	clrc
  6499  1385  0DA0               	rlf	__div_to_l_@quot,f
  6500  1386  0DA1               	rlf	__div_to_l_@quot+1,f
  6501  1387  0DA2               	rlf	__div_to_l_@quot+2,f
  6502  1388  0DA3               	rlf	__div_to_l_@quot+3,f
  6503  1389  0BFA               	decfsz	??__div_to_l_,f
  6504  138A  2B84               	goto	u4685
  6505  138B  3001               	movlw	1
  6506  138C  02A5               	subwf	__div_to_l_@exp1,f
  6507  138D                     l485:
  6508  138D  0825               	movf	__div_to_l_@exp1,w
  6509  138E  1D03               	btfss	3,2
  6510  138F  2B91               	goto	u4691
  6511  1390  2B92               	goto	u4690
  6512  1391                     u4691:
  6513  1391  2B82               	goto	l2934
  6514  1392                     u4690:
  6515  1392                     l2936:
  6516  1392  0823               	movf	__div_to_l_@quot+3,w
  6517  1393  00F5               	movwf	?__div_to_l_+3
  6518  1394  0822               	movf	__div_to_l_@quot+2,w
  6519  1395  00F4               	movwf	?__div_to_l_+2
  6520  1396  0821               	movf	__div_to_l_@quot+1,w
  6521  1397  00F3               	movwf	?__div_to_l_+1
  6522  1398  0820               	movf	__div_to_l_@quot,w
  6523  1399  00F2               	movwf	?__div_to_l_
  6524  139A                     l474:
  6525  139A  0008               	return
  6526  139B                     __end_of__div_to_l_:
  6527                           
  6528                           	psect	text13
  6529  1164                     __ptext13:	
  6530 ;; *************** function ___xxtofl *****************
  6531 ;; Defined at:
  6532 ;;		line 10 in file "C:\Program Files\Microchip\xc8\v2.20\pic\sources\c90\common\xxtofl.c"
  6533 ;; Parameters:    Size  Location     Type
  6534 ;;  sign            1    wreg     unsigned char 
  6535 ;;  val             4    2[COMMON] long 
  6536 ;; Auto vars:     Size  Location     Type
  6537 ;;  sign            1    0[BANK0 ] unsigned char 
  6538 ;;  arg             4    2[BANK0 ] unsigned long 
  6539 ;;  exp             1    1[BANK0 ] unsigned char 
  6540 ;; Return value:  Size  Location     Type
  6541 ;;                  4    2[COMMON] unsigned char 
  6542 ;; Registers used:
  6543 ;;		wreg, status,2, status,0, btemp+1
  6544 ;; Tracked objects:
  6545 ;;		On entry : 0/0
  6546 ;;		On exit  : 0/0
  6547 ;;		Unchanged: 0/0
  6548 ;; Data sizes:     COMMON   BANK0   BANK1   BANK3   BANK2
  6549 ;;      Params:         4       0       0       0       0
  6550 ;;      Locals:         0       6       0       0       0
  6551 ;;      Temps:          4       0       0       0       0
  6552 ;;      Totals:         8       6       0       0       0
  6553 ;;Total ram usage:       14 bytes
  6554 ;; Hardware stack levels used:    1
  6555 ;; Hardware stack levels required when called:    1
  6556 ;; This function calls:
  6557 ;;		Nothing
  6558 ;; This function is called by:
  6559 ;;		_main
  6560 ;;		_sprintf
  6561 ;; This function uses a non-reentrant model
  6562 ;;
  6563                           
  6564                           
  6565                           ;psect for function ___xxtofl
  6566  1164                     ___xxtofl:
  6567                           
  6568                           ;incstack = 0
  6569                           ; Regs used in ___xxtofl: [wreg+status,2+status,0+btemp+1]
  6570                           ;___xxtofl@sign stored from wreg
  6571  1164  1283               	bcf	3,5	;RP0=0, select bank0
  6572  1165  1303               	bcf	3,6	;RP1=0, select bank0
  6573  1166  00A0               	movwf	___xxtofl@sign
  6574  1167                     l3086:
  6575  1167  0820               	movf	___xxtofl@sign,w
  6576  1168  1903               	btfsc	3,2
  6577  1169  296B               	goto	u5081
  6578  116A  296C               	goto	u5080
  6579  116B                     u5081:
  6580  116B  2980               	goto	l3092
  6581  116C                     u5080:
  6582  116C                     l3088:
  6583  116C  1FF5               	btfss	___xxtofl@val+3,7
  6584  116D  296F               	goto	u5091
  6585  116E  2970               	goto	u5090
  6586  116F                     u5091:
  6587  116F  2980               	goto	l3092
  6588  1170                     u5090:
  6589  1170                     l3090:
  6590  1170  0972               	comf	___xxtofl@val,w
  6591  1171  00A2               	movwf	___xxtofl@arg
  6592  1172  0973               	comf	___xxtofl@val+1,w
  6593  1173  00A3               	movwf	___xxtofl@arg+1
  6594  1174  0974               	comf	___xxtofl@val+2,w
  6595  1175  00A4               	movwf	___xxtofl@arg+2
  6596  1176  0975               	comf	___xxtofl@val+3,w
  6597  1177  00A5               	movwf	___xxtofl@arg+3
  6598  1178  0AA2               	incf	___xxtofl@arg,f
  6599  1179  1903               	skipnz
  6600  117A  0AA3               	incf	___xxtofl@arg+1,f
  6601  117B  1903               	skipnz
  6602  117C  0AA4               	incf	___xxtofl@arg+2,f
  6603  117D  1903               	skipnz
  6604  117E  0AA5               	incf	___xxtofl@arg+3,f
  6605  117F  2988               	goto	l771
  6606  1180                     l3092:
  6607  1180  0875               	movf	___xxtofl@val+3,w
  6608  1181  00A5               	movwf	___xxtofl@arg+3
  6609  1182  0874               	movf	___xxtofl@val+2,w
  6610  1183  00A4               	movwf	___xxtofl@arg+2
  6611  1184  0873               	movf	___xxtofl@val+1,w
  6612  1185  00A3               	movwf	___xxtofl@arg+1
  6613  1186  0872               	movf	___xxtofl@val,w
  6614  1187  00A2               	movwf	___xxtofl@arg
  6615  1188                     l771:
  6616  1188  0875               	movf	___xxtofl@val+3,w
  6617  1189  0474               	iorwf	___xxtofl@val+2,w
  6618  118A  0473               	iorwf	___xxtofl@val+1,w
  6619  118B  0472               	iorwf	___xxtofl@val,w
  6620  118C  1D03               	skipz
  6621  118D  298F               	goto	u5101
  6622  118E  2990               	goto	u5100
  6623  118F                     u5101:
  6624  118F  2999               	goto	l3098
  6625  1190                     u5100:
  6626  1190                     l3094:
  6627  1190  3000               	movlw	0
  6628  1191  00F5               	movwf	?___xxtofl+3
  6629  1192  3000               	movlw	0
  6630  1193  00F4               	movwf	?___xxtofl+2
  6631  1194  3000               	movlw	0
  6632  1195  00F3               	movwf	?___xxtofl+1
  6633  1196  3000               	movlw	0
  6634  1197  00F2               	movwf	?___xxtofl
  6635  1198  2A1F               	goto	l773
  6636  1199                     l3098:
  6637  1199  3096               	movlw	150
  6638  119A  00FF               	movwf	btemp+1
  6639  119B  087F               	movf	btemp+1,w
  6640  119C  00A1               	movwf	___xxtofl@exp
  6641  119D  29AB               	goto	l3104
  6642  119E                     l3100:
  6643  119E  3001               	movlw	1
  6644  119F  00FF               	movwf	btemp+1
  6645  11A0  087F               	movf	btemp+1,w
  6646  11A1  07A1               	addwf	___xxtofl@exp,f
  6647  11A2                     l3102:
  6648  11A2  3001               	movlw	1
  6649  11A3                     u5115:
  6650  11A3  1003               	clrc
  6651  11A4  0CA5               	rrf	___xxtofl@arg+3,f
  6652  11A5  0CA4               	rrf	___xxtofl@arg+2,f
  6653  11A6  0CA3               	rrf	___xxtofl@arg+1,f
  6654  11A7  0CA2               	rrf	___xxtofl@arg,f
  6655  11A8  3EFF               	addlw	-1
  6656  11A9  1D03               	skipz
  6657  11AA  29A3               	goto	u5115
  6658  11AB                     l3104:
  6659  11AB  30FE               	movlw	254
  6660  11AC  0525               	andwf	___xxtofl@arg+3,w
  6661  11AD  1D03               	btfss	3,2
  6662  11AE  29B0               	goto	u5121
  6663  11AF  29B1               	goto	u5120
  6664  11B0                     u5121:
  6665  11B0  299E               	goto	l3100
  6666  11B1                     u5120:
  6667  11B1  29CD               	goto	l3112
  6668  11B2                     l3106:
  6669  11B2  3001               	movlw	1
  6670  11B3  00FF               	movwf	btemp+1
  6671  11B4  087F               	movf	btemp+1,w
  6672  11B5  07A1               	addwf	___xxtofl@exp,f
  6673  11B6                     l3108:
  6674  11B6  3001               	movlw	1
  6675  11B7  07A2               	addwf	___xxtofl@arg,f
  6676  11B8  3000               	movlw	0
  6677  11B9  1803               	skipnc
  6678  11BA  3001               	movlw	1
  6679  11BB  07A3               	addwf	___xxtofl@arg+1,f
  6680  11BC  3000               	movlw	0
  6681  11BD  1803               	skipnc
  6682  11BE  3001               	movlw	1
  6683  11BF  07A4               	addwf	___xxtofl@arg+2,f
  6684  11C0  3000               	movlw	0
  6685  11C1  1803               	skipnc
  6686  11C2  3001               	movlw	1
  6687  11C3  07A5               	addwf	___xxtofl@arg+3,f
  6688  11C4                     l3110:
  6689  11C4  3001               	movlw	1
  6690  11C5                     u5135:
  6691  11C5  1003               	clrc
  6692  11C6  0CA5               	rrf	___xxtofl@arg+3,f
  6693  11C7  0CA4               	rrf	___xxtofl@arg+2,f
  6694  11C8  0CA3               	rrf	___xxtofl@arg+1,f
  6695  11C9  0CA2               	rrf	___xxtofl@arg,f
  6696  11CA  3EFF               	addlw	-1
  6697  11CB  1D03               	skipz
  6698  11CC  29C5               	goto	u5135
  6699  11CD                     l3112:
  6700  11CD  30FF               	movlw	255
  6701  11CE  0525               	andwf	___xxtofl@arg+3,w
  6702  11CF  1D03               	btfss	3,2
  6703  11D0  29D2               	goto	u5141
  6704  11D1  29D3               	goto	u5140
  6705  11D2                     u5141:
  6706  11D2  29B2               	goto	l3106
  6707  11D3                     u5140:
  6708  11D3  29DF               	goto	l3116
  6709  11D4                     l3114:
  6710  11D4  3001               	movlw	1
  6711  11D5  02A1               	subwf	___xxtofl@exp,f
  6712  11D6  3001               	movlw	1
  6713  11D7  00F6               	movwf	??___xxtofl
  6714  11D8                     u5155:
  6715  11D8  1003               	clrc
  6716  11D9  0DA2               	rlf	___xxtofl@arg,f
  6717  11DA  0DA3               	rlf	___xxtofl@arg+1,f
  6718  11DB  0DA4               	rlf	___xxtofl@arg+2,f
  6719  11DC  0DA5               	rlf	___xxtofl@arg+3,f
  6720  11DD  0BF6               	decfsz	??___xxtofl,f
  6721  11DE  29D8               	goto	u5155
  6722  11DF                     l3116:
  6723  11DF  1BA4               	btfsc	___xxtofl@arg+2,7
  6724  11E0  29E2               	goto	u5161
  6725  11E1  29E3               	goto	u5160
  6726  11E2                     u5161:
  6727  11E2  29E9               	goto	l784
  6728  11E3                     u5160:
  6729  11E3                     l3118:
  6730  11E3  3002               	movlw	2
  6731  11E4  0221               	subwf	___xxtofl@exp,w
  6732  11E5  1803               	skipnc
  6733  11E6  29E8               	goto	u5171
  6734  11E7  29E9               	goto	u5170
  6735  11E8                     u5171:
  6736  11E8  29D4               	goto	l3114
  6737  11E9                     u5170:
  6738  11E9                     l784:
  6739  11E9  1821               	btfsc	___xxtofl@exp,0
  6740  11EA  29EC               	goto	u5181
  6741  11EB  29ED               	goto	u5180
  6742  11EC                     u5181:
  6743  11EC  29F5               	goto	l785
  6744  11ED                     u5180:
  6745  11ED                     l3120:
  6746  11ED  30FF               	movlw	255
  6747  11EE  05A2               	andwf	___xxtofl@arg,f
  6748  11EF  30FF               	movlw	255
  6749  11F0  05A3               	andwf	___xxtofl@arg+1,f
  6750  11F1  307F               	movlw	127
  6751  11F2  05A4               	andwf	___xxtofl@arg+2,f
  6752  11F3  30FF               	movlw	255
  6753  11F4  05A5               	andwf	___xxtofl@arg+3,f
  6754  11F5                     l785:
  6755  11F5  1003               	clrc
  6756  11F6  0CA1               	rrf	___xxtofl@exp,f
  6757  11F7                     l3122:
  6758  11F7  0821               	movf	___xxtofl@exp,w
  6759  11F8  00F6               	movwf	??___xxtofl
  6760  11F9  01F7               	clrf	??___xxtofl+1
  6761  11FA  01F8               	clrf	??___xxtofl+2
  6762  11FB  01F9               	clrf	??___xxtofl+3
  6763  11FC  3018               	movlw	24
  6764  11FD                     u5195:
  6765  11FD  1003               	clrc
  6766  11FE  0DF6               	rlf	??___xxtofl,f
  6767  11FF  0DF7               	rlf	??___xxtofl+1,f
  6768  1200  0DF8               	rlf	??___xxtofl+2,f
  6769  1201  0DF9               	rlf	??___xxtofl+3,f
  6770  1202                     u5190:
  6771  1202  3EFF               	addlw	-1
  6772  1203  1D03               	skipz
  6773  1204  29FD               	goto	u5195
  6774  1205  0876               	movf	??___xxtofl,w
  6775  1206  04A2               	iorwf	___xxtofl@arg,f
  6776  1207  0877               	movf	??___xxtofl+1,w
  6777  1208  04A3               	iorwf	___xxtofl@arg+1,f
  6778  1209  0878               	movf	??___xxtofl+2,w
  6779  120A  04A4               	iorwf	___xxtofl@arg+2,f
  6780  120B  0879               	movf	??___xxtofl+3,w
  6781  120C  04A5               	iorwf	___xxtofl@arg+3,f
  6782  120D                     l3124:
  6783  120D  0820               	movf	___xxtofl@sign,w
  6784  120E  1903               	btfsc	3,2
  6785  120F  2A11               	goto	u5201
  6786  1210  2A12               	goto	u5200
  6787  1211                     u5201:
  6788  1211  2A17               	goto	l3130
  6789  1212                     u5200:
  6790  1212                     l3126:
  6791  1212  1FF5               	btfss	___xxtofl@val+3,7
  6792  1213  2A15               	goto	u5211
  6793  1214  2A16               	goto	u5210
  6794  1215                     u5211:
  6795  1215  2A17               	goto	l3130
  6796  1216                     u5210:
  6797  1216                     l3128:
  6798  1216  17A5               	bsf	___xxtofl@arg+3,7
  6799  1217                     l3130:
  6800  1217  0825               	movf	___xxtofl@arg+3,w
  6801  1218  00F5               	movwf	?___xxtofl+3
  6802  1219  0824               	movf	___xxtofl@arg+2,w
  6803  121A  00F4               	movwf	?___xxtofl+2
  6804  121B  0823               	movf	___xxtofl@arg+1,w
  6805  121C  00F3               	movwf	?___xxtofl+1
  6806  121D  0822               	movf	___xxtofl@arg,w
  6807  121E  00F2               	movwf	?___xxtofl
  6808  121F                     l773:
  6809  121F  0008               	return
  6810  1220                     __end_of___xxtofl:
  6811                           
  6812                           	psect	text14
  6813  1C6F                     __ptext14:	
  6814 ;; *************** function ___wmul *****************
  6815 ;; Defined at:
  6816 ;;		line 15 in file "C:\Program Files\Microchip\xc8\v2.20\pic\sources\c90\common\Umul16.c"
  6817 ;; Parameters:    Size  Location     Type
  6818 ;;  multiplier      2    2[COMMON] unsigned int 
  6819 ;;  multiplicand    2    4[COMMON] unsigned int 
  6820 ;; Auto vars:     Size  Location     Type
  6821 ;;  product         2    6[COMMON] unsigned int 
  6822 ;; Return value:  Size  Location     Type
  6823 ;;                  2    2[COMMON] unsigned int 
  6824 ;; Registers used:
  6825 ;;		wreg, status,2, status,0
  6826 ;; Tracked objects:
  6827 ;;		On entry : 0/0
  6828 ;;		On exit  : 0/0
  6829 ;;		Unchanged: 0/0
  6830 ;; Data sizes:     COMMON   BANK0   BANK1   BANK3   BANK2
  6831 ;;      Params:         4       0       0       0       0
  6832 ;;      Locals:         2       0       0       0       0
  6833 ;;      Temps:          0       0       0       0       0
  6834 ;;      Totals:         6       0       0       0       0
  6835 ;;Total ram usage:        6 bytes
  6836 ;; Hardware stack levels used:    1
  6837 ;; Hardware stack levels required when called:    1
  6838 ;; This function calls:
  6839 ;;		Nothing
  6840 ;; This function is called by:
  6841 ;;		_sprintf
  6842 ;; This function uses a non-reentrant model
  6843 ;;
  6844                           
  6845                           
  6846                           ;psect for function ___wmul
  6847  1C6F                     ___wmul:
  6848  1C6F                     l2940:	
  6849                           ;incstack = 0
  6850                           ; Regs used in ___wmul: [wreg+status,2+status,0]
  6851                           
  6852  1C6F  01F6               	clrf	___wmul@product
  6853  1C70  01F7               	clrf	___wmul@product+1
  6854  1C71                     l2942:
  6855  1C71  1C72               	btfss	___wmul@multiplier,0
  6856  1C72  2C74               	goto	u4701
  6857  1C73  2C75               	goto	u4700
  6858  1C74                     u4701:
  6859  1C74  2C7B               	goto	l304
  6860  1C75                     u4700:
  6861  1C75                     l2944:
  6862  1C75  0874               	movf	___wmul@multiplicand,w
  6863  1C76  07F6               	addwf	___wmul@product,f
  6864  1C77  1803               	skipnc
  6865  1C78  0AF7               	incf	___wmul@product+1,f
  6866  1C79  0875               	movf	___wmul@multiplicand+1,w
  6867  1C7A  07F7               	addwf	___wmul@product+1,f
  6868  1C7B                     l304:
  6869  1C7B  3001               	movlw	1
  6870  1C7C                     u4715:
  6871  1C7C  1003               	clrc
  6872  1C7D  0DF4               	rlf	___wmul@multiplicand,f
  6873  1C7E  0DF5               	rlf	___wmul@multiplicand+1,f
  6874  1C7F  3EFF               	addlw	-1
  6875  1C80  1D03               	skipz
  6876  1C81  2C7C               	goto	u4715
  6877  1C82                     l2946:
  6878  1C82  3001               	movlw	1
  6879  1C83                     u4725:
  6880  1C83  1003               	clrc
  6881  1C84  0CF3               	rrf	___wmul@multiplier+1,f
  6882  1C85  0CF2               	rrf	___wmul@multiplier,f
  6883  1C86  3EFF               	addlw	-1
  6884  1C87  1D03               	skipz
  6885  1C88  2C83               	goto	u4725
  6886  1C89                     l2948:
  6887  1C89  0872               	movf	___wmul@multiplier,w
  6888  1C8A  0473               	iorwf	___wmul@multiplier+1,w
  6889  1C8B  1D03               	btfss	3,2
  6890  1C8C  2C8E               	goto	u4731
  6891  1C8D  2C8F               	goto	u4730
  6892  1C8E                     u4731:
  6893  1C8E  2C71               	goto	l2942
  6894  1C8F                     u4730:
  6895  1C8F                     l2950:
  6896  1C8F  0877               	movf	___wmul@product+1,w
  6897  1C90  00F3               	movwf	?___wmul+1
  6898  1C91  0876               	movf	___wmul@product,w
  6899  1C92  00F2               	movwf	?___wmul
  6900  1C93                     l306:
  6901  1C93  0008               	return
  6902  1C94                     __end_of___wmul:
  6903                           
  6904                           	psect	text15
  6905  1E08                     __ptext15:	
  6906 ;; *************** function ___llmod *****************
  6907 ;; Defined at:
  6908 ;;		line 5 in file "C:\Program Files\Microchip\xc8\v2.20\pic\sources\c90\common\llmod.c"
  6909 ;; Parameters:    Size  Location     Type
  6910 ;;  divisor         4    2[COMMON] unsigned long 
  6911 ;;  dividend        4    6[COMMON] unsigned long 
  6912 ;; Auto vars:     Size  Location     Type
  6913 ;;  counter         1   11[COMMON] unsigned char 
  6914 ;; Return value:  Size  Location     Type
  6915 ;;                  4    2[COMMON] unsigned long 
  6916 ;; Registers used:
  6917 ;;		wreg, status,2, status,0, btemp+1
  6918 ;; Tracked objects:
  6919 ;;		On entry : 0/0
  6920 ;;		On exit  : 0/0
  6921 ;;		Unchanged: 0/0
  6922 ;; Data sizes:     COMMON   BANK0   BANK1   BANK3   BANK2
  6923 ;;      Params:         8       0       0       0       0
  6924 ;;      Locals:         1       0       0       0       0
  6925 ;;      Temps:          1       0       0       0       0
  6926 ;;      Totals:        10       0       0       0       0
  6927 ;;Total ram usage:       10 bytes
  6928 ;; Hardware stack levels used:    1
  6929 ;; Hardware stack levels required when called:    1
  6930 ;; This function calls:
  6931 ;;		Nothing
  6932 ;; This function is called by:
  6933 ;;		_sprintf
  6934 ;; This function uses a non-reentrant model
  6935 ;;
  6936                           
  6937                           
  6938                           ;psect for function ___llmod
  6939  1E08                     ___llmod:
  6940  1E08                     l3058:	
  6941                           ;incstack = 0
  6942                           ; Regs used in ___llmod: [wreg+status,2+status,0+btemp+1]
  6943                           
  6944  1E08  0875               	movf	___llmod@divisor+3,w
  6945  1E09  0474               	iorwf	___llmod@divisor+2,w
  6946  1E0A  0473               	iorwf	___llmod@divisor+1,w
  6947  1E0B  0472               	iorwf	___llmod@divisor,w
  6948  1E0C  1903               	skipnz
  6949  1E0D  2E0F               	goto	u5021
  6950  1E0E  2E10               	goto	u5020
  6951  1E0F                     u5021:
  6952  1E0F  2E53               	goto	l3076
  6953  1E10                     u5020:
  6954  1E10                     l3060:
  6955  1E10  01FB               	clrf	___llmod@counter
  6956  1E11  0AFB               	incf	___llmod@counter,f
  6957  1E12  2E20               	goto	l3066
  6958  1E13                     l3062:
  6959  1E13  3001               	movlw	1
  6960  1E14  00FA               	movwf	??___llmod
  6961  1E15                     u5035:
  6962  1E15  1003               	clrc
  6963  1E16  0DF2               	rlf	___llmod@divisor,f
  6964  1E17  0DF3               	rlf	___llmod@divisor+1,f
  6965  1E18  0DF4               	rlf	___llmod@divisor+2,f
  6966  1E19  0DF5               	rlf	___llmod@divisor+3,f
  6967  1E1A  0BFA               	decfsz	??___llmod,f
  6968  1E1B  2E15               	goto	u5035
  6969  1E1C                     l3064:
  6970  1E1C  3001               	movlw	1
  6971  1E1D  00FF               	movwf	btemp+1
  6972  1E1E  087F               	movf	btemp+1,w
  6973  1E1F  07FB               	addwf	___llmod@counter,f
  6974  1E20                     l3066:
  6975  1E20  1FF5               	btfss	___llmod@divisor+3,7
  6976  1E21  2E23               	goto	u5041
  6977  1E22  2E24               	goto	u5040
  6978  1E23                     u5041:
  6979  1E23  2E13               	goto	l3062
  6980  1E24                     u5040:
  6981  1E24                     l3068:
  6982  1E24  0875               	movf	___llmod@divisor+3,w
  6983  1E25  0279               	subwf	___llmod@dividend+3,w
  6984  1E26  1D03               	skipz
  6985  1E27  2E32               	goto	u5055
  6986  1E28  0874               	movf	___llmod@divisor+2,w
  6987  1E29  0278               	subwf	___llmod@dividend+2,w
  6988  1E2A  1D03               	skipz
  6989  1E2B  2E32               	goto	u5055
  6990  1E2C  0873               	movf	___llmod@divisor+1,w
  6991  1E2D  0277               	subwf	___llmod@dividend+1,w
  6992  1E2E  1D03               	skipz
  6993  1E2F  2E32               	goto	u5055
  6994  1E30  0872               	movf	___llmod@divisor,w
  6995  1E31  0276               	subwf	___llmod@dividend,w
  6996  1E32                     u5055:
  6997  1E32  1C03               	skipc
  6998  1E33  2E35               	goto	u5051
  6999  1E34  2E36               	goto	u5050
  7000  1E35                     u5051:
  7001  1E35  2E44               	goto	l3072
  7002  1E36                     u5050:
  7003  1E36                     l3070:
  7004  1E36  0872               	movf	___llmod@divisor,w
  7005  1E37  02F6               	subwf	___llmod@dividend,f
  7006  1E38  0873               	movf	___llmod@divisor+1,w
  7007  1E39  1C03               	skipc
  7008  1E3A  0F73               	incfsz	___llmod@divisor+1,w
  7009  1E3B  02F7               	subwf	___llmod@dividend+1,f
  7010  1E3C  0874               	movf	___llmod@divisor+2,w
  7011  1E3D  1C03               	skipc
  7012  1E3E  0F74               	incfsz	___llmod@divisor+2,w
  7013  1E3F  02F8               	subwf	___llmod@dividend+2,f
  7014  1E40  0875               	movf	___llmod@divisor+3,w
  7015  1E41  1C03               	skipc
  7016  1E42  0F75               	incfsz	___llmod@divisor+3,w
  7017  1E43  02F9               	subwf	___llmod@dividend+3,f
  7018  1E44                     l3072:
  7019  1E44  3001               	movlw	1
  7020  1E45                     u5065:
  7021  1E45  1003               	clrc
  7022  1E46  0CF5               	rrf	___llmod@divisor+3,f
  7023  1E47  0CF4               	rrf	___llmod@divisor+2,f
  7024  1E48  0CF3               	rrf	___llmod@divisor+1,f
  7025  1E49  0CF2               	rrf	___llmod@divisor,f
  7026  1E4A  3EFF               	addlw	-1
  7027  1E4B  1D03               	skipz
  7028  1E4C  2E45               	goto	u5065
  7029  1E4D                     l3074:
  7030  1E4D  3001               	movlw	1
  7031  1E4E  02FB               	subwf	___llmod@counter,f
  7032  1E4F  1D03               	btfss	3,2
  7033  1E50  2E52               	goto	u5071
  7034  1E51  2E53               	goto	u5070
  7035  1E52                     u5071:
  7036  1E52  2E24               	goto	l3068
  7037  1E53                     u5070:
  7038  1E53                     l3076:
  7039  1E53  0879               	movf	___llmod@dividend+3,w
  7040  1E54  00F5               	movwf	?___llmod+3
  7041  1E55  0878               	movf	___llmod@dividend+2,w
  7042  1E56  00F4               	movwf	?___llmod+2
  7043  1E57  0877               	movf	___llmod@dividend+1,w
  7044  1E58  00F3               	movwf	?___llmod+1
  7045  1E59  0876               	movf	___llmod@dividend,w
  7046  1E5A  00F2               	movwf	?___llmod
  7047  1E5B                     l560:
  7048  1E5B  0008               	return
  7049  1E5C                     __end_of___llmod:
  7050                           
  7051                           	psect	text16
  7052  1F1C                     __ptext16:	
  7053 ;; *************** function ___lldiv *****************
  7054 ;; Defined at:
  7055 ;;		line 5 in file "C:\Program Files\Microchip\xc8\v2.20\pic\sources\c90\common\__lldiv.c"
  7056 ;; Parameters:    Size  Location     Type
  7057 ;;  divisor         4    2[COMMON] unsigned long 
  7058 ;;  dividend        4    6[COMMON] unsigned long 
  7059 ;; Auto vars:     Size  Location     Type
  7060 ;;  quotient        4    0[BANK0 ] unsigned long 
  7061 ;;  counter         1    4[BANK0 ] unsigned char 
  7062 ;; Return value:  Size  Location     Type
  7063 ;;                  4    2[COMMON] unsigned long 
  7064 ;; Registers used:
  7065 ;;		wreg, status,2, status,0, btemp+1
  7066 ;; Tracked objects:
  7067 ;;		On entry : 0/0
  7068 ;;		On exit  : 0/0
  7069 ;;		Unchanged: 0/0
  7070 ;; Data sizes:     COMMON   BANK0   BANK1   BANK3   BANK2
  7071 ;;      Params:         8       0       0       0       0
  7072 ;;      Locals:         0       5       0       0       0
  7073 ;;      Temps:          1       0       0       0       0
  7074 ;;      Totals:         9       5       0       0       0
  7075 ;;Total ram usage:       14 bytes
  7076 ;; Hardware stack levels used:    1
  7077 ;; Hardware stack levels required when called:    1
  7078 ;; This function calls:
  7079 ;;		Nothing
  7080 ;; This function is called by:
  7081 ;;		_sprintf
  7082 ;; This function uses a non-reentrant model
  7083 ;;
  7084                           
  7085                           
  7086                           ;psect for function ___lldiv
  7087  1F1C                     ___lldiv:
  7088  1F1C                     l2954:	
  7089                           ;incstack = 0
  7090                           ; Regs used in ___lldiv: [wreg+status,2+status,0+btemp+1]
  7091                           
  7092  1F1C  3000               	movlw	0
  7093  1F1D  1283               	bcf	3,5	;RP0=0, select bank0
  7094  1F1E  1303               	bcf	3,6	;RP1=0, select bank0
  7095  1F1F  00A3               	movwf	___lldiv@quotient+3
  7096  1F20  3000               	movlw	0
  7097  1F21  00A2               	movwf	___lldiv@quotient+2
  7098  1F22  3000               	movlw	0
  7099  1F23  00A1               	movwf	___lldiv@quotient+1
  7100  1F24  3000               	movlw	0
  7101  1F25  00A0               	movwf	___lldiv@quotient
  7102  1F26  0875               	movf	___lldiv@divisor+3,w
  7103  1F27  0474               	iorwf	___lldiv@divisor+2,w
  7104  1F28  0473               	iorwf	___lldiv@divisor+1,w
  7105  1F29  0472               	iorwf	___lldiv@divisor,w
  7106  1F2A  1903               	skipnz
  7107  1F2B  2F2D               	goto	u4741
  7108  1F2C  2F2E               	goto	u4740
  7109  1F2D                     u4741:
  7110  1F2D  2F7B               	goto	l2976
  7111  1F2E                     u4740:
  7112  1F2E                     l2956:
  7113  1F2E  01A4               	clrf	___lldiv@counter
  7114  1F2F  0AA4               	incf	___lldiv@counter,f
  7115  1F30  2F3E               	goto	l2962
  7116  1F31                     l2958:
  7117  1F31  3001               	movlw	1
  7118  1F32  00FA               	movwf	??___lldiv
  7119  1F33                     u4755:
  7120  1F33  1003               	clrc
  7121  1F34  0DF2               	rlf	___lldiv@divisor,f
  7122  1F35  0DF3               	rlf	___lldiv@divisor+1,f
  7123  1F36  0DF4               	rlf	___lldiv@divisor+2,f
  7124  1F37  0DF5               	rlf	___lldiv@divisor+3,f
  7125  1F38  0BFA               	decfsz	??___lldiv,f
  7126  1F39  2F33               	goto	u4755
  7127  1F3A                     l2960:
  7128  1F3A  3001               	movlw	1
  7129  1F3B  00FF               	movwf	btemp+1
  7130  1F3C  087F               	movf	btemp+1,w
  7131  1F3D  07A4               	addwf	___lldiv@counter,f
  7132  1F3E                     l2962:
  7133  1F3E  1FF5               	btfss	___lldiv@divisor+3,7
  7134  1F3F  2F41               	goto	u4761
  7135  1F40  2F42               	goto	u4760
  7136  1F41                     u4761:
  7137  1F41  2F31               	goto	l2958
  7138  1F42                     u4760:
  7139  1F42                     l2964:
  7140  1F42  3001               	movlw	1
  7141  1F43  00FA               	movwf	??___lldiv
  7142  1F44                     u4775:
  7143  1F44  1003               	clrc
  7144  1F45  0DA0               	rlf	___lldiv@quotient,f
  7145  1F46  0DA1               	rlf	___lldiv@quotient+1,f
  7146  1F47  0DA2               	rlf	___lldiv@quotient+2,f
  7147  1F48  0DA3               	rlf	___lldiv@quotient+3,f
  7148  1F49  0BFA               	decfsz	??___lldiv,f
  7149  1F4A  2F44               	goto	u4775
  7150  1F4B                     l2966:
  7151  1F4B  0875               	movf	___lldiv@divisor+3,w
  7152  1F4C  0279               	subwf	___lldiv@dividend+3,w
  7153  1F4D  1D03               	skipz
  7154  1F4E  2F59               	goto	u4785
  7155  1F4F  0874               	movf	___lldiv@divisor+2,w
  7156  1F50  0278               	subwf	___lldiv@dividend+2,w
  7157  1F51  1D03               	skipz
  7158  1F52  2F59               	goto	u4785
  7159  1F53  0873               	movf	___lldiv@divisor+1,w
  7160  1F54  0277               	subwf	___lldiv@dividend+1,w
  7161  1F55  1D03               	skipz
  7162  1F56  2F59               	goto	u4785
  7163  1F57  0872               	movf	___lldiv@divisor,w
  7164  1F58  0276               	subwf	___lldiv@dividend,w
  7165  1F59                     u4785:
  7166  1F59  1C03               	skipc
  7167  1F5A  2F5C               	goto	u4781
  7168  1F5B  2F5D               	goto	u4780
  7169  1F5C                     u4781:
  7170  1F5C  2F6C               	goto	l2972
  7171  1F5D                     u4780:
  7172  1F5D                     l2968:
  7173  1F5D  0872               	movf	___lldiv@divisor,w
  7174  1F5E  02F6               	subwf	___lldiv@dividend,f
  7175  1F5F  0873               	movf	___lldiv@divisor+1,w
  7176  1F60  1C03               	skipc
  7177  1F61  0F73               	incfsz	___lldiv@divisor+1,w
  7178  1F62  02F7               	subwf	___lldiv@dividend+1,f
  7179  1F63  0874               	movf	___lldiv@divisor+2,w
  7180  1F64  1C03               	skipc
  7181  1F65  0F74               	incfsz	___lldiv@divisor+2,w
  7182  1F66  02F8               	subwf	___lldiv@dividend+2,f
  7183  1F67  0875               	movf	___lldiv@divisor+3,w
  7184  1F68  1C03               	skipc
  7185  1F69  0F75               	incfsz	___lldiv@divisor+3,w
  7186  1F6A  02F9               	subwf	___lldiv@dividend+3,f
  7187  1F6B                     l2970:
  7188  1F6B  1420               	bsf	___lldiv@quotient,0
  7189  1F6C                     l2972:
  7190  1F6C  3001               	movlw	1
  7191  1F6D                     u4795:
  7192  1F6D  1003               	clrc
  7193  1F6E  0CF5               	rrf	___lldiv@divisor+3,f
  7194  1F6F  0CF4               	rrf	___lldiv@divisor+2,f
  7195  1F70  0CF3               	rrf	___lldiv@divisor+1,f
  7196  1F71  0CF2               	rrf	___lldiv@divisor,f
  7197  1F72  3EFF               	addlw	-1
  7198  1F73  1D03               	skipz
  7199  1F74  2F6D               	goto	u4795
  7200  1F75                     l2974:
  7201  1F75  3001               	movlw	1
  7202  1F76  02A4               	subwf	___lldiv@counter,f
  7203  1F77  1D03               	btfss	3,2
  7204  1F78  2F7A               	goto	u4801
  7205  1F79  2F7B               	goto	u4800
  7206  1F7A                     u4801:
  7207  1F7A  2F42               	goto	l2964
  7208  1F7B                     u4800:
  7209  1F7B                     l2976:
  7210  1F7B  0823               	movf	___lldiv@quotient+3,w
  7211  1F7C  00F5               	movwf	?___lldiv+3
  7212  1F7D  0822               	movf	___lldiv@quotient+2,w
  7213  1F7E  00F4               	movwf	?___lldiv+2
  7214  1F7F  0821               	movf	___lldiv@quotient+1,w
  7215  1F80  00F3               	movwf	?___lldiv+1
  7216  1F81  0820               	movf	___lldiv@quotient,w
  7217  1F82  00F2               	movwf	?___lldiv
  7218  1F83                     l340:
  7219  1F83  0008               	return
  7220  1F84                     __end_of___lldiv:
  7221                           
  7222                           	psect	text17
  7223  1F84                     __ptext17:	
  7224 ;; *************** function ___fltol *****************
  7225 ;; Defined at:
  7226 ;;		line 43 in file "C:\Program Files\Microchip\xc8\v2.20\pic\sources\c90\common\fltol.c"
  7227 ;; Parameters:    Size  Location     Type
  7228 ;;  f1              4   49[BANK0 ] unsigned long 
  7229 ;; Auto vars:     Size  Location     Type
  7230 ;;  exp1            1   58[BANK0 ] unsigned char 
  7231 ;;  sign1           1   57[BANK0 ] unsigned char 
  7232 ;; Return value:  Size  Location     Type
  7233 ;;                  4   49[BANK0 ] long 
  7234 ;; Registers used:
  7235 ;;		wreg, status,2, status,0, btemp+1
  7236 ;; Tracked objects:
  7237 ;;		On entry : 0/0
  7238 ;;		On exit  : 0/0
  7239 ;;		Unchanged: 0/0
  7240 ;; Data sizes:     COMMON   BANK0   BANK1   BANK3   BANK2
  7241 ;;      Params:         0       4       0       0       0
  7242 ;;      Locals:         0       2       0       0       0
  7243 ;;      Temps:          0       4       0       0       0
  7244 ;;      Totals:         0      10       0       0       0
  7245 ;;Total ram usage:       10 bytes
  7246 ;; Hardware stack levels used:    1
  7247 ;; Hardware stack levels required when called:    1
  7248 ;; This function calls:
  7249 ;;		Nothing
  7250 ;; This function is called by:
  7251 ;;		_sprintf
  7252 ;; This function uses a non-reentrant model
  7253 ;;
  7254                           
  7255                           
  7256                           ;psect for function ___fltol
  7257  1F84                     ___fltol:
  7258  1F84                     l3020:	
  7259                           ;incstack = 0
  7260                           ; Regs used in ___fltol: [wreg+status,2+status,0+btemp+1]
  7261                           
  7262  1F84  1003               	clrc
  7263  1F85  1283               	bcf	3,5	;RP0=0, select bank0
  7264  1F86  1303               	bcf	3,6	;RP1=0, select bank0
  7265  1F87  0D53               	rlf	___fltol@f1+2,w
  7266  1F88  0D54               	rlf	___fltol@f1+3,w
  7267  1F89  00FF               	movwf	btemp+1
  7268  1F8A  087F               	movf	btemp+1,w
  7269  1F8B  00DA               	movwf	___fltol@exp1
  7270  1F8C  085A               	movf	___fltol@exp1,w
  7271  1F8D  1D03               	btfss	3,2
  7272  1F8E  2F90               	goto	u4921
  7273  1F8F  2F91               	goto	u4920
  7274  1F90                     u4921:
  7275  1F90  2F9A               	goto	l3026
  7276  1F91                     u4920:
  7277  1F91                     l3022:
  7278  1F91  3000               	movlw	0
  7279  1F92  00D4               	movwf	?___fltol+3
  7280  1F93  3000               	movlw	0
  7281  1F94  00D3               	movwf	?___fltol+2
  7282  1F95  3000               	movlw	0
  7283  1F96  00D2               	movwf	?___fltol+1
  7284  1F97  3000               	movlw	0
  7285  1F98  00D1               	movwf	?___fltol
  7286  1F99  2FFF               	goto	l507
  7287  1F9A                     l3026:
  7288  1F9A  0851               	movf	___fltol@f1,w
  7289  1F9B  00D5               	movwf	??___fltol
  7290  1F9C  0852               	movf	___fltol@f1+1,w
  7291  1F9D  00D6               	movwf	??___fltol+1
  7292  1F9E  0853               	movf	___fltol@f1+2,w
  7293  1F9F  00D7               	movwf	??___fltol+2
  7294  1FA0  0854               	movf	___fltol@f1+3,w
  7295  1FA1  00D8               	movwf	??___fltol+3
  7296  1FA2  301F               	movlw	31
  7297  1FA3                     u4935:
  7298  1FA3  1003               	clrc
  7299  1FA4  0CD8               	rrf	??___fltol+3,f
  7300  1FA5  0CD7               	rrf	??___fltol+2,f
  7301  1FA6  0CD6               	rrf	??___fltol+1,f
  7302  1FA7  0CD5               	rrf	??___fltol,f
  7303  1FA8                     u4930:
  7304  1FA8  3EFF               	addlw	-1
  7305  1FA9  1D03               	skipz
  7306  1FAA  2FA3               	goto	u4935
  7307  1FAB  0855               	movf	??___fltol,w
  7308  1FAC  00FF               	movwf	btemp+1
  7309  1FAD  087F               	movf	btemp+1,w
  7310  1FAE  00D9               	movwf	___fltol@sign1
  7311  1FAF                     l3028:
  7312  1FAF  17D3               	bsf	___fltol@f1+2,7
  7313  1FB0                     l3030:
  7314  1FB0  30FF               	movlw	255
  7315  1FB1  05D1               	andwf	___fltol@f1,f
  7316  1FB2  30FF               	movlw	255
  7317  1FB3  05D2               	andwf	___fltol@f1+1,f
  7318  1FB4  30FF               	movlw	255
  7319  1FB5  05D3               	andwf	___fltol@f1+2,f
  7320  1FB6  3000               	movlw	0
  7321  1FB7  05D4               	andwf	___fltol@f1+3,f
  7322  1FB8                     l3032:
  7323  1FB8  3096               	movlw	150
  7324  1FB9  02DA               	subwf	___fltol@exp1,f
  7325  1FBA                     l3034:
  7326  1FBA  1FDA               	btfss	___fltol@exp1,7
  7327  1FBB  2FBD               	goto	u4941
  7328  1FBC  2FBE               	goto	u4940
  7329  1FBD                     u4941:
  7330  1FBD  2FD8               	goto	l3046
  7331  1FBE                     u4940:
  7332  1FBE                     l3036:
  7333  1FBE  085A               	movf	___fltol@exp1,w
  7334  1FBF  3A80               	xorlw	128
  7335  1FC0  3E97               	addlw	151
  7336  1FC1  1803               	skipnc
  7337  1FC2  2FC4               	goto	u4951
  7338  1FC3  2FC5               	goto	u4950
  7339  1FC4                     u4951:
  7340  1FC4  2FC6               	goto	l3042
  7341  1FC5                     u4950:
  7342  1FC5  2F91               	goto	l3022
  7343  1FC6                     l3042:
  7344  1FC6  3001               	movlw	1
  7345  1FC7                     u4965:
  7346  1FC7  1003               	clrc
  7347  1FC8  0CD4               	rrf	___fltol@f1+3,f
  7348  1FC9  0CD3               	rrf	___fltol@f1+2,f
  7349  1FCA  0CD2               	rrf	___fltol@f1+1,f
  7350  1FCB  0CD1               	rrf	___fltol@f1,f
  7351  1FCC  3EFF               	addlw	-1
  7352  1FCD  1D03               	skipz
  7353  1FCE  2FC7               	goto	u4965
  7354  1FCF                     l3044:
  7355  1FCF  3001               	movlw	1
  7356  1FD0  00FF               	movwf	btemp+1
  7357  1FD1  087F               	movf	btemp+1,w
  7358  1FD2  07DA               	addwf	___fltol@exp1,f
  7359  1FD3  1D03               	btfss	3,2
  7360  1FD4  2FD6               	goto	u4971
  7361  1FD5  2FD7               	goto	u4970
  7362  1FD6                     u4971:
  7363  1FD6  2FC6               	goto	l3042
  7364  1FD7                     u4970:
  7365  1FD7  2FEF               	goto	l3054
  7366  1FD8                     l3046:
  7367  1FD8  3020               	movlw	32
  7368  1FD9  025A               	subwf	___fltol@exp1,w
  7369  1FDA  1C03               	skipc
  7370  1FDB  2FDD               	goto	u4981
  7371  1FDC  2FDE               	goto	u4980
  7372  1FDD                     u4981:
  7373  1FDD  2FEA               	goto	l514
  7374  1FDE                     u4980:
  7375  1FDE  2F91               	goto	l3022
  7376  1FDF                     l3052:
  7377  1FDF  3001               	movlw	1
  7378  1FE0  00D5               	movwf	??___fltol
  7379  1FE1                     u4995:
  7380  1FE1  1003               	clrc
  7381  1FE2  0DD1               	rlf	___fltol@f1,f
  7382  1FE3  0DD2               	rlf	___fltol@f1+1,f
  7383  1FE4  0DD3               	rlf	___fltol@f1+2,f
  7384  1FE5  0DD4               	rlf	___fltol@f1+3,f
  7385  1FE6  0BD5               	decfsz	??___fltol,f
  7386  1FE7  2FE1               	goto	u4995
  7387  1FE8  3001               	movlw	1
  7388  1FE9  02DA               	subwf	___fltol@exp1,f
  7389  1FEA                     l514:
  7390  1FEA  085A               	movf	___fltol@exp1,w
  7391  1FEB  1D03               	btfss	3,2
  7392  1FEC  2FEE               	goto	u5001
  7393  1FED  2FEF               	goto	u5000
  7394  1FEE                     u5001:
  7395  1FEE  2FDF               	goto	l3052
  7396  1FEF                     u5000:
  7397  1FEF                     l3054:
  7398  1FEF  0859               	movf	___fltol@sign1,w
  7399  1FF0  1903               	btfsc	3,2
  7400  1FF1  2FF3               	goto	u5011
  7401  1FF2  2FF4               	goto	u5010
  7402  1FF3                     u5011:
  7403  1FF3  2FFF               	goto	l517
  7404  1FF4                     u5010:
  7405  1FF4                     l3056:
  7406  1FF4  09D1               	comf	___fltol@f1,f
  7407  1FF5  09D2               	comf	___fltol@f1+1,f
  7408  1FF6  09D3               	comf	___fltol@f1+2,f
  7409  1FF7  09D4               	comf	___fltol@f1+3,f
  7410  1FF8  0AD1               	incf	___fltol@f1,f
  7411  1FF9  1903               	skipnz
  7412  1FFA  0AD2               	incf	___fltol@f1+1,f
  7413  1FFB  1903               	skipnz
  7414  1FFC  0AD3               	incf	___fltol@f1+2,f
  7415  1FFD  1903               	skipnz
  7416  1FFE  0AD4               	incf	___fltol@f1+3,f
  7417  1FFF                     l517:
  7418  1FFF                     l507:
  7419  1FFF  0008               	return
  7420  2000                     __end_of___fltol:
  7421                           
  7422                           	psect	text18
  7423  1C4B                     __ptext18:	
  7424 ;; *************** function ___flsub *****************
  7425 ;; Defined at:
  7426 ;;		line 242 in file "C:\Program Files\Microchip\xc8\v2.20\pic\sources\c90\common\sprcadd.c"
  7427 ;; Parameters:    Size  Location     Type
  7428 ;;  a               4   70[BANK0 ] long 
  7429 ;;  b               4   74[BANK0 ] long 
  7430 ;; Auto vars:     Size  Location     Type
  7431 ;;		None
  7432 ;; Return value:  Size  Location     Type
  7433 ;;                  4   70[BANK0 ] long 
  7434 ;; Registers used:
  7435 ;;		wreg, status,2, status,0, btemp+1, pclath, cstack
  7436 ;; Tracked objects:
  7437 ;;		On entry : 0/0
  7438 ;;		On exit  : 0/0
  7439 ;;		Unchanged: 0/0
  7440 ;; Data sizes:     COMMON   BANK0   BANK1   BANK3   BANK2
  7441 ;;      Params:         0       8       0       0       0
  7442 ;;      Locals:         0       0       0       0       0
  7443 ;;      Temps:          0       0       0       0       0
  7444 ;;      Totals:         0       8       0       0       0
  7445 ;;Total ram usage:        8 bytes
  7446 ;; Hardware stack levels used:    1
  7447 ;; Hardware stack levels required when called:    2
  7448 ;; This function calls:
  7449 ;;		___fladd
  7450 ;; This function is called by:
  7451 ;;		_sprintf
  7452 ;; This function uses a non-reentrant model
  7453 ;;
  7454                           
  7455                           
  7456                           ;psect for function ___flsub
  7457  1C4B                     ___flsub:
  7458  1C4B                     l3080:	
  7459                           ;incstack = 0
  7460                           ; Regs used in ___flsub: [wreg+status,2+status,0+btemp+1+pclath+cstack]
  7461                           
  7462  1C4B  3080               	movlw	128
  7463  1C4C  1283               	bcf	3,5	;RP0=0, select bank0
  7464  1C4D  1303               	bcf	3,6	;RP1=0, select bank0
  7465  1C4E  06E9               	xorwf	___flsub@a+3,f
  7466  1C4F                     l3082:
  7467  1C4F  086D               	movf	___flsub@b+3,w
  7468  1C50  00D5               	movwf	___fladd@b+3
  7469  1C51  086C               	movf	___flsub@b+2,w
  7470  1C52  00D4               	movwf	___fladd@b+2
  7471  1C53  086B               	movf	___flsub@b+1,w
  7472  1C54  00D3               	movwf	___fladd@b+1
  7473  1C55  086A               	movf	___flsub@b,w
  7474  1C56  00D2               	movwf	___fladd@b
  7475  1C57  0869               	movf	___flsub@a+3,w
  7476  1C58  00D9               	movwf	___fladd@a+3
  7477  1C59  0868               	movf	___flsub@a+2,w
  7478  1C5A  00D8               	movwf	___fladd@a+2
  7479  1C5B  0867               	movf	___flsub@a+1,w
  7480  1C5C  00D7               	movwf	___fladd@a+1
  7481  1C5D  0866               	movf	___flsub@a,w
  7482  1C5E  00D6               	movwf	___fladd@a
  7483  1C5F  160A  118A  2578  160A  158A  	fcall	___fladd
  7484  1C64  1283               	bcf	3,5	;RP0=0, select bank0
  7485  1C65  1303               	bcf	3,6	;RP1=0, select bank0
  7486  1C66  0855               	movf	?___fladd+3,w
  7487  1C67  00E9               	movwf	?___flsub+3
  7488  1C68  0854               	movf	?___fladd+2,w
  7489  1C69  00E8               	movwf	?___flsub+2
  7490  1C6A  0853               	movf	?___fladd+1,w
  7491  1C6B  00E7               	movwf	?___flsub+1
  7492  1C6C  0852               	movf	?___fladd,w
  7493  1C6D  00E6               	movwf	?___flsub
  7494  1C6E                     l677:
  7495  1C6E  0008               	return
  7496  1C6F                     __end_of___flsub:
  7497                           
  7498                           	psect	text19
  7499  1578                     __ptext19:	
  7500 ;; *************** function ___fladd *****************
  7501 ;; Defined at:
  7502 ;;		line 10 in file "C:\Program Files\Microchip\xc8\v2.20\pic\sources\c90\common\sprcadd.c"
  7503 ;; Parameters:    Size  Location     Type
  7504 ;;  b               4   50[BANK0 ] long 
  7505 ;;  a               4   54[BANK0 ] long 
  7506 ;; Auto vars:     Size  Location     Type
  7507 ;;  grs             1   69[BANK0 ] unsigned char 
  7508 ;;  bexp            1   68[BANK0 ] unsigned char 
  7509 ;;  aexp            1   67[BANK0 ] unsigned char 
  7510 ;;  signs           1   66[BANK0 ] unsigned char 
  7511 ;; Return value:  Size  Location     Type
  7512 ;;                  4   50[BANK0 ] unsigned char 
  7513 ;; Registers used:
  7514 ;;		wreg, status,2, status,0, btemp+1
  7515 ;; Tracked objects:
  7516 ;;		On entry : 0/0
  7517 ;;		On exit  : 0/0
  7518 ;;		Unchanged: 0/0
  7519 ;; Data sizes:     COMMON   BANK0   BANK1   BANK3   BANK2
  7520 ;;      Params:         0       8       0       0       0
  7521 ;;      Locals:         0       4       0       0       0
  7522 ;;      Temps:          0       8       0       0       0
  7523 ;;      Totals:         0      20       0       0       0
  7524 ;;Total ram usage:       20 bytes
  7525 ;; Hardware stack levels used:    1
  7526 ;; Hardware stack levels required when called:    1
  7527 ;; This function calls:
  7528 ;;		Nothing
  7529 ;; This function is called by:
  7530 ;;		_sprintf
  7531 ;;		___flsub
  7532 ;; This function uses a non-reentrant model
  7533 ;;
  7534                           
  7535                           
  7536                           ;psect for function ___fladd
  7537  1578                     ___fladd:
  7538  1578                     l2392:	
  7539                           ;incstack = 0
  7540                           ; Regs used in ___fladd: [wreg+status,2+status,0+btemp+1]
  7541                           
  7542  1578  1283               	bcf	3,5	;RP0=0, select bank0
  7543  1579  1303               	bcf	3,6	;RP1=0, select bank0
  7544  157A  0855               	movf	___fladd@b+3,w
  7545  157B  3980               	andlw	128
  7546  157C  00FF               	movwf	btemp+1
  7547  157D  087F               	movf	btemp+1,w
  7548  157E  00E2               	movwf	___fladd@signs
  7549  157F                     l2394:
  7550  157F  0855               	movf	___fladd@b+3,w
  7551  1580  00DA               	movwf	??___fladd
  7552  1581  075A               	addwf	??___fladd,w
  7553  1582  00FF               	movwf	btemp+1
  7554  1583  087F               	movf	btemp+1,w
  7555  1584  00E4               	movwf	___fladd@bexp
  7556  1585                     l2396:
  7557  1585  1FD4               	btfss	___fladd@b+2,7
  7558  1586  2D88               	goto	u3351
  7559  1587  2D89               	goto	u3350
  7560  1588                     u3351:
  7561  1588  2D8A               	goto	l2400
  7562  1589                     u3350:
  7563  1589                     l2398:
  7564  1589  1464               	bsf	___fladd@bexp,0
  7565  158A                     l2400:
  7566  158A  0864               	movf	___fladd@bexp,w
  7567  158B  1903               	btfsc	3,2
  7568  158C  2D8E               	goto	u3361
  7569  158D  2D8F               	goto	u3360
  7570  158E                     u3361:
  7571  158E  2D9F               	goto	l2410
  7572  158F                     u3360:
  7573  158F                     l2402:
  7574  158F  0A64               	incf	___fladd@bexp,w
  7575  1590  1D03               	btfss	3,2
  7576  1591  2D93               	goto	u3371
  7577  1592  2D94               	goto	u3370
  7578  1593                     u3371:
  7579  1593  2D9C               	goto	l2406
  7580  1594                     u3370:
  7581  1594                     l2404:
  7582  1594  3000               	movlw	0
  7583  1595  00D5               	movwf	___fladd@b+3
  7584  1596  3000               	movlw	0
  7585  1597  00D4               	movwf	___fladd@b+2
  7586  1598  3000               	movlw	0
  7587  1599  00D3               	movwf	___fladd@b+1
  7588  159A  3000               	movlw	0
  7589  159B  00D2               	movwf	___fladd@b
  7590  159C                     l2406:
  7591  159C  17D4               	bsf	___fladd@b+2,7
  7592  159D                     l2408:
  7593  159D  01D5               	clrf	___fladd@b+3
  7594  159E  2DA7               	goto	l2412
  7595  159F                     l2410:
  7596  159F  3000               	movlw	0
  7597  15A0  00D5               	movwf	___fladd@b+3
  7598  15A1  3000               	movlw	0
  7599  15A2  00D4               	movwf	___fladd@b+2
  7600  15A3  3000               	movlw	0
  7601  15A4  00D3               	movwf	___fladd@b+1
  7602  15A5  3000               	movlw	0
  7603  15A6  00D2               	movwf	___fladd@b
  7604  15A7                     l2412:
  7605  15A7  0859               	movf	___fladd@a+3,w
  7606  15A8  3980               	andlw	128
  7607  15A9  00FF               	movwf	btemp+1
  7608  15AA  087F               	movf	btemp+1,w
  7609  15AB  00E3               	movwf	___fladd@aexp
  7610  15AC                     l2414:
  7611  15AC  0863               	movf	___fladd@aexp,w
  7612  15AD  0662               	xorwf	___fladd@signs,w
  7613  15AE  1903               	skipnz
  7614  15AF  2DB1               	goto	u3381
  7615  15B0  2DB2               	goto	u3380
  7616  15B1                     u3381:
  7617  15B1  2DB3               	goto	l2418
  7618  15B2                     u3380:
  7619  15B2                     l2416:
  7620  15B2  1762               	bsf	___fladd@signs,6
  7621  15B3                     l2418:
  7622  15B3  0859               	movf	___fladd@a+3,w
  7623  15B4  00DA               	movwf	??___fladd
  7624  15B5  075A               	addwf	??___fladd,w
  7625  15B6  00FF               	movwf	btemp+1
  7626  15B7  087F               	movf	btemp+1,w
  7627  15B8  00E3               	movwf	___fladd@aexp
  7628  15B9                     l2420:
  7629  15B9  1FD8               	btfss	___fladd@a+2,7
  7630  15BA  2DBC               	goto	u3391
  7631  15BB  2DBD               	goto	u3390
  7632  15BC                     u3391:
  7633  15BC  2DBE               	goto	l2424
  7634  15BD                     u3390:
  7635  15BD                     l2422:
  7636  15BD  1463               	bsf	___fladd@aexp,0
  7637  15BE                     l2424:
  7638  15BE  0863               	movf	___fladd@aexp,w
  7639  15BF  1903               	btfsc	3,2
  7640  15C0  2DC2               	goto	u3401
  7641  15C1  2DC3               	goto	u3400
  7642  15C2                     u3401:
  7643  15C2  2DD3               	goto	l2434
  7644  15C3                     u3400:
  7645  15C3                     l2426:
  7646  15C3  0A63               	incf	___fladd@aexp,w
  7647  15C4  1D03               	btfss	3,2
  7648  15C5  2DC7               	goto	u3411
  7649  15C6  2DC8               	goto	u3410
  7650  15C7                     u3411:
  7651  15C7  2DD0               	goto	l2430
  7652  15C8                     u3410:
  7653  15C8                     l2428:
  7654  15C8  3000               	movlw	0
  7655  15C9  00D9               	movwf	___fladd@a+3
  7656  15CA  3000               	movlw	0
  7657  15CB  00D8               	movwf	___fladd@a+2
  7658  15CC  3000               	movlw	0
  7659  15CD  00D7               	movwf	___fladd@a+1
  7660  15CE  3000               	movlw	0
  7661  15CF  00D6               	movwf	___fladd@a
  7662  15D0                     l2430:
  7663  15D0  17D8               	bsf	___fladd@a+2,7
  7664  15D1                     l2432:
  7665  15D1  01D9               	clrf	___fladd@a+3
  7666  15D2  2DDB               	goto	l631
  7667  15D3                     l2434:
  7668  15D3  3000               	movlw	0
  7669  15D4  00D9               	movwf	___fladd@a+3
  7670  15D5  3000               	movlw	0
  7671  15D6  00D8               	movwf	___fladd@a+2
  7672  15D7  3000               	movlw	0
  7673  15D8  00D7               	movwf	___fladd@a+1
  7674  15D9  3000               	movlw	0
  7675  15DA  00D6               	movwf	___fladd@a
  7676  15DB                     l631:
  7677  15DB  0864               	movf	___fladd@bexp,w
  7678  15DC  0263               	subwf	___fladd@aexp,w
  7679  15DD  1803               	skipnc
  7680  15DE  2DE0               	goto	u3421
  7681  15DF  2DE1               	goto	u3420
  7682  15E0                     u3421:
  7683  15E0  2E25               	goto	l2470
  7684  15E1                     u3420:
  7685  15E1                     l2436:
  7686  15E1  1F62               	btfss	___fladd@signs,6
  7687  15E2  2DE4               	goto	u3431
  7688  15E3  2DE5               	goto	u3430
  7689  15E4                     u3431:
  7690  15E4  2DE9               	goto	l2440
  7691  15E5                     u3430:
  7692  15E5                     l2438:
  7693  15E5  3080               	movlw	128
  7694  15E6  00FF               	movwf	btemp+1
  7695  15E7  087F               	movf	btemp+1,w
  7696  15E8  06E2               	xorwf	___fladd@signs,f
  7697  15E9                     l2440:
  7698  15E9  0864               	movf	___fladd@bexp,w
  7699  15EA  00FF               	movwf	btemp+1
  7700  15EB  087F               	movf	btemp+1,w
  7701  15EC  00E5               	movwf	___fladd@grs
  7702  15ED                     l2442:
  7703  15ED  0863               	movf	___fladd@aexp,w
  7704  15EE  00FF               	movwf	btemp+1
  7705  15EF  087F               	movf	btemp+1,w
  7706  15F0  00E4               	movwf	___fladd@bexp
  7707  15F1                     l2444:
  7708  15F1  0865               	movf	___fladd@grs,w
  7709  15F2  00FF               	movwf	btemp+1
  7710  15F3  087F               	movf	btemp+1,w
  7711  15F4  00E3               	movwf	___fladd@aexp
  7712  15F5                     l2446:
  7713  15F5  0852               	movf	___fladd@b,w
  7714  15F6  00FF               	movwf	btemp+1
  7715  15F7  087F               	movf	btemp+1,w
  7716  15F8  00E5               	movwf	___fladd@grs
  7717  15F9                     l2448:
  7718  15F9  0856               	movf	___fladd@a,w
  7719  15FA  00FF               	movwf	btemp+1
  7720  15FB  087F               	movf	btemp+1,w
  7721  15FC  00D2               	movwf	___fladd@b
  7722  15FD                     l2450:
  7723  15FD  0865               	movf	___fladd@grs,w
  7724  15FE  00FF               	movwf	btemp+1
  7725  15FF  087F               	movf	btemp+1,w
  7726  1600  00D6               	movwf	___fladd@a
  7727  1601                     l2452:
  7728  1601  0853               	movf	___fladd@b+1,w
  7729  1602  00FF               	movwf	btemp+1
  7730  1603  087F               	movf	btemp+1,w
  7731  1604  00E5               	movwf	___fladd@grs
  7732  1605                     l2454:
  7733  1605  0857               	movf	___fladd@a+1,w
  7734  1606  00FF               	movwf	btemp+1
  7735  1607  087F               	movf	btemp+1,w
  7736  1608  00D3               	movwf	___fladd@b+1
  7737  1609                     l2456:
  7738  1609  0865               	movf	___fladd@grs,w
  7739  160A  00FF               	movwf	btemp+1
  7740  160B  087F               	movf	btemp+1,w
  7741  160C  00D7               	movwf	___fladd@a+1
  7742  160D                     l2458:
  7743  160D  0854               	movf	___fladd@b+2,w
  7744  160E  00FF               	movwf	btemp+1
  7745  160F  087F               	movf	btemp+1,w
  7746  1610  00E5               	movwf	___fladd@grs
  7747  1611                     l2460:
  7748  1611  0858               	movf	___fladd@a+2,w
  7749  1612  00FF               	movwf	btemp+1
  7750  1613  087F               	movf	btemp+1,w
  7751  1614  00D4               	movwf	___fladd@b+2
  7752  1615                     l2462:
  7753  1615  0865               	movf	___fladd@grs,w
  7754  1616  00FF               	movwf	btemp+1
  7755  1617  087F               	movf	btemp+1,w
  7756  1618  00D8               	movwf	___fladd@a+2
  7757  1619                     l2464:
  7758  1619  0855               	movf	___fladd@b+3,w
  7759  161A  00FF               	movwf	btemp+1
  7760  161B  087F               	movf	btemp+1,w
  7761  161C  00E5               	movwf	___fladd@grs
  7762  161D                     l2466:
  7763  161D  0859               	movf	___fladd@a+3,w
  7764  161E  00FF               	movwf	btemp+1
  7765  161F  087F               	movf	btemp+1,w
  7766  1620  00D5               	movwf	___fladd@b+3
  7767  1621                     l2468:
  7768  1621  0865               	movf	___fladd@grs,w
  7769  1622  00FF               	movwf	btemp+1
  7770  1623  087F               	movf	btemp+1,w
  7771  1624  00D9               	movwf	___fladd@a+3
  7772  1625                     l2470:
  7773  1625  01E5               	clrf	___fladd@grs
  7774  1626                     l2472:
  7775  1626  0863               	movf	___fladd@aexp,w
  7776  1627  00DA               	movwf	??___fladd
  7777  1628  01DB               	clrf	??___fladd+1
  7778  1629  085B               	movf	??___fladd+1,w
  7779  162A  00DD               	movwf	??___fladd+3
  7780  162B  0864               	movf	___fladd@bexp,w
  7781  162C  025A               	subwf	??___fladd,w
  7782  162D  00DC               	movwf	??___fladd+2
  7783  162E  1C03               	skipc
  7784  162F  03DD               	decf	??___fladd+3,f
  7785  1630  085D               	movf	??___fladd+3,w
  7786  1631  3A80               	xorlw	128
  7787  1632  00FF               	movwf	btemp+1
  7788  1633  3080               	movlw	128
  7789  1634  027F               	subwf	btemp+1,w
  7790  1635  1D03               	skipz
  7791  1636  2E39               	goto	u3445
  7792  1637  301A               	movlw	26
  7793  1638  025C               	subwf	??___fladd+2,w
  7794  1639                     u3445:
  7795  1639  1C03               	skipc
  7796  163A  2E3C               	goto	u3441
  7797  163B  2E3D               	goto	u3440
  7798  163C                     u3441:
  7799  163C  2E7A               	goto	l2492
  7800  163D                     u3440:
  7801  163D                     l2474:
  7802  163D  1283               	bcf	3,5	;RP0=0, select bank0
  7803  163E  1303               	bcf	3,6	;RP1=0, select bank0
  7804  163F  0855               	movf	___fladd@b+3,w
  7805  1640  0454               	iorwf	___fladd@b+2,w
  7806  1641  0453               	iorwf	___fladd@b+1,w
  7807  1642  0452               	iorwf	___fladd@b,w
  7808  1643  1D03               	skipz
  7809  1644  2E46               	goto	u3451
  7810  1645  2E48               	goto	u3450
  7811  1646                     u3451:
  7812  1646  3001               	movlw	1
  7813  1647  2E49               	goto	u3460
  7814  1648                     u3450:
  7815  1648  3000               	movlw	0
  7816  1649                     u3460:
  7817  1649  00FF               	movwf	btemp+1
  7818  164A  087F               	movf	btemp+1,w
  7819  164B  00E5               	movwf	___fladd@grs
  7820  164C                     l2476:
  7821  164C  3000               	movlw	0
  7822  164D  00D5               	movwf	___fladd@b+3
  7823  164E  3000               	movlw	0
  7824  164F  00D4               	movwf	___fladd@b+2
  7825  1650  3000               	movlw	0
  7826  1651  00D3               	movwf	___fladd@b+1
  7827  1652  3000               	movlw	0
  7828  1653  00D2               	movwf	___fladd@b
  7829  1654                     l2478:
  7830  1654  0863               	movf	___fladd@aexp,w
  7831  1655  00FF               	movwf	btemp+1
  7832  1656  087F               	movf	btemp+1,w
  7833  1657  00E4               	movwf	___fladd@bexp
  7834  1658  2E82               	goto	l635
  7835  1659                     l637:
  7836  1659  1C65               	btfss	___fladd@grs,0
  7837  165A  2E5C               	goto	u3471
  7838  165B  2E5D               	goto	u3470
  7839  165C                     u3471:
  7840  165C  2E66               	goto	l2482
  7841  165D                     u3470:
  7842  165D                     l2480:
  7843  165D  0865               	movf	___fladd@grs,w
  7844  165E  00DA               	movwf	??___fladd
  7845  165F  1003               	clrc
  7846  1660  0C5A               	rrf	??___fladd,w
  7847  1661  3801               	iorlw	1
  7848  1662  00FF               	movwf	btemp+1
  7849  1663  087F               	movf	btemp+1,w
  7850  1664  00E5               	movwf	___fladd@grs
  7851  1665  2E68               	goto	l2484
  7852  1666                     l2482:
  7853  1666  1003               	clrc
  7854  1667  0CE5               	rrf	___fladd@grs,f
  7855  1668                     l2484:
  7856  1668  1C52               	btfss	___fladd@b,0
  7857  1669  2E6B               	goto	u3481
  7858  166A  2E6C               	goto	u3480
  7859  166B                     u3481:
  7860  166B  2E6D               	goto	l2488
  7861  166C                     u3480:
  7862  166C                     l2486:
  7863  166C  17E5               	bsf	___fladd@grs,7
  7864  166D                     l2488:
  7865  166D  3001               	movlw	1
  7866  166E  00DA               	movwf	??___fladd
  7867  166F                     u3495:
  7868  166F  0D55               	rlf	___fladd@b+3,w
  7869  1670  0CD5               	rrf	___fladd@b+3,f
  7870  1671  0CD4               	rrf	___fladd@b+2,f
  7871  1672  0CD3               	rrf	___fladd@b+1,f
  7872  1673  0CD2               	rrf	___fladd@b,f
  7873  1674  0BDA               	decfsz	??___fladd& (0+127),f
  7874  1675  2E6F               	goto	u3495
  7875  1676                     l2490:
  7876  1676  3001               	movlw	1
  7877  1677  00FF               	movwf	btemp+1
  7878  1678  087F               	movf	btemp+1,w
  7879  1679  07E4               	addwf	___fladd@bexp,f
  7880  167A                     l2492:
  7881  167A  1283               	bcf	3,5	;RP0=0, select bank0
  7882  167B  1303               	bcf	3,6	;RP1=0, select bank0
  7883  167C  0863               	movf	___fladd@aexp,w
  7884  167D  0264               	subwf	___fladd@bexp,w
  7885  167E  1C03               	skipc
  7886  167F  2E81               	goto	u3501
  7887  1680  2E82               	goto	u3500
  7888  1681                     u3501:
  7889  1681  2E59               	goto	l637
  7890  1682                     u3500:
  7891  1682                     l635:
  7892  1682  1B62               	btfsc	___fladd@signs,6
  7893  1683  2E85               	goto	u3511
  7894  1684  2E86               	goto	u3510
  7895  1685                     u3511:
  7896  1685  2ED1               	goto	l2518
  7897  1686                     u3510:
  7898  1686                     l2494:
  7899  1686  0864               	movf	___fladd@bexp,w
  7900  1687  1D03               	btfss	3,2
  7901  1688  2E8A               	goto	u3521
  7902  1689  2E8B               	goto	u3520
  7903  168A                     u3521:
  7904  168A  2E94               	goto	l2500
  7905  168B                     u3520:
  7906  168B                     l2496:
  7907  168B  3000               	movlw	0
  7908  168C  00D5               	movwf	?___fladd+3
  7909  168D  3000               	movlw	0
  7910  168E  00D4               	movwf	?___fladd+2
  7911  168F  3000               	movlw	0
  7912  1690  00D3               	movwf	?___fladd+1
  7913  1691  3000               	movlw	0
  7914  1692  00D2               	movwf	?___fladd
  7915  1693  2FFF               	goto	l644
  7916  1694                     l2500:
  7917  1694  0856               	movf	___fladd@a,w
  7918  1695  07D2               	addwf	___fladd@b,f
  7919  1696  0857               	movf	___fladd@a+1,w
  7920  1697  1103               	clrz
  7921  1698  1803               	skipnc
  7922  1699  3E01               	addlw	1
  7923  169A  1903               	skipnz
  7924  169B  2E9D               	goto	u3531
  7925  169C  07D3               	addwf	___fladd@b+1,f
  7926  169D                     u3531:
  7927  169D  0858               	movf	___fladd@a+2,w
  7928  169E  1103               	clrz
  7929  169F  1803               	skipnc
  7930  16A0  3E01               	addlw	1
  7931  16A1  1903               	skipnz
  7932  16A2  2EA4               	goto	u3532
  7933  16A3  07D4               	addwf	___fladd@b+2,f
  7934  16A4                     u3532:
  7935  16A4  0859               	movf	___fladd@a+3,w
  7936  16A5  1103               	clrz
  7937  16A6  1803               	skipnc
  7938  16A7  3E01               	addlw	1
  7939  16A8  1903               	skipnz
  7940  16A9  2EAB               	goto	u3533
  7941  16AA  07D5               	addwf	___fladd@b+3,f
  7942  16AB                     u3533:
  7943  16AB                     l2502:
  7944  16AB  1C55               	btfss	___fladd@b+3,0
  7945  16AC  2EAE               	goto	u3541
  7946  16AD  2EAF               	goto	u3540
  7947  16AE                     u3541:
  7948  16AE  2F85               	goto	l2554
  7949  16AF                     u3540:
  7950  16AF                     l2504:
  7951  16AF  1C65               	btfss	___fladd@grs,0
  7952  16B0  2EB2               	goto	u3551
  7953  16B1  2EB3               	goto	u3550
  7954  16B2                     u3551:
  7955  16B2  2EBC               	goto	l2508
  7956  16B3                     u3550:
  7957  16B3                     l2506:
  7958  16B3  0865               	movf	___fladd@grs,w
  7959  16B4  00DA               	movwf	??___fladd
  7960  16B5  1003               	clrc
  7961  16B6  0C5A               	rrf	??___fladd,w
  7962  16B7  3801               	iorlw	1
  7963  16B8  00FF               	movwf	btemp+1
  7964  16B9  087F               	movf	btemp+1,w
  7965  16BA  00E5               	movwf	___fladd@grs
  7966  16BB  2EBE               	goto	l2510
  7967  16BC                     l2508:
  7968  16BC  1003               	clrc
  7969  16BD  0CE5               	rrf	___fladd@grs,f
  7970  16BE                     l2510:
  7971  16BE  1C52               	btfss	___fladd@b,0
  7972  16BF  2EC1               	goto	u3561
  7973  16C0  2EC2               	goto	u3560
  7974  16C1                     u3561:
  7975  16C1  2EC3               	goto	l2514
  7976  16C2                     u3560:
  7977  16C2                     l2512:
  7978  16C2  17E5               	bsf	___fladd@grs,7
  7979  16C3                     l2514:
  7980  16C3  3001               	movlw	1
  7981  16C4  00DA               	movwf	??___fladd
  7982  16C5                     u3575:
  7983  16C5  0D55               	rlf	___fladd@b+3,w
  7984  16C6  0CD5               	rrf	___fladd@b+3,f
  7985  16C7  0CD4               	rrf	___fladd@b+2,f
  7986  16C8  0CD3               	rrf	___fladd@b+1,f
  7987  16C9  0CD2               	rrf	___fladd@b,f
  7988  16CA  0BDA               	decfsz	??___fladd& (0+127),f
  7989  16CB  2EC5               	goto	u3575
  7990  16CC                     l2516:
  7991  16CC  3001               	movlw	1
  7992  16CD  00FF               	movwf	btemp+1
  7993  16CE  087F               	movf	btemp+1,w
  7994  16CF  07E4               	addwf	___fladd@bexp,f
  7995  16D0  2F85               	goto	l2554
  7996  16D1                     l2518:
  7997  16D1  0855               	movf	___fladd@b+3,w
  7998  16D2  3A80               	xorlw	128
  7999  16D3  00FF               	movwf	btemp+1
  8000  16D4  0859               	movf	___fladd@a+3,w
  8001  16D5  3A80               	xorlw	128
  8002  16D6  027F               	subwf	btemp+1,w
  8003  16D7  1D03               	skipz
  8004  16D8  2EE3               	goto	u3583
  8005  16D9  0858               	movf	___fladd@a+2,w
  8006  16DA  0254               	subwf	___fladd@b+2,w
  8007  16DB  1D03               	skipz
  8008  16DC  2EE3               	goto	u3583
  8009  16DD  0857               	movf	___fladd@a+1,w
  8010  16DE  0253               	subwf	___fladd@b+1,w
  8011  16DF  1D03               	skipz
  8012  16E0  2EE3               	goto	u3583
  8013  16E1  0856               	movf	___fladd@a,w
  8014  16E2  0252               	subwf	___fladd@b,w
  8015  16E3                     u3583:
  8016  16E3  1803               	skipnc
  8017  16E4  2EE6               	goto	u3581
  8018  16E5  2EE7               	goto	u3580
  8019  16E6                     u3581:
  8020  16E6  2F3F               	goto	l2530
  8021  16E7                     u3580:
  8022  16E7                     l2520:
  8023  16E7  30FF               	movlw	255
  8024  16E8  00DA               	movwf	??___fladd
  8025  16E9  30FF               	movlw	255
  8026  16EA  00DB               	movwf	??___fladd+1
  8027  16EB  30FF               	movlw	255
  8028  16EC  00DC               	movwf	??___fladd+2
  8029  16ED  30FF               	movlw	255
  8030  16EE  00DD               	movwf	??___fladd+3
  8031  16EF  0856               	movf	___fladd@a,w
  8032  16F0  00DE               	movwf	??___fladd+4
  8033  16F1  0857               	movf	___fladd@a+1,w
  8034  16F2  00DF               	movwf	??___fladd+5
  8035  16F3  0858               	movf	___fladd@a+2,w
  8036  16F4  00E0               	movwf	??___fladd+6
  8037  16F5  0859               	movf	___fladd@a+3,w
  8038  16F6  00E1               	movwf	??___fladd+7
  8039  16F7  0852               	movf	___fladd@b,w
  8040  16F8  02DE               	subwf	??___fladd+4,f
  8041  16F9  0853               	movf	___fladd@b+1,w
  8042  16FA  1C03               	skipc
  8043  16FB  0F53               	incfsz	___fladd@b+1,w
  8044  16FC  2EFE               	goto	u3591
  8045  16FD  2EFF               	goto	u3592
  8046  16FE                     u3591:
  8047  16FE  02DF               	subwf	??___fladd+5,f
  8048  16FF                     u3592:
  8049  16FF  0854               	movf	___fladd@b+2,w
  8050  1700  1C03               	skipc
  8051  1701  0F54               	incfsz	___fladd@b+2,w
  8052  1702  2F04               	goto	u3593
  8053  1703  2F05               	goto	u3594
  8054  1704                     u3593:
  8055  1704  02E0               	subwf	??___fladd+6,f
  8056  1705                     u3594:
  8057  1705  0855               	movf	___fladd@b+3,w
  8058  1706  1C03               	skipc
  8059  1707  0F55               	incfsz	___fladd@b+3,w
  8060  1708  2F0A               	goto	u3595
  8061  1709  2F0B               	goto	u3596
  8062  170A                     u3595:
  8063  170A  02E1               	subwf	??___fladd+7,f
  8064  170B                     u3596:
  8065  170B  085E               	movf	??___fladd+4,w
  8066  170C  07DA               	addwf	??___fladd,f
  8067  170D  085F               	movf	??___fladd+5,w
  8068  170E  1803               	skipnc
  8069  170F  0F5F               	incfsz	??___fladd+5,w
  8070  1710  2F12               	goto	u3600
  8071  1711  2F13               	goto	u3601
  8072  1712                     u3600:
  8073  1712  07DB               	addwf	??___fladd+1,f
  8074  1713                     u3601:
  8075  1713  0860               	movf	??___fladd+6,w
  8076  1714  1803               	skipnc
  8077  1715  0F60               	incfsz	??___fladd+6,w
  8078  1716  2F18               	goto	u3602
  8079  1717  2F19               	goto	u3603
  8080  1718                     u3602:
  8081  1718  07DC               	addwf	??___fladd+2,f
  8082  1719                     u3603:
  8083  1719  0861               	movf	??___fladd+7,w
  8084  171A  1803               	skipnc
  8085  171B  0A61               	incf	??___fladd+7,w
  8086  171C  07DD               	addwf	??___fladd+3,f
  8087  171D  085D               	movf	??___fladd+3,w
  8088  171E  00D5               	movwf	___fladd@b+3
  8089  171F  085C               	movf	??___fladd+2,w
  8090  1720  00D4               	movwf	___fladd@b+2
  8091  1721  085B               	movf	??___fladd+1,w
  8092  1722  00D3               	movwf	___fladd@b+1
  8093  1723  085A               	movf	??___fladd,w
  8094  1724  00D2               	movwf	___fladd@b
  8095  1725                     l2522:
  8096  1725  3080               	movlw	128
  8097  1726  00FF               	movwf	btemp+1
  8098  1727  087F               	movf	btemp+1,w
  8099  1728  06E2               	xorwf	___fladd@signs,f
  8100  1729                     l2524:
  8101  1729  09E5               	comf	___fladd@grs,f
  8102  172A  0AE5               	incf	___fladd@grs,f
  8103  172B                     l2526:
  8104  172B  0865               	movf	___fladd@grs,w
  8105  172C  1D03               	btfss	3,2
  8106  172D  2F2F               	goto	u3611
  8107  172E  2F30               	goto	u3610
  8108  172F                     u3611:
  8109  172F  2F4D               	goto	l652
  8110  1730                     u3610:
  8111  1730                     l2528:
  8112  1730  3001               	movlw	1
  8113  1731  07D2               	addwf	___fladd@b,f
  8114  1732  3000               	movlw	0
  8115  1733  1803               	skipnc
  8116  1734  3001               	movlw	1
  8117  1735  07D3               	addwf	___fladd@b+1,f
  8118  1736  3000               	movlw	0
  8119  1737  1803               	skipnc
  8120  1738  3001               	movlw	1
  8121  1739  07D4               	addwf	___fladd@b+2,f
  8122  173A  3000               	movlw	0
  8123  173B  1803               	skipnc
  8124  173C  3001               	movlw	1
  8125  173D  07D5               	addwf	___fladd@b+3,f
  8126  173E  2F4D               	goto	l652
  8127  173F                     l2530:
  8128  173F  0856               	movf	___fladd@a,w
  8129  1740  02D2               	subwf	___fladd@b,f
  8130  1741  0857               	movf	___fladd@a+1,w
  8131  1742  1C03               	skipc
  8132  1743  0F57               	incfsz	___fladd@a+1,w
  8133  1744  02D3               	subwf	___fladd@b+1,f
  8134  1745  0858               	movf	___fladd@a+2,w
  8135  1746  1C03               	skipc
  8136  1747  0F58               	incfsz	___fladd@a+2,w
  8137  1748  02D4               	subwf	___fladd@b+2,f
  8138  1749  0859               	movf	___fladd@a+3,w
  8139  174A  1C03               	skipc
  8140  174B  0F59               	incfsz	___fladd@a+3,w
  8141  174C  02D5               	subwf	___fladd@b+3,f
  8142  174D                     l652:
  8143  174D  0855               	movf	___fladd@b+3,w
  8144  174E  0454               	iorwf	___fladd@b+2,w
  8145  174F  0453               	iorwf	___fladd@b+1,w
  8146  1750  0452               	iorwf	___fladd@b,w
  8147  1751  1D03               	skipz
  8148  1752  2F54               	goto	u3621
  8149  1753  2F55               	goto	u3620
  8150  1754                     u3621:
  8151  1754  2F81               	goto	l2552
  8152  1755                     u3620:
  8153  1755                     l2532:
  8154  1755  0865               	movf	___fladd@grs,w
  8155  1756  1D03               	btfss	3,2
  8156  1757  2F59               	goto	u3631
  8157  1758  2F5A               	goto	u3630
  8158  1759                     u3631:
  8159  1759  2F81               	goto	l2552
  8160  175A                     u3630:
  8161  175A                     l2534:
  8162  175A  3000               	movlw	0
  8163  175B  00D5               	movwf	?___fladd+3
  8164  175C  3000               	movlw	0
  8165  175D  00D4               	movwf	?___fladd+2
  8166  175E  3000               	movlw	0
  8167  175F  00D3               	movwf	?___fladd+1
  8168  1760  3000               	movlw	0
  8169  1761  00D2               	movwf	?___fladd
  8170  1762  2FFF               	goto	l644
  8171  1763                     l2538:
  8172  1763  3001               	movlw	1
  8173  1764  00DA               	movwf	??___fladd
  8174  1765                     u3645:
  8175  1765  1003               	clrc
  8176  1766  0DD2               	rlf	___fladd@b,f
  8177  1767  0DD3               	rlf	___fladd@b+1,f
  8178  1768  0DD4               	rlf	___fladd@b+2,f
  8179  1769  0DD5               	rlf	___fladd@b+3,f
  8180  176A  0BDA               	decfsz	??___fladd,f
  8181  176B  2F65               	goto	u3645
  8182  176C                     l2540:
  8183  176C  1FE5               	btfss	___fladd@grs,7
  8184  176D  2F6F               	goto	u3651
  8185  176E  2F70               	goto	u3650
  8186  176F                     u3651:
  8187  176F  2F71               	goto	l656
  8188  1770                     u3650:
  8189  1770                     l2542:
  8190  1770  1452               	bsf	___fladd@b,0
  8191  1771                     l656:
  8192  1771  1C65               	btfss	___fladd@grs,0
  8193  1772  2F74               	goto	u3661
  8194  1773  2F75               	goto	u3660
  8195  1774                     u3661:
  8196  1774  2F78               	goto	l2546
  8197  1775                     u3660:
  8198  1775                     l2544:
  8199  1775  1403               	setc
  8200  1776  0DE5               	rlf	___fladd@grs,f
  8201  1777  2F7A               	goto	l2548
  8202  1778                     l2546:
  8203  1778  1003               	clrc
  8204  1779  0DE5               	rlf	___fladd@grs,f
  8205  177A                     l2548:
  8206  177A  0864               	movf	___fladd@bexp,w
  8207  177B  1903               	btfsc	3,2
  8208  177C  2F7E               	goto	u3671
  8209  177D  2F7F               	goto	u3670
  8210  177E                     u3671:
  8211  177E  2F81               	goto	l2552
  8212  177F                     u3670:
  8213  177F                     l2550:
  8214  177F  3001               	movlw	1
  8215  1780  02E4               	subwf	___fladd@bexp,f
  8216  1781                     l2552:
  8217  1781  1FD4               	btfss	___fladd@b+2,7
  8218  1782  2F84               	goto	u3681
  8219  1783  2F85               	goto	u3680
  8220  1784                     u3681:
  8221  1784  2F63               	goto	l2538
  8222  1785                     u3680:
  8223  1785                     l2554:
  8224  1785  01E3               	clrf	___fladd@aexp
  8225  1786                     l2556:
  8226  1786  1FE5               	btfss	___fladd@grs,7
  8227  1787  2F89               	goto	u3691
  8228  1788  2F8A               	goto	u3690
  8229  1789                     u3691:
  8230  1789  2F98               	goto	l2564
  8231  178A                     u3690:
  8232  178A                     l2558:
  8233  178A  0865               	movf	___fladd@grs,w
  8234  178B  397F               	andlw	127
  8235  178C  1903               	btfsc	3,2
  8236  178D  2F8F               	goto	u3701
  8237  178E  2F90               	goto	u3700
  8238  178F                     u3701:
  8239  178F  2F93               	goto	l662
  8240  1790                     u3700:
  8241  1790                     l2560:
  8242  1790  01E3               	clrf	___fladd@aexp
  8243  1791  0AE3               	incf	___fladd@aexp,f
  8244  1792  2F98               	goto	l2564
  8245  1793                     l662:
  8246  1793  1C52               	btfss	___fladd@b,0
  8247  1794  2F96               	goto	u3711
  8248  1795  2F97               	goto	u3710
  8249  1796                     u3711:
  8250  1796  2F98               	goto	l2564
  8251  1797                     u3710:
  8252  1797  2F90               	goto	l2560
  8253  1798                     l2564:
  8254  1798  0863               	movf	___fladd@aexp,w
  8255  1799  1903               	btfsc	3,2
  8256  179A  2F9C               	goto	u3721
  8257  179B  2F9D               	goto	u3720
  8258  179C                     u3721:
  8259  179C  2FD1               	goto	l2574
  8260  179D                     u3720:
  8261  179D                     l2566:
  8262  179D  3001               	movlw	1
  8263  179E  07D2               	addwf	___fladd@b,f
  8264  179F  3000               	movlw	0
  8265  17A0  1803               	skipnc
  8266  17A1  3001               	movlw	1
  8267  17A2  07D3               	addwf	___fladd@b+1,f
  8268  17A3  3000               	movlw	0
  8269  17A4  1803               	skipnc
  8270  17A5  3001               	movlw	1
  8271  17A6  07D4               	addwf	___fladd@b+2,f
  8272  17A7  3000               	movlw	0
  8273  17A8  1803               	skipnc
  8274  17A9  3001               	movlw	1
  8275  17AA  07D5               	addwf	___fladd@b+3,f
  8276  17AB                     l2568:
  8277  17AB  1C55               	btfss	___fladd@b+3,0
  8278  17AC  2FAE               	goto	u3731
  8279  17AD  2FAF               	goto	u3730
  8280  17AE                     u3731:
  8281  17AE  2FD1               	goto	l2574
  8282  17AF                     u3730:
  8283  17AF                     l2570:
  8284  17AF  0852               	movf	___fladd@b,w
  8285  17B0  00DA               	movwf	??___fladd
  8286  17B1  0853               	movf	___fladd@b+1,w
  8287  17B2  00DB               	movwf	??___fladd+1
  8288  17B3  0854               	movf	___fladd@b+2,w
  8289  17B4  00DC               	movwf	??___fladd+2
  8290  17B5  0855               	movf	___fladd@b+3,w
  8291  17B6  00DD               	movwf	??___fladd+3
  8292  17B7  3001               	movlw	1
  8293  17B8  00DE               	movwf	??___fladd+4
  8294  17B9                     u3745:
  8295  17B9  0D5D               	rlf	??___fladd+3,w
  8296  17BA  0CDD               	rrf	??___fladd+3,f
  8297  17BB  0CDC               	rrf	??___fladd+2,f
  8298  17BC  0CDB               	rrf	??___fladd+1,f
  8299  17BD  0CDA               	rrf	??___fladd,f
  8300  17BE                     u3740:
  8301  17BE  0BDE               	decfsz	??___fladd+4,f
  8302  17BF  2FB9               	goto	u3745
  8303  17C0  085D               	movf	??___fladd+3,w
  8304  17C1  00D5               	movwf	___fladd@b+3
  8305  17C2  085C               	movf	??___fladd+2,w
  8306  17C3  00D4               	movwf	___fladd@b+2
  8307  17C4  085B               	movf	??___fladd+1,w
  8308  17C5  00D3               	movwf	___fladd@b+1
  8309  17C6  085A               	movf	??___fladd,w
  8310  17C7  00D2               	movwf	___fladd@b
  8311  17C8  0A64               	incf	___fladd@bexp,w
  8312  17C9  1903               	btfsc	3,2
  8313  17CA  2FCC               	goto	u3751
  8314  17CB  2FCD               	goto	u3750
  8315  17CC                     u3751:
  8316  17CC  2FD1               	goto	l2574
  8317  17CD                     u3750:
  8318  17CD                     l2572:
  8319  17CD  3001               	movlw	1
  8320  17CE  00FF               	movwf	btemp+1
  8321  17CF  087F               	movf	btemp+1,w
  8322  17D0  07E4               	addwf	___fladd@bexp,f
  8323  17D1                     l2574:
  8324  17D1  0A64               	incf	___fladd@bexp,w
  8325  17D2  1903               	btfsc	3,2
  8326  17D3  2FD5               	goto	u3761
  8327  17D4  2FD6               	goto	u3760
  8328  17D5                     u3761:
  8329  17D5  2FDB               	goto	l2578
  8330  17D6                     u3760:
  8331  17D6                     l2576:
  8332  17D6  0864               	movf	___fladd@bexp,w
  8333  17D7  1D03               	btfss	3,2
  8334  17D8  2FDA               	goto	u3771
  8335  17D9  2FDB               	goto	u3770
  8336  17DA                     u3771:
  8337  17DA  2FE9               	goto	l2584
  8338  17DB                     u3770:
  8339  17DB                     l2578:
  8340  17DB  3000               	movlw	0
  8341  17DC  00D5               	movwf	___fladd@b+3
  8342  17DD  3000               	movlw	0
  8343  17DE  00D4               	movwf	___fladd@b+2
  8344  17DF  3000               	movlw	0
  8345  17E0  00D3               	movwf	___fladd@b+1
  8346  17E1  3000               	movlw	0
  8347  17E2  00D2               	movwf	___fladd@b
  8348  17E3                     l2580:
  8349  17E3  0864               	movf	___fladd@bexp,w
  8350  17E4  1D03               	btfss	3,2
  8351  17E5  2FE7               	goto	u3781
  8352  17E6  2FE8               	goto	u3780
  8353  17E7                     u3781:
  8354  17E7  2FE9               	goto	l2584
  8355  17E8                     u3780:
  8356  17E8                     l2582:
  8357  17E8  01E2               	clrf	___fladd@signs
  8358  17E9                     l2584:
  8359  17E9  1C64               	btfss	___fladd@bexp,0
  8360  17EA  2FEC               	goto	u3791
  8361  17EB  2FED               	goto	u3790
  8362  17EC                     u3791:
  8363  17EC  2FEF               	goto	l2588
  8364  17ED                     u3790:
  8365  17ED                     l2586:
  8366  17ED  17D4               	bsf	___fladd@b+2,7
  8367  17EE  2FF3               	goto	l673
  8368  17EF                     l2588:
  8369  17EF  307F               	movlw	127
  8370  17F0  00FF               	movwf	btemp+1
  8371  17F1  087F               	movf	btemp+1,w
  8372  17F2  05D4               	andwf	___fladd@b+2,f
  8373  17F3                     l673:
  8374  17F3  0864               	movf	___fladd@bexp,w
  8375  17F4  00DA               	movwf	??___fladd
  8376  17F5  1003               	clrc
  8377  17F6  0C5A               	rrf	??___fladd,w
  8378  17F7  00FF               	movwf	btemp+1
  8379  17F8  087F               	movf	btemp+1,w
  8380  17F9  00D5               	movwf	___fladd@b+3
  8381  17FA                     l2590:
  8382  17FA  1FE2               	btfss	___fladd@signs,7
  8383  17FB  2FFD               	goto	u3801
  8384  17FC  2FFE               	goto	u3800
  8385  17FD                     u3801:
  8386  17FD  2FFF               	goto	l674
  8387  17FE                     u3800:
  8388  17FE                     l2592:
  8389  17FE  17D5               	bsf	___fladd@b+3,7
  8390  17FF                     l674:
  8391  17FF                     l644:
  8392  17FF  0008               	return
  8393  1800                     __end_of___fladd:
  8394                           
  8395                           	psect	text20
  8396  1BC5                     __ptext20:	
  8397 ;; *************** function ___flneg *****************
  8398 ;; Defined at:
  8399 ;;		line 15 in file "C:\Program Files\Microchip\xc8\v2.20\pic\sources\c90\common\flneg.c"
  8400 ;; Parameters:    Size  Location     Type
  8401 ;;  f1              4    2[COMMON] unsigned char 
  8402 ;; Auto vars:     Size  Location     Type
  8403 ;;		None
  8404 ;; Return value:  Size  Location     Type
  8405 ;;                  4    2[COMMON] unsigned char 
  8406 ;; Registers used:
  8407 ;;		wreg
  8408 ;; Tracked objects:
  8409 ;;		On entry : 0/0
  8410 ;;		On exit  : 0/0
  8411 ;;		Unchanged: 0/0
  8412 ;; Data sizes:     COMMON   BANK0   BANK1   BANK3   BANK2
  8413 ;;      Params:         4       0       0       0       0
  8414 ;;      Locals:         0       0       0       0       0
  8415 ;;      Temps:          0       0       0       0       0
  8416 ;;      Totals:         4       0       0       0       0
  8417 ;;Total ram usage:        4 bytes
  8418 ;; Hardware stack levels used:    1
  8419 ;; Hardware stack levels required when called:    1
  8420 ;; This function calls:
  8421 ;;		Nothing
  8422 ;; This function is called by:
  8423 ;;		_sprintf
  8424 ;; This function uses a non-reentrant model
  8425 ;;
  8426                           
  8427                           
  8428                           ;psect for function ___flneg
  8429  1BC5                     ___flneg:
  8430  1BC5                     l3012:	
  8431                           ;incstack = 0
  8432                           ; Regs used in ___flneg: [wreg]
  8433                           
  8434  1BC5  0875               	movf	___flneg@f1+3,w
  8435  1BC6  0474               	iorwf	___flneg@f1+2,w
  8436  1BC7  0473               	iorwf	___flneg@f1+1,w
  8437  1BC8  0472               	iorwf	___flneg@f1,w
  8438  1BC9  1903               	skipnz
  8439  1BCA  2BCC               	goto	u4911
  8440  1BCB  2BCD               	goto	u4910
  8441  1BCC                     u4911:
  8442  1BCC  2BCF               	goto	l3016
  8443  1BCD                     u4910:
  8444  1BCD                     l3014:
  8445  1BCD  3080               	movlw	128
  8446  1BCE  06F5               	xorwf	___flneg@f1+3,f
  8447  1BCF                     l3016:
  8448  1BCF                     l503:
  8449  1BCF  0008               	return
  8450  1BD0                     __end_of___flneg:
  8451                           
  8452                           	psect	text21
  8453  10C0                     __ptext21:	
  8454 ;; *************** function ___flge *****************
  8455 ;; Defined at:
  8456 ;;		line 4 in file "C:\Program Files\Microchip\xc8\v2.20\pic\sources\c90\common\flge.c"
  8457 ;; Parameters:    Size  Location     Type
  8458 ;;  ff1             4    2[COMMON] unsigned char 
  8459 ;;  ff2             4    6[COMMON] unsigned char 
  8460 ;; Auto vars:     Size  Location     Type
  8461 ;;		None
  8462 ;; Return value:  Size  Location     Type
  8463 ;;		None               void
  8464 ;; Registers used:
  8465 ;;		wreg, status,2, status,0
  8466 ;; Tracked objects:
  8467 ;;		On entry : 0/0
  8468 ;;		On exit  : 0/0
  8469 ;;		Unchanged: 0/0
  8470 ;; Data sizes:     COMMON   BANK0   BANK1   BANK3   BANK2
  8471 ;;      Params:         8       0       0       0       0
  8472 ;;      Locals:         0       0       0       0       0
  8473 ;;      Temps:          0       4       0       0       0
  8474 ;;      Totals:         8       4       0       0       0
  8475 ;;Total ram usage:       12 bytes
  8476 ;; Hardware stack levels used:    1
  8477 ;; Hardware stack levels required when called:    1
  8478 ;; This function calls:
  8479 ;;		Nothing
  8480 ;; This function is called by:
  8481 ;;		_sprintf
  8482 ;; This function uses a non-reentrant model
  8483 ;;
  8484                           
  8485                           
  8486                           ;psect for function ___flge
  8487  10C0                     ___flge:
  8488  10C0                     l2992:	
  8489                           ;incstack = 0
  8490                           ; Regs used in ___flge: [wreg+status,2+status,0]
  8491                           
  8492  10C0  3000               	movlw	0
  8493  10C1  0572               	andwf	___flge@ff1,w
  8494  10C2  1283               	bcf	3,5	;RP0=0, select bank0
  8495  10C3  1303               	bcf	3,6	;RP1=0, select bank0
  8496  10C4  00A0               	movwf	??___flge
  8497  10C5  3000               	movlw	0
  8498  10C6  0573               	andwf	___flge@ff1+1,w
  8499  10C7  00A1               	movwf	??___flge+1
  8500  10C8  3080               	movlw	128
  8501  10C9  0574               	andwf	___flge@ff1+2,w
  8502  10CA  00A2               	movwf	??___flge+2
  8503  10CB  307F               	movlw	127
  8504  10CC  0575               	andwf	___flge@ff1+3,w
  8505  10CD  00A3               	movwf	??___flge+3
  8506  10CE  0823               	movf	??___flge+3,w
  8507  10CF  0422               	iorwf	??___flge+2,w
  8508  10D0  0421               	iorwf	??___flge+1,w
  8509  10D1  0420               	iorwf	??___flge,w
  8510  10D2  1D03               	skipz
  8511  10D3  28D5               	goto	u4841
  8512  10D4  28D6               	goto	u4840
  8513  10D5                     u4841:
  8514  10D5  28DE               	goto	l495
  8515  10D6                     u4840:
  8516  10D6                     l2994:
  8517  10D6  3000               	movlw	0
  8518  10D7  00F5               	movwf	___flge@ff1+3
  8519  10D8  3000               	movlw	0
  8520  10D9  00F4               	movwf	___flge@ff1+2
  8521  10DA  3000               	movlw	0
  8522  10DB  00F3               	movwf	___flge@ff1+1
  8523  10DC  3000               	movlw	0
  8524  10DD  00F2               	movwf	___flge@ff1
  8525  10DE                     l495:
  8526  10DE  3000               	movlw	0
  8527  10DF  0576               	andwf	___flge@ff2,w
  8528  10E0  00A0               	movwf	??___flge
  8529  10E1  3000               	movlw	0
  8530  10E2  0577               	andwf	___flge@ff2+1,w
  8531  10E3  00A1               	movwf	??___flge+1
  8532  10E4  3080               	movlw	128
  8533  10E5  0578               	andwf	___flge@ff2+2,w
  8534  10E6  00A2               	movwf	??___flge+2
  8535  10E7  307F               	movlw	127
  8536  10E8  0579               	andwf	___flge@ff2+3,w
  8537  10E9  00A3               	movwf	??___flge+3
  8538  10EA  0823               	movf	??___flge+3,w
  8539  10EB  0422               	iorwf	??___flge+2,w
  8540  10EC  0421               	iorwf	??___flge+1,w
  8541  10ED  0420               	iorwf	??___flge,w
  8542  10EE  1D03               	skipz
  8543  10EF  28F1               	goto	u4851
  8544  10F0  28F2               	goto	u4850
  8545  10F1                     u4851:
  8546  10F1  28FA               	goto	l2998
  8547  10F2                     u4850:
  8548  10F2                     l2996:
  8549  10F2  3000               	movlw	0
  8550  10F3  00F9               	movwf	___flge@ff2+3
  8551  10F4  3000               	movlw	0
  8552  10F5  00F8               	movwf	___flge@ff2+2
  8553  10F6  3000               	movlw	0
  8554  10F7  00F7               	movwf	___flge@ff2+1
  8555  10F8  3000               	movlw	0
  8556  10F9  00F6               	movwf	___flge@ff2
  8557  10FA                     l2998:
  8558  10FA  1FF5               	btfss	___flge@ff1+3,7
  8559  10FB  28FD               	goto	u4861
  8560  10FC  28FE               	goto	u4860
  8561  10FD                     u4861:
  8562  10FD  2922               	goto	l3002
  8563  10FE                     u4860:
  8564  10FE                     l3000:
  8565  10FE  3000               	movlw	0
  8566  10FF  00A0               	movwf	??___flge
  8567  1100  3000               	movlw	0
  8568  1101  00A1               	movwf	??___flge+1
  8569  1102  3000               	movlw	0
  8570  1103  00A2               	movwf	??___flge+2
  8571  1104  3080               	movlw	128
  8572  1105  00A3               	movwf	??___flge+3
  8573  1106  0872               	movf	___flge@ff1,w
  8574  1107  02A0               	subwf	??___flge,f
  8575  1108  0873               	movf	___flge@ff1+1,w
  8576  1109  1C03               	skipc
  8577  110A  0F73               	incfsz	___flge@ff1+1,w
  8578  110B  290D               	goto	u4871
  8579  110C  290E               	goto	u4872
  8580  110D                     u4871:
  8581  110D  02A1               	subwf	??___flge+1,f
  8582  110E                     u4872:
  8583  110E  0874               	movf	___flge@ff1+2,w
  8584  110F  1C03               	skipc
  8585  1110  0F74               	incfsz	___flge@ff1+2,w
  8586  1111  2913               	goto	u4873
  8587  1112  2914               	goto	u4874
  8588  1113                     u4873:
  8589  1113  02A2               	subwf	??___flge+2,f
  8590  1114                     u4874:
  8591  1114  0875               	movf	___flge@ff1+3,w
  8592  1115  1C03               	skipc
  8593  1116  0F75               	incfsz	___flge@ff1+3,w
  8594  1117  2919               	goto	u4875
  8595  1118  291A               	goto	u4876
  8596  1119                     u4875:
  8597  1119  02A3               	subwf	??___flge+3,f
  8598  111A                     u4876:
  8599  111A  0823               	movf	??___flge+3,w
  8600  111B  00F5               	movwf	___flge@ff1+3
  8601  111C  0822               	movf	??___flge+2,w
  8602  111D  00F4               	movwf	___flge@ff1+2
  8603  111E  0821               	movf	??___flge+1,w
  8604  111F  00F3               	movwf	___flge@ff1+1
  8605  1120  0820               	movf	??___flge,w
  8606  1121  00F2               	movwf	___flge@ff1
  8607  1122                     l3002:
  8608  1122  1FF9               	btfss	___flge@ff2+3,7
  8609  1123  2925               	goto	u4881
  8610  1124  2926               	goto	u4880
  8611  1125                     u4881:
  8612  1125  294A               	goto	l498
  8613  1126                     u4880:
  8614  1126                     l3004:
  8615  1126  3000               	movlw	0
  8616  1127  00A0               	movwf	??___flge
  8617  1128  3000               	movlw	0
  8618  1129  00A1               	movwf	??___flge+1
  8619  112A  3000               	movlw	0
  8620  112B  00A2               	movwf	??___flge+2
  8621  112C  3080               	movlw	128
  8622  112D  00A3               	movwf	??___flge+3
  8623  112E  0876               	movf	___flge@ff2,w
  8624  112F  02A0               	subwf	??___flge,f
  8625  1130  0877               	movf	___flge@ff2+1,w
  8626  1131  1C03               	skipc
  8627  1132  0F77               	incfsz	___flge@ff2+1,w
  8628  1133  2935               	goto	u4891
  8629  1134  2936               	goto	u4892
  8630  1135                     u4891:
  8631  1135  02A1               	subwf	??___flge+1,f
  8632  1136                     u4892:
  8633  1136  0878               	movf	___flge@ff2+2,w
  8634  1137  1C03               	skipc
  8635  1138  0F78               	incfsz	___flge@ff2+2,w
  8636  1139  293B               	goto	u4893
  8637  113A  293C               	goto	u4894
  8638  113B                     u4893:
  8639  113B  02A2               	subwf	??___flge+2,f
  8640  113C                     u4894:
  8641  113C  0879               	movf	___flge@ff2+3,w
  8642  113D  1C03               	skipc
  8643  113E  0F79               	incfsz	___flge@ff2+3,w
  8644  113F  2941               	goto	u4895
  8645  1140  2942               	goto	u4896
  8646  1141                     u4895:
  8647  1141  02A3               	subwf	??___flge+3,f
  8648  1142                     u4896:
  8649  1142  0823               	movf	??___flge+3,w
  8650  1143  00F9               	movwf	___flge@ff2+3
  8651  1144  0822               	movf	??___flge+2,w
  8652  1145  00F8               	movwf	___flge@ff2+2
  8653  1146  0821               	movf	??___flge+1,w
  8654  1147  00F7               	movwf	___flge@ff2+1
  8655  1148  0820               	movf	??___flge,w
  8656  1149  00F6               	movwf	___flge@ff2
  8657  114A                     l498:
  8658  114A  3080               	movlw	128
  8659  114B  06F5               	xorwf	___flge@ff1+3,f
  8660  114C  3080               	movlw	128
  8661  114D  06F9               	xorwf	___flge@ff2+3,f
  8662  114E  0879               	movf	___flge@ff2+3,w
  8663  114F  0275               	subwf	___flge@ff1+3,w
  8664  1150  1D03               	skipz
  8665  1151  295C               	goto	u4905
  8666  1152  0878               	movf	___flge@ff2+2,w
  8667  1153  0274               	subwf	___flge@ff1+2,w
  8668  1154  1D03               	skipz
  8669  1155  295C               	goto	u4905
  8670  1156  0877               	movf	___flge@ff2+1,w
  8671  1157  0273               	subwf	___flge@ff1+1,w
  8672  1158  1D03               	skipz
  8673  1159  295C               	goto	u4905
  8674  115A  0876               	movf	___flge@ff2,w
  8675  115B  0272               	subwf	___flge@ff1,w
  8676  115C                     u4905:
  8677  115C  1803               	skipnc
  8678  115D  295F               	goto	u4901
  8679  115E  2960               	goto	u4900
  8680  115F                     u4901:
  8681  115F  2962               	goto	l3008
  8682  1160                     u4900:
  8683  1160                     l3006:
  8684  1160  1003               	clrc
  8685  1161  2963               	goto	l499
  8686  1162                     l3008:
  8687  1162  1403               	setc
  8688  1163                     l499:
  8689  1163  0008               	return
  8690  1164                     __end_of___flge:
  8691                           
  8692                           	psect	text22
  8693  1D14                     __ptext22:	
  8694 ;; *************** function ___fleq *****************
  8695 ;; Defined at:
  8696 ;;		line 4 in file "C:\Program Files\Microchip\xc8\v2.20\pic\sources\c90\common\fleq.c"
  8697 ;; Parameters:    Size  Location     Type
  8698 ;;  ff1             4    2[COMMON] unsigned char 
  8699 ;;  ff2             4    6[COMMON] unsigned char 
  8700 ;; Auto vars:     Size  Location     Type
  8701 ;;		None
  8702 ;; Return value:  Size  Location     Type
  8703 ;;		None               void
  8704 ;; Registers used:
  8705 ;;		wreg, status,2, status,0
  8706 ;; Tracked objects:
  8707 ;;		On entry : 0/0
  8708 ;;		On exit  : 0/0
  8709 ;;		Unchanged: 0/0
  8710 ;; Data sizes:     COMMON   BANK0   BANK1   BANK3   BANK2
  8711 ;;      Params:         8       0       0       0       0
  8712 ;;      Locals:         0       0       0       0       0
  8713 ;;      Temps:          0       4       0       0       0
  8714 ;;      Totals:         8       4       0       0       0
  8715 ;;Total ram usage:       12 bytes
  8716 ;; Hardware stack levels used:    1
  8717 ;; Hardware stack levels required when called:    1
  8718 ;; This function calls:
  8719 ;;		Nothing
  8720 ;; This function is called by:
  8721 ;;		_sprintf
  8722 ;; This function uses a non-reentrant model
  8723 ;;
  8724                           
  8725                           
  8726                           ;psect for function ___fleq
  8727  1D14                     ___fleq:
  8728  1D14                     l2980:	
  8729                           ;incstack = 0
  8730                           ; Regs used in ___fleq: [wreg+status,2+status,0]
  8731                           
  8732  1D14  3000               	movlw	0
  8733  1D15  0572               	andwf	___fleq@ff1,w
  8734  1D16  1283               	bcf	3,5	;RP0=0, select bank0
  8735  1D17  1303               	bcf	3,6	;RP1=0, select bank0
  8736  1D18  00A0               	movwf	??___fleq
  8737  1D19  3000               	movlw	0
  8738  1D1A  0573               	andwf	___fleq@ff1+1,w
  8739  1D1B  00A1               	movwf	??___fleq+1
  8740  1D1C  3080               	movlw	128
  8741  1D1D  0574               	andwf	___fleq@ff1+2,w
  8742  1D1E  00A2               	movwf	??___fleq+2
  8743  1D1F  307F               	movlw	127
  8744  1D20  0575               	andwf	___fleq@ff1+3,w
  8745  1D21  00A3               	movwf	??___fleq+3
  8746  1D22  0823               	movf	??___fleq+3,w
  8747  1D23  0422               	iorwf	??___fleq+2,w
  8748  1D24  0421               	iorwf	??___fleq+1,w
  8749  1D25  0420               	iorwf	??___fleq,w
  8750  1D26  1D03               	skipz
  8751  1D27  2D29               	goto	u4811
  8752  1D28  2D2A               	goto	u4810
  8753  1D29                     u4811:
  8754  1D29  2D32               	goto	l490
  8755  1D2A                     u4810:
  8756  1D2A                     l2982:
  8757  1D2A  3000               	movlw	0
  8758  1D2B  00F5               	movwf	___fleq@ff1+3
  8759  1D2C  3000               	movlw	0
  8760  1D2D  00F4               	movwf	___fleq@ff1+2
  8761  1D2E  3000               	movlw	0
  8762  1D2F  00F3               	movwf	___fleq@ff1+1
  8763  1D30  3000               	movlw	0
  8764  1D31  00F2               	movwf	___fleq@ff1
  8765  1D32                     l490:
  8766  1D32  3000               	movlw	0
  8767  1D33  0576               	andwf	___fleq@ff2,w
  8768  1D34  00A0               	movwf	??___fleq
  8769  1D35  3000               	movlw	0
  8770  1D36  0577               	andwf	___fleq@ff2+1,w
  8771  1D37  00A1               	movwf	??___fleq+1
  8772  1D38  3080               	movlw	128
  8773  1D39  0578               	andwf	___fleq@ff2+2,w
  8774  1D3A  00A2               	movwf	??___fleq+2
  8775  1D3B  307F               	movlw	127
  8776  1D3C  0579               	andwf	___fleq@ff2+3,w
  8777  1D3D  00A3               	movwf	??___fleq+3
  8778  1D3E  0823               	movf	??___fleq+3,w
  8779  1D3F  0422               	iorwf	??___fleq+2,w
  8780  1D40  0421               	iorwf	??___fleq+1,w
  8781  1D41  0420               	iorwf	??___fleq,w
  8782  1D42  1D03               	skipz
  8783  1D43  2D45               	goto	u4821
  8784  1D44  2D46               	goto	u4820
  8785  1D45                     u4821:
  8786  1D45  2D4E               	goto	l491
  8787  1D46                     u4820:
  8788  1D46                     l2984:
  8789  1D46  3000               	movlw	0
  8790  1D47  00F9               	movwf	___fleq@ff2+3
  8791  1D48  3000               	movlw	0
  8792  1D49  00F8               	movwf	___fleq@ff2+2
  8793  1D4A  3000               	movlw	0
  8794  1D4B  00F7               	movwf	___fleq@ff2+1
  8795  1D4C  3000               	movlw	0
  8796  1D4D  00F6               	movwf	___fleq@ff2
  8797  1D4E                     l491:
  8798  1D4E  0879               	movf	___fleq@ff2+3,w
  8799  1D4F  0675               	xorwf	___fleq@ff1+3,w
  8800  1D50  1D03               	skipz
  8801  1D51  2D5C               	goto	u4835
  8802  1D52  0878               	movf	___fleq@ff2+2,w
  8803  1D53  0674               	xorwf	___fleq@ff1+2,w
  8804  1D54  1D03               	skipz
  8805  1D55  2D5C               	goto	u4835
  8806  1D56  0877               	movf	___fleq@ff2+1,w
  8807  1D57  0673               	xorwf	___fleq@ff1+1,w
  8808  1D58  1D03               	skipz
  8809  1D59  2D5C               	goto	u4835
  8810  1D5A  0876               	movf	___fleq@ff2,w
  8811  1D5B  0672               	xorwf	___fleq@ff1,w
  8812  1D5C                     u4835:
  8813  1D5C  1903               	skipnz
  8814  1D5D  2D5F               	goto	u4831
  8815  1D5E  2D60               	goto	u4830
  8816  1D5F                     u4831:
  8817  1D5F  2D62               	goto	l2988
  8818  1D60                     u4830:
  8819  1D60                     l2986:
  8820  1D60  1003               	clrc
  8821  1D61  2D63               	goto	l492
  8822  1D62                     l2988:
  8823  1D62  1403               	setc
  8824  1D63                     l492:
  8825  1D63  0008               	return
  8826  1D64                     __end_of___fleq:
  8827                           
  8828                           	psect	text23
  8829  139B                     __ptext23:	
  8830 ;; *************** function ___fldiv *****************
  8831 ;; Defined at:
  8832 ;;		line 8 in file "C:\Program Files\Microchip\xc8\v2.20\pic\sources\c90\common\sprcdiv.c"
  8833 ;; Parameters:    Size  Location     Type
  8834 ;;  a               4    6[BANK0 ] unsigned char 
  8835 ;;  b               4   10[BANK0 ] unsigned char 
  8836 ;; Auto vars:     Size  Location     Type
  8837 ;;  grs             4   26[BANK0 ] unsigned long 
  8838 ;;  rem             4   19[BANK0 ] unsigned long 
  8839 ;;  new_exp         2   24[BANK0 ] int 
  8840 ;;  aexp            1   31[BANK0 ] unsigned char 
  8841 ;;  bexp            1   30[BANK0 ] unsigned char 
  8842 ;;  sign            1   23[BANK0 ] unsigned char 
  8843 ;; Return value:  Size  Location     Type
  8844 ;;                  4    6[BANK0 ] unsigned char 
  8845 ;; Registers used:
  8846 ;;		wreg, status,2, status,0, btemp+1
  8847 ;; Tracked objects:
  8848 ;;		On entry : 0/0
  8849 ;;		On exit  : 0/0
  8850 ;;		Unchanged: 0/0
  8851 ;; Data sizes:     COMMON   BANK0   BANK1   BANK3   BANK2
  8852 ;;      Params:         0       8       0       0       0
  8853 ;;      Locals:         0      13       0       0       0
  8854 ;;      Temps:          0       5       0       0       0
  8855 ;;      Totals:         0      26       0       0       0
  8856 ;;Total ram usage:       26 bytes
  8857 ;; Hardware stack levels used:    1
  8858 ;; Hardware stack levels required when called:    1
  8859 ;; This function calls:
  8860 ;;		Nothing
  8861 ;; This function is called by:
  8862 ;;		_main
  8863 ;; This function uses a non-reentrant model
  8864 ;;
  8865                           
  8866                           
  8867                           ;psect for function ___fldiv
  8868  139B                     ___fldiv:
  8869  139B                     l3378:	
  8870                           ;incstack = 0
  8871                           ; Regs used in ___fldiv: [wreg+status,2+status,0+btemp+1]
  8872                           
  8873  139B  1283               	bcf	3,5	;RP0=0, select bank0
  8874  139C  1303               	bcf	3,6	;RP1=0, select bank0
  8875  139D  082D               	movf	___fldiv@b+3,w
  8876  139E  3980               	andlw	128
  8877  139F  00FF               	movwf	btemp+1
  8878  13A0  087F               	movf	btemp+1,w
  8879  13A1  00B7               	movwf	___fldiv@sign
  8880  13A2                     l3380:
  8881  13A2  082D               	movf	___fldiv@b+3,w
  8882  13A3  00AE               	movwf	??___fldiv
  8883  13A4  072E               	addwf	??___fldiv,w
  8884  13A5  00FF               	movwf	btemp+1
  8885  13A6  087F               	movf	btemp+1,w
  8886  13A7  00BE               	movwf	___fldiv@bexp
  8887  13A8                     l3382:
  8888  13A8  1FAC               	btfss	___fldiv@b+2,7
  8889  13A9  2BAB               	goto	u5541
  8890  13AA  2BAC               	goto	u5540
  8891  13AB                     u5541:
  8892  13AB  2BAD               	goto	l3386
  8893  13AC                     u5540:
  8894  13AC                     l3384:
  8895  13AC  143E               	bsf	___fldiv@bexp,0
  8896  13AD                     l3386:
  8897  13AD  083E               	movf	___fldiv@bexp,w
  8898  13AE  1903               	btfsc	3,2
  8899  13AF  2BB1               	goto	u5551
  8900  13B0  2BB2               	goto	u5550
  8901  13B1                     u5551:
  8902  13B1  2BC2               	goto	l3396
  8903  13B2                     u5550:
  8904  13B2                     l3388:
  8905  13B2  0A3E               	incf	___fldiv@bexp,w
  8906  13B3  1D03               	btfss	3,2
  8907  13B4  2BB6               	goto	u5561
  8908  13B5  2BB7               	goto	u5560
  8909  13B6                     u5561:
  8910  13B6  2BBF               	goto	l3392
  8911  13B7                     u5560:
  8912  13B7                     l3390:
  8913  13B7  3000               	movlw	0
  8914  13B8  00AD               	movwf	___fldiv@b+3
  8915  13B9  3000               	movlw	0
  8916  13BA  00AC               	movwf	___fldiv@b+2
  8917  13BB  3000               	movlw	0
  8918  13BC  00AB               	movwf	___fldiv@b+1
  8919  13BD  3000               	movlw	0
  8920  13BE  00AA               	movwf	___fldiv@b
  8921  13BF                     l3392:
  8922  13BF  17AC               	bsf	___fldiv@b+2,7
  8923  13C0                     l3394:
  8924  13C0  01AD               	clrf	___fldiv@b+3
  8925  13C1  2BCA               	goto	l3398
  8926  13C2                     l3396:
  8927  13C2  3000               	movlw	0
  8928  13C3  00AD               	movwf	___fldiv@b+3
  8929  13C4  3000               	movlw	0
  8930  13C5  00AC               	movwf	___fldiv@b+2
  8931  13C6  3000               	movlw	0
  8932  13C7  00AB               	movwf	___fldiv@b+1
  8933  13C8  3000               	movlw	0
  8934  13C9  00AA               	movwf	___fldiv@b
  8935  13CA                     l3398:
  8936  13CA  0829               	movf	___fldiv@a+3,w
  8937  13CB  3980               	andlw	128
  8938  13CC  00FF               	movwf	btemp+1
  8939  13CD  087F               	movf	btemp+1,w
  8940  13CE  06B7               	xorwf	___fldiv@sign,f
  8941  13CF                     l3400:
  8942  13CF  0829               	movf	___fldiv@a+3,w
  8943  13D0  00AE               	movwf	??___fldiv
  8944  13D1  072E               	addwf	??___fldiv,w
  8945  13D2  00FF               	movwf	btemp+1
  8946  13D3  087F               	movf	btemp+1,w
  8947  13D4  00BF               	movwf	___fldiv@aexp
  8948  13D5                     l3402:
  8949  13D5  1FA8               	btfss	___fldiv@a+2,7
  8950  13D6  2BD8               	goto	u5571
  8951  13D7  2BD9               	goto	u5570
  8952  13D8                     u5571:
  8953  13D8  2BDA               	goto	l3406
  8954  13D9                     u5570:
  8955  13D9                     l3404:
  8956  13D9  143F               	bsf	___fldiv@aexp,0
  8957  13DA                     l3406:
  8958  13DA  083F               	movf	___fldiv@aexp,w
  8959  13DB  1903               	btfsc	3,2
  8960  13DC  2BDE               	goto	u5581
  8961  13DD  2BDF               	goto	u5580
  8962  13DE                     u5581:
  8963  13DE  2BEF               	goto	l3416
  8964  13DF                     u5580:
  8965  13DF                     l3408:
  8966  13DF  0A3F               	incf	___fldiv@aexp,w
  8967  13E0  1D03               	btfss	3,2
  8968  13E1  2BE3               	goto	u5591
  8969  13E2  2BE4               	goto	u5590
  8970  13E3                     u5591:
  8971  13E3  2BEC               	goto	l3412
  8972  13E4                     u5590:
  8973  13E4                     l3410:
  8974  13E4  3000               	movlw	0
  8975  13E5  00A9               	movwf	___fldiv@a+3
  8976  13E6  3000               	movlw	0
  8977  13E7  00A8               	movwf	___fldiv@a+2
  8978  13E8  3000               	movlw	0
  8979  13E9  00A7               	movwf	___fldiv@a+1
  8980  13EA  3000               	movlw	0
  8981  13EB  00A6               	movwf	___fldiv@a
  8982  13EC                     l3412:
  8983  13EC  17A8               	bsf	___fldiv@a+2,7
  8984  13ED                     l3414:
  8985  13ED  01A9               	clrf	___fldiv@a+3
  8986  13EE  2BF7               	goto	l687
  8987  13EF                     l3416:
  8988  13EF  3000               	movlw	0
  8989  13F0  00A9               	movwf	___fldiv@a+3
  8990  13F1  3000               	movlw	0
  8991  13F2  00A8               	movwf	___fldiv@a+2
  8992  13F3  3000               	movlw	0
  8993  13F4  00A7               	movwf	___fldiv@a+1
  8994  13F5  3000               	movlw	0
  8995  13F6  00A6               	movwf	___fldiv@a
  8996  13F7                     l687:
  8997  13F7  0829               	movf	___fldiv@a+3,w
  8998  13F8  0428               	iorwf	___fldiv@a+2,w
  8999  13F9  0427               	iorwf	___fldiv@a+1,w
  9000  13FA  0426               	iorwf	___fldiv@a,w
  9001  13FB  1D03               	skipz
  9002  13FC  2BFE               	goto	u5601
  9003  13FD  2BFF               	goto	u5600
  9004  13FE                     u5601:
  9005  13FE  2C18               	goto	l3426
  9006  13FF                     u5600:
  9007  13FF                     l3418:
  9008  13FF  3000               	movlw	0
  9009  1400  00AD               	movwf	___fldiv@b+3
  9010  1401  3000               	movlw	0
  9011  1402  00AC               	movwf	___fldiv@b+2
  9012  1403  3000               	movlw	0
  9013  1404  00AB               	movwf	___fldiv@b+1
  9014  1405  3000               	movlw	0
  9015  1406  00AA               	movwf	___fldiv@b
  9016  1407  3080               	movlw	128
  9017  1408  04AC               	iorwf	___fldiv@b+2,f
  9018  1409  307F               	movlw	127
  9019  140A  04AD               	iorwf	___fldiv@b+3,f
  9020  140B                     l3420:
  9021  140B  0837               	movf	___fldiv@sign,w
  9022  140C  00FF               	movwf	btemp+1
  9023  140D  087F               	movf	btemp+1,w
  9024  140E  04AD               	iorwf	___fldiv@b+3,f
  9025  140F                     l3422:
  9026  140F  082D               	movf	___fldiv@b+3,w
  9027  1410  00A9               	movwf	?___fldiv+3
  9028  1411  082C               	movf	___fldiv@b+2,w
  9029  1412  00A8               	movwf	?___fldiv+2
  9030  1413  082B               	movf	___fldiv@b+1,w
  9031  1414  00A7               	movwf	?___fldiv+1
  9032  1415  082A               	movf	___fldiv@b,w
  9033  1416  00A6               	movwf	?___fldiv
  9034  1417  2D77               	goto	l689
  9035  1418                     l3426:
  9036  1418  083E               	movf	___fldiv@bexp,w
  9037  1419  1D03               	btfss	3,2
  9038  141A  2C1C               	goto	u5611
  9039  141B  2C1D               	goto	u5610
  9040  141C                     u5611:
  9041  141C  2C26               	goto	l3432
  9042  141D                     u5610:
  9043  141D                     l3428:
  9044  141D  3000               	movlw	0
  9045  141E  00A9               	movwf	?___fldiv+3
  9046  141F  3000               	movlw	0
  9047  1420  00A8               	movwf	?___fldiv+2
  9048  1421  3000               	movlw	0
  9049  1422  00A7               	movwf	?___fldiv+1
  9050  1423  3000               	movlw	0
  9051  1424  00A6               	movwf	?___fldiv
  9052  1425  2D77               	goto	l689
  9053  1426                     l3432:
  9054  1426  083E               	movf	___fldiv@bexp,w
  9055  1427  00AE               	movwf	??___fldiv
  9056  1428  01AF               	clrf	??___fldiv+1
  9057  1429  082F               	movf	??___fldiv+1,w
  9058  142A  00B1               	movwf	??___fldiv+3
  9059  142B  083F               	movf	___fldiv@aexp,w
  9060  142C  022E               	subwf	??___fldiv,w
  9061  142D  00B0               	movwf	??___fldiv+2
  9062  142E  1C03               	skipc
  9063  142F  03B1               	decf	??___fldiv+3,f
  9064  1430  0830               	movf	??___fldiv+2,w
  9065  1431  3E7F               	addlw	127
  9066  1432  00B8               	movwf	___fldiv@new_exp
  9067  1433  0831               	movf	??___fldiv+3,w
  9068  1434  1803               	skipnc
  9069  1435  3E01               	addlw	1
  9070  1436  3E00               	addlw	0
  9071  1437  00B9               	movwf	___fldiv@new_exp+1
  9072  1438                     l3434:
  9073  1438  082D               	movf	___fldiv@b+3,w
  9074  1439  00B6               	movwf	___fldiv@rem+3
  9075  143A  082C               	movf	___fldiv@b+2,w
  9076  143B  00B5               	movwf	___fldiv@rem+2
  9077  143C  082B               	movf	___fldiv@b+1,w
  9078  143D  00B4               	movwf	___fldiv@rem+1
  9079  143E  082A               	movf	___fldiv@b,w
  9080  143F  00B3               	movwf	___fldiv@rem
  9081  1440                     l3436:
  9082  1440  3000               	movlw	0
  9083  1441  00AD               	movwf	___fldiv@b+3
  9084  1442  3000               	movlw	0
  9085  1443  00AC               	movwf	___fldiv@b+2
  9086  1444  3000               	movlw	0
  9087  1445  00AB               	movwf	___fldiv@b+1
  9088  1446  3000               	movlw	0
  9089  1447  00AA               	movwf	___fldiv@b
  9090  1448                     l3438:
  9091  1448  3000               	movlw	0
  9092  1449  00BD               	movwf	___fldiv@grs+3
  9093  144A  3000               	movlw	0
  9094  144B  00BC               	movwf	___fldiv@grs+2
  9095  144C  3000               	movlw	0
  9096  144D  00BB               	movwf	___fldiv@grs+1
  9097  144E  3000               	movlw	0
  9098  144F  00BA               	movwf	___fldiv@grs
  9099  1450                     l3440:
  9100  1450  01BF               	clrf	___fldiv@aexp
  9101  1451  2C9C               	goto	l3460
  9102  1452                     l3442:
  9103  1452  083F               	movf	___fldiv@aexp,w
  9104  1453  1903               	btfsc	3,2
  9105  1454  2C56               	goto	u5621
  9106  1455  2C57               	goto	u5620
  9107  1456                     u5621:
  9108  1456  2C77               	goto	l3452
  9109  1457                     u5620:
  9110  1457                     l3444:
  9111  1457  3001               	movlw	1
  9112  1458  00AE               	movwf	??___fldiv
  9113  1459                     u5635:
  9114  1459  1003               	clrc
  9115  145A  0DB3               	rlf	___fldiv@rem,f
  9116  145B  0DB4               	rlf	___fldiv@rem+1,f
  9117  145C  0DB5               	rlf	___fldiv@rem+2,f
  9118  145D  0DB6               	rlf	___fldiv@rem+3,f
  9119  145E  0BAE               	decfsz	??___fldiv,f
  9120  145F  2C59               	goto	u5635
  9121  1460  3001               	movlw	1
  9122  1461  00AE               	movwf	??___fldiv
  9123  1462                     u5645:
  9124  1462  1003               	clrc
  9125  1463  0DAA               	rlf	___fldiv@b,f
  9126  1464  0DAB               	rlf	___fldiv@b+1,f
  9127  1465  0DAC               	rlf	___fldiv@b+2,f
  9128  1466  0DAD               	rlf	___fldiv@b+3,f
  9129  1467  0BAE               	decfsz	??___fldiv,f
  9130  1468  2C62               	goto	u5645
  9131  1469                     l3446:
  9132  1469  1FBD               	btfss	___fldiv@grs+3,7
  9133  146A  2C6C               	goto	u5651
  9134  146B  2C6D               	goto	u5650
  9135  146C                     u5651:
  9136  146C  2C6E               	goto	l3450
  9137  146D                     u5650:
  9138  146D                     l3448:
  9139  146D  142A               	bsf	___fldiv@b,0
  9140  146E                     l3450:
  9141  146E  3001               	movlw	1
  9142  146F  00AE               	movwf	??___fldiv
  9143  1470                     u5665:
  9144  1470  1003               	clrc
  9145  1471  0DBA               	rlf	___fldiv@grs,f
  9146  1472  0DBB               	rlf	___fldiv@grs+1,f
  9147  1473  0DBC               	rlf	___fldiv@grs+2,f
  9148  1474  0DBD               	rlf	___fldiv@grs+3,f
  9149  1475  0BAE               	decfsz	??___fldiv,f
  9150  1476  2C70               	goto	u5665
  9151  1477                     l3452:
  9152  1477  0829               	movf	___fldiv@a+3,w
  9153  1478  0236               	subwf	___fldiv@rem+3,w
  9154  1479  1D03               	skipz
  9155  147A  2C85               	goto	u5675
  9156  147B  0828               	movf	___fldiv@a+2,w
  9157  147C  0235               	subwf	___fldiv@rem+2,w
  9158  147D  1D03               	skipz
  9159  147E  2C85               	goto	u5675
  9160  147F  0827               	movf	___fldiv@a+1,w
  9161  1480  0234               	subwf	___fldiv@rem+1,w
  9162  1481  1D03               	skipz
  9163  1482  2C85               	goto	u5675
  9164  1483  0826               	movf	___fldiv@a,w
  9165  1484  0233               	subwf	___fldiv@rem,w
  9166  1485                     u5675:
  9167  1485  1C03               	skipc
  9168  1486  2C88               	goto	u5671
  9169  1487  2C89               	goto	u5670
  9170  1488                     u5671:
  9171  1488  2C98               	goto	l3458
  9172  1489                     u5670:
  9173  1489                     l3454:
  9174  1489  173D               	bsf	___fldiv@grs+3,6
  9175  148A                     l3456:
  9176  148A  0826               	movf	___fldiv@a,w
  9177  148B  02B3               	subwf	___fldiv@rem,f
  9178  148C  0827               	movf	___fldiv@a+1,w
  9179  148D  1C03               	skipc
  9180  148E  0F27               	incfsz	___fldiv@a+1,w
  9181  148F  02B4               	subwf	___fldiv@rem+1,f
  9182  1490  0828               	movf	___fldiv@a+2,w
  9183  1491  1C03               	skipc
  9184  1492  0F28               	incfsz	___fldiv@a+2,w
  9185  1493  02B5               	subwf	___fldiv@rem+2,f
  9186  1494  0829               	movf	___fldiv@a+3,w
  9187  1495  1C03               	skipc
  9188  1496  0F29               	incfsz	___fldiv@a+3,w
  9189  1497  02B6               	subwf	___fldiv@rem+3,f
  9190  1498                     l3458:
  9191  1498  3001               	movlw	1
  9192  1499  00FF               	movwf	btemp+1
  9193  149A  087F               	movf	btemp+1,w
  9194  149B  07BF               	addwf	___fldiv@aexp,f
  9195  149C                     l3460:
  9196  149C  301A               	movlw	26
  9197  149D  023F               	subwf	___fldiv@aexp,w
  9198  149E  1C03               	skipc
  9199  149F  2CA1               	goto	u5681
  9200  14A0  2CA2               	goto	u5680
  9201  14A1                     u5681:
  9202  14A1  2C52               	goto	l3442
  9203  14A2                     u5680:
  9204  14A2                     l3462:
  9205  14A2  0836               	movf	___fldiv@rem+3,w
  9206  14A3  0435               	iorwf	___fldiv@rem+2,w
  9207  14A4  0434               	iorwf	___fldiv@rem+1,w
  9208  14A5  0433               	iorwf	___fldiv@rem,w
  9209  14A6  1903               	skipnz
  9210  14A7  2CA9               	goto	u5691
  9211  14A8  2CAA               	goto	u5690
  9212  14A9                     u5691:
  9213  14A9  2CC9               	goto	l3476
  9214  14AA                     u5690:
  9215  14AA                     l3464:
  9216  14AA  143A               	bsf	___fldiv@grs,0
  9217  14AB  2CC9               	goto	l3476
  9218  14AC                     l3466:
  9219  14AC  3001               	movlw	1
  9220  14AD  00AE               	movwf	??___fldiv
  9221  14AE                     u5705:
  9222  14AE  1003               	clrc
  9223  14AF  0DAA               	rlf	___fldiv@b,f
  9224  14B0  0DAB               	rlf	___fldiv@b+1,f
  9225  14B1  0DAC               	rlf	___fldiv@b+2,f
  9226  14B2  0DAD               	rlf	___fldiv@b+3,f
  9227  14B3  0BAE               	decfsz	??___fldiv,f
  9228  14B4  2CAE               	goto	u5705
  9229  14B5                     l3468:
  9230  14B5  1FBD               	btfss	___fldiv@grs+3,7
  9231  14B6  2CB8               	goto	u5711
  9232  14B7  2CB9               	goto	u5710
  9233  14B8                     u5711:
  9234  14B8  2CBA               	goto	l3472
  9235  14B9                     u5710:
  9236  14B9                     l3470:
  9237  14B9  142A               	bsf	___fldiv@b,0
  9238  14BA                     l3472:
  9239  14BA  3001               	movlw	1
  9240  14BB  00AE               	movwf	??___fldiv
  9241  14BC                     u5725:
  9242  14BC  1003               	clrc
  9243  14BD  0DBA               	rlf	___fldiv@grs,f
  9244  14BE  0DBB               	rlf	___fldiv@grs+1,f
  9245  14BF  0DBC               	rlf	___fldiv@grs+2,f
  9246  14C0  0DBD               	rlf	___fldiv@grs+3,f
  9247  14C1  0BAE               	decfsz	??___fldiv,f
  9248  14C2  2CBC               	goto	u5725
  9249  14C3                     l3474:
  9250  14C3  30FF               	movlw	255
  9251  14C4  07B8               	addwf	___fldiv@new_exp,f
  9252  14C5  1803               	skipnc
  9253  14C6  0AB9               	incf	___fldiv@new_exp+1,f
  9254  14C7  30FF               	movlw	255
  9255  14C8  07B9               	addwf	___fldiv@new_exp+1,f
  9256  14C9                     l3476:
  9257  14C9  1FAC               	btfss	___fldiv@b+2,7
  9258  14CA  2CCC               	goto	u5731
  9259  14CB  2CCD               	goto	u5730
  9260  14CC                     u5731:
  9261  14CC  2CAC               	goto	l3466
  9262  14CD                     u5730:
  9263  14CD                     l3478:
  9264  14CD  01BF               	clrf	___fldiv@aexp
  9265  14CE                     l3480:
  9266  14CE  1FBD               	btfss	___fldiv@grs+3,7
  9267  14CF  2CD1               	goto	u5741
  9268  14D0  2CD2               	goto	u5740
  9269  14D1                     u5741:
  9270  14D1  2CEE               	goto	l3488
  9271  14D2                     u5740:
  9272  14D2                     l3482:
  9273  14D2  30FF               	movlw	255
  9274  14D3  053A               	andwf	___fldiv@grs,w
  9275  14D4  00AE               	movwf	??___fldiv
  9276  14D5  30FF               	movlw	255
  9277  14D6  053B               	andwf	___fldiv@grs+1,w
  9278  14D7  00AF               	movwf	??___fldiv+1
  9279  14D8  30FF               	movlw	255
  9280  14D9  053C               	andwf	___fldiv@grs+2,w
  9281  14DA  00B0               	movwf	??___fldiv+2
  9282  14DB  307F               	movlw	127
  9283  14DC  053D               	andwf	___fldiv@grs+3,w
  9284  14DD  00B1               	movwf	??___fldiv+3
  9285  14DE  0831               	movf	??___fldiv+3,w
  9286  14DF  0430               	iorwf	??___fldiv+2,w
  9287  14E0  042F               	iorwf	??___fldiv+1,w
  9288  14E1  042E               	iorwf	??___fldiv,w
  9289  14E2  1903               	skipnz
  9290  14E3  2CE5               	goto	u5751
  9291  14E4  2CE6               	goto	u5750
  9292  14E5                     u5751:
  9293  14E5  2CE9               	goto	l703
  9294  14E6                     u5750:
  9295  14E6                     l3484:
  9296  14E6  01BF               	clrf	___fldiv@aexp
  9297  14E7  0ABF               	incf	___fldiv@aexp,f
  9298  14E8  2CEE               	goto	l3488
  9299  14E9                     l703:
  9300  14E9  1C2A               	btfss	___fldiv@b,0
  9301  14EA  2CEC               	goto	u5761
  9302  14EB  2CED               	goto	u5760
  9303  14EC                     u5761:
  9304  14EC  2CEE               	goto	l3488
  9305  14ED                     u5760:
  9306  14ED  2CE6               	goto	l3484
  9307  14EE                     l3488:
  9308  14EE  083F               	movf	___fldiv@aexp,w
  9309  14EF  1903               	btfsc	3,2
  9310  14F0  2CF2               	goto	u5771
  9311  14F1  2CF3               	goto	u5770
  9312  14F2                     u5771:
  9313  14F2  2D24               	goto	l3498
  9314  14F3                     u5770:
  9315  14F3                     l3490:
  9316  14F3  3001               	movlw	1
  9317  14F4  07AA               	addwf	___fldiv@b,f
  9318  14F5  3000               	movlw	0
  9319  14F6  1803               	skipnc
  9320  14F7  3001               	movlw	1
  9321  14F8  07AB               	addwf	___fldiv@b+1,f
  9322  14F9  3000               	movlw	0
  9323  14FA  1803               	skipnc
  9324  14FB  3001               	movlw	1
  9325  14FC  07AC               	addwf	___fldiv@b+2,f
  9326  14FD  3000               	movlw	0
  9327  14FE  1803               	skipnc
  9328  14FF  3001               	movlw	1
  9329  1500  07AD               	addwf	___fldiv@b+3,f
  9330  1501                     l3492:
  9331  1501  1C2D               	btfss	___fldiv@b+3,0
  9332  1502  2D04               	goto	u5781
  9333  1503  2D05               	goto	u5780
  9334  1504                     u5781:
  9335  1504  2D24               	goto	l3498
  9336  1505                     u5780:
  9337  1505                     l3494:
  9338  1505  082A               	movf	___fldiv@b,w
  9339  1506  00AE               	movwf	??___fldiv
  9340  1507  082B               	movf	___fldiv@b+1,w
  9341  1508  00AF               	movwf	??___fldiv+1
  9342  1509  082C               	movf	___fldiv@b+2,w
  9343  150A  00B0               	movwf	??___fldiv+2
  9344  150B  082D               	movf	___fldiv@b+3,w
  9345  150C  00B1               	movwf	??___fldiv+3
  9346  150D  3001               	movlw	1
  9347  150E  00B2               	movwf	??___fldiv+4
  9348  150F                     u5795:
  9349  150F  0D31               	rlf	??___fldiv+3,w
  9350  1510  0CB1               	rrf	??___fldiv+3,f
  9351  1511  0CB0               	rrf	??___fldiv+2,f
  9352  1512  0CAF               	rrf	??___fldiv+1,f
  9353  1513  0CAE               	rrf	??___fldiv,f
  9354  1514                     u5790:
  9355  1514  0BB2               	decfsz	??___fldiv+4,f
  9356  1515  2D0F               	goto	u5795
  9357  1516  0831               	movf	??___fldiv+3,w
  9358  1517  00AD               	movwf	___fldiv@b+3
  9359  1518  0830               	movf	??___fldiv+2,w
  9360  1519  00AC               	movwf	___fldiv@b+2
  9361  151A  082F               	movf	??___fldiv+1,w
  9362  151B  00AB               	movwf	___fldiv@b+1
  9363  151C  082E               	movf	??___fldiv,w
  9364  151D  00AA               	movwf	___fldiv@b
  9365  151E                     l3496:
  9366  151E  3001               	movlw	1
  9367  151F  07B8               	addwf	___fldiv@new_exp,f
  9368  1520  1803               	skipnc
  9369  1521  0AB9               	incf	___fldiv@new_exp+1,f
  9370  1522  3000               	movlw	0
  9371  1523  07B9               	addwf	___fldiv@new_exp+1,f
  9372  1524                     l3498:
  9373  1524  0839               	movf	___fldiv@new_exp+1,w
  9374  1525  3A80               	xorlw	128
  9375  1526  00FF               	movwf	btemp+1
  9376  1527  3080               	movlw	128
  9377  1528  027F               	subwf	btemp+1,w
  9378  1529  1D03               	skipz
  9379  152A  2D2D               	goto	u5805
  9380  152B  30FF               	movlw	255
  9381  152C  0238               	subwf	___fldiv@new_exp,w
  9382  152D                     u5805:
  9383  152D  1C03               	skipc
  9384  152E  2D30               	goto	u5801
  9385  152F  2D31               	goto	u5800
  9386  1530                     u5801:
  9387  1530  2D3F               	goto	l3502
  9388  1531                     u5800:
  9389  1531                     l3500:
  9390  1531  30FF               	movlw	255
  9391  1532  1283               	bcf	3,5	;RP0=0, select bank0
  9392  1533  1303               	bcf	3,6	;RP1=0, select bank0
  9393  1534  00B8               	movwf	___fldiv@new_exp
  9394  1535  3000               	movlw	0
  9395  1536  00B9               	movwf	___fldiv@new_exp+1
  9396  1537  3000               	movlw	0
  9397  1538  00AD               	movwf	___fldiv@b+3
  9398  1539  3000               	movlw	0
  9399  153A  00AC               	movwf	___fldiv@b+2
  9400  153B  3000               	movlw	0
  9401  153C  00AB               	movwf	___fldiv@b+1
  9402  153D  3000               	movlw	0
  9403  153E  00AA               	movwf	___fldiv@b
  9404  153F                     l3502:
  9405  153F  1283               	bcf	3,5	;RP0=0, select bank0
  9406  1540  1303               	bcf	3,6	;RP1=0, select bank0
  9407  1541  0839               	movf	___fldiv@new_exp+1,w
  9408  1542  3A80               	xorlw	128
  9409  1543  00FF               	movwf	btemp+1
  9410  1544  3080               	movlw	128
  9411  1545  027F               	subwf	btemp+1,w
  9412  1546  1D03               	skipz
  9413  1547  2D4A               	goto	u5815
  9414  1548  3001               	movlw	1
  9415  1549  0238               	subwf	___fldiv@new_exp,w
  9416  154A                     u5815:
  9417  154A  1803               	skipnc
  9418  154B  2D4D               	goto	u5811
  9419  154C  2D4E               	goto	u5810
  9420  154D                     u5811:
  9421  154D  2D5B               	goto	l3510
  9422  154E                     u5810:
  9423  154E                     l3504:
  9424  154E  1283               	bcf	3,5	;RP0=0, select bank0
  9425  154F  1303               	bcf	3,6	;RP1=0, select bank0
  9426  1550  01B8               	clrf	___fldiv@new_exp
  9427  1551  01B9               	clrf	___fldiv@new_exp+1
  9428  1552                     l3506:
  9429  1552  3000               	movlw	0
  9430  1553  00AD               	movwf	___fldiv@b+3
  9431  1554  3000               	movlw	0
  9432  1555  00AC               	movwf	___fldiv@b+2
  9433  1556  3000               	movlw	0
  9434  1557  00AB               	movwf	___fldiv@b+1
  9435  1558  3000               	movlw	0
  9436  1559  00AA               	movwf	___fldiv@b
  9437  155A                     l3508:
  9438  155A  01B7               	clrf	___fldiv@sign
  9439  155B                     l3510:
  9440  155B  1283               	bcf	3,5	;RP0=0, select bank0
  9441  155C  1303               	bcf	3,6	;RP1=0, select bank0
  9442  155D  0838               	movf	___fldiv@new_exp,w
  9443  155E  00FF               	movwf	btemp+1
  9444  155F  087F               	movf	btemp+1,w
  9445  1560  00BE               	movwf	___fldiv@bexp
  9446  1561                     l3512:
  9447  1561  1C3E               	btfss	___fldiv@bexp,0
  9448  1562  2D64               	goto	u5821
  9449  1563  2D65               	goto	u5820
  9450  1564                     u5821:
  9451  1564  2D67               	goto	l3516
  9452  1565                     u5820:
  9453  1565                     l3514:
  9454  1565  17AC               	bsf	___fldiv@b+2,7
  9455  1566  2D6B               	goto	l711
  9456  1567                     l3516:
  9457  1567  307F               	movlw	127
  9458  1568  00FF               	movwf	btemp+1
  9459  1569  087F               	movf	btemp+1,w
  9460  156A  05AC               	andwf	___fldiv@b+2,f
  9461  156B                     l711:
  9462  156B  083E               	movf	___fldiv@bexp,w
  9463  156C  00AE               	movwf	??___fldiv
  9464  156D  1003               	clrc
  9465  156E  0C2E               	rrf	??___fldiv,w
  9466  156F  00FF               	movwf	btemp+1
  9467  1570  087F               	movf	btemp+1,w
  9468  1571  00AD               	movwf	___fldiv@b+3
  9469  1572  0837               	movf	___fldiv@sign,w
  9470  1573  00FF               	movwf	btemp+1
  9471  1574  087F               	movf	btemp+1,w
  9472  1575  04AD               	iorwf	___fldiv@b+3,f
  9473  1576  2C0F               	goto	l3422
  9474  1577                     l689:
  9475  1577  0008               	return
  9476  1578                     __end_of___fldiv:
  9477                           
  9478                           	psect	text24
  9479  1C08                     __ptext24:	
  9480 ;; *************** function _LCD_Write_String *****************
  9481 ;; Defined at:
  9482 ;;		line 132 in file "lcd.c"
  9483 ;; Parameters:    Size  Location     Type
  9484 ;;  str             1    wreg     PTR unsigned char 
  9485 ;;		 -> str(30), 
  9486 ;; Auto vars:     Size  Location     Type
  9487 ;;  str             1   11[COMMON] PTR unsigned char 
  9488 ;;		 -> str(30), 
  9489 ;;  i               2    9[COMMON] int 
  9490 ;; Return value:  Size  Location     Type
  9491 ;;                  1    wreg      void 
  9492 ;; Registers used:
  9493 ;;		wreg, fsr0l, fsr0h, status,2, status,0, btemp+1, pclath, cstack
  9494 ;; Tracked objects:
  9495 ;;		On entry : 0/0
  9496 ;;		On exit  : 0/0
  9497 ;;		Unchanged: 0/0
  9498 ;; Data sizes:     COMMON   BANK0   BANK1   BANK3   BANK2
  9499 ;;      Params:         0       0       0       0       0
  9500 ;;      Locals:         3       0       0       0       0
  9501 ;;      Temps:          1       0       0       0       0
  9502 ;;      Totals:         4       0       0       0       0
  9503 ;;Total ram usage:        4 bytes
  9504 ;; Hardware stack levels used:    1
  9505 ;; Hardware stack levels required when called:    3
  9506 ;; This function calls:
  9507 ;;		_LCD_Write_Char
  9508 ;; This function is called by:
  9509 ;;		_main
  9510 ;; This function uses a non-reentrant model
  9511 ;;
  9512                           
  9513                           
  9514                           ;psect for function _LCD_Write_String
  9515  1C08                     _LCD_Write_String:
  9516                           
  9517                           ;incstack = 0
  9518                           ; Regs used in _LCD_Write_String: [wreg-fsr0h+status,2+status,0+btemp+1+pclath+cstack]
  9519                           ;LCD_Write_String@str stored from wreg
  9520  1C08  00FB               	movwf	LCD_Write_String@str
  9521  1C09                     l3370:
  9522                           
  9523                           ;lcd.c: 132: void LCD_Write_String(char *str);lcd.c: 133: {;lcd.c: 134:   int i;;lcd.c: 
      +                          135:   for(i=0;str[i]!='\0';i++)
  9524  1C09  01F9               	clrf	LCD_Write_String@i
  9525  1C0A  01FA               	clrf	LCD_Write_String@i+1
  9526  1C0B  2C1D               	goto	l3376
  9527  1C0C                     l3372:
  9528                           
  9529                           ;lcd.c: 136:     LCD_Write_Char(str[i]);
  9530  1C0C  0879               	movf	LCD_Write_String@i,w
  9531  1C0D  077B               	addwf	LCD_Write_String@str,w
  9532  1C0E  00F8               	movwf	??_LCD_Write_String
  9533  1C0F  0878               	movf	??_LCD_Write_String,w
  9534  1C10  0084               	movwf	4
  9535  1C11  0800               	movf	0,w
  9536  1C12  160A  158A  25B5  160A  158A  	fcall	_LCD_Write_Char
  9537  1C17                     l3374:
  9538  1C17  3001               	movlw	1
  9539  1C18  07F9               	addwf	LCD_Write_String@i,f
  9540  1C19  1803               	skipnc
  9541  1C1A  0AFA               	incf	LCD_Write_String@i+1,f
  9542  1C1B  3000               	movlw	0
  9543  1C1C  07FA               	addwf	LCD_Write_String@i+1,f
  9544  1C1D                     l3376:
  9545  1C1D  0879               	movf	LCD_Write_String@i,w
  9546  1C1E  077B               	addwf	LCD_Write_String@str,w
  9547  1C1F  00F8               	movwf	??_LCD_Write_String
  9548  1C20  0878               	movf	??_LCD_Write_String,w
  9549  1C21  0084               	movwf	4
  9550  1C22  1783               	bsf	3,7	;select IRP bank2
  9551  1C23  0800               	movf	0,w
  9552  1C24  1D03               	btfss	3,2
  9553  1C25  2C27               	goto	u5531
  9554  1C26  2C28               	goto	u5530
  9555  1C27                     u5531:
  9556  1C27  2C0C               	goto	l3372
  9557  1C28                     u5530:
  9558  1C28                     l131:
  9559  1C28  0008               	return
  9560  1C29                     __end_of_LCD_Write_String:
  9561                           
  9562                           	psect	text25
  9563  1DB5                     __ptext25:	
  9564 ;; *************** function _LCD_Write_Char *****************
  9565 ;; Defined at:
  9566 ;;		line 113 in file "lcd.c"
  9567 ;; Parameters:    Size  Location     Type
  9568 ;;  Data            1    wreg     unsigned char 
  9569 ;; Auto vars:     Size  Location     Type
  9570 ;;  Data            1    7[COMMON] unsigned char 
  9571 ;;  High4           1    6[COMMON] unsigned char 
  9572 ;;  Low4            1    5[COMMON] unsigned char 
  9573 ;; Return value:  Size  Location     Type
  9574 ;;                  1    wreg      void 
  9575 ;; Registers used:
  9576 ;;		wreg, status,2, status,0, btemp+1, pclath, cstack
  9577 ;; Tracked objects:
  9578 ;;		On entry : 0/0
  9579 ;;		On exit  : 0/0
  9580 ;;		Unchanged: 0/0
  9581 ;; Data sizes:     COMMON   BANK0   BANK1   BANK3   BANK2
  9582 ;;      Params:         0       0       0       0       0
  9583 ;;      Locals:         3       0       0       0       0
  9584 ;;      Temps:          2       0       0       0       0
  9585 ;;      Totals:         5       0       0       0       0
  9586 ;;Total ram usage:        5 bytes
  9587 ;; Hardware stack levels used:    1
  9588 ;; Hardware stack levels required when called:    2
  9589 ;; This function calls:
  9590 ;;		_LCD_DATA
  9591 ;; This function is called by:
  9592 ;;		_LCD_Write_String
  9593 ;; This function uses a non-reentrant model
  9594 ;;
  9595                           
  9596                           
  9597                           ;psect for function _LCD_Write_Char
  9598  1DB5                     _LCD_Write_Char:
  9599                           
  9600                           ;incstack = 0
  9601                           ; Regs used in _LCD_Write_Char: [wreg+status,2+status,0+btemp+1+pclath+cstack]
  9602                           ;LCD_Write_Char@Data stored from wreg
  9603  1DB5  00F7               	movwf	LCD_Write_Char@Data
  9604  1DB6                     l2746:
  9605                           
  9606                           ;lcd.c: 113: void LCD_Write_Char(char Data);lcd.c: 114: {;lcd.c: 115:   char Low4,High4;
      +                          ;lcd.c: 116:   Low4 = Data & 0x0F;
  9607  1DB6  0877               	movf	LCD_Write_Char@Data,w
  9608  1DB7  390F               	andlw	15
  9609  1DB8  00FF               	movwf	btemp+1
  9610  1DB9  087F               	movf	btemp+1,w
  9611  1DBA  00F5               	movwf	LCD_Write_Char@Low4
  9612                           
  9613                           ;lcd.c: 117:   High4 = Data & 0xF0;
  9614  1DBB  0877               	movf	LCD_Write_Char@Data,w
  9615  1DBC  39F0               	andlw	240
  9616  1DBD  00FF               	movwf	btemp+1
  9617  1DBE  087F               	movf	btemp+1,w
  9618  1DBF  00F6               	movwf	LCD_Write_Char@High4
  9619  1DC0                     l2748:
  9620                           
  9621                           ;lcd.c: 118:   RD2 = 1;
  9622  1DC0  1283               	bcf	3,5	;RP0=0, select bank0
  9623  1DC1  1303               	bcf	3,6	;RP1=0, select bank0
  9624  1DC2  1508               	bsf	8,2	;volatile
  9625  1DC3                     l2750:
  9626                           
  9627                           ;lcd.c: 119:   LCD_DATA(High4>>4);
  9628  1DC3  0876               	movf	LCD_Write_Char@High4,w
  9629  1DC4  00F3               	movwf	??_LCD_Write_Char
  9630  1DC5  3004               	movlw	4
  9631  1DC6                     u4185:
  9632  1DC6  1003               	clrc
  9633  1DC7  0CF3               	rrf	??_LCD_Write_Char,f
  9634  1DC8  3EFF               	addlw	-1
  9635  1DC9  1D03               	skipz
  9636  1DCA  2DC6               	goto	u4185
  9637  1DCB  0873               	movf	??_LCD_Write_Char,w
  9638  1DCC  160A  158A  2429  160A  158A  	fcall	_LCD_DATA
  9639  1DD1                     l2752:
  9640                           
  9641                           ;lcd.c: 120:   RD3 = 1;
  9642  1DD1  1283               	bcf	3,5	;RP0=0, select bank0
  9643  1DD2  1303               	bcf	3,6	;RP1=0, select bank0
  9644  1DD3  1588               	bsf	8,3	;volatile
  9645  1DD4                     l2754:
  9646                           
  9647                           ;lcd.c: 121:   _delay((unsigned long)((500)*(20000000/4000000.0)));
  9648  1DD4  3004               	movlw	4
  9649  1DD5  00F4               	movwf	??_LCD_Write_Char+1
  9650  1DD6  303D               	movlw	61
  9651  1DD7  00F3               	movwf	??_LCD_Write_Char
  9652  1DD8                     u5917:
  9653  1DD8  0BF3               	decfsz	??_LCD_Write_Char,f
  9654  1DD9  2DD8               	goto	u5917
  9655  1DDA  0BF4               	decfsz	??_LCD_Write_Char+1,f
  9656  1DDB  2DD8               	goto	u5917
  9657  1DDC  2DDD               	nop2
  9658  1DDD                     l2756:
  9659                           
  9660                           ;lcd.c: 122:   RD3 = 0;
  9661  1DDD  1283               	bcf	3,5	;RP0=0, select bank0
  9662  1DDE  1303               	bcf	3,6	;RP1=0, select bank0
  9663  1DDF  1188               	bcf	8,3	;volatile
  9664  1DE0                     l2758:
  9665                           
  9666                           ;lcd.c: 123:   _delay((unsigned long)((500)*(20000000/4000000.0)));
  9667  1DE0  3004               	movlw	4
  9668  1DE1  00F4               	movwf	??_LCD_Write_Char+1
  9669  1DE2  303D               	movlw	61
  9670  1DE3  00F3               	movwf	??_LCD_Write_Char
  9671  1DE4                     u5927:
  9672  1DE4  0BF3               	decfsz	??_LCD_Write_Char,f
  9673  1DE5  2DE4               	goto	u5927
  9674  1DE6  0BF4               	decfsz	??_LCD_Write_Char+1,f
  9675  1DE7  2DE4               	goto	u5927
  9676  1DE8  2DE9               	nop2
  9677  1DE9                     l2760:
  9678                           
  9679                           ;lcd.c: 124:   LCD_DATA(Low4);
  9680  1DE9  0875               	movf	LCD_Write_Char@Low4,w
  9681  1DEA  160A  158A  2429  160A  158A  	fcall	_LCD_DATA
  9682  1DEF                     l2762:
  9683                           
  9684                           ;lcd.c: 125:   RD3 = 1;
  9685  1DEF  1283               	bcf	3,5	;RP0=0, select bank0
  9686  1DF0  1303               	bcf	3,6	;RP1=0, select bank0
  9687  1DF1  1588               	bsf	8,3	;volatile
  9688  1DF2                     l2764:
  9689                           
  9690                           ;lcd.c: 126:   _delay((unsigned long)((500)*(20000000/4000000.0)));
  9691  1DF2  3004               	movlw	4
  9692  1DF3  00F4               	movwf	??_LCD_Write_Char+1
  9693  1DF4  303D               	movlw	61
  9694  1DF5  00F3               	movwf	??_LCD_Write_Char
  9695  1DF6                     u5937:
  9696  1DF6  0BF3               	decfsz	??_LCD_Write_Char,f
  9697  1DF7  2DF6               	goto	u5937
  9698  1DF8  0BF4               	decfsz	??_LCD_Write_Char+1,f
  9699  1DF9  2DF6               	goto	u5937
  9700  1DFA  2DFB               	nop2
  9701  1DFB                     l2766:
  9702                           
  9703                           ;lcd.c: 127:   RD3 = 0;
  9704  1DFB  1283               	bcf	3,5	;RP0=0, select bank0
  9705  1DFC  1303               	bcf	3,6	;RP1=0, select bank0
  9706  1DFD  1188               	bcf	8,3	;volatile
  9707  1DFE                     l2768:
  9708                           
  9709                           ;lcd.c: 128:   _delay((unsigned long)((500)*(20000000/4000000.0)));
  9710  1DFE  3004               	movlw	4
  9711  1DFF  00F4               	movwf	??_LCD_Write_Char+1
  9712  1E00  303D               	movlw	61
  9713  1E01  00F3               	movwf	??_LCD_Write_Char
  9714  1E02                     u5947:
  9715  1E02  0BF3               	decfsz	??_LCD_Write_Char,f
  9716  1E03  2E02               	goto	u5947
  9717  1E04  0BF4               	decfsz	??_LCD_Write_Char+1,f
  9718  1E05  2E02               	goto	u5947
  9719  1E06  2E07               	nop2
  9720  1E07                     l125:
  9721  1E07  0008               	return
  9722  1E08                     __end_of_LCD_Write_Char:
  9723                           
  9724                           	psect	text26
  9725  1D64                     __ptext26:	
  9726 ;; *************** function _LCD_Set_Cursor *****************
  9727 ;; Defined at:
  9728 ;;		line 62 in file "lcd.c"
  9729 ;; Parameters:    Size  Location     Type
  9730 ;;  r               1    wreg     unsigned char 
  9731 ;;  c               1    6[COMMON] unsigned char 
  9732 ;; Auto vars:     Size  Location     Type
  9733 ;;  r               1    8[COMMON] unsigned char 
  9734 ;;  Temp            1   11[COMMON] unsigned char 
  9735 ;;  High4           1   10[COMMON] unsigned char 
  9736 ;;  Low4            1    9[COMMON] unsigned char 
  9737 ;; Return value:  Size  Location     Type
  9738 ;;                  1    wreg      void 
  9739 ;; Registers used:
  9740 ;;		wreg, status,2, status,0, btemp+1, pclath, cstack
  9741 ;; Tracked objects:
  9742 ;;		On entry : 0/0
  9743 ;;		On exit  : 0/0
  9744 ;;		Unchanged: 0/0
  9745 ;; Data sizes:     COMMON   BANK0   BANK1   BANK3   BANK2
  9746 ;;      Params:         1       0       0       0       0
  9747 ;;      Locals:         4       0       0       0       0
  9748 ;;      Temps:          1       0       0       0       0
  9749 ;;      Totals:         6       0       0       0       0
  9750 ;;Total ram usage:        6 bytes
  9751 ;; Hardware stack levels used:    1
  9752 ;; Hardware stack levels required when called:    3
  9753 ;; This function calls:
  9754 ;;		_LCD_CMD
  9755 ;; This function is called by:
  9756 ;;		_main
  9757 ;; This function uses a non-reentrant model
  9758 ;;
  9759                           
  9760                           
  9761                           ;psect for function _LCD_Set_Cursor
  9762  1D64                     _LCD_Set_Cursor:
  9763                           
  9764                           ;incstack = 0
  9765                           ; Regs used in _LCD_Set_Cursor: [wreg+status,2+status,0+btemp+1+pclath+cstack]
  9766                           ;LCD_Set_Cursor@r stored from wreg
  9767  1D64  00F8               	movwf	LCD_Set_Cursor@r
  9768  1D65                     l3174:
  9769                           
  9770                           ;lcd.c: 62: void LCD_Set_Cursor(unsigned char r, unsigned char c);lcd.c: 63: {;lcd.c: 64
      +                          :   unsigned char Temp,Low4,High4;;lcd.c: 65:   if(r == 1)
  9771  1D65  0378               	decf	LCD_Set_Cursor@r,w
  9772  1D66  1D03               	btfss	3,2
  9773  1D67  2D69               	goto	u5221
  9774  1D68  2D6A               	goto	u5220
  9775  1D69                     u5221:
  9776  1D69  2D8C               	goto	l3184
  9777  1D6A                     u5220:
  9778  1D6A                     l3176:
  9779                           
  9780                           ;lcd.c: 66:   {;lcd.c: 67:     Temp = 0x80 + c - 1;
  9781  1D6A  0876               	movf	LCD_Set_Cursor@c,w
  9782  1D6B  3E7F               	addlw	127
  9783  1D6C  00FF               	movwf	btemp+1
  9784  1D6D  087F               	movf	btemp+1,w
  9785  1D6E  00FB               	movwf	LCD_Set_Cursor@Temp
  9786                           
  9787                           ;lcd.c: 68:     High4 = Temp >> 4;
  9788  1D6F  087B               	movf	LCD_Set_Cursor@Temp,w
  9789  1D70  00F7               	movwf	??_LCD_Set_Cursor
  9790  1D71  3004               	movlw	4
  9791  1D72                     u5235:
  9792  1D72  1003               	clrc
  9793  1D73  0CF7               	rrf	??_LCD_Set_Cursor,f
  9794  1D74  3EFF               	addlw	-1
  9795  1D75  1D03               	skipz
  9796  1D76  2D72               	goto	u5235
  9797  1D77  0877               	movf	??_LCD_Set_Cursor,w
  9798  1D78  00FF               	movwf	btemp+1
  9799  1D79  087F               	movf	btemp+1,w
  9800  1D7A  00FA               	movwf	LCD_Set_Cursor@High4
  9801  1D7B                     l3178:
  9802                           
  9803                           ;lcd.c: 69:     Low4 = Temp & 0x0F;
  9804  1D7B  087B               	movf	LCD_Set_Cursor@Temp,w
  9805  1D7C  390F               	andlw	15
  9806  1D7D  00FF               	movwf	btemp+1
  9807  1D7E  087F               	movf	btemp+1,w
  9808  1D7F  00F9               	movwf	LCD_Set_Cursor@Low4
  9809  1D80                     l3180:
  9810                           
  9811                           ;lcd.c: 70:     LCD_CMD(High4);
  9812  1D80  087A               	movf	LCD_Set_Cursor@High4,w
  9813  1D81  160A  158A  23D0  160A  158A  	fcall	_LCD_CMD
  9814  1D86                     l3182:
  9815                           
  9816                           ;lcd.c: 71:     LCD_CMD(Low4);
  9817  1D86  0879               	movf	LCD_Set_Cursor@Low4,w
  9818  1D87  160A  158A  23D0  160A  158A  	fcall	_LCD_CMD
  9819  1D8C                     l3184:
  9820                           
  9821                           ;lcd.c: 73:   if(r == 2)
  9822  1D8C  3002               	movlw	2
  9823  1D8D  0678               	xorwf	LCD_Set_Cursor@r,w
  9824  1D8E  1D03               	btfss	3,2
  9825  1D8F  2D91               	goto	u5241
  9826  1D90  2D92               	goto	u5240
  9827  1D91                     u5241:
  9828  1D91  2DB4               	goto	l119
  9829  1D92                     u5240:
  9830  1D92                     l3186:
  9831                           
  9832                           ;lcd.c: 74:   {;lcd.c: 75:     Temp = 0xC0 + c - 1;
  9833  1D92  0876               	movf	LCD_Set_Cursor@c,w
  9834  1D93  3EBF               	addlw	191
  9835  1D94  00FF               	movwf	btemp+1
  9836  1D95  087F               	movf	btemp+1,w
  9837  1D96  00FB               	movwf	LCD_Set_Cursor@Temp
  9838                           
  9839                           ;lcd.c: 76:     High4 = Temp >> 4;
  9840  1D97  087B               	movf	LCD_Set_Cursor@Temp,w
  9841  1D98  00F7               	movwf	??_LCD_Set_Cursor
  9842  1D99  3004               	movlw	4
  9843  1D9A                     u5255:
  9844  1D9A  1003               	clrc
  9845  1D9B  0CF7               	rrf	??_LCD_Set_Cursor,f
  9846  1D9C  3EFF               	addlw	-1
  9847  1D9D  1D03               	skipz
  9848  1D9E  2D9A               	goto	u5255
  9849  1D9F  0877               	movf	??_LCD_Set_Cursor,w
  9850  1DA0  00FF               	movwf	btemp+1
  9851  1DA1  087F               	movf	btemp+1,w
  9852  1DA2  00FA               	movwf	LCD_Set_Cursor@High4
  9853  1DA3                     l3188:
  9854                           
  9855                           ;lcd.c: 77:     Low4 = Temp & 0x0F;
  9856  1DA3  087B               	movf	LCD_Set_Cursor@Temp,w
  9857  1DA4  390F               	andlw	15
  9858  1DA5  00FF               	movwf	btemp+1
  9859  1DA6  087F               	movf	btemp+1,w
  9860  1DA7  00F9               	movwf	LCD_Set_Cursor@Low4
  9861  1DA8                     l3190:
  9862                           
  9863                           ;lcd.c: 78:     LCD_CMD(High4);
  9864  1DA8  087A               	movf	LCD_Set_Cursor@High4,w
  9865  1DA9  160A  158A  23D0  160A  158A  	fcall	_LCD_CMD
  9866  1DAE                     l3192:
  9867                           
  9868                           ;lcd.c: 79:     LCD_CMD(Low4);
  9869  1DAE  0879               	movf	LCD_Set_Cursor@Low4,w
  9870  1DAF  160A  158A  23D0  160A  158A  	fcall	_LCD_CMD
  9871  1DB4                     l119:
  9872  1DB4  0008               	return
  9873  1DB5                     __end_of_LCD_Set_Cursor:
  9874                           
  9875                           	psect	text27
  9876  1EB5                     __ptext27:	
  9877 ;; *************** function _LCD_Init *****************
  9878 ;; Defined at:
  9879 ;;		line 87 in file "lcd.c"
  9880 ;; Parameters:    Size  Location     Type
  9881 ;;		None
  9882 ;; Auto vars:     Size  Location     Type
  9883 ;;		None
  9884 ;; Return value:  Size  Location     Type
  9885 ;;                  1    wreg      void 
  9886 ;; Registers used:
  9887 ;;		wreg, status,2, status,0, pclath, cstack
  9888 ;; Tracked objects:
  9889 ;;		On entry : 0/0
  9890 ;;		On exit  : 0/0
  9891 ;;		Unchanged: 0/0
  9892 ;; Data sizes:     COMMON   BANK0   BANK1   BANK3   BANK2
  9893 ;;      Params:         0       0       0       0       0
  9894 ;;      Locals:         0       0       0       0       0
  9895 ;;      Temps:          2       0       0       0       0
  9896 ;;      Totals:         2       0       0       0       0
  9897 ;;Total ram usage:        2 bytes
  9898 ;; Hardware stack levels used:    1
  9899 ;; Hardware stack levels required when called:    3
  9900 ;; This function calls:
  9901 ;;		_LCD_CMD
  9902 ;;		_LCD_DATA
  9903 ;; This function is called by:
  9904 ;;		_main
  9905 ;; This function uses a non-reentrant model
  9906 ;;
  9907                           
  9908                           
  9909                           ;psect for function _LCD_Init
  9910  1EB5                     _LCD_Init:
  9911  1EB5                     l3136:	
  9912                           ;incstack = 0
  9913                           ; Regs used in _LCD_Init: [wreg+status,2+status,0+pclath+cstack]
  9914                           
  9915                           
  9916                           ;lcd.c: 90:   TRISD = 0x00;
  9917  1EB5  1683               	bsf	3,5	;RP0=1, select bank1
  9918  1EB6  1303               	bcf	3,6	;RP1=0, select bank1
  9919  1EB7  0188               	clrf	8	;volatile
  9920  1EB8                     l3138:
  9921                           
  9922                           ;lcd.c: 91:   TRISD2 = 0;
  9923  1EB8  1108               	bcf	8,2	;volatile
  9924  1EB9                     l3140:
  9925                           
  9926                           ;lcd.c: 92:   TRISD3 = 0;
  9927  1EB9  1188               	bcf	8,3	;volatile
  9928  1EBA                     l3142:
  9929                           
  9930                           ;lcd.c: 94:   LCD_DATA(0x00);
  9931  1EBA  3000               	movlw	0
  9932  1EBB  160A  158A  2429  160A  158A  	fcall	_LCD_DATA
  9933  1EC0                     l3144:
  9934                           
  9935                           ;lcd.c: 95:   _delay((unsigned long)((30)*(20000000/4000.0)));
  9936  1EC0  30C3               	movlw	195
  9937  1EC1  00F7               	movwf	??_LCD_Init+1
  9938  1EC2  30CD               	movlw	205
  9939  1EC3  00F6               	movwf	??_LCD_Init
  9940  1EC4                     u5957:
  9941  1EC4  0BF6               	decfsz	??_LCD_Init,f
  9942  1EC5  2EC4               	goto	u5957
  9943  1EC6  0BF7               	decfsz	??_LCD_Init+1,f
  9944  1EC7  2EC4               	goto	u5957
  9945  1EC8                     l3146:
  9946                           
  9947                           ;lcd.c: 96:   _delay((unsigned long)((500)*(20000000/4000000.0)));
  9948  1EC8  3004               	movlw	4
  9949  1EC9  00F7               	movwf	??_LCD_Init+1
  9950  1ECA  303D               	movlw	61
  9951  1ECB  00F6               	movwf	??_LCD_Init
  9952  1ECC                     u5967:
  9953  1ECC  0BF6               	decfsz	??_LCD_Init,f
  9954  1ECD  2ECC               	goto	u5967
  9955  1ECE  0BF7               	decfsz	??_LCD_Init+1,f
  9956  1ECF  2ECC               	goto	u5967
  9957  1ED0  2ED1               	nop2
  9958  1ED1                     l3148:
  9959                           
  9960                           ;lcd.c: 98:   LCD_CMD(0x03);
  9961  1ED1  3003               	movlw	3
  9962  1ED2  160A  158A  23D0  160A  158A  	fcall	_LCD_CMD
  9963  1ED7                     l3150:
  9964                           
  9965                           ;lcd.c: 99:   _delay((unsigned long)((5)*(20000000/4000.0)));
  9966  1ED7  3021               	movlw	33
  9967  1ED8  00F7               	movwf	??_LCD_Init+1
  9968  1ED9  3076               	movlw	118
  9969  1EDA  00F6               	movwf	??_LCD_Init
  9970  1EDB                     u5977:
  9971  1EDB  0BF6               	decfsz	??_LCD_Init,f
  9972  1EDC  2EDB               	goto	u5977
  9973  1EDD  0BF7               	decfsz	??_LCD_Init+1,f
  9974  1EDE  2EDB               	goto	u5977
  9975  1EDF  0000               	nop
  9976  1EE0                     l3152:
  9977                           
  9978                           ;lcd.c: 100:   LCD_CMD(0x03);
  9979  1EE0  3003               	movlw	3
  9980  1EE1  160A  158A  23D0  160A  158A  	fcall	_LCD_CMD
  9981  1EE6                     l3154:
  9982                           
  9983                           ;lcd.c: 101:   _delay((unsigned long)((150)*(20000000/4000000.0)));
  9984  1EE6  30F9               	movlw	249
  9985  1EE7  00F6               	movwf	??_LCD_Init
  9986  1EE8                     u5987:
  9987  1EE8  0BF6               	decfsz	??_LCD_Init,f
  9988  1EE9  2EE8               	goto	u5987
  9989  1EEA  2EEB               	nop2
  9990  1EEB                     l3156:
  9991                           
  9992                           ;lcd.c: 102:   LCD_CMD(0x03);
  9993  1EEB  3003               	movlw	3
  9994  1EEC  160A  158A  23D0  160A  158A  	fcall	_LCD_CMD
  9995  1EF1                     l3158:
  9996                           
  9997                           ;lcd.c: 104:   LCD_CMD(0x02);
  9998  1EF1  3002               	movlw	2
  9999  1EF2  160A  158A  23D0  160A  158A  	fcall	_LCD_CMD
 10000  1EF7                     l3160:
 10001                           
 10002                           ;lcd.c: 105:   LCD_CMD(0x02);
 10003  1EF7  3002               	movlw	2
 10004  1EF8  160A  158A  23D0  160A  158A  	fcall	_LCD_CMD
 10005  1EFD                     l3162:
 10006                           
 10007                           ;lcd.c: 106:   LCD_CMD(0x08);
 10008  1EFD  3008               	movlw	8
 10009  1EFE  160A  158A  23D0  160A  158A  	fcall	_LCD_CMD
 10010  1F03                     l3164:
 10011                           
 10012                           ;lcd.c: 107:   LCD_CMD(0x00);
 10013  1F03  3000               	movlw	0
 10014  1F04  160A  158A  23D0  160A  158A  	fcall	_LCD_CMD
 10015  1F09                     l3166:
 10016                           
 10017                           ;lcd.c: 108:   LCD_CMD(0x0C);
 10018  1F09  300C               	movlw	12
 10019  1F0A  160A  158A  23D0  160A  158A  	fcall	_LCD_CMD
 10020  1F0F                     l3168:
 10021                           
 10022                           ;lcd.c: 109:   LCD_CMD(0x00);
 10023  1F0F  3000               	movlw	0
 10024  1F10  160A  158A  23D0  160A  158A  	fcall	_LCD_CMD
 10025  1F15                     l3170:
 10026                           
 10027                           ;lcd.c: 110:   LCD_CMD(0x06);
 10028  1F15  3006               	movlw	6
 10029  1F16  160A  158A  23D0  160A  158A  	fcall	_LCD_CMD
 10030  1F1B                     l122:
 10031  1F1B  0008               	return
 10032  1F1C                     __end_of_LCD_Init:
 10033                           
 10034                           	psect	text28
 10035  07EA                     __ptext28:	
 10036 ;; *************** function _LCD_Clear *****************
 10037 ;; Defined at:
 10038 ;;		line 53 in file "lcd.c"
 10039 ;; Parameters:    Size  Location     Type
 10040 ;;		None
 10041 ;; Auto vars:     Size  Location     Type
 10042 ;;		None
 10043 ;; Return value:  Size  Location     Type
 10044 ;;                  1    wreg      void 
 10045 ;; Registers used:
 10046 ;;		wreg, status,2, status,0, pclath, cstack
 10047 ;; Tracked objects:
 10048 ;;		On entry : 0/0
 10049 ;;		On exit  : 0/0
 10050 ;;		Unchanged: 0/0
 10051 ;; Data sizes:     COMMON   BANK0   BANK1   BANK3   BANK2
 10052 ;;      Params:         0       0       0       0       0
 10053 ;;      Locals:         0       0       0       0       0
 10054 ;;      Temps:          0       0       0       0       0
 10055 ;;      Totals:         0       0       0       0       0
 10056 ;;Total ram usage:        0 bytes
 10057 ;; Hardware stack levels used:    1
 10058 ;; Hardware stack levels required when called:    3
 10059 ;; This function calls:
 10060 ;;		_LCD_CMD
 10061 ;; This function is called by:
 10062 ;;		_main
 10063 ;; This function uses a non-reentrant model
 10064 ;;
 10065                           
 10066                           
 10067                           ;psect for function _LCD_Clear
 10068  07EA                     _LCD_Clear:
 10069  07EA                     l3172:	
 10070                           ;incstack = 0
 10071                           ; Regs used in _LCD_Clear: [wreg+status,2+status,0+pclath+cstack]
 10072                           
 10073                           
 10074                           ;lcd.c: 55:   LCD_CMD(0);
 10075  07EA  3000               	movlw	0
 10076  07EB  160A  158A  23D0  120A  118A  	fcall	_LCD_CMD
 10077                           
 10078                           ;lcd.c: 56:   LCD_CMD(1);
 10079  07F0  3001               	movlw	1
 10080  07F1  160A  158A  23D0  120A  118A  	fcall	_LCD_CMD
 10081  07F6                     l114:
 10082  07F6  0008               	return
 10083  07F7                     __end_of_LCD_Clear:
 10084                           
 10085                           	psect	text29
 10086  1BD0                     __ptext29:	
 10087 ;; *************** function _LCD_CMD *****************
 10088 ;; Defined at:
 10089 ;;		line 36 in file "lcd.c"
 10090 ;; Parameters:    Size  Location     Type
 10091 ;;  CMD             1    wreg     unsigned char 
 10092 ;; Auto vars:     Size  Location     Type
 10093 ;;  CMD             1    5[COMMON] unsigned char 
 10094 ;; Return value:  Size  Location     Type
 10095 ;;                  1    wreg      void 
 10096 ;; Registers used:
 10097 ;;		wreg, status,2, status,0, pclath, cstack
 10098 ;; Tracked objects:
 10099 ;;		On entry : 0/0
 10100 ;;		On exit  : 0/0
 10101 ;;		Unchanged: 0/0
 10102 ;; Data sizes:     COMMON   BANK0   BANK1   BANK3   BANK2
 10103 ;;      Params:         0       0       0       0       0
 10104 ;;      Locals:         1       0       0       0       0
 10105 ;;      Temps:          2       0       0       0       0
 10106 ;;      Totals:         3       0       0       0       0
 10107 ;;Total ram usage:        3 bytes
 10108 ;; Hardware stack levels used:    1
 10109 ;; Hardware stack levels required when called:    2
 10110 ;; This function calls:
 10111 ;;		_LCD_DATA
 10112 ;; This function is called by:
 10113 ;;		_LCD_Clear
 10114 ;;		_LCD_Set_Cursor
 10115 ;;		_LCD_Init
 10116 ;;		_LCD_Shift_Right
 10117 ;;		_LCD_Shift_Left
 10118 ;; This function uses a non-reentrant model
 10119 ;;
 10120                           
 10121                           
 10122                           ;psect for function _LCD_CMD
 10123  1BD0                     _LCD_CMD:
 10124                           
 10125                           ;incstack = 0
 10126                           ; Regs used in _LCD_CMD: [wreg+status,2+status,0+pclath+cstack]
 10127                           ;LCD_CMD@CMD stored from wreg
 10128  1BD0  00F5               	movwf	LCD_CMD@CMD
 10129  1BD1                     l2736:
 10130                           
 10131                           ;lcd.c: 36: void LCD_CMD(unsigned char CMD);lcd.c: 37: {;lcd.c: 39:   RD2 = 0;
 10132  1BD1  1283               	bcf	3,5	;RP0=0, select bank0
 10133  1BD2  1303               	bcf	3,6	;RP1=0, select bank0
 10134  1BD3  1108               	bcf	8,2	;volatile
 10135  1BD4                     l2738:
 10136                           
 10137                           ;lcd.c: 42:   LCD_DATA(CMD);
 10138  1BD4  0875               	movf	LCD_CMD@CMD,w
 10139  1BD5  160A  158A  2429  160A  158A  	fcall	_LCD_DATA
 10140  1BDA                     l2740:
 10141                           
 10142                           ;lcd.c: 45:   RD3 = 1;
 10143  1BDA  1283               	bcf	3,5	;RP0=0, select bank0
 10144  1BDB  1303               	bcf	3,6	;RP1=0, select bank0
 10145  1BDC  1588               	bsf	8,3	;volatile
 10146  1BDD                     l2742:
 10147                           
 10148                           ;lcd.c: 46:   _delay((unsigned long)((500)*(20000000/4000000.0)));
 10149  1BDD  3004               	movlw	4
 10150  1BDE  00F4               	movwf	??_LCD_CMD+1
 10151  1BDF  303D               	movlw	61
 10152  1BE0  00F3               	movwf	??_LCD_CMD
 10153  1BE1                     u5997:
 10154  1BE1  0BF3               	decfsz	??_LCD_CMD,f
 10155  1BE2  2BE1               	goto	u5997
 10156  1BE3  0BF4               	decfsz	??_LCD_CMD+1,f
 10157  1BE4  2BE1               	goto	u5997
 10158  1BE5  2BE6               	nop2
 10159  1BE6                     l2744:
 10160                           
 10161                           ;lcd.c: 47:   RD3 = 0;
 10162  1BE6  1283               	bcf	3,5	;RP0=0, select bank0
 10163  1BE7  1303               	bcf	3,6	;RP1=0, select bank0
 10164  1BE8  1188               	bcf	8,3	;volatile
 10165  1BE9                     l111:
 10166  1BE9  0008               	return
 10167  1BEA                     __end_of_LCD_CMD:
 10168                           
 10169                           	psect	text30
 10170  1C29                     __ptext30:	
 10171 ;; *************** function _LCD_DATA *****************
 10172 ;; Defined at:
 10173 ;;		line 9 in file "lcd.c"
 10174 ;; Parameters:    Size  Location     Type
 10175 ;;  Data            1    wreg     unsigned char 
 10176 ;; Auto vars:     Size  Location     Type
 10177 ;;  Data            1    2[COMMON] unsigned char 
 10178 ;; Return value:  Size  Location     Type
 10179 ;;                  1    wreg      void 
 10180 ;; Registers used:
 10181 ;;		wreg
 10182 ;; Tracked objects:
 10183 ;;		On entry : 0/0
 10184 ;;		On exit  : 0/0
 10185 ;;		Unchanged: 0/0
 10186 ;; Data sizes:     COMMON   BANK0   BANK1   BANK3   BANK2
 10187 ;;      Params:         0       0       0       0       0
 10188 ;;      Locals:         1       0       0       0       0
 10189 ;;      Temps:          0       0       0       0       0
 10190 ;;      Totals:         1       0       0       0       0
 10191 ;;Total ram usage:        1 bytes
 10192 ;; Hardware stack levels used:    1
 10193 ;; Hardware stack levels required when called:    1
 10194 ;; This function calls:
 10195 ;;		Nothing
 10196 ;; This function is called by:
 10197 ;;		_LCD_CMD
 10198 ;;		_LCD_Init
 10199 ;;		_LCD_Write_Char
 10200 ;; This function uses a non-reentrant model
 10201 ;;
 10202                           
 10203                           
 10204                           ;psect for function _LCD_DATA
 10205  1C29                     _LCD_DATA:
 10206                           
 10207                           ;incstack = 0
 10208                           ; Regs used in _LCD_DATA: [wreg]
 10209                           ;LCD_DATA@Data stored from wreg
 10210  1C29  00F2               	movwf	LCD_DATA@Data
 10211  1C2A                     l2252:
 10212                           
 10213                           ;lcd.c: 9: void LCD_DATA(unsigned char Data);lcd.c: 10: {;lcd.c: 11:   if(Data & 1)
 10214  1C2A  1C72               	btfss	LCD_DATA@Data,0
 10215  1C2B  2C2D               	goto	u2991
 10216  1C2C  2C2E               	goto	u2990
 10217  1C2D                     u2991:
 10218  1C2D  2C32               	goto	l100
 10219  1C2E                     u2990:
 10220  1C2E                     l2254:
 10221                           
 10222                           ;lcd.c: 12:     RD4 = 1;
 10223  1C2E  1283               	bcf	3,5	;RP0=0, select bank0
 10224  1C2F  1303               	bcf	3,6	;RP1=0, select bank0
 10225  1C30  1608               	bsf	8,4	;volatile
 10226  1C31  2C35               	goto	l101
 10227  1C32                     l100:	
 10228                           ;lcd.c: 13:   else
 10229                           
 10230                           
 10231                           ;lcd.c: 14:     RD4 = 0;
 10232  1C32  1283               	bcf	3,5	;RP0=0, select bank0
 10233  1C33  1303               	bcf	3,6	;RP1=0, select bank0
 10234  1C34  1208               	bcf	8,4	;volatile
 10235  1C35                     l101:
 10236                           
 10237                           ;lcd.c: 16:   if(Data & 2)
 10238  1C35  1CF2               	btfss	LCD_DATA@Data,1
 10239  1C36  2C38               	goto	u3001
 10240  1C37  2C39               	goto	u3000
 10241  1C38                     u3001:
 10242  1C38  2C3B               	goto	l102
 10243  1C39                     u3000:
 10244  1C39                     l2256:
 10245                           
 10246                           ;lcd.c: 17:     RD5 = 1;
 10247  1C39  1688               	bsf	8,5	;volatile
 10248  1C3A  2C3C               	goto	l103
 10249  1C3B                     l102:	
 10250                           ;lcd.c: 18:   else
 10251                           
 10252                           
 10253                           ;lcd.c: 19:     RD5 = 0;
 10254  1C3B  1288               	bcf	8,5	;volatile
 10255  1C3C                     l103:
 10256                           
 10257                           ;lcd.c: 21:   if(Data & 4)
 10258  1C3C  1D72               	btfss	LCD_DATA@Data,2
 10259  1C3D  2C3F               	goto	u3011
 10260  1C3E  2C40               	goto	u3010
 10261  1C3F                     u3011:
 10262  1C3F  2C42               	goto	l104
 10263  1C40                     u3010:
 10264  1C40                     l2258:
 10265                           
 10266                           ;lcd.c: 22:     RD6 = 1;
 10267  1C40  1708               	bsf	8,6	;volatile
 10268  1C41  2C43               	goto	l105
 10269  1C42                     l104:	
 10270                           ;lcd.c: 23:   else
 10271                           
 10272                           
 10273                           ;lcd.c: 24:     RD6 = 0;
 10274  1C42  1308               	bcf	8,6	;volatile
 10275  1C43                     l105:
 10276                           
 10277                           ;lcd.c: 26:   if(Data & 8)
 10278  1C43  1DF2               	btfss	LCD_DATA@Data,3
 10279  1C44  2C46               	goto	u3021
 10280  1C45  2C47               	goto	u3020
 10281  1C46                     u3021:
 10282  1C46  2C49               	goto	l106
 10283  1C47                     u3020:
 10284  1C47                     l2260:
 10285                           
 10286                           ;lcd.c: 27:     RD7 = 1;
 10287  1C47  1788               	bsf	8,7	;volatile
 10288  1C48  2C4A               	goto	l108
 10289  1C49                     l106:	
 10290                           ;lcd.c: 28:   else
 10291                           
 10292                           
 10293                           ;lcd.c: 29:     RD7 = 0;
 10294  1C49  1388               	bcf	8,7	;volatile
 10295  1C4A                     l108:
 10296  1C4A  0008               	return
 10297  1C4B                     __end_of_LCD_DATA:
 10298                           
 10299                           	psect	text31
 10300  1BEA                     __ptext31:	
 10301 ;; *************** function _ISR *****************
 10302 ;; Defined at:
 10303 ;;		line 42 in file "main_do_tan-so.c"
 10304 ;; Parameters:    Size  Location     Type
 10305 ;;		None
 10306 ;; Auto vars:     Size  Location     Type
 10307 ;;		None
 10308 ;; Return value:  Size  Location     Type
 10309 ;;                  1    wreg      void 
 10310 ;; Registers used:
 10311 ;;		wreg
 10312 ;; Tracked objects:
 10313 ;;		On entry : 0/0
 10314 ;;		On exit  : 0/0
 10315 ;;		Unchanged: 0/0
 10316 ;; Data sizes:     COMMON   BANK0   BANK1   BANK3   BANK2
 10317 ;;      Params:         0       0       0       0       0
 10318 ;;      Locals:         0       0       0       0       0
 10319 ;;      Temps:          2       0       0       0       0
 10320 ;;      Totals:         2       0       0       0       0
 10321 ;;Total ram usage:        2 bytes
 10322 ;; Hardware stack levels used:    1
 10323 ;; This function calls:
 10324 ;;		Nothing
 10325 ;; This function is called by:
 10326 ;;		Interrupt level 1
 10327 ;; This function uses a non-reentrant model
 10328 ;;
 10329                           
 10330                           
 10331                           ;psect for function _ISR
 10332  1BEA                     _ISR:
 10333  1BEA                     i1l3522:
 10334                           
 10335                           ;main_do_tan-so.c: 44:         TMR1L=0;
 10336  1BEA  1683               	bsf	3,5	;RP0=1, select bank1
 10337  1BEB  1303               	bcf	3,6	;RP1=0, select bank1
 10338  1BEC  1C0C               	btfss	12,0	;volatile
 10339  1BED  2BEF               	goto	u583_21
 10340  1BEE  2BF0               	goto	u583_20
 10341  1BEF                     u583_21:
 10342  1BEF  2C01               	goto	i1l57
 10343  1BF0                     u583_20:
 10344  1BF0                     i1l3524:
 10345  1BF0  1283               	bcf	3,5	;RP0=0, select bank0
 10346  1BF1  1303               	bcf	3,6	;RP1=0, select bank0
 10347  1BF2  1C0C               	btfss	12,0	;volatile
 10348  1BF3  2BF5               	goto	u584_21
 10349  1BF4  2BF6               	goto	u584_20
 10350  1BF5                     u584_21:
 10351  1BF5  2C01               	goto	i1l57
 10352  1BF6                     u584_20:
 10353  1BF6                     i1l3526:
 10354                           
 10355                           ;main_do_tan-so.c: 45:         while(RB0==1);;main_do_tan-so.c: 46:         while(RB0==0
      +                          );
 10356  1BF6  3001               	movlw	1
 10357  1BF7  1683               	bsf	3,5	;RP0=1, select bank1
 10358  1BF8  1303               	bcf	3,6	;RP1=0, select bank1
 10359  1BF9  07CF               	addwf	_u32NumberOfCounterOver^(0+128),f
 10360  1BFA  1803               	skipnc
 10361  1BFB  0AD0               	incf	(_u32NumberOfCounterOver+1)^(0+128),f
 10362  1BFC  3000               	movlw	0
 10363  1BFD  07D0               	addwf	(_u32NumberOfCounterOver+1)^(0+128),f
 10364  1BFE                     i1l3528:
 10365                           
 10366                           ;main_do_tan-so.c: 47:         TMR1ON=1;
 10367  1BFE  1283               	bcf	3,5	;RP0=0, select bank0
 10368  1BFF  1303               	bcf	3,6	;RP1=0, select bank0
 10369  1C00  100C               	bcf	12,0	;volatile
 10370  1C01                     i1l57:
 10371  1C01  0871               	movf	??_ISR+1,w
 10372  1C02  008A               	movwf	10
 10373  1C03  0E70               	swapf	??_ISR^(0+4294967168),w
 10374  1C04  0083               	movwf	3
 10375  1C05  0EFE               	swapf	btemp,f
 10376  1C06  0E7E               	swapf	btemp,w
 10377  1C07  0009               	retfie
 10378  1C08                     __end_of_ISR:
 10379  007E                     btemp	set	126	;btemp
 10380  007E                     wtemp0	set	126
 10381                           
 10382                           	psect	intentry
 10383  0004                     __pintentry:	
 10384                           ;incstack = 0
 10385                           ; Regs used in _ISR: [wreg]
 10386                           
 10387  0004                     interrupt_function:
 10388  007E                     saved_w	set	btemp
 10389  0004  00FE               	movwf	btemp
 10390  0005  0E03               	swapf	3,w
 10391  0006  00F0               	movwf	??_ISR
 10392  0007  080A               	movf	10,w
 10393  0008  00F1               	movwf	??_ISR+1
 10394  0009  160A  158A  2BEA   	ljmp	_ISR
 10395                           
 10396                           	psect	config
 10397                           
 10398                           ;Config register CONFIG @ 0x2007
 10399                           ;	Oscillator Selection bits
 10400                           ;	FOSC = HS, HS oscillator
 10401                           ;	Watchdog Timer Enable bit
 10402                           ;	WDTE = OFF, WDT disabled
 10403                           ;	Power-up Timer Enable bit
 10404                           ;	PWRTE = ON, PWRT enabled
 10405                           ;	Brown-out Reset Enable bit
 10406                           ;	BOREN = ON, BOR enabled
 10407                           ;	Low-Voltage (Single-Supply) In-Circuit Serial Programming Enable bit
 10408                           ;	LVP = ON, RB3/PGM pin has PGM function; low-voltage programming enabled
 10409                           ;	Data EEPROM Memory Code Protection bit
 10410                           ;	CPD = OFF, Data EEPROM code protection off
 10411                           ;	Flash Program Memory Write Enable bits
 10412                           ;	WRT = OFF, Write protection off; all program memory may be written to by EECON control
 10413                           ;	In-Circuit Debugger Mode bit
 10414                           ;	DEBUG = 0x1, unprogrammed default
 10415                           ;	Flash Program Memory Code Protection bit
 10416                           ;	CP = OFF, Code protection off
 10417  2007                     	org	8199
 10418  2007  3FF2               	dw	16370

Data Sizes:
    Strings     3
    Constant    144
    Data        0
    BSS         38
    Persistent  0
    Stack       0

Auto Spaces:
    Space          Size  Autos    Used
    COMMON           14     12      12
    BANK0            80     78      78
    BANK1            80     43      51
    BANK3            96      0      30
    BANK2            96      0       0

Pointer List with Targets:

    sprintf@f	PTR const unsigned char  size(1) Largest target is 3
		 -> STR_1(CODE[3]), 

    sprintf@sp	PTR unsigned char  size(1) Largest target is 30
		 -> str(BANK3[30]), 

    sprintf@ap	PTR void [1] size(1) Largest target is 2
		 -> ?_sprintf(BANK1[2]), 

    LCD_Write_String@str	PTR unsigned char  size(1) Largest target is 30
		 -> str(BANK3[30]), 


Critical Paths under _main in COMMON

    _main->_LCD_Set_Cursor
    _main->_LCD_Write_String
    _sprintf->___awdiv
    _sprintf->___llmod
    _scale->___awdiv
    ___awdiv->___awmod
    ___lwdiv->___lwmod
    ___flmul->___awdiv
    ___fldiv->___xxtofl
    _LCD_Write_String->_LCD_Write_Char
    _LCD_Write_Char->_LCD_DATA
    _LCD_Set_Cursor->_LCD_CMD
    _LCD_Init->_LCD_CMD
    _LCD_Clear->_LCD_CMD
    _LCD_CMD->_LCD_DATA

Critical Paths under _ISR in COMMON

    None.

Critical Paths under _main in BANK0

    _sprintf->___flsub
    _scale->___flmul
    _fround->___flmul
    ___flmul->___awdiv
    ___fltol->_scale
    ___flsub->___fladd
    ___fladd->_fround
    ___fldiv->___xxtofl

Critical Paths under _ISR in BANK0

    None.

Critical Paths under _main in BANK1

    _main->_sprintf

Critical Paths under _ISR in BANK1

    None.

Critical Paths under _main in BANK3

    None.

Critical Paths under _ISR in BANK3

    None.

Critical Paths under _main in BANK2

    None.

Critical Paths under _ISR in BANK2

    None.

Call Graph Tables:

 ---------------------------------------------------------------------------------
 (Depth) Function   	        Calls       Base Space   Used Autos Params    Refs
 ---------------------------------------------------------------------------------
 (0) _main                                                 8     8      0   32869
                                             35 BANK1      8     8      0
                          _LCD_Clear
                           _LCD_Init
                     _LCD_Set_Cursor
                   _LCD_Write_String
                            ___fldiv
                           ___xxtofl
                            _sprintf
                      _timer1_config
 ---------------------------------------------------------------------------------
 (1) _timer1_config                                        0     0      0       0
 ---------------------------------------------------------------------------------
 (1) _sprintf                                             42    37      5   29981
                                              0 BANK1     35    30      5
                            ___awdiv
                            ___fladd
                             ___fleq
                             ___flge
                            ___flmul
                            ___flneg
                            ___flsub
                            ___fltol
                            ___lldiv
                            ___llmod
                             ___wmul
                           ___xxtofl
                         __div_to_l_
                        __tdiv_to_l_
                             _fround
                              _scale
 ---------------------------------------------------------------------------------
 (2) _scale                                               19    15      4    7408
                                             30 BANK0     19    15      4
                            ___awdiv
                            ___awmod
                            ___flmul
 ---------------------------------------------------------------------------------
 (3) ___awmod                                              6     2      4    1208
                                              2 COMMON     6     2      4
 ---------------------------------------------------------------------------------
 (3) ___awdiv                                              8     4      4    1364
                                              8 COMMON     4     0      4
                                              0 BANK0      4     4      0
                            ___awmod (ARG)
 ---------------------------------------------------------------------------------
 (2) _fround                                              20    16      4    5871
                                             30 BANK0     20    16      4
                            ___flmul
                            ___lwdiv
                            ___lwmod
 ---------------------------------------------------------------------------------
 (3) ___lwmod                                              5     1      4     615
                                              2 COMMON     5     1      4
 ---------------------------------------------------------------------------------
 (3) ___lwdiv                                              7     3      4     618
                                              7 COMMON     4     0      4
                                              0 BANK0      3     3      0
                            ___lwmod (ARG)
 ---------------------------------------------------------------------------------
 (3) ___flmul                                             26    18      8    4393
                                              4 BANK0     26    18      8
                          __Umul8_16
                            ___awdiv (ARG)
                            ___awmod (ARG)
                            ___lwdiv (ARG)
                            ___lwmod (ARG)
 ---------------------------------------------------------------------------------
 (4) __Umul8_16                                            9     7      2     799
                                              2 COMMON     9     7      2
 ---------------------------------------------------------------------------------
 (2) __tdiv_to_l_                                         17     9      8     455
                                              2 COMMON     8     0      8
                                              0 BANK0      9     9      0
 ---------------------------------------------------------------------------------
 (2) __div_to_l_                                          15     7      8     455
                                              2 COMMON     9     1      8
                                              0 BANK0      6     6      0
 ---------------------------------------------------------------------------------
 (2) ___xxtofl                                            14    10      4     474
                                              2 COMMON     8     4      4
                                              0 BANK0      6     6      0
 ---------------------------------------------------------------------------------
 (2) ___wmul                                               6     2      4     244
                                              2 COMMON     6     2      4
 ---------------------------------------------------------------------------------
 (2) ___llmod                                             10     2      8     615
                                              2 COMMON    10     2      8
 ---------------------------------------------------------------------------------
 (2) ___lldiv                                             14     6      8     466
                                              2 COMMON     9     1      8
                                              0 BANK0      5     5      0
 ---------------------------------------------------------------------------------
 (2) ___fltol                                             10     6      4     457
                                             49 BANK0     10     6      4
                            ___flmul (ARG)
                              _scale (ARG)
 ---------------------------------------------------------------------------------
 (2) ___flsub                                              8     0      8    2485
                                             70 BANK0      8     0      8
                            ___fladd
                           ___xxtofl (ARG)
 ---------------------------------------------------------------------------------
 (3) ___fladd                                             20    12      8    2288
                                             50 BANK0     20    12      8
                             _fround (ARG)
 ---------------------------------------------------------------------------------
 (2) ___flneg                                              4     0      4     121
                                              2 COMMON     4     0      4
 ---------------------------------------------------------------------------------
 (2) ___flge                                              12     4      8     790
                                              2 COMMON     8     0      8
                                              0 BANK0      4     4      0
 ---------------------------------------------------------------------------------
 (2) ___fleq                                              12     4      8     394
                                              2 COMMON     8     0      8
                                              0 BANK0      4     4      0
 ---------------------------------------------------------------------------------
 (1) ___fldiv                                             26    18      8    1273
                                              6 BANK0     26    18      8
                           ___xxtofl (ARG)
 ---------------------------------------------------------------------------------
 (1) _LCD_Write_String                                     4     4      0     301
                                              8 COMMON     4     4      0
                     _LCD_Write_Char
 ---------------------------------------------------------------------------------
 (2) _LCD_Write_Char                                       5     5      0     178
                                              3 COMMON     5     5      0
                           _LCD_DATA
 ---------------------------------------------------------------------------------
 (1) _LCD_Set_Cursor                                       6     5      1     532
                                              6 COMMON     6     5      1
                            _LCD_CMD
 ---------------------------------------------------------------------------------
 (1) _LCD_Init                                             2     2      0     198
                                              6 COMMON     2     2      0
                            _LCD_CMD
                           _LCD_DATA
 ---------------------------------------------------------------------------------
 (1) _LCD_Clear                                            0     0      0     110
                            _LCD_CMD
 ---------------------------------------------------------------------------------
 (2) _LCD_CMD                                              3     3      0     110
                                              3 COMMON     3     3      0
                           _LCD_DATA
 ---------------------------------------------------------------------------------
 (3) _LCD_DATA                                             1     1      0      88
                                              2 COMMON     1     1      0
 ---------------------------------------------------------------------------------
 Estimated maximum stack depth 4
 ---------------------------------------------------------------------------------
 (Depth) Function   	        Calls       Base Space   Used Autos Params    Refs
 ---------------------------------------------------------------------------------
 (5) _ISR                                                  2     2      0       0
                                              0 COMMON     2     2      0
 ---------------------------------------------------------------------------------
 Estimated maximum stack depth 5
 ---------------------------------------------------------------------------------

 Call Graph Graphs:

 _main (ROOT)
   _LCD_Clear
     _LCD_CMD
       _LCD_DATA
   _LCD_Init
     _LCD_CMD
       _LCD_DATA
     _LCD_DATA
   _LCD_Set_Cursor
     _LCD_CMD
       _LCD_DATA
   _LCD_Write_String
     _LCD_Write_Char
       _LCD_DATA
   ___fldiv
     ___xxtofl (ARG)
   ___xxtofl
   _sprintf
     ___awdiv
       ___awmod (ARG)
     ___fladd
       _fround (ARG)
         ___flmul
           __Umul8_16
           ___awdiv (ARG)
             ___awmod (ARG)
           ___awmod (ARG)
           ___lwdiv (ARG)
             ___lwmod (ARG)
           ___lwmod (ARG)
         ___lwdiv
           ___lwmod (ARG)
         ___lwmod
     ___fleq
     ___flge
     ___flmul
       __Umul8_16
       ___awdiv (ARG)
         ___awmod (ARG)
       ___awmod (ARG)
       ___lwdiv (ARG)
         ___lwmod (ARG)
       ___lwmod (ARG)
     ___flneg
     ___flsub
       ___fladd
         _fround (ARG)
           ___flmul
             __Umul8_16
             ___awdiv (ARG)
               ___awmod (ARG)
             ___awmod (ARG)
             ___lwdiv (ARG)
               ___lwmod (ARG)
             ___lwmod (ARG)
           ___lwdiv
             ___lwmod (ARG)
           ___lwmod
       ___xxtofl (ARG)
     ___fltol
       ___flmul (ARG)
         __Umul8_16
         ___awdiv (ARG)
           ___awmod (ARG)
         ___awmod (ARG)
         ___lwdiv (ARG)
           ___lwmod (ARG)
         ___lwmod (ARG)
       _scale (ARG)
         ___awdiv
           ___awmod (ARG)
         ___awmod
         ___flmul
           __Umul8_16
           ___awdiv (ARG)
             ___awmod (ARG)
           ___awmod (ARG)
           ___lwdiv (ARG)
             ___lwmod (ARG)
           ___lwmod (ARG)
     ___lldiv
     ___llmod
     ___wmul
     ___xxtofl
     __div_to_l_
     __tdiv_to_l_
     _fround
       ___flmul
         __Umul8_16
         ___awdiv (ARG)
           ___awmod (ARG)
         ___awmod (ARG)
         ___lwdiv (ARG)
           ___lwmod (ARG)
         ___lwmod (ARG)
       ___lwdiv
         ___lwmod (ARG)
       ___lwmod
     _scale
       ___awdiv
         ___awmod (ARG)
       ___awmod
       ___flmul
         __Umul8_16
         ___awdiv (ARG)
           ___awmod (ARG)
         ___awmod (ARG)
         ___lwdiv (ARG)
           ___lwmod (ARG)
         ___lwmod (ARG)
   _timer1_config

 _ISR (ROOT)

 Address spaces:
Name               Size   Autos  Total    Cost      Usage
BITCOMMON            E      0       0       0        0.0%
EEDATA             100      0       0       0        0.0%
NULL                 0      0       0       0        0.0%
CODE                 0      0       0       0        0.0%
COMMON               E      C       C       1       85.7%
BITSFR0              0      0       0       1        0.0%
SFR0                 0      0       0       1        0.0%
BITSFR1              0      0       0       2        0.0%
SFR1                 0      0       0       2        0.0%
STACK                0      0       0       2        0.0%
ABS                  0      0      AB       3        0.0%
BITBANK0            50      0       0       4        0.0%
BITSFR3              0      0       0       4        0.0%
SFR3                 0      0       0       4        0.0%
BANK0               50     4E      4E       5       97.5%
BITSFR2              0      0       0       5        0.0%
SFR2                 0      0       0       5        0.0%
BITBANK1            50      0       0       6        0.0%
BANK1               50     2B      33       7       63.7%
BITBANK3            60      0       0       8        0.0%
BANK3               60      0      1E       9       31.2%
BITBANK2            60      0       0      10        0.0%
BANK2               60      0       0      11        0.0%
DATA                 0      0      AB      12        0.0%


Microchip Technology PIC Macro Assembler V2.20 build 20200408173844 
Symbol Table                                                                                   Tue Dec 14 08:00:22 2021

             ___fldiv@aexp 003F               ___fldiv@bexp 003E                          pc 0002  
             ___fldiv@sign 0037                         l51 080C                         l63 0898  
                       l72 08A5                         l74 08A9                         l66 089C  
                       l68 08A0                         l69 08A1               ___awdiv@sign 0021  
                       fsr 0004        ___wmul@multiplicand 0074        __Umul8_16@word_mpld 0078  
                      l100 1C32                        l101 1C35                        l102 1C3B  
                      l103 1C3C                        l111 1BE9                        l104 1C42  
                      l105 1C43                        l106 1C49                        l114 07F6  
                      l122 1F1B                        l131 1C28                        l108 1C4A  
                      l300 05DE                        l125 1E07                        l119 1DB4  
                      l304 1C7B                        l306 1C93                        l340 1F83  
                      l244 0C9E                        l237 07E9                        l503 1BCF  
                      l521 12DC                        l514 1FEA                        l522 124E  
                      l610 1D13                        l258 0042                        l507 1FFF  
                      l532 12CF                        l620 1CCD                        l517 1FFF  
                      l525 129F                        l470 1EB4                        l711 156B  
                      l703 14E9                        l631 15DB                        l560 1E5B  
                      l457 0875                        l490 1D32                        l474 139A  
                      l491 1D4E                        l635 1682                        l475 12FF  
                      l492 1D63                        l652 174D                        l644 17FF  
                      l637 1659                        l485 138D                        l733 0F6B  
                      l662 1793                        l478 135D                        l495 10DE  
                      l727 0FFF                        l656 1771                        l673 17F3  
                      l498 114A                        l674 17FF                        l746 10AD  
                      l499 1163                        l771 1188                        l739 0FF3  
                      l748 10BF                        l677 1C6E                        l773 121F  
                      l687 13F7                        l784 11E9                        l689 1577  
                      l785 11F5                        _GIE 005F                        _RB0 0030  
                      _RD2 0042                        _RD3 0043                        _RD4 0044  
                      _RD5 0045                        _RD6 0046                        _RD7 0047  
                      _ISR 1BEA                        fsr0 0004                        _str 0190  
                      indf 0000               ___awmod@sign 0077               ___flmul@aexp 0036  
             ___flmul@bexp 0037                _sprintf$806 00AA               ___flmul@sign 0031  
             ___flmul@temp 003C               ___flmul@prod 0038            __end_of_LCD_CMD 1BEA  
                     ?_ISR 0070             _LCD_Set_Cursor 1D64               ___fltol@exp1 005A  
                     l3000 10FE                       l3002 1122                       l3004 1126  
                     l3012 1BC5                       l3020 1F84                       l3100 119E  
                     l2300 086C                       l3006 1160                       l3014 1BCD  
                     l3030 1FB0                       l3022 1F91                       l3110 11C4  
                     l3102 11A2                       l2302 0871                       l2310 1E61  
                     l3008 1162                       l3016 1BCF                       l2400 158A  
                     l3032 1FB8                       l3120 11ED                       l3112 11CD  
                     l3104 11AB                       l2240 109C                       l2320 1E77  
                     l2312 1E66                       l3200 003A                       l2402 158F  
                     l2410 159F                       l3042 1FC6                       l3034 1FBA  
                     l3026 1F9A                       l3130 1217                       l3122 11F7  
                     l3114 11D4                       l3106 11B2                       l2242 10A3  
                     l2330 1E93                       l2322 1E7A                       l2314 1E68  
                     l2306 1E5C                       l3210 006A                       l3202 003F  
                     l2260 1C47                       l2252 1C2A                       l3140 1EB9  
                     l2500 1694                       l2420 15B9                       l2412 15A7  
                     l2404 1594                       l3052 1FDF                       l3044 1FCF  
                     l3036 1FBE                       l3028 1FAF                       l3060 1E10  
                     l3124 120D                       l3116 11DF                       l3108 11B6  
                     l2244 10A7                       l2340 1EB0                       l2332 1E99  
                     l2324 1E81                       l2316 1E6C                       l2308 1E5D  
                     l3300 03B7                       l3220 00B2                       l3212 006E  
                     l2254 1C2E                       l3150 1ED7                       l3142 1EBA  
                     l2510 16BE                       l2502 16AB                       l2430 15D0  
                     l2422 15BD                       l2414 15AC                       l2406 159C  
                     l3054 1FEF                       l3046 1FD8                       l3070 1E36  
                     l3062 1E13                       l3126 1212                       l3118 11E3  
                     l2246 10B6                       l2238 109A                       l2350 1CDB  
                     l2270 081B                       l2262 080D                       l2334 1EA0  
                     l2326 1E85                       l2318 1E71                       l3310 042E  
                     l3302 03F2                       l3230 00E4                       l3222 00B6  
                     l3214 007C                       l3206 0044                       l3134 0801  
                     l2256 1C39                       l3160 1EF7                       l3152 1EE0  
                     l3144 1EC0                       l3136 1EB5                       l3400 13CF  
                     l2520 16E7                       l2512 16C2                       l2504 16AF  
                     l2440 15E9                       l2432 15D1                       l2424 15BE  
                     l2416 15B2                       l2408 159D                       l3080 1C4B  
                     l3056 1FF4                       l3072 1E44                       l3064 1E1C  
                     l3128 1216                       l2248 10BB                       l2600 0CB0  
                     l2360 1D01                       l2352 1CE2                       l2344 1CCE  
                     l2280 0830                       l2272 081F                       l2264 0810  
                     l2328 1E89                       l2336 1EA6                       l3320 045B  
                     l3312 0432                       l3304 0411                       l3240 0133  
                     l3232 00F7                       l3224 00BA                       l3216 0080  
                     l3208 005E                       l2258 1C40                       l3170 1F15  
                     l3162 1EFD                       l3154 1EE6                       l3146 1EC8  
                     l3138 1EB8                       l3410 13E4                       l3402 13D5  
                     l2522 1725                       l2530 173F                       l2514 16C3  
                     l2506 16B3                       l2450 15FD                       l2442 15ED  
                     l2426 15C3                       l2434 15D3                       l2418 15B3  
                     l3082 1C4F                       l3074 1E4D                       l3066 1E20  
                     l3058 1E08                       l3090 1170                       l2610 0CC5  
                     l2602 0CB1                       l2362 1D02                       l2354 1CE6  
                     l2346 1CD2                       l2370 1C94                       l2290 0853  
                     l2282 0833                       l2274 0824                       l2266 0814  
                     l2338 1EAB                       l3330 047A                       l3322 0461  
                     l3314 0438                       l3306 041D                       l3242 017E  
                     l3234 010A                       l3226 00D3                       l3250 01C3  
                     l3218 0099                       l3172 07EA                       l3164 1F03  
                     l3156 1EEB                       l3148 1ED1                       l3180 1D80  
                     l3500 1531                       l3420 140B                       l3412 13EC  
                     l3404 13D9                       l2540 176C                       l2532 1755  
                     l2524 1729                       l2516 16CC                       l2508 16BC  
                     l2460 1611                       l2452 1601                       l2444 15F1  
                     l2436 15E1                       l2428 15C8                       l3068 1E24  
                     l3076 1E53                       l3092 1180                       l2620 0CDD  
                     l2612 0CCD                       l2604 0CB6                       l2364 1D09  
                     l2356 1CEA                       l2348 1CD8                       l2380 1CAC  
                     l2372 1C9A                       l2292 0859                       l2284 083A  
                     l2276 0828                       l2268 0819                       l3340 0559  
                     l3332 0498                       l3324 046A                       l3316 0445  
                     l3308 0425                       l3260 0257                       l3252 01C3  
                     l3244 0197                       l3236 010E                       l3228 00DE  
                     l3166 1F09                       l3158 1EF1                       l3190 1DA8  
                     l3182 1D86                       l3174 1D65                       l3510 155B  
                     l3502 153F                       l3422 140F                       l3414 13ED  
                     l3406 13DA                       l2550 177F                       l2542 1770  
                     l2534 175A                       l2526 172B                       l2518 16D1  
                     l2462 1615                       l2454 1605                       l2446 15F5  
                     l2438 15E5                       l2470 1625                       l3094 1190  
                     l3086 1167                       l2710 0FA0                       l2702 0F70  
                     l2630 0CF9                       l2622 0CE2                       l2614 0CD2  
                     l2606 0CBB                       l2358 1CFB                       l2366 1D0F  
                     l2382 1CB6                       l2374 1C9D                       l2294 085A  
                     l2286 083E                       l2278 082A                       l3350 05AD  
                     l3334 04F3                       l3342 0594                       l3326 046F  
                     l3318 0454                       l3270 02B0                       l3262 0266  
                     l3254 0208                       l3246 01A0                       l3238 0114  
                     l3168 1F0F                       l3192 1DAE                       l3176 1D6A  
                     l3184 1D8C                       l3512 1561                       l3504 154E  
                     l3440 1450                       l3432 1426                       l3408 13DF  
                     l3416 13EF                       l2560 1790                       l2544 1775  
                     l2552 1781                       l2528 1730                       l2480 165D  
                     l2472 1626                       l2464 1619                       l2456 1609  
                     l2448 15F9                       l2392 1578                       l3088 116C  
                     l2720 0FD7                       l2704 0F75                       l2712 0FA6  
                     l2640 0D1C                       l2632 0CFE                       l2624 0CE7  
                     l2616 0CD8                       l2608 0CC3                       l2384 1CBC  
                     l2376 1CA4                       l2296 0861                       l2288 0842  
                     l2800 0A38                       l3344 059C                       l3336 052E  
                     l3328 0476                       l3280 035C                       l3264 0281  
                     l3256 0215                       l3248 01BB                       l3352 05B4  
                     l3360 05DA                       l3186 1D92                       l3178 1D7B  
                     l3370 1C09                       l3514 1565                       l3506 1552  
                     l3450 146E                       l3442 1452                       l3434 1438  
                     l3418 13FF                       l3426 1418                       l2570 17AF  
                     l2546 1778                       l2538 1763                       l2554 1785  
                     l2490 1676                       l2482 1666                       l2474 163D  
                     l2466 161D                       l2458 160D                       l2394 157F  
                     l3098 1199                       l2730 0FEC                       l2722 0FD9  
                     l2714 0FB3                       l2706 0F83                       l2650 0DAA  
                     l2642 0D29                       l2634 0D03                       l2626 0CEF  
                     l2618 0CDC                       l2386 1CC3                       l2378 1CA8  
                     l2298 0867                       l2802 0A3F                       l2810 0AF4  
                     l3354 05C0                       l3346 05A3                       l3338 054D  
                     l3290 0395                       l3274 02CF                       l3266 028A  
                     l3258 0230                       l3194 0028                       l3530 0876  
                     l2740 1BDA                       l3188 1DA3                       l3372 1C0C  
                     l3516 1567                       l3508 155A                       l3444 1457  
                     l3452 1477                       l3460 149C                       l3436 1440  
                     l3428 141D                       l3380 13A2                       l2580 17E3  
                     l2572 17CD                       l2564 1798                       l2556 1786  
                     l2548 177A                       l2484 1668                       l2476 164C  
                     l2492 167A                       l2468 1621                       l2396 1585  
                     l2900 1319                       l2732 0FF7                       l2724 0FDF  
                     l2716 0FBE                       l2708 0F87                       l2660 0E0C  
                     l2652 0DC6                       l2644 0D46                       l2628 0CF1  
                     l2388 1CC9                       l2820 0BEA                       l2812 0AFB  
                     l3348 05A7                       l3292 0399                       l3268 0292  
                     l3276 02D8                       l3196 002D                       l3540 0882  
                     l3532 087A        LCD_Write_String@str 007B                       l2742 1BDD  
                     l2750 1DC3                       l3374 1C17                       l3470 14B9  
                     l3462 14A2                       l3454 1489                       l3446 1469  
                     l3438 1448                       l3390 13B7                       l3382 13A8  
                     l2590 17FA                       l2582 17E8                       l2566 179D  
                     l2574 17D1                       l2558 178A                       l2494 1686  
                     l2486 166C                       l2478 1654                       l2398 1589  
                     l2910 133F                       l2902 131B                       l2830 1233  
                     l2726 0FE7                       l2718 0FCD                       l2670 0E9C  
                     l2662 0E29                       l2654 0DCF                       l2646 0D62  
                     l2638 0D0C                       l2806 0AC7                       l3294 039F  
                     l3286 035E                       l3278 035A                       l3198 0033  
                     l3358 05C8                       l3550 08AA                       l3542 0887  
                     l3534 087B                       l2744 1BE6                       l2736 1BD1  
                     l2760 1DE9                       l2752 1DD1                       l3376 1C1D  
                     l3480 14CE                       l3472 14BA                       l3464 14AA  
                     l3456 148A                       l3448 146D                       l3392 13BF  
                     l3384 13AC                       l2592 17FE                       l2584 17E9  
                     l2576 17D6                       l2568 17AB                       l2496 168B  
                     l2488 166D                       l2912 134D                       l2904 1320  
                     l2840 124F                       l2728 0FEB                       l2680 0F2E  
                     l2672 0EC9                       l2664 0E42                       l2656 0DDF  
                     l2648 0D8E                       l2824 0C72                       l3296 03AB  
                     l3560 0938                       l3552 08B4                       l3544 088F  
                     l3536 087C                       l2738 1BD4                       l2762 1DEF  
                     l2754 1DD4                       l2746 1DB6                       l3490 14F3  
                     l3482 14D2                       l3474 14C3                       l3466 14AC  
                     l3458 1498                       l3394 13C0                       l3386 13AD  
                     l3378 139B                       l2586 17ED                       l2578 17DB  
                     l2914 134E                       l2906 1324                       l2850 126F  
                     l2842 1255                       l2834 123C                       l2682 0F37  
                     l2690 0F4B                       l2674 0EEF                       l2666 0E5F  
                     l2658 0DFC                       l2594 0C9F                       l2770 05E2  
                     l2818 0BE3                       l3298 03B2                       l3554 0918  
                     l3546 0894                       l3538 087D                       l2764 1DF2  
                     l2756 1DDD                       l2748 1DC0                       l3492 1501  
                     l3484 14E6                       l3468 14B5                       l3476 14C9  
                     l3388 13B2                       l3396 13C2                       l2588 17EF  
                     l2940 1C6F                       l2924 1369                       l2916 1357  
                     l2908 132D                       l2860 1299                       l2852 1278  
                     l2844 1264                       l2828 1220                       l2692 0F4F  
                     l2684 0F3B                       l2676 0F17                       l2668 0E8C  
                     l2596 0CA6                       l2780 06FB                       l2772 05E8  
                     l3556 092A                       l3548 0897                       l2766 1DFB  
                     l2758 1DE0                       l3494 1505                       l3478 14CD  
                     l3398 13CA                       l2950 1C8F                       l2942 1C71  
                     l2934 1382                       l2926 1372                       l2918 1361  
                     l2870 12B4                       l2862 12A3                       l2854 1286  
                     l2846 1266                       l2694 0F50                       l2686 0F3C  
                     l2678 0F20                       l2598 0CAC                       l2790 0947  
                     l3558 0932                       l2768 1DFE                       l3496 151E  
                     l3488 14EE                       l2960 1F3A                       l2944 1C75  
                     l2936 1392                       l2928 137B                       l2880 12D4  
                     l2872 12BD                       l2856 1290                       l2848 126B  
                     l2696 0F54                       l2688 0F45                       l2784 07A6  
                     l2792 0949                       l3498 1524                       l2970 1F6B  
                     l2962 1F3E                       l2954 1F1C                       l2946 1C82  
                     l2890 12F3                       l2858 1291                       l2698 0F68  
                     l2778 06F5                       l2794 0950                       l2980 1D14  
                     l2972 1F6C                       l2964 1F42                       l2956 1F2E  
                     l2948 1C89                       l2884 12DD                       l2868 12AB  
                     l2788 0943                       l3596 0056                       l2982 1D2A  
                     l2974 1F75                       l2966 1F4B                       l2958 1F31  
                     l2886 12EA                       l2878 12C4                       l2984 1D46  
                     l2992 10C0                       l2968 1F5D                       l2976 1F7B  
                     l2896 1300                       l2986 1D60                       l2994 10D6  
                     l2898 1308                       l2988 1D62                       l2996 10F2  
                     l2998 10FA                       STR_1 1096                       u3000 1C39  
                     u3001 1C38                       u3010 1C40                       u3011 1C3F  
                     u3020 1C47                       u3021 1C46                       u3110 0867  
                     u3030 0814                       u3111 0866                       u3031 0813  
                     u4000 0ED5                       u3120 086C                       u3040 081F  
                     u3200 1EA6                       u3121 086B                       u3105 085B  
                     u3041 081E                       u3201 1EA5                       u3050 0830  
                     u3210 1EAB                       u3130 1E61                       u4011 0EE1  
                     u3051 082F                       u3211 1EAA                       u3131 1E60  
                     u4100 0F68                       u4020 0EFD                       u4012 0EE8  
                     u3220 1CD8                       u3140 1E6C                       u4101 0F67  
                     u4013 0EEF                       u4005 0ED0                       u3221 1CD7  
                     u3141 1E6B                       u4110 0F6F                       u3310 1CAC  
                     u3070 0842                       u3150 1E77                       u4111 0F6E  
                     u4031 0F09                       u3311 1CAB                       u3071 0841  
                     u3151 1E76                       u3400 15C3                       u5000 1FEF  
                     u4120 0F75                       u4032 0F10                       u3240 1CEA  
                     u3320 1CB6                       u3401 15C2                       u5001 1FEE  
                     u4121 0F74                       u4033 0F17                       u4025 0EF8  
                     u3241 1CE9                       u3321 1CB5                       u3305 1C9E  
                     u3065 0834                       u3410 15C8                       u5010 1FF4  
                     u4130 0F87                       u3090 0853                       u3170 1E89  
                     u3411 15C7                       u5011 1FF3                       u4131 0F86  
                     u3235 1CDC                       u3091 0852                       u3171 1E88  
                     u3500 1682                       u3420 15E1                       u5020 1E10  
                     u5100 1190                       u4140 0F96                       u4060 0F3B  
                     u3260 1CFB                       u3340 1CC9                       u3180 1E93  
                     u3501 1681                       u3421 15E0                       u5021 1E0F  
                     u5101 118F                       u4061 0F3A                       u4045 0F19  
                     u3261 1CFA                       u3341 1CC8                       u3325 1CB2  
                     u4205 0605                       u3085 0843                       u3181 1E92  
                     u3165 1E7B                       u3510 1686                       u3430 15E5  
                     u3350 1589                       u4150 0FB3                       u4230 06FB  
                     u3511 1685                       u3431 15E4                       u3351 1588  
                     u4151 0FB2                       u4055 0F30                       u3255 1CEB  
                     u3335 1CBD                       u4231 06FA                       u4215 065F  
                     u3095 084F                       u3600 1712                       u3520 168B  
                     u3440 163D                       u3360 158F                       u5040 1E24  
                     u5200 1212                       u5120 11B1                       u4160 0FCD  
                     u4080 0F4F                       u3280 1D0F                       u4400 0BEA  
                     u4320 0A3F                       u3601 1713                       u3521 168A  
                     u3441 163C                       u3361 158E                       u5041 1E23  
                     u5201 1211                       u5121 11B0                       u4161 0FCC  
                     u4145 0F91                       u4081 0F4E                       u3281 1D0E  
                     u3265 1CF7                       u4225 06B4                       u3185 1E8F  
                     u4401 0BE9                       u4321 0A3E                       u4305 09AC  
                     u3610 1730                       u3602 1718                       u3450 1648  
                     u3370 1594                       u5050 1E36                       u5210 1216  
                     u4170 0FEB                       u4090 0F54                       u3290 1C9A  
                     u3611 172F                       u3603 1719                       u3531 169D  
                     u3451 1646                       u3371 1593                       u5051 1E35  
                     u5035 1E15                       u5211 1215                       u5115 11A3  
                     u4171 0FEA                       u4155 0FAF                       u4091 0F53  
                     u4075 0F3E                       u3275 1D03                       u3291 1C99  
                     u3195 1E9A                       u4315 09F7                       u5220 1D6A  
                     u3700 1790                       u3620 1755                       u3540 16AF  
                     u3532 16A4                       u3460 1649                       u3380 15B2  
                     u5140 11D3                       u4500 12A3                       u5300 010E  
                     u5221 1D69                       u3701 178F                       u3621 1754  
                     u3541 16AE                       u3533 16AB                       u3445 1639  
                     u3381 15B1                       u5141 11D2                       u4501 12A2  
                     u4165 0FC9                       u4245 0718                       u5301 010D  
                     u3710 1797                       u3630 175A                       u3550 16B3  
                     u3470 165D                       u3390 15BD                       u5070 1E53  
                     u4510 12AA                       u4190 05E8                       u4270 0947  
                     u5310 0197                       u3711 1796                       u3631 1759  
                     u3551 16B2                       u3471 165C                       u3391 15BC  
                     u5071 1E52                       u5055 1E32                       u5135 11C5  
                     u4511 12A9                       u4255 0765                       u4191 05E7  
                     u4415 0BFD                       u4335 0A52                       u4271 0946  
                     u5311 0196                       u5240 1D92                       u3800 17FE  
                     u3720 179D                       u3560 16C2                       u3480 166C  
                     u5160 11E3                       u5080 116C                       u4600 133F  
                     u4440 1233                       u4360 0AFB                       u4280 0950  
                     u5400 039F                       u5320 01BB                       u5241 1D91  
                     u4185 1DC6                       u3801 17FD                       u3721 179C  
                     u3561 16C1                       u3481 166B                       u5065 1E45  
                     u5161 11E2                       u5081 116B                       u4601 133E  
                     u4441 1232                       u4265 07B1                       u4425 0C39  
                     u4361 0AFA                       u4345 0A8E                       u4281 094F  
                     u5401 039E                       u5321 01BA                       u3730 17AF  
                     u3650 1770                       u5170 11E9                       u5090 1170  
                     u4530 12BC                       u4450 124D                       u3810 0CB0  
                     u5410 03AB                       u5330 0215                       u5235 1D72  
                     u3731 17AE                       u3651 176F                       u5171 11E8  
                     u5155 11D8                       u5091 116F                       u4531 12BB  
                     u4451 124C                       u3811 0CAF                       u4435 0C75  
                     u4355 0ACA                       u5411 03AA                       u5331 0214  
                     _PEIE 005E                       u3740 17BE                       u3660 1775  
                     u3580 16E7                       u4700 1C75                       u5180 11ED  
                     u4620 135D                       u4540 12C3                       u3820 0CB6  
                     u5500 05B3                       u5340 0230                       u5260 0033  
                     u3661 1774                       u3645 1765                       u3581 16E6  
                     u4701 1C74                       u5181 11EC                       u4621 135C  
                     u4605 133B                       u4541 12C2                       u4525 12AC  
                     u3901 0D70                       u3821 0CB5                       u5501 05B2  
                     u5341 022F                       u5261 0032                       u3750 17CD  
                     u3670 177F                       u5190 1202                       u4630 1361  
                     u4470 1286                       u3902 0D77                       u3830 0CBB  
                     u5510 05C0                       u5430 0424                       u5350 0257  
                     u5270 006A                       u5255 1D9A                       u3751 17CC  
                     u3671 177E                       u3591 16FE                       u3583 16E3  
                     u3575 16C5                       u3495 166F                       u4631 1360  
                     u4615 1350                       u4471 1285                       u3911 0D9C  
                     u3903 0D7E                       u3831 0CBA                       u4375 0B1B  
                     u4295 0970                       u5511 05BF                       u5431 0423  
                     u5351 0256                       u5335 0211                       u5271 0069  
                     u5600 13FF                       u3760 17D6                       u3680 1785  
                     u3592 16FF                       u4800 1F7B                       u4640 1368  
                     u4560 12D4                       u2960 10A7                       u3912 0DA3  
                     u3840 0CDC                       u5520 05DA                       u5440 0445  
                     u5360 0266                       u5280 0099                       u5601 13FE  
                     u3761 17D5                       u3745 17B9                       u3681 1784  
                     u3593 1704                       u4801 1F7A                       u4641 1367  
                     u4561 12D3                       u4465 1271                       u2961 10A6  
                     u3921 0DB8                       u3913 0DAA                       u3841 0CDB  
                     u4385 0B57                       u5521 05D9                       u5441 0444  
                     u5425 03BA                       u5361 0265                       u5281 0098  
                     u5530 1C28                       u5610 141D                       u4810 1D2A  
                     u3770 17DB                       u3690 178A                       u3594 1705  
                     u4730 1C8F                       u4570 12EA                       u4490 129F  
                     u3922 0DBF                       u3850 0CE2                       u5450 0454  
                     u5370 0281                       u5290 00D3                       u5531 1C27  
                     u5611 141C                       u4811 1D29                       u3771 17DA  
                     u3691 1789                       u3595 170A                       u4731 1C8E  
                     u4715 1C7C                       u5195 11FD                       u4571 12E9  
                     u4555 12C6                       u4491 129E                       u4475 1282  
                     u3923 0DC6                       u3851 0CE1                       u4395 0BA2  
                     u5451 0453                       u5371 0280                       u5291 00D2  
                     u5620 1457                       u5540 13AC                       u4820 1D46  
                     u4900 1160                       u3780 17E8                       u3596 170B  
                     u4740 1F2E                       u4660 137A                       u4580 12FE  
                     u2980 10BB                       u3860 0CE7                       u5460 046F  
                     u5621 1456                       u5541 13AB                       u4821 1D45  
                     u4901 115F                       u3781 17E7                       u4741 1F2D  
                     u4725 1C83                       u4661 1379                       u4581 12FD  
                     u4485 1292                       u2981 10BA                       u3941 0DEE  
                     u3861 0CE6                       u5461 046E                       u5445 0441  
                     u5365 0262                       u2990 1C2E                       u5710 14B9  
                     u5550 13B2                       u4830 1D60                       u4910 1BCD  
                     u3790 17ED                       u4670 1381                       u3942 0DF5  
                     u3870 0CFE                       u5390 0394                       u2991 1C2D  
                     u5711 14B8                       u5551 13B1                       u4831 1D5F  
                     u4911 1BCC                       u3791 17EC                       u4671 1380  
                     u4655 136A                       u2975 10AE                       u3951 0E1B  
                     u3943 0DFC                       u3935 0DC8                       u3871 0CFD  
                     u5455 0450                       u5391 0393                       u5800 1531  
                     u5560 13B7                       u4840 10D6                       u4920 1F91  
                     u4760 1F42                       u3952 0E22                       u3880 0D03  
                     i1l57 1C01                       u5801 1530                       u5705 14AE  
                     u5561 13B6                       u4905 115C                       u4841 10D5  
                     u4921 1F90                       u4761 1F41                       u3953 0E29  
                     u3881 0D02                       u5385 0361                       u5810 154E  
                     u5730 14CD                       u5650 146D                       u5570 13D9  
                     u4850 10F2                       u4930 1FA8                       u4690 1392  
                     u5490 059B                       u5811 154D                       u5731 14CC  
                     u5651 146C                       u5635 1459                       u5571 13D8  
                     u4835 1D5C                       u4851 10F1                       u4755 1F33  
                     u4691 1391                       u4595 1326                       u3971 0E51  
                     u3891 0D54                       u5491 059A                       u5475 04F6  
                     u5395 0390                       u5820 1565                       u5740 14D2  
                     u5580 13DF                       u4860 10FE                       u4940 1FBE  
                     u4780 1F5D                       u3972 0E58                       u3892 0D5B  
                     u5900 08D0                       u5821 1564                       u5805 152D  
                     u5741 14D1                       u5725 14BC                       u5645 1462  
                     u5581 13DE                       u4861 10FD                       u4941 1FBD  
                     u4781 1F5C                       u4685 1384                       u3981 0E7E  
                     u3973 0E5F                       u3965 0E2B                       u3893 0D62  
                     u5485 055C                       u5901 08D1                       u5750 14E6  
                     u5670 1489                       u5590 13E4                       u4950 1FC5  
                     u3982 0E85                       u5902 08D6                       u5815 154A  
                     u5751 14E5                       u5671 1488                       u5591 13E3  
                     u4871 110D                       u4951 1FC4                       u4935 1FA3  
                     u4775 1F44                       u3991 0EAB                       u3983 0E8C  
                     u5903 08D7                       u5760 14ED                       u5680 14A2  
                     u4880 1126                       u4872 110E                       u3992 0EB2  
                     u5761 14EC                       u5681 14A1                       u5665 1470  
                     u4881 1125                       u4873 1113                       u4785 1F59  
                     u3993 0EB9                       u5770 14F3                       u5690 14AA  
                     u4874 1114                       u4970 1FD7                       u5850 089C  
                     u5771 14F2                       u5691 14A9                       u5675 1485  
                     u4891 1135                       u4875 1119                       u4971 1FD6  
                     u4795 1F6D                       u5851 089B                       u5780 1505  
                     u4892 1136                       u4876 111A                       u4980 1FDE  
                     u5860 08A0                       u5917 1DD8                       u5781 1504  
                     u4893 113B                       u4981 1FDD                       u4965 1FC7  
                     u5861 089F                       u5790 1514                       u4894 113C  
                     u5870 08A5                       u5927 1DE4                       u4895 1141  
                     u5871 08A4                       u4896 1142                       u5880 08A9  
                     u5937 1DF6                       u5881 08A8                       u5890 08C0  
                     u5947 1E02                       u5795 150F                       u4995 1FE1  
                     u5957 1EC4                       u5967 1ECC                       u5895 08BB  
                     u5977 1EDB                       u5987 1EE8                       u5997 1BE1  
        ?_LCD_Write_String 0070                       _main 0876         __size_of_LCD_Clear 000D  
                     btemp 007E                       start 000C         ??_LCD_Write_String 0078  
          ___fldiv@new_exp 0038                      ??_ISR 0070           __end_of_LCD_DATA 1C4B  
         __end_of_LCD_Init 1F1C              ___fltol@sign1 0059            __end_of___fladd 1800  
                    ?_main 0070            __end_of___fldiv 1578            __end_of___awdiv 0876  
          __end_of___flneg 1BD0            __end_of___awmod 1EB5            __end_of___flmul 1000  
          __end_of___flsub 1C6F            __end_of___fltol 2000            __end_of___lldiv 1F84  
          ___awdiv@divisor 0078            __end_of___llmod 1E5C            __end_of___lwdiv 1D14  
          __end_of___lwmod 1CCE            ___awdiv@counter 0020                      _TMR1H 000F  
                    _TMR1L 000E                      _TRISC 0087                      _TRISD 0088  
   __end_of_LCD_Set_Cursor 1DB5            __end_of_dpowers 1096                      _scale 0940  
                    pclath 000A                      status 0003                      wtemp0 007E  
          __end_of_sprintf 05DF             _LCD_Write_Char 1DB5            __initialization 000F  
             __end_of_main 0940                     ??_main 00C3          __end_of_LCD_Clear 07F7  
                ??_LCD_CMD 0073       __size_of__tdiv_to_l_ 00BD            ?_LCD_Set_Cursor 0076  
                   _ADCON1 009F           ___llmod@dividend 0076                     ?_scale 003E  
         ___awdiv@dividend 007A                     i1l3522 1BEA                     i1l3524 1BF0  
                   i1l3526 1BF6                     i1l3528 1BFE                     u583_20 1BF0  
                   u583_21 1BEF                     u584_20 1BF6                     u584_21 1BF5  
                   _TMR1IE 0460                     _TMR1IF 0060                     _TMR1CS 0081  
                   _TMR1ON 0080                     _TRISB0 0430                     _TRISD2 0442  
                   _TRISD3 0443           __end_of___xxtofl 1220     __end_of_LCD_Write_Char 1E08  
         __end_of__powers_ 103A                     ___flge 10C0                     ___fleq 1D14  
                ??___fladd 005A                     ___wmul 1C6F                  ??___fldiv 002E  
                ??___awdiv 007C                  ??___flneg 0076                  ??___awmod 0076  
                ??___flmul 002C                  ??___flsub 007C                  ??___fltol 0055  
                ??___lldiv 007A                  ??___llmod 007A                  ??___lwdiv 007B  
                ??___lwmod 0076                     _fround 05DF           ___awdiv@quotient 0022  
          ___awmod@divisor 0072            ___awmod@counter 0076         __size_of__Umul8_16 0027  
                   saved_w 007E                 _fFrequency 00CB                  ??_sprintf 00A5  
          LCD_Set_Cursor@c 0076            LCD_Set_Cursor@r 0078                 ___flge@ff1 0072  
               ___flge@ff2 0076                  ?_LCD_DATA 0070               ___xxtofl@arg 0022  
             ___xxtofl@exp 0021               ___xxtofl@val 0072                 ___fleq@ff1 0072  
               ___fleq@ff2 0076    __end_of__initialization 0021                  ?_LCD_Init 0070  
               ___flneg@f1 0072                 ___fltol@f1 0051            ?_LCD_Write_Char 0070  
           __pcstackCOMMON 0070              __end_of_scale 0C9F                 __div_to_l_ 12DD  
    __end_of_timer1_config 080D            __div_to_l_@exp1 0025            __div_to_l_@cntr 0024  
                  ??_scale 0042            __div_to_l_@quot 0020                 __pbssBANK1 00CB  
               __pbssBANK3 0190                 ??_LCD_DATA 0072                 ??_LCD_Init 0076  
            __div_to_l_@f1 0072              __div_to_l_@f2 0076          __end_of__Umul8_16 10C0  
               __pmaintext 0876                    ?___flge 0072                    ?___fleq 0072  
                  ?___wmul 0072                 __pintentry 0004                    ?_fround 003E  
__size_of_LCD_Write_String 0021                    _T1CKPS0 0084                    _T1CKPS1 0085  
                  _LCD_CMD 1BD0                  ?___xxtofl 0072                 __stringtab 1000  
        __end_of__npowers_ 106E            __size_of___flge 00A4            __size_of___fleq 0050  
                  ___fladd 1578                    ___fldiv 139B                    ___awdiv 080D  
                  ___flneg 1BC5                    ___awmod 1E5C                    ___flmul 0C9F  
                  ___flsub 1C4B                    ___fltol 1F84                    ___lldiv 1F1C  
          __size_of___wmul 0025                    ___llmod 1E08                 _fround$803 004D  
               _fround$804 0049                    ___lwdiv 1CCE                    ___lwmod 1C94  
          __size_of_fround 020B           ??_LCD_Set_Cursor 0077                    __ptext1 0801  
                  __ptext2 0025                    __ptext3 0940                    __ptext4 1E5C  
                  __ptext5 080D                    __ptext6 05DF                    __ptext7 1C94  
                  __ptext8 1CCE                    __ptext9 0C9F               __size_of_ISR 001E  
              ?__div_to_l_ 0072                    _dpowers 106E                 ??___xxtofl 0076  
         ___awmod@dividend 0074                  _LCD_Clear 07EA                    _sprintf 0025  
                  clrloop0 07F8       end_of_initialization 0021            ___lldiv@divisor 0072  
          ___lldiv@counter 0024             __tdiv_to_l_@f1 0072             __tdiv_to_l_@f2 0076  
            ??__tdiv_to_l_ 0020                 LCD_CMD@CMD 0075                ___fladd@grs 0065  
            ___xxtofl@sign 0020                 ?_LCD_Clear 0070                ___fldiv@grs 003A  
              ___fldiv@rem 0033          LCD_Write_String@i 0079           ??_LCD_Write_Char 0073  
              ___flmul@grs 0032          __size_of_LCD_DATA 0022          __size_of_LCD_Init 0067  
      __size_of__div_to_l_ 00BE             __end_of___flge 1164             __end_of___fleq 1D64  
           __end_of___wmul 1C94           _LCD_Write_String 1C08             __end_of_fround 07EA  
      start_initialization 000F                __end_of_ISR 1C08        __end_of__tdiv_to_l_ 12DD  
          ___llmod@divisor 0072            ___llmod@counter 007B                   ??___flge 0020  
                 ??___fleq 0020                   ??___wmul 0076                  __Umul8_16 1099  
                 ??_fround 0042              sprintf@tmpval 00B9                  ___fladd@a 0056  
                ___fladd@b 0052                   ?_LCD_CMD 0070                 fround@prec 0051  
                ___fldiv@a 0026                  ___fldiv@b 002A                  ___flmul@a 0028  
                ___flmul@b 0024                  ___flsub@a 0066                  ___flsub@b 006A  
                ___latbits 0002              __pcstackBANK0 0020              __pcstackBANK1 00A0  
              ??_LCD_Clear 0076          __size_of___xxtofl 00BC                sprintf@flag 00AF  
              sprintf@eexp 00B7                sprintf@fval 00BE                sprintf@prec 00B1  
         ___lwdiv@dividend 0079     _u32NumberOfCounterOver 00CF     __size_of_timer1_config 000C  
                 ?___fladd 0052                   ?___fldiv 0026                   ?___awdiv 0078  
                 ?___flneg 0072                   ?___awmod 0072                   ?___flmul 0024  
                 ?___flsub 0066                   ?___fltol 0051                   ?___lldiv 0072  
                 ?___llmod 0072                  __npowers_ 103A                 ?__Umul8_16 0072  
                 ?___lwdiv 0077                   ?___lwmod 0072                  __pstrings 1000  
              __tdiv_to_l_ 1220               ??__div_to_l_ 007A                  _scale$805 004C  
         ___lwdiv@quotient 0020                   ?_sprintf 00A0             __size_of_scale 035F  
                 _LCD_DATA 1C29          interrupt_function 0004                   _LCD_Init 1EB5  
           ___wmul@product 0076                  clear_ram0 07F7         __end_of__div_to_l_ 139B  
              __stringbase 1005          ___wmul@multiplier 0072           __size_of_LCD_CMD 001A  
            _timer1_config 0801   __end_of_LCD_Write_String 1C29        LCD_Write_Char@High4 0076  
              ??__Umul8_16 0074           __size_of___fladd 0288           __size_of___fldiv 01DD  
         __size_of___awdiv 0069           __size_of___flneg 000B           __size_of___awmod 0059  
         __size_of___flmul 0361           __size_of___flsub 0024           __size_of___fltol 007C  
         __size_of___lldiv 0068           __size_of___llmod 0054           __size_of___lwdiv 0046  
         __size_of___lwmod 003A         __end_of__stringtab 1006               _NumberOfTick 00D1  
               sprintf@val 00B3                   ___xxtofl 1164             ?_timer1_config 0070  
          ___lwdiv@divisor 0077            ___lwdiv@counter 0022                   __ptext10 1099  
                 __ptext11 1220                   __ptext20 1BC5                   __ptext12 12DD  
                 __ptext21 10C0                   __ptext13 1164                   __ptext30 1C29  
                 __ptext22 1D14                   __ptext14 1C6F                   __ptext31 1BEA  
                 __ptext23 139B                   __ptext15 1E08                   __ptext24 1C08  
                 __ptext16 1F1C                   __ptext25 1DB5                   __ptext17 1F84  
                 __ptext26 1D64                   __ptext18 1C4B                   __ptext27 1EB5  
                 __ptext19 1578                   __ptext28 07EA                   __ptext29 1BD0  
                 __powers_ 1006    __size_of_LCD_Set_Cursor 0051           __size_of_sprintf 05BA  
            __size_of_main 00CA        LCD_Set_Cursor@High4 007A         LCD_Write_Char@Data 0077  
       LCD_Write_Char@Low4 0075                   scale@scl 0050                   intlevel1 0000  
                sprintf@ap 00AE           __tdiv_to_l_@exp1 0028           __tdiv_to_l_@cntr 0027  
                sprintf@sp 00BD           __tdiv_to_l_@quot 0023           ___lwmod@dividend 0074  
         ___lldiv@dividend 0076                  stringcode 1000    __size_of_LCD_Write_Char 0053  
       LCD_Set_Cursor@Low4 0079         LCD_Set_Cursor@Temp 007B               ?__tdiv_to_l_ 0072  
   __Umul8_16@multiplicand 0072                   sprintf@c 00C2                   sprintf@f 00A0  
             LCD_DATA@Data 0072            ??_timer1_config 0072           ___lldiv@quotient 0020  
          ___lwmod@divisor 0072            ___lwmod@counter 0076                   stringdir 1000  
                 stringtab 1000              ___fladd@signs 0062               ___fladd@aexp 0063  
             ___fladd@bexp 0064       __Umul8_16@multiplier 007A          __Umul8_16@product 0076  
