

Microchip MPLAB XC8 Assembler V2.30 build 20200825195618 
                                                                                               Wed Dec 22 19:05:32 2021

Microchip MPLAB XC8 C Compiler v2.30 (Free license) build 20200825195618 Og1 
     1                           	processor	16F877A
     2                           	pagewidth 120
     3                           	opt	flic
     4                           	psect	strings,global,class=STRING,delta=2,noexec
     5                           	psect	cinit,global,class=CODE,merge=1,delta=2
     6                           	psect	bssBANK0,global,class=BANK0,space=1,delta=1,noexec
     7                           	psect	cstackCOMMON,global,class=COMMON,space=1,delta=1,noexec
     8                           	psect	cstackBANK0,global,class=BANK0,space=1,delta=1,noexec
     9                           	psect	maintext,global,class=CODE,split=1,delta=2
    10                           	psect	text1,local,class=CODE,merge=1,delta=2,group=1
    11                           	psect	text2,local,class=CODE,merge=1,delta=2,group=1
    12                           	psect	text3,local,class=CODE,merge=1,delta=2,group=1
    13                           	psect	text4,local,class=CODE,merge=1,delta=2,group=1
    14                           	psect	text5,local,class=CODE,merge=1,delta=2,group=1
    15                           	psect	text6,local,class=CODE,merge=1,delta=2
    16                           	psect	text7,local,class=CODE,merge=1,delta=2
    17                           	psect	text8,local,class=CODE,merge=1,delta=2,group=1
    18                           	psect	text9,local,class=CODE,merge=1,delta=2,group=1
    19                           	psect	text10,local,class=CODE,merge=1,delta=2
    20                           	psect	text11,local,class=CODE,merge=1,delta=2
    21                           	psect	text12,local,class=CODE,merge=1,delta=2
    22                           	psect	text13,local,class=CODE,merge=1,delta=2
    23                           	psect	text14,local,class=CODE,merge=1,delta=2
    24                           	psect	text15,local,class=CODE,merge=1,delta=2
    25                           	psect	text16,local,class=CODE,merge=1,delta=2
    26                           	psect	config,global,abs,ovrld,class=CONFIG,space=4,delta=2,noexec
    27                           	dabs	1,0x7E,2
    28  0000                     
    29                           ; Version 2.20
    30                           ; Generated 12/02/2020 GMT
    31                           ; 
    32                           ; Copyright © 2020, Microchip Technology Inc. and its subsidiaries ("Microchip")
    33                           ; All rights reserved.
    34                           ; 
    35                           ; This software is developed by Microchip Technology Inc. and its subsidiaries ("Microch
      +                          ip").
    36                           ; 
    37                           ; Redistribution and use in source and binary forms, with or without modification, are
    38                           ; permitted provided that the following conditions are met:
    39                           ; 
    40                           ;     1. Redistributions of source code must retain the above copyright notice, this lis
      +                          t of
    41                           ;        conditions and the following disclaimer.
    42                           ; 
    43                           ;     2. Redistributions in binary form must reproduce the above copyright notice, this 
      +                          list
    44                           ;        of conditions and the following disclaimer in the documentation and/or other
    45                           ;        materials provided with the distribution.
    46                           ; 
    47                           ;     3. Microchip's name may not be used to endorse or promote products derived from th
      +                          is
    48                           ;        software without specific prior written permission.
    49                           ; 
    50                           ; THIS SOFTWARE IS PROVIDED BY MICROCHIP "AS IS" AND ANY EXPRESS OR IMPLIED WARRANTIES,
    51                           ; INCLUDING, BUT NOT LIMITED TO, THE IMPLIED WARRANTIES OF MERCHANTABILITY AND FITNESS F
      +                          OR
    52                           ; PURPOSE ARE DISCLAIMED.  IN NO EVENT SHALL MICROCHIP BE LIABLE FOR ANY DIRECT, INDIREC
      +                          T,
    53                           ; INCIDENTAL, SPECIAL, EXEMPLARY, OR CONSEQUENTIAL DAMAGES (INCLUDING BUT NOT LIMITED TO
    54                           ; PROCUREMENT OF SUBSTITUTE GOODS OR SERVICES; LOSS OF USE, DATA OR PROFITS; OR BUSINESS
    55                           ; INTERRUPTION) HOWSOEVER CAUSED AND ON ANY THEORY OF LIABILITY, WHETHER IN CONTRACT, ST
      +                          RICT
    56                           ; LIABILITY, OR TORT (INCLUDING NEGLIGENCE OR OTHERWISE) ARISING IN ANY WAY OUT OF THE U
      +                          SE OF
    57                           ; THIS SOFTWARE, EVEN IF ADVISED OF THE POSSIBILITY OF SUCH DAMAGE.
    58                           ; 
    59                           ; 
    60                           ; Code-generator required, PIC16F877A Definitions
    61                           ; 
    62                           ; SFR Addresses
    63  0000                     	;# 
    64  0001                     	;# 
    65  0002                     	;# 
    66  0003                     	;# 
    67  0004                     	;# 
    68  0005                     	;# 
    69  0006                     	;# 
    70  0007                     	;# 
    71  0008                     	;# 
    72  0009                     	;# 
    73  000A                     	;# 
    74  000B                     	;# 
    75  000C                     	;# 
    76  000D                     	;# 
    77  000E                     	;# 
    78  000E                     	;# 
    79  000F                     	;# 
    80  0010                     	;# 
    81  0011                     	;# 
    82  0012                     	;# 
    83  0013                     	;# 
    84  0014                     	;# 
    85  0015                     	;# 
    86  0015                     	;# 
    87  0016                     	;# 
    88  0017                     	;# 
    89  0018                     	;# 
    90  0019                     	;# 
    91  001A                     	;# 
    92  001B                     	;# 
    93  001B                     	;# 
    94  001C                     	;# 
    95  001D                     	;# 
    96  001E                     	;# 
    97  001F                     	;# 
    98  0081                     	;# 
    99  0085                     	;# 
   100  0086                     	;# 
   101  0087                     	;# 
   102  0088                     	;# 
   103  0089                     	;# 
   104  008C                     	;# 
   105  008D                     	;# 
   106  008E                     	;# 
   107  0091                     	;# 
   108  0092                     	;# 
   109  0093                     	;# 
   110  0094                     	;# 
   111  0098                     	;# 
   112  0099                     	;# 
   113  009C                     	;# 
   114  009D                     	;# 
   115  009E                     	;# 
   116  009F                     	;# 
   117  010C                     	;# 
   118  010D                     	;# 
   119  010E                     	;# 
   120  010F                     	;# 
   121  018C                     	;# 
   122  018D                     	;# 
   123  0000                     	;# 
   124  0001                     	;# 
   125  0002                     	;# 
   126  0003                     	;# 
   127  0004                     	;# 
   128  0005                     	;# 
   129  0006                     	;# 
   130  0007                     	;# 
   131  0008                     	;# 
   132  0009                     	;# 
   133  000A                     	;# 
   134  000B                     	;# 
   135  000C                     	;# 
   136  000D                     	;# 
   137  000E                     	;# 
   138  000E                     	;# 
   139  000F                     	;# 
   140  0010                     	;# 
   141  0011                     	;# 
   142  0012                     	;# 
   143  0013                     	;# 
   144  0014                     	;# 
   145  0015                     	;# 
   146  0015                     	;# 
   147  0016                     	;# 
   148  0017                     	;# 
   149  0018                     	;# 
   150  0019                     	;# 
   151  001A                     	;# 
   152  001B                     	;# 
   153  001B                     	;# 
   154  001C                     	;# 
   155  001D                     	;# 
   156  001E                     	;# 
   157  001F                     	;# 
   158  0081                     	;# 
   159  0085                     	;# 
   160  0086                     	;# 
   161  0087                     	;# 
   162  0088                     	;# 
   163  0089                     	;# 
   164  008C                     	;# 
   165  008D                     	;# 
   166  008E                     	;# 
   167  0091                     	;# 
   168  0092                     	;# 
   169  0093                     	;# 
   170  0094                     	;# 
   171  0098                     	;# 
   172  0099                     	;# 
   173  009C                     	;# 
   174  009D                     	;# 
   175  009E                     	;# 
   176  009F                     	;# 
   177  010C                     	;# 
   178  010D                     	;# 
   179  010E                     	;# 
   180  010F                     	;# 
   181  018C                     	;# 
   182  018D                     	;# 
   183  0000                     	;# 
   184  0001                     	;# 
   185  0002                     	;# 
   186  0003                     	;# 
   187  0004                     	;# 
   188  0005                     	;# 
   189  0006                     	;# 
   190  0007                     	;# 
   191  0008                     	;# 
   192  0009                     	;# 
   193  000A                     	;# 
   194  000B                     	;# 
   195  000C                     	;# 
   196  000D                     	;# 
   197  000E                     	;# 
   198  000E                     	;# 
   199  000F                     	;# 
   200  0010                     	;# 
   201  0011                     	;# 
   202  0012                     	;# 
   203  0013                     	;# 
   204  0014                     	;# 
   205  0015                     	;# 
   206  0015                     	;# 
   207  0016                     	;# 
   208  0017                     	;# 
   209  0018                     	;# 
   210  0019                     	;# 
   211  001A                     	;# 
   212  001B                     	;# 
   213  001B                     	;# 
   214  001C                     	;# 
   215  001D                     	;# 
   216  001E                     	;# 
   217  001F                     	;# 
   218  0081                     	;# 
   219  0085                     	;# 
   220  0086                     	;# 
   221  0087                     	;# 
   222  0088                     	;# 
   223  0089                     	;# 
   224  008C                     	;# 
   225  008D                     	;# 
   226  008E                     	;# 
   227  0091                     	;# 
   228  0092                     	;# 
   229  0093                     	;# 
   230  0094                     	;# 
   231  0098                     	;# 
   232  0099                     	;# 
   233  009C                     	;# 
   234  009D                     	;# 
   235  009E                     	;# 
   236  009F                     	;# 
   237  010C                     	;# 
   238  010D                     	;# 
   239  010E                     	;# 
   240  010F                     	;# 
   241  018C                     	;# 
   242  018D                     	;# 
   243  001E                     _ADRESH	set	30
   244  001F                     _ADCON0	set	31
   245  0047                     _RD7	set	71
   246  0046                     _RD6	set	70
   247  0045                     _RD5	set	69
   248  0044                     _RD4	set	68
   249  0043                     _RD3	set	67
   250  0042                     _RD2	set	66
   251  00FA                     _GO_DONE	set	250
   252  00F8                     _ADON	set	248
   253  00FD                     _CHS2	set	253
   254  00FC                     _CHS1	set	252
   255  00FB                     _CHS0	set	251
   256  0088                     _TRISD	set	136
   257  009E                     _ADRESL	set	158
   258  009F                     _ADCON1	set	159
   259  0443                     _TRISD3	set	1091
   260  0442                     _TRISD2	set	1090
   261                           
   262                           	psect	strings
   263  0800                     __pstrings:
   264  0800                     stringtab:
   265  0800                     __stringtab:
   266  0800                     stringcode:	
   267                           ;	String table - string pointers are 1 byte each
   268                           
   269  0800                     stringdir:
   270  0800  3008               	movlw	high stringdir
   271  0801  008A               	movwf	10
   272  0802  0804               	movf	4,w
   273  0803  0A84               	incf	4,f
   274  0804  0782               	addwf	2,f
   275  0805                     __stringbase:
   276  0805  3400               	retlw	0
   277  0806                     __end_of__stringtab:
   278  0806                     STR_3:
   279  0806  3449               	retlw	73	;'I'
   280  0807  3420               	retlw	32	;' '
   281  0808  343D               	retlw	61	;'='
   282  0809  3420               	retlw	32	;' '
   283  080A  3400               	retlw	0
   284  080B                     STR_1:
   285  080B  3455               	retlw	85	;'U'
   286  080C  3420               	retlw	32	;' '
   287  080D  343D               	retlw	61	;'='
   288  080E  3420               	retlw	32	;' '
   289  080F  3400               	retlw	0
   290  0810                     STR_5:
   291  0810  3420               	retlw	32	;' '
   292  0811  3420               	retlw	32	;' '
   293  0812  3441               	retlw	65	;'A'
   294  0813  3400               	retlw	0
   295  0814                     STR_2:
   296  0814  3420               	retlw	32	;' '
   297  0815  3420               	retlw	32	;' '
   298  0816  3456               	retlw	86	;'V'
   299  0817  3400               	retlw	0
   300  0818                     STR_4:
   301  0818  3430               	retlw	48	;'0'
   302  0819  342E               	retlw	46	;'.'
   303  081A  3400               	retlw	0
   304                           
   305                           	psect	cinit
   306  07F6                     start_initialization:	
   307                           ; #config settings
   308                           
   309  07F6                     __initialization:
   310                           
   311                           ; Clear objects allocated to BANK0
   312  07F6  1283               	bcf	3,5	;RP0=0, select bank0
   313  07F7  1303               	bcf	3,6	;RP1=0, select bank0
   314  07F8  01E3               	clrf	__pbssBANK0& (0+127)
   315  07F9  01E4               	clrf	(__pbssBANK0+1)& (0+127)
   316  07FA  01E5               	clrf	(__pbssBANK0+2)& (0+127)
   317  07FB  01E6               	clrf	(__pbssBANK0+3)& (0+127)
   318  07FC                     end_of_initialization:	
   319                           ;End of C runtime variable initialization code
   320                           
   321  07FC                     __end_of__initialization:
   322  07FC  0183               	clrf	3
   323  07FD  120A  118A  293A   	ljmp	_main	;jump to C main() function
   324                           
   325                           	psect	bssBANK0
   326  0063                     __pbssBANK0:
   327  0063                     _ampe:
   328  0063                     	ds	2
   329  0065                     _voltage:
   330  0065                     	ds	2
   331                           
   332                           	psect	cstackCOMMON
   333  0070                     __pcstackCOMMON:
   334  0070                     ?_LCD_Init:
   335  0070                     ?_LCD_Write_String:	
   336                           ; 1 bytes @ 0x0
   337                           
   338  0070                     ?_LCD_Write_Char:	
   339                           ; 1 bytes @ 0x0
   340                           
   341  0070                     ?_LCD_DATA:	
   342                           ; 1 bytes @ 0x0
   343                           
   344  0070                     ??_LCD_DATA:	
   345                           ; 1 bytes @ 0x0
   346                           
   347  0070                     ?_LCD_CMD:	
   348                           ; 1 bytes @ 0x0
   349                           
   350  0070                     ?_ADC_Init:	
   351                           ; 1 bytes @ 0x0
   352                           
   353  0070                     ??_ADC_Init:	
   354                           ; 1 bytes @ 0x0
   355                           
   356  0070                     ?_main:	
   357                           ; 1 bytes @ 0x0
   358                           
   359  0070                     ?__Umul8_16:	
   360                           ; 1 bytes @ 0x0
   361                           
   362  0070                     ?_ADC_Read:	
   363                           ; 2 bytes @ 0x0
   364                           
   365  0070                     ?___lwmod:	
   366                           ; 2 bytes @ 0x0
   367                           
   368  0070                     ?___xxtofl:	
   369                           ; 2 bytes @ 0x0
   370                           
   371  0070                     LCD_DATA@Data:	
   372                           ; 4 bytes @ 0x0
   373                           
   374  0070                     __Umul8_16@multiplicand:	
   375                           ; 1 bytes @ 0x0
   376                           
   377  0070                     ___lwmod@divisor:	
   378                           ; 1 bytes @ 0x0
   379                           
   380  0070                     ___xxtofl@val:	
   381                           ; 2 bytes @ 0x0
   382                           
   383                           
   384                           ; 4 bytes @ 0x0
   385  0070                     	ds	1
   386  0071                     ??_LCD_Write_Char:
   387  0071                     ??_LCD_CMD:	
   388                           ; 1 bytes @ 0x1
   389                           
   390                           
   391                           ; 1 bytes @ 0x1
   392  0071                     	ds	1
   393  0072                     ??__Umul8_16:
   394  0072                     ??_ADC_Read:	
   395                           ; 1 bytes @ 0x2
   396                           
   397  0072                     ___lwmod@dividend:	
   398                           ; 1 bytes @ 0x2
   399                           
   400                           
   401                           ; 2 bytes @ 0x2
   402  0072                     	ds	1
   403  0073                     LCD_Write_Char@Low4:
   404  0073                     LCD_CMD@CMD:	
   405                           ; 1 bytes @ 0x3
   406                           
   407                           
   408                           ; 1 bytes @ 0x3
   409  0073                     	ds	1
   410  0074                     ??_LCD_Init:
   411  0074                     ?_LCD_Set_Cursor:	
   412                           ; 1 bytes @ 0x4
   413                           
   414  0074                     ??___lwmod:	
   415                           ; 1 bytes @ 0x4
   416                           
   417  0074                     ??___xxtofl:	
   418                           ; 1 bytes @ 0x4
   419                           
   420  0074                     LCD_Set_Cursor@c:	
   421                           ; 1 bytes @ 0x4
   422                           
   423  0074                     LCD_Write_Char@High4:	
   424                           ; 1 bytes @ 0x4
   425                           
   426  0074                     ADC_Read@value:	
   427                           ; 1 bytes @ 0x4
   428                           
   429  0074                     __Umul8_16@product:	
   430                           ; 2 bytes @ 0x4
   431                           
   432                           
   433                           ; 2 bytes @ 0x4
   434  0074                     	ds	1
   435  0075                     ??_LCD_Set_Cursor:
   436  0075                     LCD_Write_Char@Data:	
   437                           ; 1 bytes @ 0x5
   438                           
   439  0075                     ___lwmod@counter:	
   440                           ; 1 bytes @ 0x5
   441                           
   442                           
   443                           ; 1 bytes @ 0x5
   444  0075                     	ds	1
   445  0076                     ??_LCD_Write_String:
   446  0076                     ?___lwdiv:	
   447                           ; 1 bytes @ 0x6
   448                           
   449  0076                     ADC_Read@Channel:	
   450                           ; 2 bytes @ 0x6
   451                           
   452  0076                     LCD_Write_String@i:	
   453                           ; 1 bytes @ 0x6
   454                           
   455  0076                     ___lwdiv@divisor:	
   456                           ; 2 bytes @ 0x6
   457                           
   458  0076                     __Umul8_16@word_mpld:	
   459                           ; 2 bytes @ 0x6
   460                           
   461                           
   462                           ; 2 bytes @ 0x6
   463  0076                     	ds	1
   464  0077                     LCD_Set_Cursor@r:
   465                           
   466                           ; 1 bytes @ 0x7
   467  0077                     	ds	1
   468  0078                     LCD_Set_Cursor@Low4:
   469  0078                     LCD_Write_String@str:	
   470                           ; 1 bytes @ 0x8
   471                           
   472  0078                     __Umul8_16@multiplier:	
   473                           ; 1 bytes @ 0x8
   474                           
   475  0078                     ___xxtofl@sign:	
   476                           ; 1 bytes @ 0x8
   477                           
   478  0078                     ___lwdiv@dividend:	
   479                           ; 1 bytes @ 0x8
   480                           
   481                           
   482                           ; 2 bytes @ 0x8
   483  0078                     	ds	1
   484  0079                     LCD_Set_Cursor@High4:
   485  0079                     ___xxtofl@exp:	
   486                           ; 1 bytes @ 0x9
   487                           
   488                           
   489                           ; 1 bytes @ 0x9
   490  0079                     	ds	1
   491  007A                     ??___lwdiv:
   492  007A                     LCD_Set_Cursor@Temp:	
   493                           ; 1 bytes @ 0xA
   494                           
   495  007A                     ___xxtofl@arg:	
   496                           ; 1 bytes @ 0xA
   497                           
   498                           
   499                           ; 4 bytes @ 0xA
   500  007A                     	ds	1
   501  007B                     ___lwdiv@quotient:
   502                           
   503                           ; 2 bytes @ 0xB
   504  007B                     	ds	2
   505  007D                     ___lwdiv@counter:
   506                           
   507                           ; 1 bytes @ 0xD
   508  007D                     	ds	1
   509  007E                     ??_main:
   510                           
   511                           	psect	cstackBANK0
   512  0020                     __pcstackBANK0:	
   513                           ; 1 bytes @ 0xE
   514                           
   515  0020                     ?_LCD_Write_Number:
   516  0020                     ?___flmul:	
   517                           ; 1 bytes @ 0x0
   518                           
   519  0020                     LCD_Write_Number@number:	
   520                           ; 4 bytes @ 0x0
   521                           
   522  0020                     ___flmul@b:	
   523                           ; 2 bytes @ 0x0
   524                           
   525                           
   526                           ; 4 bytes @ 0x0
   527  0020                     	ds	2
   528  0022                     ??_LCD_Write_Number:
   529                           
   530                           ; 1 bytes @ 0x2
   531  0022                     	ds	2
   532  0024                     ___flmul@a:
   533  0024                     LCD_Write_Number@num:	
   534                           ; 4 bytes @ 0x4
   535                           
   536                           
   537                           ; 20 bytes @ 0x4
   538  0024                     	ds	4
   539  0028                     ??___flmul:
   540                           
   541                           ; 1 bytes @ 0x8
   542  0028                     	ds	5
   543  002D                     ___flmul@sign:
   544                           
   545                           ; 1 bytes @ 0xD
   546  002D                     	ds	1
   547  002E                     ___flmul@grs:
   548                           
   549                           ; 4 bytes @ 0xE
   550  002E                     	ds	4
   551  0032                     ___flmul@aexp:
   552                           
   553                           ; 1 bytes @ 0x12
   554  0032                     	ds	1
   555  0033                     ___flmul@bexp:
   556                           
   557                           ; 1 bytes @ 0x13
   558  0033                     	ds	1
   559  0034                     ___flmul@prod:
   560                           
   561                           ; 4 bytes @ 0x14
   562  0034                     	ds	4
   563  0038                     LCD_Write_Number@k:
   564  0038                     ___flmul@temp:	
   565                           ; 2 bytes @ 0x18
   566                           
   567                           
   568                           ; 2 bytes @ 0x18
   569  0038                     	ds	2
   570  003A                     ?___fldiv:
   571  003A                     LCD_Write_Number@c:	
   572                           ; 4 bytes @ 0x1A
   573                           
   574  003A                     ___fldiv@a:	
   575                           ; 1 bytes @ 0x1A
   576                           
   577                           
   578                           ; 4 bytes @ 0x1A
   579  003A                     	ds	1
   580  003B                     LCD_Write_Number@p:
   581                           
   582                           ; 2 bytes @ 0x1B
   583  003B                     	ds	3
   584  003E                     ___fldiv@b:
   585                           
   586                           ; 4 bytes @ 0x1E
   587  003E                     	ds	4
   588  0042                     ??___fldiv:
   589                           
   590                           ; 1 bytes @ 0x22
   591  0042                     	ds	5
   592  0047                     ___fldiv@rem:
   593                           
   594                           ; 4 bytes @ 0x27
   595  0047                     	ds	4
   596  004B                     ___fldiv@sign:
   597                           
   598                           ; 1 bytes @ 0x2B
   599  004B                     	ds	1
   600  004C                     ___fldiv@new_exp:
   601                           
   602                           ; 2 bytes @ 0x2C
   603  004C                     	ds	2
   604  004E                     ___fldiv@grs:
   605                           
   606                           ; 4 bytes @ 0x2E
   607  004E                     	ds	4
   608  0052                     ___fldiv@bexp:
   609                           
   610                           ; 1 bytes @ 0x32
   611  0052                     	ds	1
   612  0053                     ___fldiv@aexp:
   613                           
   614                           ; 1 bytes @ 0x33
   615  0053                     	ds	1
   616  0054                     ?___fltol:
   617  0054                     ___fltol@f1:	
   618                           ; 4 bytes @ 0x34
   619                           
   620                           
   621                           ; 4 bytes @ 0x34
   622  0054                     	ds	4
   623  0058                     ??___fltol:
   624                           
   625                           ; 1 bytes @ 0x38
   626  0058                     	ds	5
   627  005D                     ___fltol@sign1:
   628                           
   629                           ; 1 bytes @ 0x3D
   630  005D                     	ds	1
   631  005E                     ___fltol@exp1:
   632                           
   633                           ; 1 bytes @ 0x3E
   634  005E                     	ds	1
   635  005F                     _main$742:
   636                           
   637                           ; 2 bytes @ 0x3F
   638  005F                     	ds	2
   639  0061                     _main$741:
   640                           
   641                           ; 2 bytes @ 0x41
   642  0061                     	ds	2
   643                           
   644                           	psect	maintext
   645  013A                     __pmaintext:	
   646 ;;
   647 ;;Main: autosize = 0, tempsize = 0, incstack = 0, save=0
   648 ;;
   649 ;; *************** function _main *****************
   650 ;; Defined at:
   651 ;;		line 15 in file "main_dc_volt.c"
   652 ;; Parameters:    Size  Location     Type
   653 ;;		None
   654 ;; Auto vars:     Size  Location     Type
   655 ;;		None
   656 ;; Return value:  Size  Location     Type
   657 ;;                  1    wreg      void 
   658 ;; Registers used:
   659 ;;		wreg, fsr0l, fsr0h, status,2, status,0, btemp+1, pclath, cstack
   660 ;; Tracked objects:
   661 ;;		On entry : B00/0
   662 ;;		On exit  : 0/0
   663 ;;		Unchanged: 0/0
   664 ;; Data sizes:     COMMON   BANK0   BANK1   BANK3   BANK2
   665 ;;      Params:         0       0       0       0       0
   666 ;;      Locals:         0       4       0       0       0
   667 ;;      Temps:          0       0       0       0       0
   668 ;;      Totals:         0       4       0       0       0
   669 ;;Total ram usage:        4 bytes
   670 ;; Hardware stack levels required when called:    3
   671 ;; This function calls:
   672 ;;		_ADC_Init
   673 ;;		_ADC_Read
   674 ;;		_LCD_Init
   675 ;;		_LCD_Set_Cursor
   676 ;;		_LCD_Write_Char
   677 ;;		_LCD_Write_Number
   678 ;;		_LCD_Write_String
   679 ;;		___fldiv
   680 ;;		___flmul
   681 ;;		___fltol
   682 ;;		___lwdiv
   683 ;;		___lwmod
   684 ;;		___xxtofl
   685 ;; This function is called by:
   686 ;;		Startup code after reset
   687 ;; This function uses a non-reentrant model
   688 ;;
   689                           
   690                           
   691                           ;psect for function _main
   692  013A                     _main:
   693  013A                     l1953:	
   694                           ;incstack = 0
   695                           ; Regs used in _main: [wreg-fsr0h+status,2+status,0+btemp+1+pclath+cstack]
   696                           
   697                           
   698                           ;main_dc_volt.c: 19:     ADC_Init();
   699  013A  120A  158A  252A  120A  118A  	fcall	_ADC_Init
   700                           
   701                           ;main_dc_volt.c: 21:     LCD_Init();
   702  013F  120A  158A  2719  120A  118A  	fcall	_LCD_Init
   703  0144                     l1955:
   704                           
   705                           ;main_dc_volt.c: 24:     {;main_dc_volt.c: 27:         voltage = ADC_Read(0);
   706  0144  3000               	movlw	0
   707  0145  120A  158A  25F5  120A  118A  	fcall	_ADC_Read
   708  014A  0871               	movf	?_ADC_Read+1,w
   709  014B  1283               	bcf	3,5	;RP0=0, select bank0
   710  014C  1303               	bcf	3,6	;RP1=0, select bank0
   711  014D  00E6               	movwf	_voltage+1
   712  014E  0870               	movf	?_ADC_Read,w
   713  014F  00E5               	movwf	_voltage
   714  0150                     l1957:
   715                           
   716                           ;main_dc_volt.c: 28:         voltage = (unsigned int)(voltage*4.888);
   717  0150  0865               	movf	_voltage,w
   718  0151  00F0               	movwf	___xxtofl@val
   719  0152  0866               	movf	_voltage+1,w
   720  0153  00F1               	movwf	___xxtofl@val+1
   721  0154  01F2               	clrf	___xxtofl@val+2
   722  0155  01F3               	clrf	___xxtofl@val+3
   723  0156  3000               	movlw	0
   724  0157  120A  118A  2080  120A  118A  	fcall	___xxtofl
   725  015C  0873               	movf	?___xxtofl+3,w
   726  015D  1283               	bcf	3,5	;RP0=0, select bank0
   727  015E  1303               	bcf	3,6	;RP1=0, select bank0
   728  015F  00A7               	movwf	___flmul@a+3
   729  0160  0872               	movf	?___xxtofl+2,w
   730  0161  00A6               	movwf	___flmul@a+2
   731  0162  0871               	movf	?___xxtofl+1,w
   732  0163  00A5               	movwf	___flmul@a+1
   733  0164  0870               	movf	?___xxtofl,w
   734  0165  00A4               	movwf	___flmul@a
   735  0166  3040               	movlw	64
   736  0167  00A3               	movwf	___flmul@b+3
   737  0168  309C               	movlw	156
   738  0169  00A2               	movwf	___flmul@b+2
   739  016A  306A               	movlw	106
   740  016B  00A1               	movwf	___flmul@b+1
   741  016C  307F               	movlw	127
   742  016D  00A0               	movwf	___flmul@b
   743  016E  120A  118A  2495  120A  118A  	fcall	___flmul
   744  0173  1283               	bcf	3,5	;RP0=0, select bank0
   745  0174  1303               	bcf	3,6	;RP1=0, select bank0
   746  0175  0823               	movf	?___flmul+3,w
   747  0176  00D7               	movwf	___fltol@f1+3
   748  0177  0822               	movf	?___flmul+2,w
   749  0178  00D6               	movwf	___fltol@f1+2
   750  0179  0821               	movf	?___flmul+1,w
   751  017A  00D5               	movwf	___fltol@f1+1
   752  017B  0820               	movf	?___flmul,w
   753  017C  00D4               	movwf	___fltol@f1
   754  017D  120A  118A  2004  120A  118A  	fcall	___fltol
   755  0182  1283               	bcf	3,5	;RP0=0, select bank0
   756  0183  1303               	bcf	3,6	;RP1=0, select bank0
   757  0184  0855               	movf	?___fltol+1,w
   758  0185  00E6               	movwf	_voltage+1
   759  0186  0854               	movf	?___fltol,w
   760  0187  00E5               	movwf	_voltage
   761  0188                     l1959:
   762                           
   763                           ;main_dc_volt.c: 30:         ampe = ADC_Read(1);
   764  0188  3001               	movlw	1
   765  0189  120A  158A  25F5  120A  118A  	fcall	_ADC_Read
   766  018E  0871               	movf	?_ADC_Read+1,w
   767  018F  1283               	bcf	3,5	;RP0=0, select bank0
   768  0190  1303               	bcf	3,6	;RP1=0, select bank0
   769  0191  00E4               	movwf	_ampe+1
   770  0192  0870               	movf	?_ADC_Read,w
   771  0193  00E3               	movwf	_ampe
   772  0194                     l1961:
   773                           
   774                           ;main_dc_volt.c: 31:         ampe = (unsigned int)( (ampe*4.888)/0.47 );
   775  0194  0863               	movf	_ampe,w
   776  0195  00F0               	movwf	___xxtofl@val
   777  0196  0864               	movf	_ampe+1,w
   778  0197  00F1               	movwf	___xxtofl@val+1
   779  0198  01F2               	clrf	___xxtofl@val+2
   780  0199  01F3               	clrf	___xxtofl@val+3
   781  019A  3000               	movlw	0
   782  019B  120A  118A  2080  120A  118A  	fcall	___xxtofl
   783  01A0  0873               	movf	?___xxtofl+3,w
   784  01A1  1283               	bcf	3,5	;RP0=0, select bank0
   785  01A2  1303               	bcf	3,6	;RP1=0, select bank0
   786  01A3  00A7               	movwf	___flmul@a+3
   787  01A4  0872               	movf	?___xxtofl+2,w
   788  01A5  00A6               	movwf	___flmul@a+2
   789  01A6  0871               	movf	?___xxtofl+1,w
   790  01A7  00A5               	movwf	___flmul@a+1
   791  01A8  0870               	movf	?___xxtofl,w
   792  01A9  00A4               	movwf	___flmul@a
   793  01AA  3040               	movlw	64
   794  01AB  00A3               	movwf	___flmul@b+3
   795  01AC  309C               	movlw	156
   796  01AD  00A2               	movwf	___flmul@b+2
   797  01AE  306A               	movlw	106
   798  01AF  00A1               	movwf	___flmul@b+1
   799  01B0  307F               	movlw	127
   800  01B1  00A0               	movwf	___flmul@b
   801  01B2  120A  118A  2495  120A  118A  	fcall	___flmul
   802  01B7  1283               	bcf	3,5	;RP0=0, select bank0
   803  01B8  1303               	bcf	3,6	;RP1=0, select bank0
   804  01B9  0823               	movf	?___flmul+3,w
   805  01BA  00C1               	movwf	___fldiv@b+3
   806  01BB  0822               	movf	?___flmul+2,w
   807  01BC  00C0               	movwf	___fldiv@b+2
   808  01BD  0821               	movf	?___flmul+1,w
   809  01BE  00BF               	movwf	___fldiv@b+1
   810  01BF  0820               	movf	?___flmul,w
   811  01C0  00BE               	movwf	___fldiv@b
   812  01C1  303E               	movlw	62
   813  01C2  00BD               	movwf	___fldiv@a+3
   814  01C3  30F0               	movlw	240
   815  01C4  00BC               	movwf	___fldiv@a+2
   816  01C5  30A3               	movlw	163
   817  01C6  00BB               	movwf	___fldiv@a+1
   818  01C7  30D7               	movlw	215
   819  01C8  00BA               	movwf	___fldiv@a
   820  01C9  120A  118A  22B8  120A  118A  	fcall	___fldiv
   821  01CE  1283               	bcf	3,5	;RP0=0, select bank0
   822  01CF  1303               	bcf	3,6	;RP1=0, select bank0
   823  01D0  083D               	movf	?___fldiv+3,w
   824  01D1  00D7               	movwf	___fltol@f1+3
   825  01D2  083C               	movf	?___fldiv+2,w
   826  01D3  00D6               	movwf	___fltol@f1+2
   827  01D4  083B               	movf	?___fldiv+1,w
   828  01D5  00D5               	movwf	___fltol@f1+1
   829  01D6  083A               	movf	?___fldiv,w
   830  01D7  00D4               	movwf	___fltol@f1
   831  01D8  120A  118A  2004  120A  118A  	fcall	___fltol
   832  01DD  1283               	bcf	3,5	;RP0=0, select bank0
   833  01DE  1303               	bcf	3,6	;RP1=0, select bank0
   834  01DF  0855               	movf	?___fltol+1,w
   835  01E0  00E4               	movwf	_ampe+1
   836  01E1  0854               	movf	?___fltol,w
   837  01E2  00E3               	movwf	_ampe
   838                           
   839                           ;main_dc_volt.c: 33:         LCD_Set_Cursor(1,1);
   840  01E3  01F4               	clrf	LCD_Set_Cursor@c
   841  01E4  0AF4               	incf	LCD_Set_Cursor@c,f
   842  01E5  3001               	movlw	1
   843  01E6  120A  158A  2674  120A  118A  	fcall	_LCD_Set_Cursor
   844  01EB                     l1963:
   845                           
   846                           ;main_dc_volt.c: 34:         LCD_Write_String("U = ");
   847  01EB  3006               	movlw	(low ((STR_1-__stringbase)| (0+32768)))& (0+255)
   848  01EC  120A  158A  256F  120A  118A  	fcall	_LCD_Write_String
   849  01F1                     l1965:
   850                           
   851                           ;main_dc_volt.c: 35:         LCD_Write_Number(voltage/1000);
   852  01F1  30E8               	movlw	232
   853  01F2  00F6               	movwf	___lwdiv@divisor
   854  01F3  3003               	movlw	3
   855  01F4  00F7               	movwf	___lwdiv@divisor+1
   856  01F5  1283               	bcf	3,5	;RP0=0, select bank0
   857  01F6  1303               	bcf	3,6	;RP1=0, select bank0
   858  01F7  0866               	movf	_voltage+1,w
   859  01F8  00F9               	movwf	___lwdiv@dividend+1
   860  01F9  0865               	movf	_voltage,w
   861  01FA  00F8               	movwf	___lwdiv@dividend
   862  01FB  120A  158A  2630  120A  118A  	fcall	___lwdiv
   863  0200  0877               	movf	?___lwdiv+1,w
   864  0201  1283               	bcf	3,5	;RP0=0, select bank0
   865  0202  1303               	bcf	3,6	;RP1=0, select bank0
   866  0203  00E2               	movwf	_main$741+1
   867  0204  0876               	movf	?___lwdiv,w
   868  0205  00E1               	movwf	_main$741
   869                           
   870                           ;main_dc_volt.c: 35:         LCD_Write_Number(voltage/1000);
   871  0206  0862               	movf	_main$741+1,w
   872  0207  00A1               	movwf	LCD_Write_Number@number+1
   873  0208  0861               	movf	_main$741,w
   874  0209  00A0               	movwf	LCD_Write_Number@number
   875  020A  120A  158A  2780  120A  118A  	fcall	_LCD_Write_Number
   876  020F                     l1967:
   877                           
   878                           ;main_dc_volt.c: 36:         LCD_Write_Number((voltage%1000)/100);
   879  020F  3064               	movlw	100
   880  0210  00F6               	movwf	___lwdiv@divisor
   881  0211  3000               	movlw	0
   882  0212  00F7               	movwf	___lwdiv@divisor+1
   883  0213  1283               	bcf	3,5	;RP0=0, select bank0
   884  0214  1303               	bcf	3,6	;RP1=0, select bank0
   885  0215  0866               	movf	_voltage+1,w
   886  0216  00F3               	movwf	___lwmod@dividend+1
   887  0217  0865               	movf	_voltage,w
   888  0218  00F2               	movwf	___lwmod@dividend
   889  0219  30E8               	movlw	232
   890  021A  00F0               	movwf	___lwmod@divisor
   891  021B  3003               	movlw	3
   892  021C  00F1               	movwf	___lwmod@divisor+1
   893  021D  120A  158A  25BB  120A  118A  	fcall	___lwmod
   894  0222  0871               	movf	?___lwmod+1,w
   895  0223  00F9               	movwf	___lwdiv@dividend+1
   896  0224  0870               	movf	?___lwmod,w
   897  0225  00F8               	movwf	___lwdiv@dividend
   898  0226  120A  158A  2630  120A  118A  	fcall	___lwdiv
   899  022B  0877               	movf	?___lwdiv+1,w
   900  022C  1283               	bcf	3,5	;RP0=0, select bank0
   901  022D  1303               	bcf	3,6	;RP1=0, select bank0
   902  022E  00E2               	movwf	_main$741+1
   903  022F  0876               	movf	?___lwdiv,w
   904  0230  00E1               	movwf	_main$741
   905  0231                     l1969:
   906                           
   907                           ;main_dc_volt.c: 36:         LCD_Write_Number((voltage%1000)/100);
   908  0231  0862               	movf	_main$741+1,w
   909  0232  00A1               	movwf	LCD_Write_Number@number+1
   910  0233  0861               	movf	_main$741,w
   911  0234  00A0               	movwf	LCD_Write_Number@number
   912  0235  120A  158A  2780  120A  118A  	fcall	_LCD_Write_Number
   913                           
   914                           ;main_dc_volt.c: 37:         LCD_Write_Char('.');
   915  023A  302E               	movlw	46
   916  023B  120A  158A  26C6  120A  118A  	fcall	_LCD_Write_Char
   917                           
   918                           ;main_dc_volt.c: 38:         LCD_Write_Number((voltage%100)/10);
   919  0240  300A               	movlw	10
   920  0241  00F6               	movwf	___lwdiv@divisor
   921  0242  3000               	movlw	0
   922  0243  00F7               	movwf	___lwdiv@divisor+1
   923  0244  1283               	bcf	3,5	;RP0=0, select bank0
   924  0245  1303               	bcf	3,6	;RP1=0, select bank0
   925  0246  0866               	movf	_voltage+1,w
   926  0247  00F3               	movwf	___lwmod@dividend+1
   927  0248  0865               	movf	_voltage,w
   928  0249  00F2               	movwf	___lwmod@dividend
   929  024A  3064               	movlw	100
   930  024B  00F0               	movwf	___lwmod@divisor
   931  024C  3000               	movlw	0
   932  024D  00F1               	movwf	___lwmod@divisor+1
   933  024E  120A  158A  25BB  120A  118A  	fcall	___lwmod
   934  0253  0871               	movf	?___lwmod+1,w
   935  0254  00F9               	movwf	___lwdiv@dividend+1
   936  0255  0870               	movf	?___lwmod,w
   937  0256  00F8               	movwf	___lwdiv@dividend
   938  0257  120A  158A  2630  120A  118A  	fcall	___lwdiv
   939  025C  0877               	movf	?___lwdiv+1,w
   940  025D  1283               	bcf	3,5	;RP0=0, select bank0
   941  025E  1303               	bcf	3,6	;RP1=0, select bank0
   942  025F  00E2               	movwf	_main$741+1
   943  0260  0876               	movf	?___lwdiv,w
   944  0261  00E1               	movwf	_main$741
   945  0262                     l1971:
   946                           
   947                           ;main_dc_volt.c: 38:         LCD_Write_Number((voltage%100)/10);
   948  0262  0862               	movf	_main$741+1,w
   949  0263  00A1               	movwf	LCD_Write_Number@number+1
   950  0264  0861               	movf	_main$741,w
   951  0265  00A0               	movwf	LCD_Write_Number@number
   952  0266  120A  158A  2780  120A  118A  	fcall	_LCD_Write_Number
   953  026B                     l1973:
   954                           
   955                           ;main_dc_volt.c: 39:         LCD_Write_Number(voltage%10);
   956  026B  300A               	movlw	10
   957  026C  00F0               	movwf	___lwmod@divisor
   958  026D  3000               	movlw	0
   959  026E  00F1               	movwf	___lwmod@divisor+1
   960  026F  1283               	bcf	3,5	;RP0=0, select bank0
   961  0270  1303               	bcf	3,6	;RP1=0, select bank0
   962  0271  0866               	movf	_voltage+1,w
   963  0272  00F3               	movwf	___lwmod@dividend+1
   964  0273  0865               	movf	_voltage,w
   965  0274  00F2               	movwf	___lwmod@dividend
   966  0275  120A  158A  25BB  120A  118A  	fcall	___lwmod
   967  027A  0871               	movf	?___lwmod+1,w
   968  027B  1283               	bcf	3,5	;RP0=0, select bank0
   969  027C  1303               	bcf	3,6	;RP1=0, select bank0
   970  027D  00E0               	movwf	_main$742+1
   971  027E  0870               	movf	?___lwmod,w
   972  027F  00DF               	movwf	_main$742
   973                           
   974                           ;main_dc_volt.c: 39:         LCD_Write_Number(voltage%10);
   975  0280  0860               	movf	_main$742+1,w
   976  0281  00A1               	movwf	LCD_Write_Number@number+1
   977  0282  085F               	movf	_main$742,w
   978  0283  00A0               	movwf	LCD_Write_Number@number
   979  0284  120A  158A  2780  120A  118A  	fcall	_LCD_Write_Number
   980                           
   981                           ;main_dc_volt.c: 40:         LCD_Write_String("  V");
   982  0289  300F               	movlw	(low ((STR_2-__stringbase)| (0+32768)))& (0+255)
   983  028A  120A  158A  256F  120A  118A  	fcall	_LCD_Write_String
   984  028F                     l1975:
   985                           
   986                           ;main_dc_volt.c: 42:         LCD_Set_Cursor(2,1);
   987  028F  01F4               	clrf	LCD_Set_Cursor@c
   988  0290  0AF4               	incf	LCD_Set_Cursor@c,f
   989  0291  3002               	movlw	2
   990  0292  120A  158A  2674  120A  118A  	fcall	_LCD_Set_Cursor
   991  0297                     l1977:
   992                           
   993                           ;main_dc_volt.c: 43:         LCD_Write_String("I = ");
   994  0297  3001               	movlw	(low ((STR_3-__stringbase)| (0+32768)))& (0+255)
   995  0298  120A  158A  256F  120A  118A  	fcall	_LCD_Write_String
   996  029D                     l1979:
   997                           
   998                           ;main_dc_volt.c: 44:         LCD_Write_String("0.");
   999  029D  3013               	movlw	(low ((STR_4-__stringbase)| (0+32768)))& (0+255)
  1000  029E  120A  158A  256F  120A  118A  	fcall	_LCD_Write_String
  1001  02A3                     l1981:
  1002                           
  1003                           ;main_dc_volt.c: 45:         LCD_Write_Number(ampe);
  1004  02A3  1283               	bcf	3,5	;RP0=0, select bank0
  1005  02A4  1303               	bcf	3,6	;RP1=0, select bank0
  1006  02A5  0864               	movf	_ampe+1,w
  1007  02A6  00A1               	movwf	LCD_Write_Number@number+1
  1008  02A7  0863               	movf	_ampe,w
  1009  02A8  00A0               	movwf	LCD_Write_Number@number
  1010  02A9  120A  158A  2780  120A  118A  	fcall	_LCD_Write_Number
  1011  02AE                     l1983:
  1012                           
  1013                           ;main_dc_volt.c: 46:         LCD_Write_String("  A");
  1014  02AE  300B               	movlw	(low ((STR_5-__stringbase)| (0+32768)))& (0+255)
  1015  02AF  120A  158A  256F  120A  118A  	fcall	_LCD_Write_String
  1016  02B4  2944               	goto	l1955
  1017  02B5  120A  118A  2800   	ljmp	start
  1018  02B8                     __end_of_main:
  1019                           
  1020                           	psect	text1
  1021  0080                     __ptext1:	
  1022 ;; *************** function ___xxtofl *****************
  1023 ;; Defined at:
  1024 ;;		line 10 in file "C:\Program Files\Microchip\xc8\v2.30\pic\sources\c90\common\xxtofl.c"
  1025 ;; Parameters:    Size  Location     Type
  1026 ;;  sign            1    wreg     unsigned char 
  1027 ;;  val             4    0[COMMON] long 
  1028 ;; Auto vars:     Size  Location     Type
  1029 ;;  sign            1    8[COMMON] unsigned char 
  1030 ;;  arg             4   10[COMMON] unsigned long 
  1031 ;;  exp             1    9[COMMON] unsigned char 
  1032 ;; Return value:  Size  Location     Type
  1033 ;;                  4    0[COMMON] unsigned char 
  1034 ;; Registers used:
  1035 ;;		wreg, status,2, status,0
  1036 ;; Tracked objects:
  1037 ;;		On entry : 0/0
  1038 ;;		On exit  : 0/0
  1039 ;;		Unchanged: 0/0
  1040 ;; Data sizes:     COMMON   BANK0   BANK1   BANK3   BANK2
  1041 ;;      Params:         4       0       0       0       0
  1042 ;;      Locals:         6       0       0       0       0
  1043 ;;      Temps:          4       0       0       0       0
  1044 ;;      Totals:        14       0       0       0       0
  1045 ;;Total ram usage:       14 bytes
  1046 ;; Hardware stack levels used:    1
  1047 ;; This function calls:
  1048 ;;		Nothing
  1049 ;; This function is called by:
  1050 ;;		_main
  1051 ;; This function uses a non-reentrant model
  1052 ;;
  1053                           
  1054                           
  1055                           ;psect for function ___xxtofl
  1056  0080                     ___xxtofl:
  1057                           
  1058                           ;incstack = 0
  1059                           ; Regs used in ___xxtofl: [wreg+status,2+status,0]
  1060                           ;___xxtofl@sign stored from wreg
  1061  0080  00F8               	movwf	___xxtofl@sign
  1062  0081                     l1909:
  1063  0081  0878               	movf	___xxtofl@sign,w
  1064  0082  1903               	btfsc	3,2
  1065  0083  2885               	goto	u2291
  1066  0084  2886               	goto	u2290
  1067  0085                     u2291:
  1068  0085  289A               	goto	l1915
  1069  0086                     u2290:
  1070  0086                     l1911:
  1071  0086  1FF3               	btfss	___xxtofl@val+3,7
  1072  0087  2889               	goto	u2301
  1073  0088  288A               	goto	u2300
  1074  0089                     u2301:
  1075  0089  289A               	goto	l1915
  1076  008A                     u2300:
  1077  008A                     l1913:
  1078  008A  0970               	comf	___xxtofl@val,w
  1079  008B  00FA               	movwf	___xxtofl@arg
  1080  008C  0971               	comf	___xxtofl@val+1,w
  1081  008D  00FB               	movwf	___xxtofl@arg+1
  1082  008E  0972               	comf	___xxtofl@val+2,w
  1083  008F  00FC               	movwf	___xxtofl@arg+2
  1084  0090  0973               	comf	___xxtofl@val+3,w
  1085  0091  00FD               	movwf	___xxtofl@arg+3
  1086  0092  0AFA               	incf	___xxtofl@arg,f
  1087  0093  1903               	skipnz
  1088  0094  0AFB               	incf	___xxtofl@arg+1,f
  1089  0095  1903               	skipnz
  1090  0096  0AFC               	incf	___xxtofl@arg+2,f
  1091  0097  1903               	skipnz
  1092  0098  0AFD               	incf	___xxtofl@arg+3,f
  1093  0099  28A2               	goto	l650
  1094  009A                     l1915:
  1095  009A  0873               	movf	___xxtofl@val+3,w
  1096  009B  00FD               	movwf	___xxtofl@arg+3
  1097  009C  0872               	movf	___xxtofl@val+2,w
  1098  009D  00FC               	movwf	___xxtofl@arg+2
  1099  009E  0871               	movf	___xxtofl@val+1,w
  1100  009F  00FB               	movwf	___xxtofl@arg+1
  1101  00A0  0870               	movf	___xxtofl@val,w
  1102  00A1  00FA               	movwf	___xxtofl@arg
  1103  00A2                     l650:
  1104  00A2  0873               	movf	___xxtofl@val+3,w
  1105  00A3  0472               	iorwf	___xxtofl@val+2,w
  1106  00A4  0471               	iorwf	___xxtofl@val+1,w
  1107  00A5  0470               	iorwf	___xxtofl@val,w
  1108  00A6  1D03               	skipz
  1109  00A7  28A9               	goto	u2311
  1110  00A8  28AA               	goto	u2310
  1111  00A9                     u2311:
  1112  00A9  28B3               	goto	l1921
  1113  00AA                     u2310:
  1114  00AA                     l1917:
  1115  00AA  3000               	movlw	0
  1116  00AB  00F3               	movwf	?___xxtofl+3
  1117  00AC  3000               	movlw	0
  1118  00AD  00F2               	movwf	?___xxtofl+2
  1119  00AE  3000               	movlw	0
  1120  00AF  00F1               	movwf	?___xxtofl+1
  1121  00B0  3000               	movlw	0
  1122  00B1  00F0               	movwf	?___xxtofl
  1123  00B2  2939               	goto	l652
  1124  00B3                     l1921:
  1125  00B3  3096               	movlw	150
  1126  00B4  00F4               	movwf	??___xxtofl
  1127  00B5  0874               	movf	??___xxtofl,w
  1128  00B6  00F9               	movwf	___xxtofl@exp
  1129  00B7  28C5               	goto	l1925
  1130  00B8                     l1923:
  1131  00B8  3001               	movlw	1
  1132  00B9  00F4               	movwf	??___xxtofl
  1133  00BA  0874               	movf	??___xxtofl,w
  1134  00BB  07F9               	addwf	___xxtofl@exp,f
  1135  00BC  3001               	movlw	1
  1136  00BD                     u2325:
  1137  00BD  1003               	clrc
  1138  00BE  0CFD               	rrf	___xxtofl@arg+3,f
  1139  00BF  0CFC               	rrf	___xxtofl@arg+2,f
  1140  00C0  0CFB               	rrf	___xxtofl@arg+1,f
  1141  00C1  0CFA               	rrf	___xxtofl@arg,f
  1142  00C2  3EFF               	addlw	-1
  1143  00C3  1D03               	skipz
  1144  00C4  28BD               	goto	u2325
  1145  00C5                     l1925:
  1146  00C5  30FE               	movlw	254
  1147  00C6  057D               	andwf	___xxtofl@arg+3,w
  1148  00C7  1D03               	btfss	3,2
  1149  00C8  28CA               	goto	u2331
  1150  00C9  28CB               	goto	u2330
  1151  00CA                     u2331:
  1152  00CA  28B8               	goto	l1923
  1153  00CB                     u2330:
  1154  00CB  28E7               	goto	l656
  1155  00CC                     l1927:
  1156  00CC  3001               	movlw	1
  1157  00CD  00F4               	movwf	??___xxtofl
  1158  00CE  0874               	movf	??___xxtofl,w
  1159  00CF  07F9               	addwf	___xxtofl@exp,f
  1160  00D0                     l1929:
  1161  00D0  3001               	movlw	1
  1162  00D1  07FA               	addwf	___xxtofl@arg,f
  1163  00D2  3000               	movlw	0
  1164  00D3  1803               	skipnc
  1165  00D4  3001               	movlw	1
  1166  00D5  07FB               	addwf	___xxtofl@arg+1,f
  1167  00D6  3000               	movlw	0
  1168  00D7  1803               	skipnc
  1169  00D8  3001               	movlw	1
  1170  00D9  07FC               	addwf	___xxtofl@arg+2,f
  1171  00DA  3000               	movlw	0
  1172  00DB  1803               	skipnc
  1173  00DC  3001               	movlw	1
  1174  00DD  07FD               	addwf	___xxtofl@arg+3,f
  1175  00DE                     l1931:
  1176  00DE  3001               	movlw	1
  1177  00DF                     u2345:
  1178  00DF  1003               	clrc
  1179  00E0  0CFD               	rrf	___xxtofl@arg+3,f
  1180  00E1  0CFC               	rrf	___xxtofl@arg+2,f
  1181  00E2  0CFB               	rrf	___xxtofl@arg+1,f
  1182  00E3  0CFA               	rrf	___xxtofl@arg,f
  1183  00E4  3EFF               	addlw	-1
  1184  00E5  1D03               	skipz
  1185  00E6  28DF               	goto	u2345
  1186  00E7                     l656:
  1187  00E7  30FF               	movlw	255
  1188  00E8  057D               	andwf	___xxtofl@arg+3,w
  1189  00E9  1D03               	btfss	3,2
  1190  00EA  28EC               	goto	u2351
  1191  00EB  28ED               	goto	u2350
  1192  00EC                     u2351:
  1193  00EC  28CC               	goto	l1927
  1194  00ED                     u2350:
  1195  00ED  28F9               	goto	l1935
  1196  00EE                     l1933:
  1197  00EE  3001               	movlw	1
  1198  00EF  02F9               	subwf	___xxtofl@exp,f
  1199  00F0  3001               	movlw	1
  1200  00F1  00F4               	movwf	??___xxtofl
  1201  00F2                     u2365:
  1202  00F2  1003               	clrc
  1203  00F3  0DFA               	rlf	___xxtofl@arg,f
  1204  00F4  0DFB               	rlf	___xxtofl@arg+1,f
  1205  00F5  0DFC               	rlf	___xxtofl@arg+2,f
  1206  00F6  0DFD               	rlf	___xxtofl@arg+3,f
  1207  00F7  0BF4               	decfsz	??___xxtofl,f
  1208  00F8  28F2               	goto	u2365
  1209  00F9                     l1935:
  1210  00F9  1BFC               	btfsc	___xxtofl@arg+2,7
  1211  00FA  28FC               	goto	u2371
  1212  00FB  28FD               	goto	u2370
  1213  00FC                     u2371:
  1214  00FC  2903               	goto	l663
  1215  00FD                     u2370:
  1216  00FD                     l1937:
  1217  00FD  3002               	movlw	2
  1218  00FE  0279               	subwf	___xxtofl@exp,w
  1219  00FF  1803               	skipnc
  1220  0100  2902               	goto	u2381
  1221  0101  2903               	goto	u2380
  1222  0102                     u2381:
  1223  0102  28EE               	goto	l1933
  1224  0103                     u2380:
  1225  0103                     l663:
  1226  0103  1879               	btfsc	___xxtofl@exp,0
  1227  0104  2906               	goto	u2391
  1228  0105  2907               	goto	u2390
  1229  0106                     u2391:
  1230  0106  290F               	goto	l664
  1231  0107                     u2390:
  1232  0107                     l1939:
  1233  0107  30FF               	movlw	255
  1234  0108  05FA               	andwf	___xxtofl@arg,f
  1235  0109  30FF               	movlw	255
  1236  010A  05FB               	andwf	___xxtofl@arg+1,f
  1237  010B  307F               	movlw	127
  1238  010C  05FC               	andwf	___xxtofl@arg+2,f
  1239  010D  30FF               	movlw	255
  1240  010E  05FD               	andwf	___xxtofl@arg+3,f
  1241  010F                     l664:
  1242  010F  1003               	clrc
  1243  0110  0CF9               	rrf	___xxtofl@exp,f
  1244  0111                     l1941:
  1245  0111  0879               	movf	___xxtofl@exp,w
  1246  0112  00F4               	movwf	??___xxtofl
  1247  0113  01F5               	clrf	??___xxtofl+1
  1248  0114  01F6               	clrf	??___xxtofl+2
  1249  0115  01F7               	clrf	??___xxtofl+3
  1250  0116  3018               	movlw	24
  1251  0117                     u2405:
  1252  0117  1003               	clrc
  1253  0118  0DF4               	rlf	??___xxtofl,f
  1254  0119  0DF5               	rlf	??___xxtofl+1,f
  1255  011A  0DF6               	rlf	??___xxtofl+2,f
  1256  011B  0DF7               	rlf	??___xxtofl+3,f
  1257  011C                     u2400:
  1258  011C  3EFF               	addlw	-1
  1259  011D  1D03               	skipz
  1260  011E  2917               	goto	u2405
  1261  011F  0874               	movf	??___xxtofl,w
  1262  0120  04FA               	iorwf	___xxtofl@arg,f
  1263  0121  0875               	movf	??___xxtofl+1,w
  1264  0122  04FB               	iorwf	___xxtofl@arg+1,f
  1265  0123  0876               	movf	??___xxtofl+2,w
  1266  0124  04FC               	iorwf	___xxtofl@arg+2,f
  1267  0125  0877               	movf	??___xxtofl+3,w
  1268  0126  04FD               	iorwf	___xxtofl@arg+3,f
  1269  0127                     l1943:
  1270  0127  0878               	movf	___xxtofl@sign,w
  1271  0128  1903               	btfsc	3,2
  1272  0129  292B               	goto	u2411
  1273  012A  292C               	goto	u2410
  1274  012B                     u2411:
  1275  012B  2931               	goto	l1949
  1276  012C                     u2410:
  1277  012C                     l1945:
  1278  012C  1FF3               	btfss	___xxtofl@val+3,7
  1279  012D  292F               	goto	u2421
  1280  012E  2930               	goto	u2420
  1281  012F                     u2421:
  1282  012F  2931               	goto	l1949
  1283  0130                     u2420:
  1284  0130                     l1947:
  1285  0130  17FD               	bsf	___xxtofl@arg+3,7
  1286  0131                     l1949:
  1287  0131  087D               	movf	___xxtofl@arg+3,w
  1288  0132  00F3               	movwf	?___xxtofl+3
  1289  0133  087C               	movf	___xxtofl@arg+2,w
  1290  0134  00F2               	movwf	?___xxtofl+2
  1291  0135  087B               	movf	___xxtofl@arg+1,w
  1292  0136  00F1               	movwf	?___xxtofl+1
  1293  0137  087A               	movf	___xxtofl@arg,w
  1294  0138  00F0               	movwf	?___xxtofl
  1295  0139                     l652:
  1296  0139  0008               	return
  1297  013A                     __end_of___xxtofl:
  1298                           
  1299                           	psect	text2
  1300  0004                     __ptext2:	
  1301 ;; *************** function ___fltol *****************
  1302 ;; Defined at:
  1303 ;;		line 43 in file "C:\Program Files\Microchip\xc8\v2.30\pic\sources\c90\common\fltol.c"
  1304 ;; Parameters:    Size  Location     Type
  1305 ;;  f1              4   52[BANK0 ] unsigned char 
  1306 ;; Auto vars:     Size  Location     Type
  1307 ;;  exp1            1   62[BANK0 ] unsigned char 
  1308 ;;  sign1           1   61[BANK0 ] unsigned char 
  1309 ;; Return value:  Size  Location     Type
  1310 ;;                  4   52[BANK0 ] long 
  1311 ;; Registers used:
  1312 ;;		wreg, status,2, status,0
  1313 ;; Tracked objects:
  1314 ;;		On entry : 0/0
  1315 ;;		On exit  : 0/0
  1316 ;;		Unchanged: 0/0
  1317 ;; Data sizes:     COMMON   BANK0   BANK1   BANK3   BANK2
  1318 ;;      Params:         0       4       0       0       0
  1319 ;;      Locals:         0       2       0       0       0
  1320 ;;      Temps:          0       5       0       0       0
  1321 ;;      Totals:         0      11       0       0       0
  1322 ;;Total ram usage:       11 bytes
  1323 ;; Hardware stack levels used:    1
  1324 ;; This function calls:
  1325 ;;		Nothing
  1326 ;; This function is called by:
  1327 ;;		_main
  1328 ;; This function uses a non-reentrant model
  1329 ;;
  1330                           
  1331                           
  1332                           ;psect for function ___fltol
  1333  0004                     ___fltol:
  1334  0004                     l1591:	
  1335                           ;incstack = 0
  1336                           ; Regs used in ___fltol: [wreg+status,2+status,0]
  1337                           
  1338  0004  1003               	clrc
  1339  0005  1283               	bcf	3,5	;RP0=0, select bank0
  1340  0006  1303               	bcf	3,6	;RP1=0, select bank0
  1341  0007  0D56               	rlf	___fltol@f1+2,w
  1342  0008  0D57               	rlf	___fltol@f1+3,w
  1343  0009  00D8               	movwf	??___fltol
  1344  000A  0858               	movf	??___fltol,w
  1345  000B  00DE               	movwf	___fltol@exp1
  1346  000C  085E               	movf	___fltol@exp1,w
  1347  000D  1D03               	btfss	3,2
  1348  000E  2810               	goto	u1531
  1349  000F  2811               	goto	u1530
  1350  0010                     u1531:
  1351  0010  281A               	goto	l1597
  1352  0011                     u1530:
  1353  0011                     l1593:
  1354  0011  3000               	movlw	0
  1355  0012  00D7               	movwf	?___fltol+3
  1356  0013  3000               	movlw	0
  1357  0014  00D6               	movwf	?___fltol+2
  1358  0015  3000               	movlw	0
  1359  0016  00D5               	movwf	?___fltol+1
  1360  0017  3000               	movlw	0
  1361  0018  00D4               	movwf	?___fltol
  1362  0019  287F               	goto	l403
  1363  001A                     l1597:
  1364  001A  0854               	movf	___fltol@f1,w
  1365  001B  00D8               	movwf	??___fltol
  1366  001C  0855               	movf	___fltol@f1+1,w
  1367  001D  00D9               	movwf	??___fltol+1
  1368  001E  0856               	movf	___fltol@f1+2,w
  1369  001F  00DA               	movwf	??___fltol+2
  1370  0020  0857               	movf	___fltol@f1+3,w
  1371  0021  00DB               	movwf	??___fltol+3
  1372  0022  301F               	movlw	31
  1373  0023                     u1545:
  1374  0023  1003               	clrc
  1375  0024  0CDB               	rrf	??___fltol+3,f
  1376  0025  0CDA               	rrf	??___fltol+2,f
  1377  0026  0CD9               	rrf	??___fltol+1,f
  1378  0027  0CD8               	rrf	??___fltol,f
  1379  0028                     u1540:
  1380  0028  3EFF               	addlw	-1
  1381  0029  1D03               	skipz
  1382  002A  2823               	goto	u1545
  1383  002B  0858               	movf	??___fltol,w
  1384  002C  00DC               	movwf	??___fltol+4
  1385  002D  085C               	movf	??___fltol+4,w
  1386  002E  00DD               	movwf	___fltol@sign1
  1387  002F                     l1599:
  1388  002F  17D6               	bsf	___fltol@f1+2,7
  1389  0030                     l1601:
  1390  0030  30FF               	movlw	255
  1391  0031  05D4               	andwf	___fltol@f1,f
  1392  0032  30FF               	movlw	255
  1393  0033  05D5               	andwf	___fltol@f1+1,f
  1394  0034  30FF               	movlw	255
  1395  0035  05D6               	andwf	___fltol@f1+2,f
  1396  0036  3000               	movlw	0
  1397  0037  05D7               	andwf	___fltol@f1+3,f
  1398  0038                     l1603:
  1399  0038  3096               	movlw	150
  1400  0039  02DE               	subwf	___fltol@exp1,f
  1401  003A                     l1605:
  1402  003A  1FDE               	btfss	___fltol@exp1,7
  1403  003B  283D               	goto	u1551
  1404  003C  283E               	goto	u1550
  1405  003D                     u1551:
  1406  003D  2858               	goto	l1615
  1407  003E                     u1550:
  1408  003E                     l1607:
  1409  003E  085E               	movf	___fltol@exp1,w
  1410  003F  3A80               	xorlw	128
  1411  0040  3E97               	addlw	151
  1412  0041  1803               	skipnc
  1413  0042  2844               	goto	u1561
  1414  0043  2845               	goto	u1560
  1415  0044                     u1561:
  1416  0044  2846               	goto	l1613
  1417  0045                     u1560:
  1418  0045  2811               	goto	l1593
  1419  0046                     l1613:
  1420  0046  3001               	movlw	1
  1421  0047                     u1575:
  1422  0047  1003               	clrc
  1423  0048  0CD7               	rrf	___fltol@f1+3,f
  1424  0049  0CD6               	rrf	___fltol@f1+2,f
  1425  004A  0CD5               	rrf	___fltol@f1+1,f
  1426  004B  0CD4               	rrf	___fltol@f1,f
  1427  004C  3EFF               	addlw	-1
  1428  004D  1D03               	skipz
  1429  004E  2847               	goto	u1575
  1430  004F  3001               	movlw	1
  1431  0050  00D8               	movwf	??___fltol
  1432  0051  0858               	movf	??___fltol,w
  1433  0052  07DE               	addwf	___fltol@exp1,f
  1434  0053  1D03               	btfss	3,2
  1435  0054  2856               	goto	u1581
  1436  0055  2857               	goto	u1580
  1437  0056                     u1581:
  1438  0056  2846               	goto	l1613
  1439  0057                     u1580:
  1440  0057  286F               	goto	l1623
  1441  0058                     l1615:
  1442  0058  3020               	movlw	32
  1443  0059  025E               	subwf	___fltol@exp1,w
  1444  005A  1C03               	skipc
  1445  005B  285D               	goto	u1591
  1446  005C  285E               	goto	u1590
  1447  005D                     u1591:
  1448  005D  286A               	goto	l410
  1449  005E                     u1590:
  1450  005E  2811               	goto	l1593
  1451  005F                     l1621:
  1452  005F  3001               	movlw	1
  1453  0060  00D8               	movwf	??___fltol
  1454  0061                     u1605:
  1455  0061  1003               	clrc
  1456  0062  0DD4               	rlf	___fltol@f1,f
  1457  0063  0DD5               	rlf	___fltol@f1+1,f
  1458  0064  0DD6               	rlf	___fltol@f1+2,f
  1459  0065  0DD7               	rlf	___fltol@f1+3,f
  1460  0066  0BD8               	decfsz	??___fltol,f
  1461  0067  2861               	goto	u1605
  1462  0068  3001               	movlw	1
  1463  0069  02DE               	subwf	___fltol@exp1,f
  1464  006A                     l410:
  1465  006A  085E               	movf	___fltol@exp1,w
  1466  006B  1D03               	btfss	3,2
  1467  006C  286E               	goto	u1611
  1468  006D  286F               	goto	u1610
  1469  006E                     u1611:
  1470  006E  285F               	goto	l1621
  1471  006F                     u1610:
  1472  006F                     l1623:
  1473  006F  085D               	movf	___fltol@sign1,w
  1474  0070  1903               	btfsc	3,2
  1475  0071  2873               	goto	u1621
  1476  0072  2874               	goto	u1620
  1477  0073                     u1621:
  1478  0073  287F               	goto	l413
  1479  0074                     u1620:
  1480  0074                     l1625:
  1481  0074  09D4               	comf	___fltol@f1,f
  1482  0075  09D5               	comf	___fltol@f1+1,f
  1483  0076  09D6               	comf	___fltol@f1+2,f
  1484  0077  09D7               	comf	___fltol@f1+3,f
  1485  0078  0AD4               	incf	___fltol@f1,f
  1486  0079  1903               	skipnz
  1487  007A  0AD5               	incf	___fltol@f1+1,f
  1488  007B  1903               	skipnz
  1489  007C  0AD6               	incf	___fltol@f1+2,f
  1490  007D  1903               	skipnz
  1491  007E  0AD7               	incf	___fltol@f1+3,f
  1492  007F                     l413:
  1493  007F                     l403:
  1494  007F  0008               	return
  1495  0080                     __end_of___fltol:
  1496                           
  1497                           	psect	text3
  1498  0495                     __ptext3:	
  1499 ;; *************** function ___flmul *****************
  1500 ;; Defined at:
  1501 ;;		line 8 in file "C:\Program Files\Microchip\xc8\v2.30\pic\sources\c90\common\sprcmul.c"
  1502 ;; Parameters:    Size  Location     Type
  1503 ;;  b               4    0[BANK0 ] long 
  1504 ;;  a               4    4[BANK0 ] long 
  1505 ;; Auto vars:     Size  Location     Type
  1506 ;;  prod            4   20[BANK0 ] struct .
  1507 ;;  grs             4   14[BANK0 ] unsigned long 
  1508 ;;  temp            2   24[BANK0 ] struct .
  1509 ;;  bexp            1   19[BANK0 ] unsigned char 
  1510 ;;  aexp            1   18[BANK0 ] unsigned char 
  1511 ;;  sign            1   13[BANK0 ] unsigned char 
  1512 ;; Return value:  Size  Location     Type
  1513 ;;                  4    0[BANK0 ] unsigned char 
  1514 ;; Registers used:
  1515 ;;		wreg, status,2, status,0, btemp+1, pclath, cstack
  1516 ;; Tracked objects:
  1517 ;;		On entry : 0/0
  1518 ;;		On exit  : 0/0
  1519 ;;		Unchanged: 0/0
  1520 ;; Data sizes:     COMMON   BANK0   BANK1   BANK3   BANK2
  1521 ;;      Params:         0       8       0       0       0
  1522 ;;      Locals:         0      13       0       0       0
  1523 ;;      Temps:          0       5       0       0       0
  1524 ;;      Totals:         0      26       0       0       0
  1525 ;;Total ram usage:       26 bytes
  1526 ;; Hardware stack levels used:    1
  1527 ;; Hardware stack levels required when called:    1
  1528 ;; This function calls:
  1529 ;;		__Umul8_16
  1530 ;; This function is called by:
  1531 ;;		_main
  1532 ;; This function uses a non-reentrant model
  1533 ;;
  1534                           
  1535                           
  1536                           ;psect for function ___flmul
  1537  0495                     ___flmul:
  1538  0495                     l1769:	
  1539                           ;incstack = 0
  1540                           ; Regs used in ___flmul: [wreg+status,2+status,0+btemp+1+pclath+cstack]
  1541                           
  1542  0495  1283               	bcf	3,5	;RP0=0, select bank0
  1543  0496  1303               	bcf	3,6	;RP1=0, select bank0
  1544  0497  0823               	movf	___flmul@b+3,w
  1545  0498  3980               	andlw	128
  1546  0499  00A8               	movwf	??___flmul
  1547  049A  0828               	movf	??___flmul,w
  1548  049B  00AD               	movwf	___flmul@sign
  1549  049C                     l1771:
  1550  049C  0823               	movf	___flmul@b+3,w
  1551  049D  00A8               	movwf	??___flmul
  1552  049E  0728               	addwf	??___flmul,w
  1553  049F  00A9               	movwf	??___flmul+1
  1554  04A0  0829               	movf	??___flmul+1,w
  1555  04A1  00B3               	movwf	___flmul@bexp
  1556  04A2                     l1773:
  1557  04A2  1FA2               	btfss	___flmul@b+2,7
  1558  04A3  2CA5               	goto	u1921
  1559  04A4  2CA6               	goto	u1920
  1560  04A5                     u1921:
  1561  04A5  2CA7               	goto	l1777
  1562  04A6                     u1920:
  1563  04A6                     l1775:
  1564  04A6  1433               	bsf	___flmul@bexp,0
  1565  04A7                     l1777:
  1566  04A7  0833               	movf	___flmul@bexp,w
  1567  04A8  1903               	btfsc	3,2
  1568  04A9  2CAB               	goto	u1931
  1569  04AA  2CAC               	goto	u1930
  1570  04AB                     u1931:
  1571  04AB  2CBB               	goto	l1785
  1572  04AC                     u1930:
  1573  04AC                     l1779:
  1574  04AC  0A33               	incf	___flmul@bexp,w
  1575  04AD  1D03               	btfss	3,2
  1576  04AE  2CB0               	goto	u1941
  1577  04AF  2CB1               	goto	u1940
  1578  04B0                     u1941:
  1579  04B0  2CB9               	goto	l1783
  1580  04B1                     u1940:
  1581  04B1                     l1781:
  1582  04B1  3000               	movlw	0
  1583  04B2  00A3               	movwf	___flmul@b+3
  1584  04B3  3000               	movlw	0
  1585  04B4  00A2               	movwf	___flmul@b+2
  1586  04B5  3000               	movlw	0
  1587  04B6  00A1               	movwf	___flmul@b+1
  1588  04B7  3000               	movlw	0
  1589  04B8  00A0               	movwf	___flmul@b
  1590  04B9                     l1783:
  1591  04B9  17A2               	bsf	___flmul@b+2,7
  1592  04BA  2CC3               	goto	l1787
  1593  04BB                     l1785:
  1594  04BB  3000               	movlw	0
  1595  04BC  00A3               	movwf	___flmul@b+3
  1596  04BD  3000               	movlw	0
  1597  04BE  00A2               	movwf	___flmul@b+2
  1598  04BF  3000               	movlw	0
  1599  04C0  00A1               	movwf	___flmul@b+1
  1600  04C1  3000               	movlw	0
  1601  04C2  00A0               	movwf	___flmul@b
  1602  04C3                     l1787:
  1603  04C3  0827               	movf	___flmul@a+3,w
  1604  04C4  3980               	andlw	128
  1605  04C5  00A8               	movwf	??___flmul
  1606  04C6  0828               	movf	??___flmul,w
  1607  04C7  06AD               	xorwf	___flmul@sign,f
  1608  04C8                     l1789:
  1609  04C8  0827               	movf	___flmul@a+3,w
  1610  04C9  00A8               	movwf	??___flmul
  1611  04CA  0728               	addwf	??___flmul,w
  1612  04CB  00A9               	movwf	??___flmul+1
  1613  04CC  0829               	movf	??___flmul+1,w
  1614  04CD  00B2               	movwf	___flmul@aexp
  1615  04CE                     l1791:
  1616  04CE  1FA6               	btfss	___flmul@a+2,7
  1617  04CF  2CD1               	goto	u1951
  1618  04D0  2CD2               	goto	u1950
  1619  04D1                     u1951:
  1620  04D1  2CD3               	goto	l1795
  1621  04D2                     u1950:
  1622  04D2                     l1793:
  1623  04D2  1432               	bsf	___flmul@aexp,0
  1624  04D3                     l1795:
  1625  04D3  0832               	movf	___flmul@aexp,w
  1626  04D4  1903               	btfsc	3,2
  1627  04D5  2CD7               	goto	u1961
  1628  04D6  2CD8               	goto	u1960
  1629  04D7                     u1961:
  1630  04D7  2CE7               	goto	l1803
  1631  04D8                     u1960:
  1632  04D8                     l1797:
  1633  04D8  0A32               	incf	___flmul@aexp,w
  1634  04D9  1D03               	btfss	3,2
  1635  04DA  2CDC               	goto	u1971
  1636  04DB  2CDD               	goto	u1970
  1637  04DC                     u1971:
  1638  04DC  2CE5               	goto	l1801
  1639  04DD                     u1970:
  1640  04DD                     l1799:
  1641  04DD  3000               	movlw	0
  1642  04DE  00A7               	movwf	___flmul@a+3
  1643  04DF  3000               	movlw	0
  1644  04E0  00A6               	movwf	___flmul@a+2
  1645  04E1  3000               	movlw	0
  1646  04E2  00A5               	movwf	___flmul@a+1
  1647  04E3  3000               	movlw	0
  1648  04E4  00A4               	movwf	___flmul@a
  1649  04E5                     l1801:
  1650  04E5  17A6               	bsf	___flmul@a+2,7
  1651  04E6  2CEF               	goto	l1805
  1652  04E7                     l1803:
  1653  04E7  3000               	movlw	0
  1654  04E8  00A7               	movwf	___flmul@a+3
  1655  04E9  3000               	movlw	0
  1656  04EA  00A6               	movwf	___flmul@a+2
  1657  04EB  3000               	movlw	0
  1658  04EC  00A5               	movwf	___flmul@a+1
  1659  04ED  3000               	movlw	0
  1660  04EE  00A4               	movwf	___flmul@a
  1661  04EF                     l1805:
  1662  04EF  0832               	movf	___flmul@aexp,w
  1663  04F0  1903               	btfsc	3,2
  1664  04F1  2CF3               	goto	u1981
  1665  04F2  2CF4               	goto	u1980
  1666  04F3                     u1981:
  1667  04F3  2CF9               	goto	l1809
  1668  04F4                     u1980:
  1669  04F4                     l1807:
  1670  04F4  0833               	movf	___flmul@bexp,w
  1671  04F5  1D03               	btfss	3,2
  1672  04F6  2CF8               	goto	u1991
  1673  04F7  2CF9               	goto	u1990
  1674  04F8                     u1991:
  1675  04F8  2D02               	goto	l1813
  1676  04F9                     u1990:
  1677  04F9                     l1809:
  1678  04F9  3000               	movlw	0
  1679  04FA  00A3               	movwf	?___flmul+3
  1680  04FB  3000               	movlw	0
  1681  04FC  00A2               	movwf	?___flmul+2
  1682  04FD  3000               	movlw	0
  1683  04FE  00A1               	movwf	?___flmul+1
  1684  04FF  3000               	movlw	0
  1685  0500  00A0               	movwf	?___flmul
  1686  0501  2FF5               	goto	l606
  1687  0502                     l1813:
  1688  0502  0820               	movf	___flmul@b,w
  1689  0503  00A8               	movwf	??___flmul
  1690  0504  0828               	movf	??___flmul,w
  1691  0505  00F0               	movwf	__Umul8_16@multiplicand
  1692  0506  0826               	movf	___flmul@a+2,w
  1693  0507  120A  158A  2594  120A  118A  	fcall	__Umul8_16
  1694  050C  0871               	movf	?__Umul8_16+1,w
  1695  050D  1283               	bcf	3,5	;RP0=0, select bank0
  1696  050E  1303               	bcf	3,6	;RP1=0, select bank0
  1697  050F  00B9               	movwf	___flmul@temp+1
  1698  0510  0870               	movf	?__Umul8_16,w
  1699  0511  00B8               	movwf	___flmul@temp
  1700  0512                     l1815:
  1701  0512  0838               	movf	___flmul@temp,w
  1702  0513  00A8               	movwf	??___flmul
  1703  0514  01A9               	clrf	??___flmul+1
  1704  0515  01AA               	clrf	??___flmul+2
  1705  0516  01AB               	clrf	??___flmul+3
  1706  0517  082B               	movf	??___flmul+3,w
  1707  0518  00B1               	movwf	___flmul@grs+3
  1708  0519  082A               	movf	??___flmul+2,w
  1709  051A  00B0               	movwf	___flmul@grs+2
  1710  051B  0829               	movf	??___flmul+1,w
  1711  051C  00AF               	movwf	___flmul@grs+1
  1712  051D  0828               	movf	??___flmul,w
  1713  051E  00AE               	movwf	___flmul@grs
  1714  051F                     l1817:
  1715  051F  0839               	movf	___flmul@temp+1,w
  1716  0520  00A8               	movwf	??___flmul
  1717  0521  01A9               	clrf	??___flmul+1
  1718  0522  01AA               	clrf	??___flmul+2
  1719  0523  01AB               	clrf	??___flmul+3
  1720  0524  082B               	movf	??___flmul+3,w
  1721  0525  00B7               	movwf	___flmul@prod+3
  1722  0526  082A               	movf	??___flmul+2,w
  1723  0527  00B6               	movwf	___flmul@prod+2
  1724  0528  0829               	movf	??___flmul+1,w
  1725  0529  00B5               	movwf	___flmul@prod+1
  1726  052A  0828               	movf	??___flmul,w
  1727  052B  00B4               	movwf	___flmul@prod
  1728  052C  0821               	movf	___flmul@b+1,w
  1729  052D  00A8               	movwf	??___flmul
  1730  052E  0828               	movf	??___flmul,w
  1731  052F  00F0               	movwf	__Umul8_16@multiplicand
  1732  0530  0825               	movf	___flmul@a+1,w
  1733  0531  120A  158A  2594  120A  118A  	fcall	__Umul8_16
  1734  0536  0871               	movf	?__Umul8_16+1,w
  1735  0537  1283               	bcf	3,5	;RP0=0, select bank0
  1736  0538  1303               	bcf	3,6	;RP1=0, select bank0
  1737  0539  00B9               	movwf	___flmul@temp+1
  1738  053A  0870               	movf	?__Umul8_16,w
  1739  053B  00B8               	movwf	___flmul@temp
  1740  053C                     l1819:
  1741  053C  0838               	movf	___flmul@temp,w
  1742  053D  00A8               	movwf	??___flmul
  1743  053E  01A9               	clrf	??___flmul+1
  1744  053F  01AA               	clrf	??___flmul+2
  1745  0540  01AB               	clrf	??___flmul+3
  1746  0541  0828               	movf	??___flmul,w
  1747  0542  07AE               	addwf	___flmul@grs,f
  1748  0543  0829               	movf	??___flmul+1,w
  1749  0544  1103               	clrz
  1750  0545  1803               	skipnc
  1751  0546  3E01               	addlw	1
  1752  0547  1903               	skipnz
  1753  0548  2D4A               	goto	u2001
  1754  0549  07AF               	addwf	___flmul@grs+1,f
  1755  054A                     u2001:
  1756  054A  082A               	movf	??___flmul+2,w
  1757  054B  1103               	clrz
  1758  054C  1803               	skipnc
  1759  054D  3E01               	addlw	1
  1760  054E  1903               	skipnz
  1761  054F  2D51               	goto	u2002
  1762  0550  07B0               	addwf	___flmul@grs+2,f
  1763  0551                     u2002:
  1764  0551  082B               	movf	??___flmul+3,w
  1765  0552  1103               	clrz
  1766  0553  1803               	skipnc
  1767  0554  3E01               	addlw	1
  1768  0555  1903               	skipnz
  1769  0556  2D58               	goto	u2003
  1770  0557  07B1               	addwf	___flmul@grs+3,f
  1771  0558                     u2003:
  1772  0558                     l1821:
  1773  0558  0839               	movf	___flmul@temp+1,w
  1774  0559  00A8               	movwf	??___flmul
  1775  055A  01A9               	clrf	??___flmul+1
  1776  055B  01AA               	clrf	??___flmul+2
  1777  055C  01AB               	clrf	??___flmul+3
  1778  055D  0828               	movf	??___flmul,w
  1779  055E  07B4               	addwf	___flmul@prod,f
  1780  055F  0829               	movf	??___flmul+1,w
  1781  0560  1103               	clrz
  1782  0561  1803               	skipnc
  1783  0562  3E01               	addlw	1
  1784  0563  1903               	skipnz
  1785  0564  2D66               	goto	u2011
  1786  0565  07B5               	addwf	___flmul@prod+1,f
  1787  0566                     u2011:
  1788  0566  082A               	movf	??___flmul+2,w
  1789  0567  1103               	clrz
  1790  0568  1803               	skipnc
  1791  0569  3E01               	addlw	1
  1792  056A  1903               	skipnz
  1793  056B  2D6D               	goto	u2012
  1794  056C  07B6               	addwf	___flmul@prod+2,f
  1795  056D                     u2012:
  1796  056D  082B               	movf	??___flmul+3,w
  1797  056E  1103               	clrz
  1798  056F  1803               	skipnc
  1799  0570  3E01               	addlw	1
  1800  0571  1903               	skipnz
  1801  0572  2D74               	goto	u2013
  1802  0573  07B7               	addwf	___flmul@prod+3,f
  1803  0574                     u2013:
  1804  0574  0822               	movf	___flmul@b+2,w
  1805  0575  00A8               	movwf	??___flmul
  1806  0576  0828               	movf	??___flmul,w
  1807  0577  00F0               	movwf	__Umul8_16@multiplicand
  1808  0578  0824               	movf	___flmul@a,w
  1809  0579  120A  158A  2594  120A  118A  	fcall	__Umul8_16
  1810  057E  0871               	movf	?__Umul8_16+1,w
  1811  057F  1283               	bcf	3,5	;RP0=0, select bank0
  1812  0580  1303               	bcf	3,6	;RP1=0, select bank0
  1813  0581  00B9               	movwf	___flmul@temp+1
  1814  0582  0870               	movf	?__Umul8_16,w
  1815  0583  00B8               	movwf	___flmul@temp
  1816  0584                     l1823:
  1817  0584  0838               	movf	___flmul@temp,w
  1818  0585  00A8               	movwf	??___flmul
  1819  0586  01A9               	clrf	??___flmul+1
  1820  0587  01AA               	clrf	??___flmul+2
  1821  0588  01AB               	clrf	??___flmul+3
  1822  0589  0828               	movf	??___flmul,w
  1823  058A  07AE               	addwf	___flmul@grs,f
  1824  058B  0829               	movf	??___flmul+1,w
  1825  058C  1103               	clrz
  1826  058D  1803               	skipnc
  1827  058E  3E01               	addlw	1
  1828  058F  1903               	skipnz
  1829  0590  2D92               	goto	u2021
  1830  0591  07AF               	addwf	___flmul@grs+1,f
  1831  0592                     u2021:
  1832  0592  082A               	movf	??___flmul+2,w
  1833  0593  1103               	clrz
  1834  0594  1803               	skipnc
  1835  0595  3E01               	addlw	1
  1836  0596  1903               	skipnz
  1837  0597  2D99               	goto	u2022
  1838  0598  07B0               	addwf	___flmul@grs+2,f
  1839  0599                     u2022:
  1840  0599  082B               	movf	??___flmul+3,w
  1841  059A  1103               	clrz
  1842  059B  1803               	skipnc
  1843  059C  3E01               	addlw	1
  1844  059D  1903               	skipnz
  1845  059E  2DA0               	goto	u2023
  1846  059F  07B1               	addwf	___flmul@grs+3,f
  1847  05A0                     u2023:
  1848  05A0                     l1825:
  1849  05A0  0839               	movf	___flmul@temp+1,w
  1850  05A1  00A8               	movwf	??___flmul
  1851  05A2  01A9               	clrf	??___flmul+1
  1852  05A3  01AA               	clrf	??___flmul+2
  1853  05A4  01AB               	clrf	??___flmul+3
  1854  05A5  0828               	movf	??___flmul,w
  1855  05A6  07B4               	addwf	___flmul@prod,f
  1856  05A7  0829               	movf	??___flmul+1,w
  1857  05A8  1103               	clrz
  1858  05A9  1803               	skipnc
  1859  05AA  3E01               	addlw	1
  1860  05AB  1903               	skipnz
  1861  05AC  2DAE               	goto	u2031
  1862  05AD  07B5               	addwf	___flmul@prod+1,f
  1863  05AE                     u2031:
  1864  05AE  082A               	movf	??___flmul+2,w
  1865  05AF  1103               	clrz
  1866  05B0  1803               	skipnc
  1867  05B1  3E01               	addlw	1
  1868  05B2  1903               	skipnz
  1869  05B3  2DB5               	goto	u2032
  1870  05B4  07B6               	addwf	___flmul@prod+2,f
  1871  05B5                     u2032:
  1872  05B5  082B               	movf	??___flmul+3,w
  1873  05B6  1103               	clrz
  1874  05B7  1803               	skipnc
  1875  05B8  3E01               	addlw	1
  1876  05B9  1903               	skipnz
  1877  05BA  2DBC               	goto	u2033
  1878  05BB  07B7               	addwf	___flmul@prod+3,f
  1879  05BC                     u2033:
  1880  05BC                     l1827:
  1881  05BC  3008               	movlw	8
  1882  05BD  00A8               	movwf	??___flmul
  1883  05BE                     u2045:
  1884  05BE  1003               	clrc
  1885  05BF  0DAE               	rlf	___flmul@grs,f
  1886  05C0  0DAF               	rlf	___flmul@grs+1,f
  1887  05C1  0DB0               	rlf	___flmul@grs+2,f
  1888  05C2  0DB1               	rlf	___flmul@grs+3,f
  1889  05C3  0BA8               	decfsz	??___flmul,f
  1890  05C4  2DBE               	goto	u2045
  1891  05C5                     l1829:
  1892  05C5  0821               	movf	___flmul@b+1,w
  1893  05C6  00A8               	movwf	??___flmul
  1894  05C7  0828               	movf	??___flmul,w
  1895  05C8  00F0               	movwf	__Umul8_16@multiplicand
  1896  05C9  0824               	movf	___flmul@a,w
  1897  05CA  120A  158A  2594  120A  118A  	fcall	__Umul8_16
  1898  05CF  0871               	movf	?__Umul8_16+1,w
  1899  05D0  1283               	bcf	3,5	;RP0=0, select bank0
  1900  05D1  1303               	bcf	3,6	;RP1=0, select bank0
  1901  05D2  00B9               	movwf	___flmul@temp+1
  1902  05D3  0870               	movf	?__Umul8_16,w
  1903  05D4  00B8               	movwf	___flmul@temp
  1904  05D5                     l1831:
  1905  05D5  0838               	movf	___flmul@temp,w
  1906  05D6  00A8               	movwf	??___flmul
  1907  05D7  0839               	movf	___flmul@temp+1,w
  1908  05D8  00A9               	movwf	??___flmul+1
  1909  05D9  01AA               	clrf	??___flmul+2
  1910  05DA  01AB               	clrf	??___flmul+3
  1911  05DB  0828               	movf	??___flmul,w
  1912  05DC  07AE               	addwf	___flmul@grs,f
  1913  05DD  0829               	movf	??___flmul+1,w
  1914  05DE  1103               	clrz
  1915  05DF  1803               	skipnc
  1916  05E0  3E01               	addlw	1
  1917  05E1  1903               	skipnz
  1918  05E2  2DE4               	goto	u2051
  1919  05E3  07AF               	addwf	___flmul@grs+1,f
  1920  05E4                     u2051:
  1921  05E4  082A               	movf	??___flmul+2,w
  1922  05E5  1103               	clrz
  1923  05E6  1803               	skipnc
  1924  05E7  3E01               	addlw	1
  1925  05E8  1903               	skipnz
  1926  05E9  2DEB               	goto	u2052
  1927  05EA  07B0               	addwf	___flmul@grs+2,f
  1928  05EB                     u2052:
  1929  05EB  082B               	movf	??___flmul+3,w
  1930  05EC  1103               	clrz
  1931  05ED  1803               	skipnc
  1932  05EE  3E01               	addlw	1
  1933  05EF  1903               	skipnz
  1934  05F0  2DF2               	goto	u2053
  1935  05F1  07B1               	addwf	___flmul@grs+3,f
  1936  05F2                     u2053:
  1937  05F2                     l1833:
  1938  05F2  0820               	movf	___flmul@b,w
  1939  05F3  00A8               	movwf	??___flmul
  1940  05F4  0828               	movf	??___flmul,w
  1941  05F5  00F0               	movwf	__Umul8_16@multiplicand
  1942  05F6  0825               	movf	___flmul@a+1,w
  1943  05F7  120A  158A  2594  120A  118A  	fcall	__Umul8_16
  1944  05FC  0871               	movf	?__Umul8_16+1,w
  1945  05FD  1283               	bcf	3,5	;RP0=0, select bank0
  1946  05FE  1303               	bcf	3,6	;RP1=0, select bank0
  1947  05FF  00B9               	movwf	___flmul@temp+1
  1948  0600  0870               	movf	?__Umul8_16,w
  1949  0601  00B8               	movwf	___flmul@temp
  1950  0602                     l1835:
  1951  0602  0838               	movf	___flmul@temp,w
  1952  0603  00A8               	movwf	??___flmul
  1953  0604  0839               	movf	___flmul@temp+1,w
  1954  0605  00A9               	movwf	??___flmul+1
  1955  0606  01AA               	clrf	??___flmul+2
  1956  0607  01AB               	clrf	??___flmul+3
  1957  0608  0828               	movf	??___flmul,w
  1958  0609  07AE               	addwf	___flmul@grs,f
  1959  060A  0829               	movf	??___flmul+1,w
  1960  060B  1103               	clrz
  1961  060C  1803               	skipnc
  1962  060D  3E01               	addlw	1
  1963  060E  1903               	skipnz
  1964  060F  2E11               	goto	u2061
  1965  0610  07AF               	addwf	___flmul@grs+1,f
  1966  0611                     u2061:
  1967  0611  082A               	movf	??___flmul+2,w
  1968  0612  1103               	clrz
  1969  0613  1803               	skipnc
  1970  0614  3E01               	addlw	1
  1971  0615  1903               	skipnz
  1972  0616  2E18               	goto	u2062
  1973  0617  07B0               	addwf	___flmul@grs+2,f
  1974  0618                     u2062:
  1975  0618  082B               	movf	??___flmul+3,w
  1976  0619  1103               	clrz
  1977  061A  1803               	skipnc
  1978  061B  3E01               	addlw	1
  1979  061C  1903               	skipnz
  1980  061D  2E1F               	goto	u2063
  1981  061E  07B1               	addwf	___flmul@grs+3,f
  1982  061F                     u2063:
  1983  061F                     l1837:
  1984  061F  3008               	movlw	8
  1985  0620  00A8               	movwf	??___flmul
  1986  0621                     u2075:
  1987  0621  1003               	clrc
  1988  0622  0DAE               	rlf	___flmul@grs,f
  1989  0623  0DAF               	rlf	___flmul@grs+1,f
  1990  0624  0DB0               	rlf	___flmul@grs+2,f
  1991  0625  0DB1               	rlf	___flmul@grs+3,f
  1992  0626  0BA8               	decfsz	??___flmul,f
  1993  0627  2E21               	goto	u2075
  1994  0628  0820               	movf	___flmul@b,w
  1995  0629  00A8               	movwf	??___flmul
  1996  062A  0828               	movf	??___flmul,w
  1997  062B  00F0               	movwf	__Umul8_16@multiplicand
  1998  062C  0824               	movf	___flmul@a,w
  1999  062D  120A  158A  2594  120A  118A  	fcall	__Umul8_16
  2000  0632  0871               	movf	?__Umul8_16+1,w
  2001  0633  1283               	bcf	3,5	;RP0=0, select bank0
  2002  0634  1303               	bcf	3,6	;RP1=0, select bank0
  2003  0635  00B9               	movwf	___flmul@temp+1
  2004  0636  0870               	movf	?__Umul8_16,w
  2005  0637  00B8               	movwf	___flmul@temp
  2006  0638                     l1839:
  2007  0638  0838               	movf	___flmul@temp,w
  2008  0639  00A8               	movwf	??___flmul
  2009  063A  0839               	movf	___flmul@temp+1,w
  2010  063B  00A9               	movwf	??___flmul+1
  2011  063C  01AA               	clrf	??___flmul+2
  2012  063D  01AB               	clrf	??___flmul+3
  2013  063E  0828               	movf	??___flmul,w
  2014  063F  07AE               	addwf	___flmul@grs,f
  2015  0640  0829               	movf	??___flmul+1,w
  2016  0641  1103               	clrz
  2017  0642  1803               	skipnc
  2018  0643  3E01               	addlw	1
  2019  0644  1903               	skipnz
  2020  0645  2E47               	goto	u2081
  2021  0646  07AF               	addwf	___flmul@grs+1,f
  2022  0647                     u2081:
  2023  0647  082A               	movf	??___flmul+2,w
  2024  0648  1103               	clrz
  2025  0649  1803               	skipnc
  2026  064A  3E01               	addlw	1
  2027  064B  1903               	skipnz
  2028  064C  2E4E               	goto	u2082
  2029  064D  07B0               	addwf	___flmul@grs+2,f
  2030  064E                     u2082:
  2031  064E  082B               	movf	??___flmul+3,w
  2032  064F  1103               	clrz
  2033  0650  1803               	skipnc
  2034  0651  3E01               	addlw	1
  2035  0652  1903               	skipnz
  2036  0653  2E55               	goto	u2083
  2037  0654  07B1               	addwf	___flmul@grs+3,f
  2038  0655                     u2083:
  2039  0655                     l1841:
  2040  0655  0821               	movf	___flmul@b+1,w
  2041  0656  00A8               	movwf	??___flmul
  2042  0657  0828               	movf	??___flmul,w
  2043  0658  00F0               	movwf	__Umul8_16@multiplicand
  2044  0659  0826               	movf	___flmul@a+2,w
  2045  065A  120A  158A  2594  120A  118A  	fcall	__Umul8_16
  2046  065F  0871               	movf	?__Umul8_16+1,w
  2047  0660  1283               	bcf	3,5	;RP0=0, select bank0
  2048  0661  1303               	bcf	3,6	;RP1=0, select bank0
  2049  0662  00B9               	movwf	___flmul@temp+1
  2050  0663  0870               	movf	?__Umul8_16,w
  2051  0664  00B8               	movwf	___flmul@temp
  2052  0665  0838               	movf	___flmul@temp,w
  2053  0666  00A8               	movwf	??___flmul
  2054  0667  0839               	movf	___flmul@temp+1,w
  2055  0668  00A9               	movwf	??___flmul+1
  2056  0669  01AA               	clrf	??___flmul+2
  2057  066A  01AB               	clrf	??___flmul+3
  2058  066B  0828               	movf	??___flmul,w
  2059  066C  07B4               	addwf	___flmul@prod,f
  2060  066D  0829               	movf	??___flmul+1,w
  2061  066E  1103               	clrz
  2062  066F  1803               	skipnc
  2063  0670  3E01               	addlw	1
  2064  0671  1903               	skipnz
  2065  0672  2E74               	goto	u2091
  2066  0673  07B5               	addwf	___flmul@prod+1,f
  2067  0674                     u2091:
  2068  0674  082A               	movf	??___flmul+2,w
  2069  0675  1103               	clrz
  2070  0676  1803               	skipnc
  2071  0677  3E01               	addlw	1
  2072  0678  1903               	skipnz
  2073  0679  2E7B               	goto	u2092
  2074  067A  07B6               	addwf	___flmul@prod+2,f
  2075  067B                     u2092:
  2076  067B  082B               	movf	??___flmul+3,w
  2077  067C  1103               	clrz
  2078  067D  1803               	skipnc
  2079  067E  3E01               	addlw	1
  2080  067F  1903               	skipnz
  2081  0680  2E82               	goto	u2093
  2082  0681  07B7               	addwf	___flmul@prod+3,f
  2083  0682                     u2093:
  2084  0682                     l1843:
  2085  0682  0822               	movf	___flmul@b+2,w
  2086  0683  00A8               	movwf	??___flmul
  2087  0684  0828               	movf	??___flmul,w
  2088  0685  00F0               	movwf	__Umul8_16@multiplicand
  2089  0686  0825               	movf	___flmul@a+1,w
  2090  0687  120A  158A  2594  120A  118A  	fcall	__Umul8_16
  2091  068C  0871               	movf	?__Umul8_16+1,w
  2092  068D  1283               	bcf	3,5	;RP0=0, select bank0
  2093  068E  1303               	bcf	3,6	;RP1=0, select bank0
  2094  068F  00B9               	movwf	___flmul@temp+1
  2095  0690  0870               	movf	?__Umul8_16,w
  2096  0691  00B8               	movwf	___flmul@temp
  2097  0692                     l1845:
  2098  0692  0838               	movf	___flmul@temp,w
  2099  0693  00A8               	movwf	??___flmul
  2100  0694  0839               	movf	___flmul@temp+1,w
  2101  0695  00A9               	movwf	??___flmul+1
  2102  0696  01AA               	clrf	??___flmul+2
  2103  0697  01AB               	clrf	??___flmul+3
  2104  0698  0828               	movf	??___flmul,w
  2105  0699  07B4               	addwf	___flmul@prod,f
  2106  069A  0829               	movf	??___flmul+1,w
  2107  069B  1103               	clrz
  2108  069C  1803               	skipnc
  2109  069D  3E01               	addlw	1
  2110  069E  1903               	skipnz
  2111  069F  2EA1               	goto	u2101
  2112  06A0  07B5               	addwf	___flmul@prod+1,f
  2113  06A1                     u2101:
  2114  06A1  082A               	movf	??___flmul+2,w
  2115  06A2  1103               	clrz
  2116  06A3  1803               	skipnc
  2117  06A4  3E01               	addlw	1
  2118  06A5  1903               	skipnz
  2119  06A6  2EA8               	goto	u2102
  2120  06A7  07B6               	addwf	___flmul@prod+2,f
  2121  06A8                     u2102:
  2122  06A8  082B               	movf	??___flmul+3,w
  2123  06A9  1103               	clrz
  2124  06AA  1803               	skipnc
  2125  06AB  3E01               	addlw	1
  2126  06AC  1903               	skipnz
  2127  06AD  2EAF               	goto	u2103
  2128  06AE  07B7               	addwf	___flmul@prod+3,f
  2129  06AF                     u2103:
  2130  06AF  0822               	movf	___flmul@b+2,w
  2131  06B0  00A8               	movwf	??___flmul
  2132  06B1  0828               	movf	??___flmul,w
  2133  06B2  00F0               	movwf	__Umul8_16@multiplicand
  2134  06B3  0826               	movf	___flmul@a+2,w
  2135  06B4  120A  158A  2594  120A  118A  	fcall	__Umul8_16
  2136  06B9  0871               	movf	?__Umul8_16+1,w
  2137  06BA  1283               	bcf	3,5	;RP0=0, select bank0
  2138  06BB  1303               	bcf	3,6	;RP1=0, select bank0
  2139  06BC  00B9               	movwf	___flmul@temp+1
  2140  06BD  0870               	movf	?__Umul8_16,w
  2141  06BE  00B8               	movwf	___flmul@temp
  2142  06BF                     l1847:
  2143  06BF  0838               	movf	___flmul@temp,w
  2144  06C0  00A8               	movwf	??___flmul
  2145  06C1  0839               	movf	___flmul@temp+1,w
  2146  06C2  00A9               	movwf	??___flmul+1
  2147  06C3  01AA               	clrf	??___flmul+2
  2148  06C4  01AB               	clrf	??___flmul+3
  2149  06C5  3008               	movlw	8
  2150  06C6                     u2115:
  2151  06C6  1003               	clrc
  2152  06C7  0DA8               	rlf	??___flmul,f
  2153  06C8  0DA9               	rlf	??___flmul+1,f
  2154  06C9  0DAA               	rlf	??___flmul+2,f
  2155  06CA  0DAB               	rlf	??___flmul+3,f
  2156  06CB                     u2110:
  2157  06CB  3EFF               	addlw	-1
  2158  06CC  1D03               	skipz
  2159  06CD  2EC6               	goto	u2115
  2160  06CE  0828               	movf	??___flmul,w
  2161  06CF  07B4               	addwf	___flmul@prod,f
  2162  06D0  0829               	movf	??___flmul+1,w
  2163  06D1  1103               	clrz
  2164  06D2  1803               	skipnc
  2165  06D3  3E01               	addlw	1
  2166  06D4  1903               	skipnz
  2167  06D5  2ED7               	goto	u2121
  2168  06D6  07B5               	addwf	___flmul@prod+1,f
  2169  06D7                     u2121:
  2170  06D7  082A               	movf	??___flmul+2,w
  2171  06D8  1103               	clrz
  2172  06D9  1803               	skipnc
  2173  06DA  3E01               	addlw	1
  2174  06DB  1903               	skipnz
  2175  06DC  2EDE               	goto	u2122
  2176  06DD  07B6               	addwf	___flmul@prod+2,f
  2177  06DE                     u2122:
  2178  06DE  082B               	movf	??___flmul+3,w
  2179  06DF  1103               	clrz
  2180  06E0  1803               	skipnc
  2181  06E1  3E01               	addlw	1
  2182  06E2  1903               	skipnz
  2183  06E3  2EE5               	goto	u2123
  2184  06E4  07B7               	addwf	___flmul@prod+3,f
  2185  06E5                     u2123:
  2186  06E5                     l1849:
  2187  06E5  082E               	movf	___flmul@grs,w
  2188  06E6  00A8               	movwf	??___flmul
  2189  06E7  082F               	movf	___flmul@grs+1,w
  2190  06E8  00A9               	movwf	??___flmul+1
  2191  06E9  0830               	movf	___flmul@grs+2,w
  2192  06EA  00AA               	movwf	??___flmul+2
  2193  06EB  0831               	movf	___flmul@grs+3,w
  2194  06EC  00AB               	movwf	??___flmul+3
  2195  06ED  3018               	movlw	24
  2196  06EE                     u2135:
  2197  06EE  1003               	clrc
  2198  06EF  0CAB               	rrf	??___flmul+3,f
  2199  06F0  0CAA               	rrf	??___flmul+2,f
  2200  06F1  0CA9               	rrf	??___flmul+1,f
  2201  06F2  0CA8               	rrf	??___flmul,f
  2202  06F3                     u2130:
  2203  06F3  3EFF               	addlw	-1
  2204  06F4  1D03               	skipz
  2205  06F5  2EEE               	goto	u2135
  2206  06F6  0828               	movf	??___flmul,w
  2207  06F7  07B4               	addwf	___flmul@prod,f
  2208  06F8  0829               	movf	??___flmul+1,w
  2209  06F9  1103               	clrz
  2210  06FA  1803               	skipnc
  2211  06FB  3E01               	addlw	1
  2212  06FC  1903               	skipnz
  2213  06FD  2EFF               	goto	u2141
  2214  06FE  07B5               	addwf	___flmul@prod+1,f
  2215  06FF                     u2141:
  2216  06FF  082A               	movf	??___flmul+2,w
  2217  0700  1103               	clrz
  2218  0701  1803               	skipnc
  2219  0702  3E01               	addlw	1
  2220  0703  1903               	skipnz
  2221  0704  2F06               	goto	u2142
  2222  0705  07B6               	addwf	___flmul@prod+2,f
  2223  0706                     u2142:
  2224  0706  082B               	movf	??___flmul+3,w
  2225  0707  1103               	clrz
  2226  0708  1803               	skipnc
  2227  0709  3E01               	addlw	1
  2228  070A  1903               	skipnz
  2229  070B  2F0D               	goto	u2143
  2230  070C  07B7               	addwf	___flmul@prod+3,f
  2231  070D                     u2143:
  2232  070D                     l1851:
  2233  070D  3008               	movlw	8
  2234  070E  00A8               	movwf	??___flmul
  2235  070F                     u2155:
  2236  070F  1003               	clrc
  2237  0710  0DAE               	rlf	___flmul@grs,f
  2238  0711  0DAF               	rlf	___flmul@grs+1,f
  2239  0712  0DB0               	rlf	___flmul@grs+2,f
  2240  0713  0DB1               	rlf	___flmul@grs+3,f
  2241  0714  0BA8               	decfsz	??___flmul,f
  2242  0715  2F0F               	goto	u2155
  2243  0716                     l1853:
  2244  0716  0833               	movf	___flmul@bexp,w
  2245  0717  0732               	addwf	___flmul@aexp,w
  2246  0718  00A8               	movwf	??___flmul
  2247  0719  01A9               	clrf	??___flmul+1
  2248  071A  0DA9               	rlf	??___flmul+1,f
  2249  071B  0828               	movf	??___flmul,w
  2250  071C  3E82               	addlw	130
  2251  071D  00B8               	movwf	___flmul@temp
  2252  071E  0829               	movf	??___flmul+1,w
  2253  071F  1803               	skipnc
  2254  0720  3E01               	addlw	1
  2255  0721  3EFF               	addlw	255
  2256  0722  00B9               	movwf	___flmul@temp+1
  2257  0723  2F41               	goto	l1865
  2258  0724                     l1855:
  2259  0724  3001               	movlw	1
  2260  0725  00A8               	movwf	??___flmul
  2261  0726                     u2165:
  2262  0726  1003               	clrc
  2263  0727  0DB4               	rlf	___flmul@prod,f
  2264  0728  0DB5               	rlf	___flmul@prod+1,f
  2265  0729  0DB6               	rlf	___flmul@prod+2,f
  2266  072A  0DB7               	rlf	___flmul@prod+3,f
  2267  072B  0BA8               	decfsz	??___flmul,f
  2268  072C  2F26               	goto	u2165
  2269  072D                     l1857:
  2270  072D  1FB1               	btfss	___flmul@grs+3,7
  2271  072E  2F30               	goto	u2171
  2272  072F  2F31               	goto	u2170
  2273  0730                     u2171:
  2274  0730  2F32               	goto	l1861
  2275  0731                     u2170:
  2276  0731                     l1859:
  2277  0731  1434               	bsf	___flmul@prod,0
  2278  0732                     l1861:
  2279  0732  3001               	movlw	1
  2280  0733  00A8               	movwf	??___flmul
  2281  0734                     u2185:
  2282  0734  1003               	clrc
  2283  0735  0DAE               	rlf	___flmul@grs,f
  2284  0736  0DAF               	rlf	___flmul@grs+1,f
  2285  0737  0DB0               	rlf	___flmul@grs+2,f
  2286  0738  0DB1               	rlf	___flmul@grs+3,f
  2287  0739  0BA8               	decfsz	??___flmul,f
  2288  073A  2F34               	goto	u2185
  2289  073B                     l1863:
  2290  073B  30FF               	movlw	255
  2291  073C  07B8               	addwf	___flmul@temp,f
  2292  073D  1803               	skipnc
  2293  073E  0AB9               	incf	___flmul@temp+1,f
  2294  073F  30FF               	movlw	255
  2295  0740  07B9               	addwf	___flmul@temp+1,f
  2296  0741                     l1865:
  2297  0741  1FB6               	btfss	___flmul@prod+2,7
  2298  0742  2F44               	goto	u2191
  2299  0743  2F45               	goto	u2190
  2300  0744                     u2191:
  2301  0744  2F24               	goto	l1855
  2302  0745                     u2190:
  2303  0745                     l1867:
  2304  0745  01B2               	clrf	___flmul@aexp
  2305  0746                     l1869:
  2306  0746  1FB1               	btfss	___flmul@grs+3,7
  2307  0747  2F49               	goto	u2201
  2308  0748  2F4A               	goto	u2200
  2309  0749                     u2201:
  2310  0749  2F66               	goto	l1877
  2311  074A                     u2200:
  2312  074A                     l1871:
  2313  074A  30FF               	movlw	255
  2314  074B  052E               	andwf	___flmul@grs,w
  2315  074C  00A8               	movwf	??___flmul
  2316  074D  30FF               	movlw	255
  2317  074E  052F               	andwf	___flmul@grs+1,w
  2318  074F  00A9               	movwf	??___flmul+1
  2319  0750  30FF               	movlw	255
  2320  0751  0530               	andwf	___flmul@grs+2,w
  2321  0752  00AA               	movwf	??___flmul+2
  2322  0753  307F               	movlw	127
  2323  0754  0531               	andwf	___flmul@grs+3,w
  2324  0755  00AB               	movwf	??___flmul+3
  2325  0756  082B               	movf	??___flmul+3,w
  2326  0757  042A               	iorwf	??___flmul+2,w
  2327  0758  0429               	iorwf	??___flmul+1,w
  2328  0759  0428               	iorwf	??___flmul,w
  2329  075A  1903               	skipnz
  2330  075B  2F5D               	goto	u2211
  2331  075C  2F5E               	goto	u2210
  2332  075D                     u2211:
  2333  075D  2F61               	goto	l612
  2334  075E                     u2210:
  2335  075E                     l1873:
  2336  075E  01B2               	clrf	___flmul@aexp
  2337  075F  0AB2               	incf	___flmul@aexp,f
  2338  0760  2F66               	goto	l1877
  2339  0761                     l612:
  2340  0761  1C34               	btfss	___flmul@prod,0
  2341  0762  2F64               	goto	u2221
  2342  0763  2F65               	goto	u2220
  2343  0764                     u2221:
  2344  0764  2F66               	goto	l1877
  2345  0765                     u2220:
  2346  0765  2F5E               	goto	l1873
  2347  0766                     l1877:
  2348  0766  0832               	movf	___flmul@aexp,w
  2349  0767  1903               	btfsc	3,2
  2350  0768  2F6A               	goto	u2231
  2351  0769  2F6B               	goto	u2230
  2352  076A                     u2231:
  2353  076A  2F9C               	goto	l1887
  2354  076B                     u2230:
  2355  076B                     l1879:
  2356  076B  3001               	movlw	1
  2357  076C  07B4               	addwf	___flmul@prod,f
  2358  076D  3000               	movlw	0
  2359  076E  1803               	skipnc
  2360  076F  3001               	movlw	1
  2361  0770  07B5               	addwf	___flmul@prod+1,f
  2362  0771  3000               	movlw	0
  2363  0772  1803               	skipnc
  2364  0773  3001               	movlw	1
  2365  0774  07B6               	addwf	___flmul@prod+2,f
  2366  0775  3000               	movlw	0
  2367  0776  1803               	skipnc
  2368  0777  3001               	movlw	1
  2369  0778  07B7               	addwf	___flmul@prod+3,f
  2370  0779                     l1881:
  2371  0779  1C37               	btfss	___flmul@prod+3,0
  2372  077A  2F7C               	goto	u2241
  2373  077B  2F7D               	goto	u2240
  2374  077C                     u2241:
  2375  077C  2F9C               	goto	l1887
  2376  077D                     u2240:
  2377  077D                     l1883:
  2378  077D  0834               	movf	___flmul@prod,w
  2379  077E  00A8               	movwf	??___flmul
  2380  077F  0835               	movf	___flmul@prod+1,w
  2381  0780  00A9               	movwf	??___flmul+1
  2382  0781  0836               	movf	___flmul@prod+2,w
  2383  0782  00AA               	movwf	??___flmul+2
  2384  0783  0837               	movf	___flmul@prod+3,w
  2385  0784  00AB               	movwf	??___flmul+3
  2386  0785  3001               	movlw	1
  2387  0786  00AC               	movwf	??___flmul+4
  2388  0787                     u2255:
  2389  0787  0D2B               	rlf	??___flmul+3,w
  2390  0788  0CAB               	rrf	??___flmul+3,f
  2391  0789  0CAA               	rrf	??___flmul+2,f
  2392  078A  0CA9               	rrf	??___flmul+1,f
  2393  078B  0CA8               	rrf	??___flmul,f
  2394  078C                     u2250:
  2395  078C  0BAC               	decfsz	??___flmul+4,f
  2396  078D  2F87               	goto	u2255
  2397  078E  082B               	movf	??___flmul+3,w
  2398  078F  00B7               	movwf	___flmul@prod+3
  2399  0790  082A               	movf	??___flmul+2,w
  2400  0791  00B6               	movwf	___flmul@prod+2
  2401  0792  0829               	movf	??___flmul+1,w
  2402  0793  00B5               	movwf	___flmul@prod+1
  2403  0794  0828               	movf	??___flmul,w
  2404  0795  00B4               	movwf	___flmul@prod
  2405  0796                     l1885:
  2406  0796  3001               	movlw	1
  2407  0797  07B8               	addwf	___flmul@temp,f
  2408  0798  1803               	skipnc
  2409  0799  0AB9               	incf	___flmul@temp+1,f
  2410  079A  3000               	movlw	0
  2411  079B  07B9               	addwf	___flmul@temp+1,f
  2412  079C                     l1887:
  2413  079C  0839               	movf	___flmul@temp+1,w
  2414  079D  3A80               	xorlw	128
  2415  079E  00FF               	movwf	btemp+1
  2416  079F  3080               	movlw	128
  2417  07A0  027F               	subwf	btemp+1,w
  2418  07A1  1D03               	skipz
  2419  07A2  2FA5               	goto	u2265
  2420  07A3  30FF               	movlw	255
  2421  07A4  0238               	subwf	___flmul@temp,w
  2422  07A5                     u2265:
  2423  07A5  1C03               	skipc
  2424  07A6  2FA8               	goto	u2261
  2425  07A7  2FA9               	goto	u2260
  2426  07A8                     u2261:
  2427  07A8  2FB4               	goto	l1891
  2428  07A9                     u2260:
  2429  07A9                     l1889:
  2430  07A9  307F               	movlw	127
  2431  07AA  1283               	bcf	3,5	;RP0=0, select bank0
  2432  07AB  1303               	bcf	3,6	;RP1=0, select bank0
  2433  07AC  00B7               	movwf	___flmul@prod+3
  2434  07AD  3080               	movlw	128
  2435  07AE  00B6               	movwf	___flmul@prod+2
  2436  07AF  3000               	movlw	0
  2437  07B0  00B5               	movwf	___flmul@prod+1
  2438  07B1  3000               	movlw	0
  2439  07B2  00B4               	movwf	___flmul@prod
  2440  07B3  2FE9               	goto	l618
  2441  07B4                     l1891:
  2442  07B4  1283               	bcf	3,5	;RP0=0, select bank0
  2443  07B5  1303               	bcf	3,6	;RP1=0, select bank0
  2444  07B6  0839               	movf	___flmul@temp+1,w
  2445  07B7  3A80               	xorlw	128
  2446  07B8  00FF               	movwf	btemp+1
  2447  07B9  3080               	movlw	128
  2448  07BA  027F               	subwf	btemp+1,w
  2449  07BB  1D03               	skipz
  2450  07BC  2FBF               	goto	u2275
  2451  07BD  3001               	movlw	1
  2452  07BE  0238               	subwf	___flmul@temp,w
  2453  07BF                     u2275:
  2454  07BF  1803               	skipnc
  2455  07C0  2FC2               	goto	u2271
  2456  07C1  2FC3               	goto	u2270
  2457  07C2                     u2271:
  2458  07C2  2FCF               	goto	l1897
  2459  07C3                     u2270:
  2460  07C3                     l1893:
  2461  07C3  3000               	movlw	0
  2462  07C4  1283               	bcf	3,5	;RP0=0, select bank0
  2463  07C5  1303               	bcf	3,6	;RP1=0, select bank0
  2464  07C6  00B7               	movwf	___flmul@prod+3
  2465  07C7  3000               	movlw	0
  2466  07C8  00B6               	movwf	___flmul@prod+2
  2467  07C9  3000               	movlw	0
  2468  07CA  00B5               	movwf	___flmul@prod+1
  2469  07CB  3000               	movlw	0
  2470  07CC  00B4               	movwf	___flmul@prod
  2471  07CD                     l1895:
  2472  07CD  01AD               	clrf	___flmul@sign
  2473  07CE  2FE9               	goto	l618
  2474  07CF                     l1897:
  2475  07CF  1283               	bcf	3,5	;RP0=0, select bank0
  2476  07D0  1303               	bcf	3,6	;RP1=0, select bank0
  2477  07D1  0838               	movf	___flmul@temp,w
  2478  07D2  00A8               	movwf	??___flmul
  2479  07D3  0828               	movf	??___flmul,w
  2480  07D4  00B3               	movwf	___flmul@bexp
  2481  07D5  30FF               	movlw	255
  2482  07D6  05B4               	andwf	___flmul@prod,f
  2483  07D7  30FF               	movlw	255
  2484  07D8  05B5               	andwf	___flmul@prod+1,f
  2485  07D9  307F               	movlw	127
  2486  07DA  05B6               	andwf	___flmul@prod+2,f
  2487  07DB  3000               	movlw	0
  2488  07DC  05B7               	andwf	___flmul@prod+3,f
  2489  07DD                     l1899:
  2490  07DD  1C33               	btfss	___flmul@bexp,0
  2491  07DE  2FE0               	goto	u2281
  2492  07DF  2FE1               	goto	u2280
  2493  07E0                     u2281:
  2494  07E0  2FE2               	goto	l1903
  2495  07E1                     u2280:
  2496  07E1                     l1901:
  2497  07E1  17B6               	bsf	___flmul@prod+2,7
  2498  07E2                     l1903:
  2499  07E2  0833               	movf	___flmul@bexp,w
  2500  07E3  00A8               	movwf	??___flmul
  2501  07E4  1003               	clrc
  2502  07E5  0C28               	rrf	??___flmul,w
  2503  07E6  00A9               	movwf	??___flmul+1
  2504  07E7  0829               	movf	??___flmul+1,w
  2505  07E8  00B7               	movwf	___flmul@prod+3
  2506  07E9                     l618:
  2507  07E9  082D               	movf	___flmul@sign,w
  2508  07EA  00A8               	movwf	??___flmul
  2509  07EB  0828               	movf	??___flmul,w
  2510  07EC  04B7               	iorwf	___flmul@prod+3,f
  2511  07ED                     l1905:
  2512  07ED  0837               	movf	___flmul@prod+3,w
  2513  07EE  00A3               	movwf	?___flmul+3
  2514  07EF  0836               	movf	___flmul@prod+2,w
  2515  07F0  00A2               	movwf	?___flmul+2
  2516  07F1  0835               	movf	___flmul@prod+1,w
  2517  07F2  00A1               	movwf	?___flmul+1
  2518  07F3  0834               	movf	___flmul@prod,w
  2519  07F4  00A0               	movwf	?___flmul
  2520  07F5                     l606:
  2521  07F5  0008               	return
  2522  07F6                     __end_of___flmul:
  2523                           
  2524                           	psect	text4
  2525  0D94                     __ptext4:	
  2526 ;; *************** function __Umul8_16 *****************
  2527 ;; Defined at:
  2528 ;;		line 4 in file "C:\Program Files\Microchip\xc8\v2.30\pic\sources\c90\common\Umul8_16.c"
  2529 ;; Parameters:    Size  Location     Type
  2530 ;;  multiplier      1    wreg     unsigned char 
  2531 ;;  multiplicand    1    0[COMMON] unsigned char 
  2532 ;; Auto vars:     Size  Location     Type
  2533 ;;  multiplier      1    8[COMMON] unsigned char 
  2534 ;;  word_mpld       2    6[COMMON] unsigned int 
  2535 ;;  product         2    4[COMMON] unsigned int 
  2536 ;; Return value:  Size  Location     Type
  2537 ;;                  2    0[COMMON] unsigned int 
  2538 ;; Registers used:
  2539 ;;		wreg, status,2, status,0
  2540 ;; Tracked objects:
  2541 ;;		On entry : 0/0
  2542 ;;		On exit  : 0/0
  2543 ;;		Unchanged: 0/0
  2544 ;; Data sizes:     COMMON   BANK0   BANK1   BANK3   BANK2
  2545 ;;      Params:         2       0       0       0       0
  2546 ;;      Locals:         5       0       0       0       0
  2547 ;;      Temps:          2       0       0       0       0
  2548 ;;      Totals:         9       0       0       0       0
  2549 ;;Total ram usage:        9 bytes
  2550 ;; Hardware stack levels used:    1
  2551 ;; This function calls:
  2552 ;;		Nothing
  2553 ;; This function is called by:
  2554 ;;		___flmul
  2555 ;; This function uses a non-reentrant model
  2556 ;;
  2557                           
  2558                           
  2559                           ;psect for function __Umul8_16
  2560  0D94                     __Umul8_16:
  2561                           
  2562                           ;incstack = 0
  2563                           ; Regs used in __Umul8_16: [wreg+status,2+status,0]
  2564                           ;__Umul8_16@multiplier stored from wreg
  2565  0D94  00F8               	movwf	__Umul8_16@multiplier
  2566  0D95                     l1459:
  2567  0D95  01F4               	clrf	__Umul8_16@product
  2568  0D96  01F5               	clrf	__Umul8_16@product+1
  2569  0D97                     l1461:
  2570  0D97  0870               	movf	__Umul8_16@multiplicand,w
  2571  0D98  00F2               	movwf	??__Umul8_16
  2572  0D99  01F3               	clrf	??__Umul8_16+1
  2573  0D9A  0872               	movf	??__Umul8_16,w
  2574  0D9B  00F6               	movwf	__Umul8_16@word_mpld
  2575  0D9C  0873               	movf	??__Umul8_16+1,w
  2576  0D9D  00F7               	movwf	__Umul8_16@word_mpld+1
  2577  0D9E                     l1463:
  2578  0D9E  1C78               	btfss	__Umul8_16@multiplier,0
  2579  0D9F  2DA1               	goto	u1401
  2580  0DA0  2DA2               	goto	u1400
  2581  0DA1                     u1401:
  2582  0DA1  2DA8               	goto	l625
  2583  0DA2                     u1400:
  2584  0DA2                     l1465:
  2585  0DA2  0876               	movf	__Umul8_16@word_mpld,w
  2586  0DA3  07F4               	addwf	__Umul8_16@product,f
  2587  0DA4  1803               	skipnc
  2588  0DA5  0AF5               	incf	__Umul8_16@product+1,f
  2589  0DA6  0877               	movf	__Umul8_16@word_mpld+1,w
  2590  0DA7  07F5               	addwf	__Umul8_16@product+1,f
  2591  0DA8                     l625:
  2592  0DA8  3001               	movlw	1
  2593  0DA9                     u1415:
  2594  0DA9  1003               	clrc
  2595  0DAA  0DF6               	rlf	__Umul8_16@word_mpld,f
  2596  0DAB  0DF7               	rlf	__Umul8_16@word_mpld+1,f
  2597  0DAC  3EFF               	addlw	-1
  2598  0DAD  1D03               	skipz
  2599  0DAE  2DA9               	goto	u1415
  2600  0DAF  1003               	clrc
  2601  0DB0  0CF8               	rrf	__Umul8_16@multiplier,f
  2602  0DB1                     l1467:
  2603  0DB1  0878               	movf	__Umul8_16@multiplier,w
  2604  0DB2  1D03               	btfss	3,2
  2605  0DB3  2DB5               	goto	u1421
  2606  0DB4  2DB6               	goto	u1420
  2607  0DB5                     u1421:
  2608  0DB5  2D9E               	goto	l1463
  2609  0DB6                     u1420:
  2610  0DB6                     l1469:
  2611  0DB6  0875               	movf	__Umul8_16@product+1,w
  2612  0DB7  00F1               	movwf	?__Umul8_16+1
  2613  0DB8  0874               	movf	__Umul8_16@product,w
  2614  0DB9  00F0               	movwf	?__Umul8_16
  2615  0DBA                     l627:
  2616  0DBA  0008               	return
  2617  0DBB                     __end_of__Umul8_16:
  2618                           
  2619                           	psect	text5
  2620  02B8                     __ptext5:	
  2621 ;; *************** function ___fldiv *****************
  2622 ;; Defined at:
  2623 ;;		line 8 in file "C:\Program Files\Microchip\xc8\v2.30\pic\sources\c90\common\sprcdiv.c"
  2624 ;; Parameters:    Size  Location     Type
  2625 ;;  a               4   26[BANK0 ] unsigned int 
  2626 ;;  b               4   30[BANK0 ] unsigned int 
  2627 ;; Auto vars:     Size  Location     Type
  2628 ;;  grs             4   46[BANK0 ] unsigned long 
  2629 ;;  rem             4   39[BANK0 ] unsigned long 
  2630 ;;  new_exp         2   44[BANK0 ] int 
  2631 ;;  aexp            1   51[BANK0 ] unsigned char 
  2632 ;;  bexp            1   50[BANK0 ] unsigned char 
  2633 ;;  sign            1   43[BANK0 ] unsigned char 
  2634 ;; Return value:  Size  Location     Type
  2635 ;;                  4   26[BANK0 ] unsigned char 
  2636 ;; Registers used:
  2637 ;;		wreg, status,2, status,0, btemp+1
  2638 ;; Tracked objects:
  2639 ;;		On entry : 0/0
  2640 ;;		On exit  : 0/0
  2641 ;;		Unchanged: 0/0
  2642 ;; Data sizes:     COMMON   BANK0   BANK1   BANK3   BANK2
  2643 ;;      Params:         0       8       0       0       0
  2644 ;;      Locals:         0      13       0       0       0
  2645 ;;      Temps:          0       5       0       0       0
  2646 ;;      Totals:         0      26       0       0       0
  2647 ;;Total ram usage:       26 bytes
  2648 ;; Hardware stack levels used:    1
  2649 ;; This function calls:
  2650 ;;		Nothing
  2651 ;; This function is called by:
  2652 ;;		_main
  2653 ;; This function uses a non-reentrant model
  2654 ;;
  2655                           
  2656                           
  2657                           ;psect for function ___fldiv
  2658  02B8                     ___fldiv:
  2659  02B8                     l1627:	
  2660                           ;incstack = 0
  2661                           ; Regs used in ___fldiv: [wreg+status,2+status,0+btemp+1]
  2662                           
  2663  02B8  1283               	bcf	3,5	;RP0=0, select bank0
  2664  02B9  1303               	bcf	3,6	;RP1=0, select bank0
  2665  02BA  0841               	movf	___fldiv@b+3,w
  2666  02BB  3980               	andlw	128
  2667  02BC  00C2               	movwf	??___fldiv
  2668  02BD  0842               	movf	??___fldiv,w
  2669  02BE  00CB               	movwf	___fldiv@sign
  2670  02BF                     l1629:
  2671  02BF  0841               	movf	___fldiv@b+3,w
  2672  02C0  00C2               	movwf	??___fldiv
  2673  02C1  0742               	addwf	??___fldiv,w
  2674  02C2  00C3               	movwf	??___fldiv+1
  2675  02C3  0843               	movf	??___fldiv+1,w
  2676  02C4  00D2               	movwf	___fldiv@bexp
  2677  02C5                     l1631:
  2678  02C5  1FC0               	btfss	___fldiv@b+2,7
  2679  02C6  2AC8               	goto	u1631
  2680  02C7  2AC9               	goto	u1630
  2681  02C8                     u1631:
  2682  02C8  2ACA               	goto	l1635
  2683  02C9                     u1630:
  2684  02C9                     l1633:
  2685  02C9  1452               	bsf	___fldiv@bexp,0
  2686  02CA                     l1635:
  2687  02CA  0852               	movf	___fldiv@bexp,w
  2688  02CB  1903               	btfsc	3,2
  2689  02CC  2ACE               	goto	u1641
  2690  02CD  2ACF               	goto	u1640
  2691  02CE                     u1641:
  2692  02CE  2ADF               	goto	l1645
  2693  02CF                     u1640:
  2694  02CF                     l1637:
  2695  02CF  0A52               	incf	___fldiv@bexp,w
  2696  02D0  1D03               	btfss	3,2
  2697  02D1  2AD3               	goto	u1651
  2698  02D2  2AD4               	goto	u1650
  2699  02D3                     u1651:
  2700  02D3  2ADC               	goto	l1641
  2701  02D4                     u1650:
  2702  02D4                     l1639:
  2703  02D4  3000               	movlw	0
  2704  02D5  00C1               	movwf	___fldiv@b+3
  2705  02D6  3000               	movlw	0
  2706  02D7  00C0               	movwf	___fldiv@b+2
  2707  02D8  3000               	movlw	0
  2708  02D9  00BF               	movwf	___fldiv@b+1
  2709  02DA  3000               	movlw	0
  2710  02DB  00BE               	movwf	___fldiv@b
  2711  02DC                     l1641:
  2712  02DC  17C0               	bsf	___fldiv@b+2,7
  2713  02DD                     l1643:
  2714  02DD  01C1               	clrf	___fldiv@b+3
  2715  02DE  2AE7               	goto	l1647
  2716  02DF                     l1645:
  2717  02DF  3000               	movlw	0
  2718  02E0  00C1               	movwf	___fldiv@b+3
  2719  02E1  3000               	movlw	0
  2720  02E2  00C0               	movwf	___fldiv@b+2
  2721  02E3  3000               	movlw	0
  2722  02E4  00BF               	movwf	___fldiv@b+1
  2723  02E5  3000               	movlw	0
  2724  02E6  00BE               	movwf	___fldiv@b
  2725  02E7                     l1647:
  2726  02E7  083D               	movf	___fldiv@a+3,w
  2727  02E8  3980               	andlw	128
  2728  02E9  00C2               	movwf	??___fldiv
  2729  02EA  0842               	movf	??___fldiv,w
  2730  02EB  06CB               	xorwf	___fldiv@sign,f
  2731  02EC                     l1649:
  2732  02EC  083D               	movf	___fldiv@a+3,w
  2733  02ED  00C2               	movwf	??___fldiv
  2734  02EE  0742               	addwf	??___fldiv,w
  2735  02EF  00C3               	movwf	??___fldiv+1
  2736  02F0  0843               	movf	??___fldiv+1,w
  2737  02F1  00D3               	movwf	___fldiv@aexp
  2738  02F2                     l1651:
  2739  02F2  1FBC               	btfss	___fldiv@a+2,7
  2740  02F3  2AF5               	goto	u1661
  2741  02F4  2AF6               	goto	u1660
  2742  02F5                     u1661:
  2743  02F5  2AF7               	goto	l1655
  2744  02F6                     u1660:
  2745  02F6                     l1653:
  2746  02F6  1453               	bsf	___fldiv@aexp,0
  2747  02F7                     l1655:
  2748  02F7  0853               	movf	___fldiv@aexp,w
  2749  02F8  1903               	btfsc	3,2
  2750  02F9  2AFB               	goto	u1671
  2751  02FA  2AFC               	goto	u1670
  2752  02FB                     u1671:
  2753  02FB  2B0C               	goto	l1665
  2754  02FC                     u1670:
  2755  02FC                     l1657:
  2756  02FC  0A53               	incf	___fldiv@aexp,w
  2757  02FD  1D03               	btfss	3,2
  2758  02FE  2B00               	goto	u1681
  2759  02FF  2B01               	goto	u1680
  2760  0300                     u1681:
  2761  0300  2B09               	goto	l1661
  2762  0301                     u1680:
  2763  0301                     l1659:
  2764  0301  3000               	movlw	0
  2765  0302  00BD               	movwf	___fldiv@a+3
  2766  0303  3000               	movlw	0
  2767  0304  00BC               	movwf	___fldiv@a+2
  2768  0305  3000               	movlw	0
  2769  0306  00BB               	movwf	___fldiv@a+1
  2770  0307  3000               	movlw	0
  2771  0308  00BA               	movwf	___fldiv@a
  2772  0309                     l1661:
  2773  0309  17BC               	bsf	___fldiv@a+2,7
  2774  030A                     l1663:
  2775  030A  01BD               	clrf	___fldiv@a+3
  2776  030B  2B14               	goto	l566
  2777  030C                     l1665:
  2778  030C  3000               	movlw	0
  2779  030D  00BD               	movwf	___fldiv@a+3
  2780  030E  3000               	movlw	0
  2781  030F  00BC               	movwf	___fldiv@a+2
  2782  0310  3000               	movlw	0
  2783  0311  00BB               	movwf	___fldiv@a+1
  2784  0312  3000               	movlw	0
  2785  0313  00BA               	movwf	___fldiv@a
  2786  0314                     l566:
  2787  0314  083D               	movf	___fldiv@a+3,w
  2788  0315  043C               	iorwf	___fldiv@a+2,w
  2789  0316  043B               	iorwf	___fldiv@a+1,w
  2790  0317  043A               	iorwf	___fldiv@a,w
  2791  0318  1D03               	skipz
  2792  0319  2B1B               	goto	u1691
  2793  031A  2B1C               	goto	u1690
  2794  031B                     u1691:
  2795  031B  2B35               	goto	l1675
  2796  031C                     u1690:
  2797  031C                     l1667:
  2798  031C  3000               	movlw	0
  2799  031D  00C1               	movwf	___fldiv@b+3
  2800  031E  3000               	movlw	0
  2801  031F  00C0               	movwf	___fldiv@b+2
  2802  0320  3000               	movlw	0
  2803  0321  00BF               	movwf	___fldiv@b+1
  2804  0322  3000               	movlw	0
  2805  0323  00BE               	movwf	___fldiv@b
  2806  0324  3080               	movlw	128
  2807  0325  04C0               	iorwf	___fldiv@b+2,f
  2808  0326  307F               	movlw	127
  2809  0327  04C1               	iorwf	___fldiv@b+3,f
  2810  0328                     l1669:
  2811  0328  084B               	movf	___fldiv@sign,w
  2812  0329  00C2               	movwf	??___fldiv
  2813  032A  0842               	movf	??___fldiv,w
  2814  032B  04C1               	iorwf	___fldiv@b+3,f
  2815  032C                     l1671:
  2816  032C  0841               	movf	___fldiv@b+3,w
  2817  032D  00BD               	movwf	?___fldiv+3
  2818  032E  0840               	movf	___fldiv@b+2,w
  2819  032F  00BC               	movwf	?___fldiv+2
  2820  0330  083F               	movf	___fldiv@b+1,w
  2821  0331  00BB               	movwf	?___fldiv+1
  2822  0332  083E               	movf	___fldiv@b,w
  2823  0333  00BA               	movwf	?___fldiv
  2824  0334  2C94               	goto	l568
  2825  0335                     l1675:
  2826  0335  0852               	movf	___fldiv@bexp,w
  2827  0336  1D03               	btfss	3,2
  2828  0337  2B39               	goto	u1701
  2829  0338  2B3A               	goto	u1700
  2830  0339                     u1701:
  2831  0339  2B43               	goto	l1681
  2832  033A                     u1700:
  2833  033A                     l1677:
  2834  033A  3000               	movlw	0
  2835  033B  00BD               	movwf	?___fldiv+3
  2836  033C  3000               	movlw	0
  2837  033D  00BC               	movwf	?___fldiv+2
  2838  033E  3000               	movlw	0
  2839  033F  00BB               	movwf	?___fldiv+1
  2840  0340  3000               	movlw	0
  2841  0341  00BA               	movwf	?___fldiv
  2842  0342  2C94               	goto	l568
  2843  0343                     l1681:
  2844  0343  0852               	movf	___fldiv@bexp,w
  2845  0344  00C2               	movwf	??___fldiv
  2846  0345  01C3               	clrf	??___fldiv+1
  2847  0346  0843               	movf	??___fldiv+1,w
  2848  0347  00C5               	movwf	??___fldiv+3
  2849  0348  0853               	movf	___fldiv@aexp,w
  2850  0349  0242               	subwf	??___fldiv,w
  2851  034A  00C4               	movwf	??___fldiv+2
  2852  034B  1C03               	skipc
  2853  034C  03C5               	decf	??___fldiv+3,f
  2854  034D  0844               	movf	??___fldiv+2,w
  2855  034E  3E7F               	addlw	127
  2856  034F  00CC               	movwf	___fldiv@new_exp
  2857  0350  0845               	movf	??___fldiv+3,w
  2858  0351  1803               	skipnc
  2859  0352  3E01               	addlw	1
  2860  0353  3E00               	addlw	0
  2861  0354  00CD               	movwf	___fldiv@new_exp+1
  2862  0355                     l1683:
  2863  0355  0841               	movf	___fldiv@b+3,w
  2864  0356  00CA               	movwf	___fldiv@rem+3
  2865  0357  0840               	movf	___fldiv@b+2,w
  2866  0358  00C9               	movwf	___fldiv@rem+2
  2867  0359  083F               	movf	___fldiv@b+1,w
  2868  035A  00C8               	movwf	___fldiv@rem+1
  2869  035B  083E               	movf	___fldiv@b,w
  2870  035C  00C7               	movwf	___fldiv@rem
  2871  035D                     l1685:
  2872  035D  3000               	movlw	0
  2873  035E  00C1               	movwf	___fldiv@b+3
  2874  035F  3000               	movlw	0
  2875  0360  00C0               	movwf	___fldiv@b+2
  2876  0361  3000               	movlw	0
  2877  0362  00BF               	movwf	___fldiv@b+1
  2878  0363  3000               	movlw	0
  2879  0364  00BE               	movwf	___fldiv@b
  2880  0365                     l1687:
  2881  0365  3000               	movlw	0
  2882  0366  00D1               	movwf	___fldiv@grs+3
  2883  0367  3000               	movlw	0
  2884  0368  00D0               	movwf	___fldiv@grs+2
  2885  0369  3000               	movlw	0
  2886  036A  00CF               	movwf	___fldiv@grs+1
  2887  036B  3000               	movlw	0
  2888  036C  00CE               	movwf	___fldiv@grs
  2889  036D                     l1689:
  2890  036D  01D3               	clrf	___fldiv@aexp
  2891  036E  2BB9               	goto	l1709
  2892  036F                     l1691:
  2893  036F  0853               	movf	___fldiv@aexp,w
  2894  0370  1903               	btfsc	3,2
  2895  0371  2B73               	goto	u1711
  2896  0372  2B74               	goto	u1710
  2897  0373                     u1711:
  2898  0373  2B94               	goto	l1701
  2899  0374                     u1710:
  2900  0374                     l1693:
  2901  0374  3001               	movlw	1
  2902  0375  00C2               	movwf	??___fldiv
  2903  0376                     u1725:
  2904  0376  1003               	clrc
  2905  0377  0DC7               	rlf	___fldiv@rem,f
  2906  0378  0DC8               	rlf	___fldiv@rem+1,f
  2907  0379  0DC9               	rlf	___fldiv@rem+2,f
  2908  037A  0DCA               	rlf	___fldiv@rem+3,f
  2909  037B  0BC2               	decfsz	??___fldiv,f
  2910  037C  2B76               	goto	u1725
  2911  037D  3001               	movlw	1
  2912  037E  00C2               	movwf	??___fldiv
  2913  037F                     u1735:
  2914  037F  1003               	clrc
  2915  0380  0DBE               	rlf	___fldiv@b,f
  2916  0381  0DBF               	rlf	___fldiv@b+1,f
  2917  0382  0DC0               	rlf	___fldiv@b+2,f
  2918  0383  0DC1               	rlf	___fldiv@b+3,f
  2919  0384  0BC2               	decfsz	??___fldiv,f
  2920  0385  2B7F               	goto	u1735
  2921  0386                     l1695:
  2922  0386  1FD1               	btfss	___fldiv@grs+3,7
  2923  0387  2B89               	goto	u1741
  2924  0388  2B8A               	goto	u1740
  2925  0389                     u1741:
  2926  0389  2B8B               	goto	l1699
  2927  038A                     u1740:
  2928  038A                     l1697:
  2929  038A  143E               	bsf	___fldiv@b,0
  2930  038B                     l1699:
  2931  038B  3001               	movlw	1
  2932  038C  00C2               	movwf	??___fldiv
  2933  038D                     u1755:
  2934  038D  1003               	clrc
  2935  038E  0DCE               	rlf	___fldiv@grs,f
  2936  038F  0DCF               	rlf	___fldiv@grs+1,f
  2937  0390  0DD0               	rlf	___fldiv@grs+2,f
  2938  0391  0DD1               	rlf	___fldiv@grs+3,f
  2939  0392  0BC2               	decfsz	??___fldiv,f
  2940  0393  2B8D               	goto	u1755
  2941  0394                     l1701:
  2942  0394  083D               	movf	___fldiv@a+3,w
  2943  0395  024A               	subwf	___fldiv@rem+3,w
  2944  0396  1D03               	skipz
  2945  0397  2BA2               	goto	u1765
  2946  0398  083C               	movf	___fldiv@a+2,w
  2947  0399  0249               	subwf	___fldiv@rem+2,w
  2948  039A  1D03               	skipz
  2949  039B  2BA2               	goto	u1765
  2950  039C  083B               	movf	___fldiv@a+1,w
  2951  039D  0248               	subwf	___fldiv@rem+1,w
  2952  039E  1D03               	skipz
  2953  039F  2BA2               	goto	u1765
  2954  03A0  083A               	movf	___fldiv@a,w
  2955  03A1  0247               	subwf	___fldiv@rem,w
  2956  03A2                     u1765:
  2957  03A2  1C03               	skipc
  2958  03A3  2BA5               	goto	u1761
  2959  03A4  2BA6               	goto	u1760
  2960  03A5                     u1761:
  2961  03A5  2BB5               	goto	l1707
  2962  03A6                     u1760:
  2963  03A6                     l1703:
  2964  03A6  1751               	bsf	___fldiv@grs+3,6
  2965  03A7                     l1705:
  2966  03A7  083A               	movf	___fldiv@a,w
  2967  03A8  02C7               	subwf	___fldiv@rem,f
  2968  03A9  083B               	movf	___fldiv@a+1,w
  2969  03AA  1C03               	skipc
  2970  03AB  0F3B               	incfsz	___fldiv@a+1,w
  2971  03AC  02C8               	subwf	___fldiv@rem+1,f
  2972  03AD  083C               	movf	___fldiv@a+2,w
  2973  03AE  1C03               	skipc
  2974  03AF  0F3C               	incfsz	___fldiv@a+2,w
  2975  03B0  02C9               	subwf	___fldiv@rem+2,f
  2976  03B1  083D               	movf	___fldiv@a+3,w
  2977  03B2  1C03               	skipc
  2978  03B3  0F3D               	incfsz	___fldiv@a+3,w
  2979  03B4  02CA               	subwf	___fldiv@rem+3,f
  2980  03B5                     l1707:
  2981  03B5  3001               	movlw	1
  2982  03B6  00C2               	movwf	??___fldiv
  2983  03B7  0842               	movf	??___fldiv,w
  2984  03B8  07D3               	addwf	___fldiv@aexp,f
  2985  03B9                     l1709:
  2986  03B9  301A               	movlw	26
  2987  03BA  0253               	subwf	___fldiv@aexp,w
  2988  03BB  1C03               	skipc
  2989  03BC  2BBE               	goto	u1771
  2990  03BD  2BBF               	goto	u1770
  2991  03BE                     u1771:
  2992  03BE  2B6F               	goto	l1691
  2993  03BF                     u1770:
  2994  03BF                     l1711:
  2995  03BF  084A               	movf	___fldiv@rem+3,w
  2996  03C0  0449               	iorwf	___fldiv@rem+2,w
  2997  03C1  0448               	iorwf	___fldiv@rem+1,w
  2998  03C2  0447               	iorwf	___fldiv@rem,w
  2999  03C3  1903               	skipnz
  3000  03C4  2BC6               	goto	u1781
  3001  03C5  2BC7               	goto	u1780
  3002  03C6                     u1781:
  3003  03C6  2BE6               	goto	l1725
  3004  03C7                     u1780:
  3005  03C7                     l1713:
  3006  03C7  144E               	bsf	___fldiv@grs,0
  3007  03C8  2BE6               	goto	l1725
  3008  03C9                     l1715:
  3009  03C9  3001               	movlw	1
  3010  03CA  00C2               	movwf	??___fldiv
  3011  03CB                     u1795:
  3012  03CB  1003               	clrc
  3013  03CC  0DBE               	rlf	___fldiv@b,f
  3014  03CD  0DBF               	rlf	___fldiv@b+1,f
  3015  03CE  0DC0               	rlf	___fldiv@b+2,f
  3016  03CF  0DC1               	rlf	___fldiv@b+3,f
  3017  03D0  0BC2               	decfsz	??___fldiv,f
  3018  03D1  2BCB               	goto	u1795
  3019  03D2                     l1717:
  3020  03D2  1FD1               	btfss	___fldiv@grs+3,7
  3021  03D3  2BD5               	goto	u1801
  3022  03D4  2BD6               	goto	u1800
  3023  03D5                     u1801:
  3024  03D5  2BD7               	goto	l1721
  3025  03D6                     u1800:
  3026  03D6                     l1719:
  3027  03D6  143E               	bsf	___fldiv@b,0
  3028  03D7                     l1721:
  3029  03D7  3001               	movlw	1
  3030  03D8  00C2               	movwf	??___fldiv
  3031  03D9                     u1815:
  3032  03D9  1003               	clrc
  3033  03DA  0DCE               	rlf	___fldiv@grs,f
  3034  03DB  0DCF               	rlf	___fldiv@grs+1,f
  3035  03DC  0DD0               	rlf	___fldiv@grs+2,f
  3036  03DD  0DD1               	rlf	___fldiv@grs+3,f
  3037  03DE  0BC2               	decfsz	??___fldiv,f
  3038  03DF  2BD9               	goto	u1815
  3039  03E0                     l1723:
  3040  03E0  30FF               	movlw	255
  3041  03E1  07CC               	addwf	___fldiv@new_exp,f
  3042  03E2  1803               	skipnc
  3043  03E3  0ACD               	incf	___fldiv@new_exp+1,f
  3044  03E4  30FF               	movlw	255
  3045  03E5  07CD               	addwf	___fldiv@new_exp+1,f
  3046  03E6                     l1725:
  3047  03E6  1FC0               	btfss	___fldiv@b+2,7
  3048  03E7  2BE9               	goto	u1821
  3049  03E8  2BEA               	goto	u1820
  3050  03E9                     u1821:
  3051  03E9  2BC9               	goto	l1715
  3052  03EA                     u1820:
  3053  03EA                     l1727:
  3054  03EA  01D3               	clrf	___fldiv@aexp
  3055  03EB                     l1729:
  3056  03EB  1FD1               	btfss	___fldiv@grs+3,7
  3057  03EC  2BEE               	goto	u1831
  3058  03ED  2BEF               	goto	u1830
  3059  03EE                     u1831:
  3060  03EE  2C0B               	goto	l1737
  3061  03EF                     u1830:
  3062  03EF                     l1731:
  3063  03EF  30FF               	movlw	255
  3064  03F0  054E               	andwf	___fldiv@grs,w
  3065  03F1  00C2               	movwf	??___fldiv
  3066  03F2  30FF               	movlw	255
  3067  03F3  054F               	andwf	___fldiv@grs+1,w
  3068  03F4  00C3               	movwf	??___fldiv+1
  3069  03F5  30FF               	movlw	255
  3070  03F6  0550               	andwf	___fldiv@grs+2,w
  3071  03F7  00C4               	movwf	??___fldiv+2
  3072  03F8  307F               	movlw	127
  3073  03F9  0551               	andwf	___fldiv@grs+3,w
  3074  03FA  00C5               	movwf	??___fldiv+3
  3075  03FB  0845               	movf	??___fldiv+3,w
  3076  03FC  0444               	iorwf	??___fldiv+2,w
  3077  03FD  0443               	iorwf	??___fldiv+1,w
  3078  03FE  0442               	iorwf	??___fldiv,w
  3079  03FF  1903               	skipnz
  3080  0400  2C02               	goto	u1841
  3081  0401  2C03               	goto	u1840
  3082  0402                     u1841:
  3083  0402  2C06               	goto	l582
  3084  0403                     u1840:
  3085  0403                     l1733:
  3086  0403  01D3               	clrf	___fldiv@aexp
  3087  0404  0AD3               	incf	___fldiv@aexp,f
  3088  0405  2C0B               	goto	l1737
  3089  0406                     l582:
  3090  0406  1C3E               	btfss	___fldiv@b,0
  3091  0407  2C09               	goto	u1851
  3092  0408  2C0A               	goto	u1850
  3093  0409                     u1851:
  3094  0409  2C0B               	goto	l1737
  3095  040A                     u1850:
  3096  040A  2C03               	goto	l1733
  3097  040B                     l1737:
  3098  040B  0853               	movf	___fldiv@aexp,w
  3099  040C  1903               	btfsc	3,2
  3100  040D  2C0F               	goto	u1861
  3101  040E  2C10               	goto	u1860
  3102  040F                     u1861:
  3103  040F  2C41               	goto	l1747
  3104  0410                     u1860:
  3105  0410                     l1739:
  3106  0410  3001               	movlw	1
  3107  0411  07BE               	addwf	___fldiv@b,f
  3108  0412  3000               	movlw	0
  3109  0413  1803               	skipnc
  3110  0414  3001               	movlw	1
  3111  0415  07BF               	addwf	___fldiv@b+1,f
  3112  0416  3000               	movlw	0
  3113  0417  1803               	skipnc
  3114  0418  3001               	movlw	1
  3115  0419  07C0               	addwf	___fldiv@b+2,f
  3116  041A  3000               	movlw	0
  3117  041B  1803               	skipnc
  3118  041C  3001               	movlw	1
  3119  041D  07C1               	addwf	___fldiv@b+3,f
  3120  041E                     l1741:
  3121  041E  1C41               	btfss	___fldiv@b+3,0
  3122  041F  2C21               	goto	u1871
  3123  0420  2C22               	goto	u1870
  3124  0421                     u1871:
  3125  0421  2C41               	goto	l1747
  3126  0422                     u1870:
  3127  0422                     l1743:
  3128  0422  083E               	movf	___fldiv@b,w
  3129  0423  00C2               	movwf	??___fldiv
  3130  0424  083F               	movf	___fldiv@b+1,w
  3131  0425  00C3               	movwf	??___fldiv+1
  3132  0426  0840               	movf	___fldiv@b+2,w
  3133  0427  00C4               	movwf	??___fldiv+2
  3134  0428  0841               	movf	___fldiv@b+3,w
  3135  0429  00C5               	movwf	??___fldiv+3
  3136  042A  3001               	movlw	1
  3137  042B  00C6               	movwf	??___fldiv+4
  3138  042C                     u1885:
  3139  042C  0D45               	rlf	??___fldiv+3,w
  3140  042D  0CC5               	rrf	??___fldiv+3,f
  3141  042E  0CC4               	rrf	??___fldiv+2,f
  3142  042F  0CC3               	rrf	??___fldiv+1,f
  3143  0430  0CC2               	rrf	??___fldiv,f
  3144  0431                     u1880:
  3145  0431  0BC6               	decfsz	??___fldiv+4,f
  3146  0432  2C2C               	goto	u1885
  3147  0433  0845               	movf	??___fldiv+3,w
  3148  0434  00C1               	movwf	___fldiv@b+3
  3149  0435  0844               	movf	??___fldiv+2,w
  3150  0436  00C0               	movwf	___fldiv@b+2
  3151  0437  0843               	movf	??___fldiv+1,w
  3152  0438  00BF               	movwf	___fldiv@b+1
  3153  0439  0842               	movf	??___fldiv,w
  3154  043A  00BE               	movwf	___fldiv@b
  3155  043B                     l1745:
  3156  043B  3001               	movlw	1
  3157  043C  07CC               	addwf	___fldiv@new_exp,f
  3158  043D  1803               	skipnc
  3159  043E  0ACD               	incf	___fldiv@new_exp+1,f
  3160  043F  3000               	movlw	0
  3161  0440  07CD               	addwf	___fldiv@new_exp+1,f
  3162  0441                     l1747:
  3163  0441  084D               	movf	___fldiv@new_exp+1,w
  3164  0442  3A80               	xorlw	128
  3165  0443  00FF               	movwf	btemp+1
  3166  0444  3080               	movlw	128
  3167  0445  027F               	subwf	btemp+1,w
  3168  0446  1D03               	skipz
  3169  0447  2C4A               	goto	u1895
  3170  0448  30FF               	movlw	255
  3171  0449  024C               	subwf	___fldiv@new_exp,w
  3172  044A                     u1895:
  3173  044A  1C03               	skipc
  3174  044B  2C4D               	goto	u1891
  3175  044C  2C4E               	goto	u1890
  3176  044D                     u1891:
  3177  044D  2C5C               	goto	l1751
  3178  044E                     u1890:
  3179  044E                     l1749:
  3180  044E  30FF               	movlw	255
  3181  044F  1283               	bcf	3,5	;RP0=0, select bank0
  3182  0450  1303               	bcf	3,6	;RP1=0, select bank0
  3183  0451  00CC               	movwf	___fldiv@new_exp
  3184  0452  3000               	movlw	0
  3185  0453  00CD               	movwf	___fldiv@new_exp+1
  3186  0454  3000               	movlw	0
  3187  0455  00C1               	movwf	___fldiv@b+3
  3188  0456  3000               	movlw	0
  3189  0457  00C0               	movwf	___fldiv@b+2
  3190  0458  3000               	movlw	0
  3191  0459  00BF               	movwf	___fldiv@b+1
  3192  045A  3000               	movlw	0
  3193  045B  00BE               	movwf	___fldiv@b
  3194  045C                     l1751:
  3195  045C  1283               	bcf	3,5	;RP0=0, select bank0
  3196  045D  1303               	bcf	3,6	;RP1=0, select bank0
  3197  045E  084D               	movf	___fldiv@new_exp+1,w
  3198  045F  3A80               	xorlw	128
  3199  0460  00FF               	movwf	btemp+1
  3200  0461  3080               	movlw	128
  3201  0462  027F               	subwf	btemp+1,w
  3202  0463  1D03               	skipz
  3203  0464  2C67               	goto	u1905
  3204  0465  3001               	movlw	1
  3205  0466  024C               	subwf	___fldiv@new_exp,w
  3206  0467                     u1905:
  3207  0467  1803               	skipnc
  3208  0468  2C6A               	goto	u1901
  3209  0469  2C6B               	goto	u1900
  3210  046A                     u1901:
  3211  046A  2C78               	goto	l588
  3212  046B                     u1900:
  3213  046B                     l1753:
  3214  046B  1283               	bcf	3,5	;RP0=0, select bank0
  3215  046C  1303               	bcf	3,6	;RP1=0, select bank0
  3216  046D  01CC               	clrf	___fldiv@new_exp
  3217  046E  01CD               	clrf	___fldiv@new_exp+1
  3218  046F                     l1755:
  3219  046F  3000               	movlw	0
  3220  0470  00C1               	movwf	___fldiv@b+3
  3221  0471  3000               	movlw	0
  3222  0472  00C0               	movwf	___fldiv@b+2
  3223  0473  3000               	movlw	0
  3224  0474  00BF               	movwf	___fldiv@b+1
  3225  0475  3000               	movlw	0
  3226  0476  00BE               	movwf	___fldiv@b
  3227  0477                     l1757:
  3228  0477  01CB               	clrf	___fldiv@sign
  3229  0478                     l588:
  3230  0478  1283               	bcf	3,5	;RP0=0, select bank0
  3231  0479  1303               	bcf	3,6	;RP1=0, select bank0
  3232  047A  084C               	movf	___fldiv@new_exp,w
  3233  047B  00C2               	movwf	??___fldiv
  3234  047C  0842               	movf	??___fldiv,w
  3235  047D  00D2               	movwf	___fldiv@bexp
  3236  047E                     l1759:
  3237  047E  1C52               	btfss	___fldiv@bexp,0
  3238  047F  2C81               	goto	u1911
  3239  0480  2C82               	goto	u1910
  3240  0481                     u1911:
  3241  0481  2C84               	goto	l1763
  3242  0482                     u1910:
  3243  0482                     l1761:
  3244  0482  17C0               	bsf	___fldiv@b+2,7
  3245  0483  2C88               	goto	l590
  3246  0484                     l1763:
  3247  0484  307F               	movlw	127
  3248  0485  00C2               	movwf	??___fldiv
  3249  0486  0842               	movf	??___fldiv,w
  3250  0487  05C0               	andwf	___fldiv@b+2,f
  3251  0488                     l590:
  3252  0488  0852               	movf	___fldiv@bexp,w
  3253  0489  00C2               	movwf	??___fldiv
  3254  048A  1003               	clrc
  3255  048B  0C42               	rrf	??___fldiv,w
  3256  048C  00C3               	movwf	??___fldiv+1
  3257  048D  0843               	movf	??___fldiv+1,w
  3258  048E  00C1               	movwf	___fldiv@b+3
  3259  048F  084B               	movf	___fldiv@sign,w
  3260  0490  00C2               	movwf	??___fldiv
  3261  0491  0842               	movf	??___fldiv,w
  3262  0492  04C1               	iorwf	___fldiv@b+3,f
  3263  0493  2B2C               	goto	l1671
  3264  0494                     l568:
  3265  0494  0008               	return
  3266  0495                     __end_of___fldiv:
  3267                           
  3268                           	psect	text6
  3269  0D6F                     __ptext6:	
  3270 ;; *************** function _LCD_Write_String *****************
  3271 ;; Defined at:
  3272 ;;		line 71 in file "lcd.c"
  3273 ;; Parameters:    Size  Location     Type
  3274 ;;  str             1    wreg     PTR unsigned char 
  3275 ;;		 -> STR_5(4), STR_4(3), STR_3(5), STR_2(4), 
  3276 ;;		 -> STR_1(5), 
  3277 ;; Auto vars:     Size  Location     Type
  3278 ;;  str             1    8[COMMON] PTR unsigned char 
  3279 ;;		 -> STR_5(4), STR_4(3), STR_3(5), STR_2(4), 
  3280 ;;		 -> STR_1(5), 
  3281 ;;  i               2    6[COMMON] int 
  3282 ;; Return value:  Size  Location     Type
  3283 ;;                  1    wreg      void 
  3284 ;; Registers used:
  3285 ;;		wreg, fsr0l, fsr0h, status,2, status,0, pclath, cstack
  3286 ;; Tracked objects:
  3287 ;;		On entry : 0/0
  3288 ;;		On exit  : 0/0
  3289 ;;		Unchanged: 0/0
  3290 ;; Data sizes:     COMMON   BANK0   BANK1   BANK3   BANK2
  3291 ;;      Params:         0       0       0       0       0
  3292 ;;      Locals:         3       0       0       0       0
  3293 ;;      Temps:          0       0       0       0       0
  3294 ;;      Totals:         3       0       0       0       0
  3295 ;;Total ram usage:        3 bytes
  3296 ;; Hardware stack levels used:    1
  3297 ;; Hardware stack levels required when called:    2
  3298 ;; This function calls:
  3299 ;;		_LCD_Write_Char
  3300 ;; This function is called by:
  3301 ;;		_main
  3302 ;; This function uses a non-reentrant model
  3303 ;;
  3304                           
  3305                           
  3306                           ;psect for function _LCD_Write_String
  3307  0D6F                     _LCD_Write_String:
  3308                           
  3309                           ;incstack = 0
  3310                           ; Regs used in _LCD_Write_String: [wreg-fsr0h+status,2+status,0+pclath+cstack]
  3311                           ;LCD_Write_String@str stored from wreg
  3312  0D6F  00F8               	movwf	LCD_Write_String@str
  3313  0D70                     l1549:
  3314                           
  3315                           ;lcd.c: 71: void LCD_Write_String(char *str);lcd.c: 72: {;lcd.c: 73:   int i;;lcd.c: 74:
      +                             for(i=0;str[i]!='\0';i++)
  3316  0D70  01F6               	clrf	LCD_Write_String@i
  3317  0D71  01F7               	clrf	LCD_Write_String@i+1
  3318  0D72  2D86               	goto	l1555
  3319  0D73                     l1551:
  3320                           
  3321                           ;lcd.c: 75:     LCD_Write_Char(str[i]);
  3322  0D73  0876               	movf	LCD_Write_String@i,w
  3323  0D74  0778               	addwf	LCD_Write_String@str,w
  3324  0D75  0084               	movwf	4
  3325  0D76  120A  158A  2000  120A  158A  	fcall	stringdir
  3326  0D7B  120A  158A  26C6  120A  158A  	fcall	_LCD_Write_Char
  3327  0D80                     l1553:
  3328  0D80  3001               	movlw	1
  3329  0D81  07F6               	addwf	LCD_Write_String@i,f
  3330  0D82  1803               	skipnc
  3331  0D83  0AF7               	incf	LCD_Write_String@i+1,f
  3332  0D84  3000               	movlw	0
  3333  0D85  07F7               	addwf	LCD_Write_String@i+1,f
  3334  0D86                     l1555:
  3335  0D86  0876               	movf	LCD_Write_String@i,w
  3336  0D87  0778               	addwf	LCD_Write_String@str,w
  3337  0D88  0084               	movwf	4
  3338  0D89  120A  158A  2000  120A  158A  	fcall	stringdir
  3339  0D8E  3A00               	xorlw	0
  3340  0D8F  1D03               	skipz
  3341  0D90  2D92               	goto	u1481
  3342  0D91  2D93               	goto	u1480
  3343  0D92                     u1481:
  3344  0D92  2D73               	goto	l1551
  3345  0D93                     u1480:
  3346  0D93                     l100:
  3347  0D93  0008               	return
  3348  0D94                     __end_of_LCD_Write_String:
  3349                           
  3350                           	psect	text7
  3351  0F80                     __ptext7:	
  3352 ;; *************** function _LCD_Write_Number *****************
  3353 ;; Defined at:
  3354 ;;		line 90 in file "lcd.c"
  3355 ;; Parameters:    Size  Location     Type
  3356 ;;  number          2    0[BANK0 ] unsigned int 
  3357 ;; Auto vars:     Size  Location     Type
  3358 ;;  num            20    4[BANK0 ] unsigned int [10]
  3359 ;;  p               2   27[BANK0 ] int 
  3360 ;;  k               2   24[BANK0 ] int 
  3361 ;;  c               1   26[BANK0 ] unsigned char 
  3362 ;; Return value:  Size  Location     Type
  3363 ;;                  1    wreg      void 
  3364 ;; Registers used:
  3365 ;;		wreg, fsr0l, fsr0h, status,2, status,0, pclath, cstack
  3366 ;; Tracked objects:
  3367 ;;		On entry : 0/0
  3368 ;;		On exit  : 0/0
  3369 ;;		Unchanged: 0/0
  3370 ;; Data sizes:     COMMON   BANK0   BANK1   BANK3   BANK2
  3371 ;;      Params:         0       2       0       0       0
  3372 ;;      Locals:         0      25       0       0       0
  3373 ;;      Temps:          0       2       0       0       0
  3374 ;;      Totals:         0      29       0       0       0
  3375 ;;Total ram usage:       29 bytes
  3376 ;; Hardware stack levels used:    1
  3377 ;; Hardware stack levels required when called:    2
  3378 ;; This function calls:
  3379 ;;		_LCD_Write_Char
  3380 ;;		___lwdiv
  3381 ;;		___lwmod
  3382 ;; This function is called by:
  3383 ;;		_main
  3384 ;; This function uses a non-reentrant model
  3385 ;;
  3386                           
  3387                           
  3388                           ;psect for function _LCD_Write_Number
  3389  0F80                     _LCD_Write_Number:
  3390  0F80                     l1557:	
  3391                           ;incstack = 0
  3392                           ; Regs used in _LCD_Write_Number: [wreg-fsr0h+status,2+status,0+pclath+cstack]
  3393                           
  3394                           
  3395                           ;lcd.c: 95:     int k=0;
  3396  0F80  1283               	bcf	3,5	;RP0=0, select bank0
  3397  0F81  1303               	bcf	3,6	;RP1=0, select bank0
  3398  0F82  01B8               	clrf	LCD_Write_Number@k
  3399  0F83  01B9               	clrf	LCD_Write_Number@k+1
  3400  0F84                     l1559:
  3401                           
  3402                           ;lcd.c: 97:     if(number == 0)
  3403  0F84  0820               	movf	LCD_Write_Number@number,w
  3404  0F85  0421               	iorwf	LCD_Write_Number@number+1,w
  3405  0F86  1D03               	btfss	3,2
  3406  0F87  2F89               	goto	u1491
  3407  0F88  2F8A               	goto	u1490
  3408  0F89                     u1491:
  3409  0F89  2F96               	goto	l1565
  3410  0F8A                     u1490:
  3411  0F8A                     l1561:
  3412                           
  3413                           ;lcd.c: 98:     {;lcd.c: 99:         c = (char)(number + '0');
  3414  0F8A  0820               	movf	LCD_Write_Number@number,w
  3415  0F8B  3E30               	addlw	48
  3416  0F8C  00A2               	movwf	??_LCD_Write_Number
  3417  0F8D  0822               	movf	??_LCD_Write_Number,w
  3418  0F8E  00BA               	movwf	LCD_Write_Number@c
  3419  0F8F                     l1563:
  3420                           
  3421                           ;lcd.c: 100:         LCD_Write_Char(c);
  3422  0F8F  083A               	movf	LCD_Write_Number@c,w
  3423  0F90  120A  158A  26C6  120A  158A  	fcall	_LCD_Write_Char
  3424                           
  3425                           ;lcd.c: 101:     }
  3426  0F95  2FFF               	goto	l117
  3427  0F96                     l1565:
  3428  0F96  0820               	movf	LCD_Write_Number@number,w
  3429  0F97  0421               	iorwf	LCD_Write_Number@number+1,w
  3430  0F98  1903               	btfsc	3,2
  3431  0F99  2F9B               	goto	u1501
  3432  0F9A  2F9C               	goto	u1500
  3433  0F9B                     u1501:
  3434  0F9B  2FFF               	goto	l117
  3435  0F9C                     u1500:
  3436  0F9C  2FD0               	goto	l1575
  3437  0F9D                     l1569:
  3438                           
  3439                           ;lcd.c: 105:         {;lcd.c: 106:         num[k]=number%10;
  3440  0F9D  300A               	movlw	10
  3441  0F9E  00F0               	movwf	___lwmod@divisor
  3442  0F9F  3000               	movlw	0
  3443  0FA0  00F1               	movwf	___lwmod@divisor+1
  3444  0FA1  0821               	movf	LCD_Write_Number@number+1,w
  3445  0FA2  00F3               	movwf	___lwmod@dividend+1
  3446  0FA3  0820               	movf	LCD_Write_Number@number,w
  3447  0FA4  00F2               	movwf	___lwmod@dividend
  3448  0FA5  120A  158A  25BB  120A  158A  	fcall	___lwmod
  3449  0FAA  1283               	bcf	3,5	;RP0=0, select bank0
  3450  0FAB  1303               	bcf	3,6	;RP1=0, select bank0
  3451  0FAC  0838               	movf	LCD_Write_Number@k,w
  3452  0FAD  00A2               	movwf	??_LCD_Write_Number
  3453  0FAE  0722               	addwf	??_LCD_Write_Number,w
  3454  0FAF  3E24               	addlw	(low (LCD_Write_Number@num| 0))& (0+255)
  3455  0FB0  0084               	movwf	4
  3456  0FB1  0870               	movf	?___lwmod,w
  3457  0FB2  1383               	bcf	3,7	;select IRP bank0
  3458  0FB3  0080               	movwf	0
  3459  0FB4  0A84               	incf	4,f
  3460  0FB5  0871               	movf	?___lwmod+1,w
  3461  0FB6  0080               	movwf	0
  3462  0FB7                     l1571:
  3463                           
  3464                           ;lcd.c: 107:         number = number/10;
  3465  0FB7  300A               	movlw	10
  3466  0FB8  00F6               	movwf	___lwdiv@divisor
  3467  0FB9  3000               	movlw	0
  3468  0FBA  00F7               	movwf	___lwdiv@divisor+1
  3469  0FBB  0821               	movf	LCD_Write_Number@number+1,w
  3470  0FBC  00F9               	movwf	___lwdiv@dividend+1
  3471  0FBD  0820               	movf	LCD_Write_Number@number,w
  3472  0FBE  00F8               	movwf	___lwdiv@dividend
  3473  0FBF  120A  158A  2630  120A  158A  	fcall	___lwdiv
  3474  0FC4  0877               	movf	?___lwdiv+1,w
  3475  0FC5  1283               	bcf	3,5	;RP0=0, select bank0
  3476  0FC6  1303               	bcf	3,6	;RP1=0, select bank0
  3477  0FC7  00A1               	movwf	LCD_Write_Number@number+1
  3478  0FC8  0876               	movf	?___lwdiv,w
  3479  0FC9  00A0               	movwf	LCD_Write_Number@number
  3480  0FCA                     l1573:
  3481                           
  3482                           ;lcd.c: 108:         k++;
  3483  0FCA  3001               	movlw	1
  3484  0FCB  07B8               	addwf	LCD_Write_Number@k,f
  3485  0FCC  1803               	skipnc
  3486  0FCD  0AB9               	incf	LCD_Write_Number@k+1,f
  3487  0FCE  3000               	movlw	0
  3488  0FCF  07B9               	addwf	LCD_Write_Number@k+1,f
  3489  0FD0                     l1575:
  3490                           
  3491                           ;lcd.c: 104:         while(number>0)
  3492  0FD0  0820               	movf	LCD_Write_Number@number,w
  3493  0FD1  0421               	iorwf	LCD_Write_Number@number+1,w
  3494  0FD2  1D03               	btfss	3,2
  3495  0FD3  2FD5               	goto	u1511
  3496  0FD4  2FD6               	goto	u1510
  3497  0FD5                     u1511:
  3498  0FD5  2F9D               	goto	l1569
  3499  0FD6                     u1510:
  3500  0FD6                     l1577:
  3501                           
  3502                           ;lcd.c: 111:         k--;
  3503  0FD6  30FF               	movlw	255
  3504  0FD7  07B8               	addwf	LCD_Write_Number@k,f
  3505  0FD8  1803               	skipnc
  3506  0FD9  0AB9               	incf	LCD_Write_Number@k+1,f
  3507  0FDA  30FF               	movlw	255
  3508  0FDB  07B9               	addwf	LCD_Write_Number@k+1,f
  3509                           
  3510                           ;lcd.c: 112:         for(p=k; p>=0; p--)
  3511  0FDC  0839               	movf	LCD_Write_Number@k+1,w
  3512  0FDD  00BC               	movwf	LCD_Write_Number@p+1
  3513  0FDE  0838               	movf	LCD_Write_Number@k,w
  3514  0FDF  00BB               	movwf	LCD_Write_Number@p
  3515  0FE0                     l1579:
  3516  0FE0  1FBC               	btfss	LCD_Write_Number@p+1,7
  3517  0FE1  2FE3               	goto	u1521
  3518  0FE2  2FE4               	goto	u1520
  3519  0FE3                     u1521:
  3520  0FE3  2FE5               	goto	l1583
  3521  0FE4                     u1520:
  3522  0FE4  2FFF               	goto	l117
  3523  0FE5                     l1583:
  3524                           
  3525                           ;lcd.c: 113:         {;lcd.c: 114:             c = (char)(num[p] + '0');
  3526  0FE5  083B               	movf	LCD_Write_Number@p,w
  3527  0FE6  00A2               	movwf	??_LCD_Write_Number
  3528  0FE7  0722               	addwf	??_LCD_Write_Number,w
  3529  0FE8  3E24               	addlw	(low (LCD_Write_Number@num| 0))& (0+255)
  3530  0FE9  0084               	movwf	4
  3531  0FEA  1383               	bcf	3,7	;select IRP bank0
  3532  0FEB  0800               	movf	0,w
  3533  0FEC  3E30               	addlw	48
  3534  0FED  00A3               	movwf	??_LCD_Write_Number+1
  3535  0FEE  0823               	movf	??_LCD_Write_Number+1,w
  3536  0FEF  00BA               	movwf	LCD_Write_Number@c
  3537  0FF0                     l1585:
  3538                           
  3539                           ;lcd.c: 115:             LCD_Write_Char(c);
  3540  0FF0  083A               	movf	LCD_Write_Number@c,w
  3541  0FF1  120A  158A  26C6  120A  158A  	fcall	_LCD_Write_Char
  3542  0FF6                     l1587:
  3543                           
  3544                           ;lcd.c: 116:         }
  3545  0FF6  30FF               	movlw	255
  3546  0FF7  1283               	bcf	3,5	;RP0=0, select bank0
  3547  0FF8  1303               	bcf	3,6	;RP1=0, select bank0
  3548  0FF9  07BB               	addwf	LCD_Write_Number@p,f
  3549  0FFA  1803               	skipnc
  3550  0FFB  0ABC               	incf	LCD_Write_Number@p+1,f
  3551  0FFC  30FF               	movlw	255
  3552  0FFD  07BC               	addwf	LCD_Write_Number@p+1,f
  3553  0FFE  2FE0               	goto	l1579
  3554  0FFF                     l117:
  3555  0FFF  0008               	return
  3556  1000                     __end_of_LCD_Write_Number:
  3557                           
  3558                           	psect	text8
  3559  0DBB                     __ptext8:	
  3560 ;; *************** function ___lwmod *****************
  3561 ;; Defined at:
  3562 ;;		line 5 in file "C:\Program Files\Microchip\xc8\v2.30\pic\sources\c90\common\lwmod.c"
  3563 ;; Parameters:    Size  Location     Type
  3564 ;;  divisor         2    0[COMMON] unsigned int 
  3565 ;;  dividend        2    2[COMMON] unsigned int 
  3566 ;; Auto vars:     Size  Location     Type
  3567 ;;  counter         1    5[COMMON] unsigned char 
  3568 ;; Return value:  Size  Location     Type
  3569 ;;                  2    0[COMMON] unsigned int 
  3570 ;; Registers used:
  3571 ;;		wreg, status,2, status,0
  3572 ;; Tracked objects:
  3573 ;;		On entry : 0/0
  3574 ;;		On exit  : 0/0
  3575 ;;		Unchanged: 0/0
  3576 ;; Data sizes:     COMMON   BANK0   BANK1   BANK3   BANK2
  3577 ;;      Params:         4       0       0       0       0
  3578 ;;      Locals:         1       0       0       0       0
  3579 ;;      Temps:          1       0       0       0       0
  3580 ;;      Totals:         6       0       0       0       0
  3581 ;;Total ram usage:        6 bytes
  3582 ;; Hardware stack levels used:    1
  3583 ;; This function calls:
  3584 ;;		Nothing
  3585 ;; This function is called by:
  3586 ;;		_main
  3587 ;;		_LCD_Write_Number
  3588 ;; This function uses a non-reentrant model
  3589 ;;
  3590                           
  3591                           
  3592                           ;psect for function ___lwmod
  3593  0DBB                     ___lwmod:
  3594  0DBB                     l1437:	
  3595                           ;incstack = 0
  3596                           ; Regs used in ___lwmod: [wreg+status,2+status,0]
  3597                           
  3598  0DBB  0870               	movf	___lwmod@divisor,w
  3599  0DBC  0471               	iorwf	___lwmod@divisor+1,w
  3600  0DBD  1903               	btfsc	3,2
  3601  0DBE  2DC0               	goto	u1341
  3602  0DBF  2DC1               	goto	u1340
  3603  0DC0                     u1341:
  3604  0DC0  2DF0               	goto	l1455
  3605  0DC1                     u1340:
  3606  0DC1                     l1439:
  3607  0DC1  01F5               	clrf	___lwmod@counter
  3608  0DC2  0AF5               	incf	___lwmod@counter,f
  3609  0DC3  2DCF               	goto	l1445
  3610  0DC4                     l1441:
  3611  0DC4  3001               	movlw	1
  3612  0DC5                     u1355:
  3613  0DC5  1003               	clrc
  3614  0DC6  0DF0               	rlf	___lwmod@divisor,f
  3615  0DC7  0DF1               	rlf	___lwmod@divisor+1,f
  3616  0DC8  3EFF               	addlw	-1
  3617  0DC9  1D03               	skipz
  3618  0DCA  2DC5               	goto	u1355
  3619  0DCB                     l1443:
  3620  0DCB  3001               	movlw	1
  3621  0DCC  00F4               	movwf	??___lwmod
  3622  0DCD  0874               	movf	??___lwmod,w
  3623  0DCE  07F5               	addwf	___lwmod@counter,f
  3624  0DCF                     l1445:
  3625  0DCF  1FF1               	btfss	___lwmod@divisor+1,7
  3626  0DD0  2DD2               	goto	u1361
  3627  0DD1  2DD3               	goto	u1360
  3628  0DD2                     u1361:
  3629  0DD2  2DC4               	goto	l1441
  3630  0DD3                     u1360:
  3631  0DD3                     l1447:
  3632  0DD3  0871               	movf	___lwmod@divisor+1,w
  3633  0DD4  0273               	subwf	___lwmod@dividend+1,w
  3634  0DD5  1D03               	skipz
  3635  0DD6  2DD9               	goto	u1375
  3636  0DD7  0870               	movf	___lwmod@divisor,w
  3637  0DD8  0272               	subwf	___lwmod@dividend,w
  3638  0DD9                     u1375:
  3639  0DD9  1C03               	skipc
  3640  0DDA  2DDC               	goto	u1371
  3641  0DDB  2DDD               	goto	u1370
  3642  0DDC                     u1371:
  3643  0DDC  2DE3               	goto	l1451
  3644  0DDD                     u1370:
  3645  0DDD                     l1449:
  3646  0DDD  0870               	movf	___lwmod@divisor,w
  3647  0DDE  02F2               	subwf	___lwmod@dividend,f
  3648  0DDF  0871               	movf	___lwmod@divisor+1,w
  3649  0DE0  1C03               	skipc
  3650  0DE1  03F3               	decf	___lwmod@dividend+1,f
  3651  0DE2  02F3               	subwf	___lwmod@dividend+1,f
  3652  0DE3                     l1451:
  3653  0DE3  3001               	movlw	1
  3654  0DE4                     u1385:
  3655  0DE4  1003               	clrc
  3656  0DE5  0CF1               	rrf	___lwmod@divisor+1,f
  3657  0DE6  0CF0               	rrf	___lwmod@divisor,f
  3658  0DE7  3EFF               	addlw	-1
  3659  0DE8  1D03               	skipz
  3660  0DE9  2DE4               	goto	u1385
  3661  0DEA                     l1453:
  3662  0DEA  3001               	movlw	1
  3663  0DEB  02F5               	subwf	___lwmod@counter,f
  3664  0DEC  1D03               	btfss	3,2
  3665  0DED  2DEF               	goto	u1391
  3666  0DEE  2DF0               	goto	u1390
  3667  0DEF                     u1391:
  3668  0DEF  2DD3               	goto	l1447
  3669  0DF0                     u1390:
  3670  0DF0                     l1455:
  3671  0DF0  0873               	movf	___lwmod@dividend+1,w
  3672  0DF1  00F1               	movwf	?___lwmod+1
  3673  0DF2  0872               	movf	___lwmod@dividend,w
  3674  0DF3  00F0               	movwf	?___lwmod
  3675  0DF4                     l499:
  3676  0DF4  0008               	return
  3677  0DF5                     __end_of___lwmod:
  3678                           
  3679                           	psect	text9
  3680  0E30                     __ptext9:	
  3681 ;; *************** function ___lwdiv *****************
  3682 ;; Defined at:
  3683 ;;		line 5 in file "C:\Program Files\Microchip\xc8\v2.30\pic\sources\c90\common\lwdiv.c"
  3684 ;; Parameters:    Size  Location     Type
  3685 ;;  divisor         2    6[COMMON] unsigned int 
  3686 ;;  dividend        2    8[COMMON] unsigned int 
  3687 ;; Auto vars:     Size  Location     Type
  3688 ;;  quotient        2   11[COMMON] unsigned int 
  3689 ;;  counter         1   13[COMMON] unsigned char 
  3690 ;; Return value:  Size  Location     Type
  3691 ;;                  2    6[COMMON] unsigned int 
  3692 ;; Registers used:
  3693 ;;		wreg, status,2, status,0
  3694 ;; Tracked objects:
  3695 ;;		On entry : 0/0
  3696 ;;		On exit  : 0/0
  3697 ;;		Unchanged: 0/0
  3698 ;; Data sizes:     COMMON   BANK0   BANK1   BANK3   BANK2
  3699 ;;      Params:         4       0       0       0       0
  3700 ;;      Locals:         3       0       0       0       0
  3701 ;;      Temps:          1       0       0       0       0
  3702 ;;      Totals:         8       0       0       0       0
  3703 ;;Total ram usage:        8 bytes
  3704 ;; Hardware stack levels used:    1
  3705 ;; This function calls:
  3706 ;;		Nothing
  3707 ;; This function is called by:
  3708 ;;		_main
  3709 ;;		_LCD_Write_Number
  3710 ;; This function uses a non-reentrant model
  3711 ;;
  3712                           
  3713                           
  3714                           ;psect for function ___lwdiv
  3715  0E30                     ___lwdiv:
  3716  0E30                     l1411:	
  3717                           ;incstack = 0
  3718                           ; Regs used in ___lwdiv: [wreg+status,2+status,0]
  3719                           
  3720  0E30  01FB               	clrf	___lwdiv@quotient
  3721  0E31  01FC               	clrf	___lwdiv@quotient+1
  3722  0E32                     l1413:
  3723  0E32  0876               	movf	___lwdiv@divisor,w
  3724  0E33  0477               	iorwf	___lwdiv@divisor+1,w
  3725  0E34  1903               	btfsc	3,2
  3726  0E35  2E37               	goto	u1271
  3727  0E36  2E38               	goto	u1270
  3728  0E37                     u1271:
  3729  0E37  2E6F               	goto	l1433
  3730  0E38                     u1270:
  3731  0E38                     l1415:
  3732  0E38  01FD               	clrf	___lwdiv@counter
  3733  0E39  0AFD               	incf	___lwdiv@counter,f
  3734  0E3A  2E46               	goto	l1421
  3735  0E3B                     l1417:
  3736  0E3B  3001               	movlw	1
  3737  0E3C                     u1285:
  3738  0E3C  1003               	clrc
  3739  0E3D  0DF6               	rlf	___lwdiv@divisor,f
  3740  0E3E  0DF7               	rlf	___lwdiv@divisor+1,f
  3741  0E3F  3EFF               	addlw	-1
  3742  0E40  1D03               	skipz
  3743  0E41  2E3C               	goto	u1285
  3744  0E42                     l1419:
  3745  0E42  3001               	movlw	1
  3746  0E43  00FA               	movwf	??___lwdiv
  3747  0E44  087A               	movf	??___lwdiv,w
  3748  0E45  07FD               	addwf	___lwdiv@counter,f
  3749  0E46                     l1421:
  3750  0E46  1FF7               	btfss	___lwdiv@divisor+1,7
  3751  0E47  2E49               	goto	u1291
  3752  0E48  2E4A               	goto	u1290
  3753  0E49                     u1291:
  3754  0E49  2E3B               	goto	l1417
  3755  0E4A                     u1290:
  3756  0E4A                     l1423:
  3757  0E4A  3001               	movlw	1
  3758  0E4B                     u1305:
  3759  0E4B  1003               	clrc
  3760  0E4C  0DFB               	rlf	___lwdiv@quotient,f
  3761  0E4D  0DFC               	rlf	___lwdiv@quotient+1,f
  3762  0E4E  3EFF               	addlw	-1
  3763  0E4F  1D03               	skipz
  3764  0E50  2E4B               	goto	u1305
  3765  0E51  0877               	movf	___lwdiv@divisor+1,w
  3766  0E52  0279               	subwf	___lwdiv@dividend+1,w
  3767  0E53  1D03               	skipz
  3768  0E54  2E57               	goto	u1315
  3769  0E55  0876               	movf	___lwdiv@divisor,w
  3770  0E56  0278               	subwf	___lwdiv@dividend,w
  3771  0E57                     u1315:
  3772  0E57  1C03               	skipc
  3773  0E58  2E5A               	goto	u1311
  3774  0E59  2E5B               	goto	u1310
  3775  0E5A                     u1311:
  3776  0E5A  2E62               	goto	l1429
  3777  0E5B                     u1310:
  3778  0E5B                     l1425:
  3779  0E5B  0876               	movf	___lwdiv@divisor,w
  3780  0E5C  02F8               	subwf	___lwdiv@dividend,f
  3781  0E5D  0877               	movf	___lwdiv@divisor+1,w
  3782  0E5E  1C03               	skipc
  3783  0E5F  03F9               	decf	___lwdiv@dividend+1,f
  3784  0E60  02F9               	subwf	___lwdiv@dividend+1,f
  3785  0E61                     l1427:
  3786  0E61  147B               	bsf	___lwdiv@quotient,0
  3787  0E62                     l1429:
  3788  0E62  3001               	movlw	1
  3789  0E63                     u1325:
  3790  0E63  1003               	clrc
  3791  0E64  0CF7               	rrf	___lwdiv@divisor+1,f
  3792  0E65  0CF6               	rrf	___lwdiv@divisor,f
  3793  0E66  3EFF               	addlw	-1
  3794  0E67  1D03               	skipz
  3795  0E68  2E63               	goto	u1325
  3796  0E69                     l1431:
  3797  0E69  3001               	movlw	1
  3798  0E6A  02FD               	subwf	___lwdiv@counter,f
  3799  0E6B  1D03               	btfss	3,2
  3800  0E6C  2E6E               	goto	u1331
  3801  0E6D  2E6F               	goto	u1330
  3802  0E6E                     u1331:
  3803  0E6E  2E4A               	goto	l1423
  3804  0E6F                     u1330:
  3805  0E6F                     l1433:
  3806  0E6F  087C               	movf	___lwdiv@quotient+1,w
  3807  0E70  00F7               	movwf	?___lwdiv+1
  3808  0E71  087B               	movf	___lwdiv@quotient,w
  3809  0E72  00F6               	movwf	?___lwdiv
  3810  0E73                     l489:
  3811  0E73  0008               	return
  3812  0E74                     __end_of___lwdiv:
  3813                           
  3814                           	psect	text10
  3815  0EC6                     __ptext10:	
  3816 ;; *************** function _LCD_Write_Char *****************
  3817 ;; Defined at:
  3818 ;;		line 54 in file "lcd.c"
  3819 ;; Parameters:    Size  Location     Type
  3820 ;;  Data            1    wreg     unsigned char 
  3821 ;; Auto vars:     Size  Location     Type
  3822 ;;  Data            1    5[COMMON] unsigned char 
  3823 ;;  High4           1    4[COMMON] unsigned char 
  3824 ;;  Low4            1    3[COMMON] unsigned char 
  3825 ;; Return value:  Size  Location     Type
  3826 ;;                  1    wreg      void 
  3827 ;; Registers used:
  3828 ;;		wreg, status,2, status,0, pclath, cstack
  3829 ;; Tracked objects:
  3830 ;;		On entry : 0/0
  3831 ;;		On exit  : 0/0
  3832 ;;		Unchanged: 0/0
  3833 ;; Data sizes:     COMMON   BANK0   BANK1   BANK3   BANK2
  3834 ;;      Params:         0       0       0       0       0
  3835 ;;      Locals:         3       0       0       0       0
  3836 ;;      Temps:          2       0       0       0       0
  3837 ;;      Totals:         5       0       0       0       0
  3838 ;;Total ram usage:        5 bytes
  3839 ;; Hardware stack levels used:    1
  3840 ;; Hardware stack levels required when called:    1
  3841 ;; This function calls:
  3842 ;;		_LCD_DATA
  3843 ;; This function is called by:
  3844 ;;		_main
  3845 ;;		_LCD_Write_String
  3846 ;;		_LCD_Write_Number
  3847 ;; This function uses a non-reentrant model
  3848 ;;
  3849                           
  3850                           
  3851                           ;psect for function _LCD_Write_Char
  3852  0EC6                     _LCD_Write_Char:
  3853                           
  3854                           ;incstack = 0
  3855                           ; Regs used in _LCD_Write_Char: [wreg+status,2+status,0+pclath+cstack]
  3856                           ;LCD_Write_Char@Data stored from wreg
  3857  0EC6  00F5               	movwf	LCD_Write_Char@Data
  3858  0EC7                     l1377:
  3859                           
  3860                           ;lcd.c: 54: void LCD_Write_Char(char Data);lcd.c: 55: {;lcd.c: 56:   char Low4,High4;;lc
      +                          d.c: 57:   Low4 = Data & 0x0F;
  3861  0EC7  0875               	movf	LCD_Write_Char@Data,w
  3862  0EC8  390F               	andlw	15
  3863  0EC9  00F1               	movwf	??_LCD_Write_Char
  3864  0ECA  0871               	movf	??_LCD_Write_Char,w
  3865  0ECB  00F3               	movwf	LCD_Write_Char@Low4
  3866                           
  3867                           ;lcd.c: 58:   High4 = Data & 0xF0;
  3868  0ECC  0875               	movf	LCD_Write_Char@Data,w
  3869  0ECD  39F0               	andlw	240
  3870  0ECE  00F1               	movwf	??_LCD_Write_Char
  3871  0ECF  0871               	movf	??_LCD_Write_Char,w
  3872  0ED0  00F4               	movwf	LCD_Write_Char@High4
  3873  0ED1                     l1379:
  3874                           
  3875                           ;lcd.c: 59:   RD2 = 1;
  3876  0ED1  1283               	bcf	3,5	;RP0=0, select bank0
  3877  0ED2  1303               	bcf	3,6	;RP1=0, select bank0
  3878  0ED3  1508               	bsf	8,2	;volatile
  3879  0ED4                     l1381:
  3880                           
  3881                           ;lcd.c: 60:   LCD_DATA(High4>>4);
  3882  0ED4  0874               	movf	LCD_Write_Char@High4,w
  3883  0ED5  00F1               	movwf	??_LCD_Write_Char
  3884  0ED6  3004               	movlw	4
  3885  0ED7                     u1265:
  3886  0ED7  1003               	clrc
  3887  0ED8  0CF1               	rrf	??_LCD_Write_Char,f
  3888  0ED9  3EFF               	addlw	-1
  3889  0EDA  1D03               	skipz
  3890  0EDB  2ED7               	goto	u1265
  3891  0EDC  0871               	movf	??_LCD_Write_Char,w
  3892  0EDD  120A  158A  254D  120A  158A  	fcall	_LCD_DATA
  3893  0EE2                     l1383:
  3894                           
  3895                           ;lcd.c: 61:   RD3 = 1;
  3896  0EE2  1283               	bcf	3,5	;RP0=0, select bank0
  3897  0EE3  1303               	bcf	3,6	;RP1=0, select bank0
  3898  0EE4  1588               	bsf	8,3	;volatile
  3899  0EE5                     l1385:
  3900                           
  3901                           ;lcd.c: 62:   _delay((unsigned long)((500)*(16000000/4000000.0)));
  3902  0EE5  3003               	movlw	3
  3903  0EE6  00F2               	movwf	??_LCD_Write_Char+1
  3904  0EE7  3097               	movlw	151
  3905  0EE8  00F1               	movwf	??_LCD_Write_Char
  3906  0EE9                     u2437:
  3907  0EE9  0BF1               	decfsz	??_LCD_Write_Char,f
  3908  0EEA  2EE9               	goto	u2437
  3909  0EEB  0BF2               	decfsz	??_LCD_Write_Char+1,f
  3910  0EEC  2EE9               	goto	u2437
  3911  0EED  2EEE               	nop2
  3912  0EEE                     l1387:
  3913                           
  3914                           ;lcd.c: 63:   RD3 = 0;
  3915  0EEE  1283               	bcf	3,5	;RP0=0, select bank0
  3916  0EEF  1303               	bcf	3,6	;RP1=0, select bank0
  3917  0EF0  1188               	bcf	8,3	;volatile
  3918  0EF1                     l1389:
  3919                           
  3920                           ;lcd.c: 64:   _delay((unsigned long)((500)*(16000000/4000000.0)));
  3921  0EF1  3003               	movlw	3
  3922  0EF2  00F2               	movwf	??_LCD_Write_Char+1
  3923  0EF3  3097               	movlw	151
  3924  0EF4  00F1               	movwf	??_LCD_Write_Char
  3925  0EF5                     u2447:
  3926  0EF5  0BF1               	decfsz	??_LCD_Write_Char,f
  3927  0EF6  2EF5               	goto	u2447
  3928  0EF7  0BF2               	decfsz	??_LCD_Write_Char+1,f
  3929  0EF8  2EF5               	goto	u2447
  3930  0EF9  2EFA               	nop2
  3931  0EFA                     l1391:
  3932                           
  3933                           ;lcd.c: 65:   LCD_DATA(Low4);
  3934  0EFA  0873               	movf	LCD_Write_Char@Low4,w
  3935  0EFB  120A  158A  254D  120A  158A  	fcall	_LCD_DATA
  3936  0F00                     l1393:
  3937                           
  3938                           ;lcd.c: 66:   RD3 = 1;
  3939  0F00  1283               	bcf	3,5	;RP0=0, select bank0
  3940  0F01  1303               	bcf	3,6	;RP1=0, select bank0
  3941  0F02  1588               	bsf	8,3	;volatile
  3942  0F03                     l1395:
  3943                           
  3944                           ;lcd.c: 67:   _delay((unsigned long)((500)*(16000000/4000000.0)));
  3945  0F03  3003               	movlw	3
  3946  0F04  00F2               	movwf	??_LCD_Write_Char+1
  3947  0F05  3097               	movlw	151
  3948  0F06  00F1               	movwf	??_LCD_Write_Char
  3949  0F07                     u2457:
  3950  0F07  0BF1               	decfsz	??_LCD_Write_Char,f
  3951  0F08  2F07               	goto	u2457
  3952  0F09  0BF2               	decfsz	??_LCD_Write_Char+1,f
  3953  0F0A  2F07               	goto	u2457
  3954  0F0B  2F0C               	nop2
  3955  0F0C                     l1397:
  3956                           
  3957                           ;lcd.c: 68:   RD3 = 0;
  3958  0F0C  1283               	bcf	3,5	;RP0=0, select bank0
  3959  0F0D  1303               	bcf	3,6	;RP1=0, select bank0
  3960  0F0E  1188               	bcf	8,3	;volatile
  3961  0F0F                     l1399:
  3962                           
  3963                           ;lcd.c: 69:   _delay((unsigned long)((500)*(16000000/4000000.0)));
  3964  0F0F  3003               	movlw	3
  3965  0F10  00F2               	movwf	??_LCD_Write_Char+1
  3966  0F11  3097               	movlw	151
  3967  0F12  00F1               	movwf	??_LCD_Write_Char
  3968  0F13                     u2467:
  3969  0F13  0BF1               	decfsz	??_LCD_Write_Char,f
  3970  0F14  2F13               	goto	u2467
  3971  0F15  0BF2               	decfsz	??_LCD_Write_Char+1,f
  3972  0F16  2F13               	goto	u2467
  3973  0F17  2F18               	nop2
  3974  0F18                     l94:
  3975  0F18  0008               	return
  3976  0F19                     __end_of_LCD_Write_Char:
  3977                           
  3978                           	psect	text11
  3979  0E74                     __ptext11:	
  3980 ;; *************** function _LCD_Set_Cursor *****************
  3981 ;; Defined at:
  3982 ;;		line 33 in file "lcd.c"
  3983 ;; Parameters:    Size  Location     Type
  3984 ;;  r               1    wreg     unsigned char 
  3985 ;;  c               1    4[COMMON] unsigned char 
  3986 ;; Auto vars:     Size  Location     Type
  3987 ;;  r               1    7[COMMON] unsigned char 
  3988 ;;  Temp            1   10[COMMON] unsigned char 
  3989 ;;  High4           1    9[COMMON] unsigned char 
  3990 ;;  Low4            1    8[COMMON] unsigned char 
  3991 ;; Return value:  Size  Location     Type
  3992 ;;                  1    wreg      void 
  3993 ;; Registers used:
  3994 ;;		wreg, status,2, status,0, pclath, cstack
  3995 ;; Tracked objects:
  3996 ;;		On entry : 0/0
  3997 ;;		On exit  : 0/0
  3998 ;;		Unchanged: 0/0
  3999 ;; Data sizes:     COMMON   BANK0   BANK1   BANK3   BANK2
  4000 ;;      Params:         1       0       0       0       0
  4001 ;;      Locals:         4       0       0       0       0
  4002 ;;      Temps:          2       0       0       0       0
  4003 ;;      Totals:         7       0       0       0       0
  4004 ;;Total ram usage:        7 bytes
  4005 ;; Hardware stack levels used:    1
  4006 ;; Hardware stack levels required when called:    2
  4007 ;; This function calls:
  4008 ;;		_LCD_CMD
  4009 ;; This function is called by:
  4010 ;;		_main
  4011 ;; This function uses a non-reentrant model
  4012 ;;
  4013                           
  4014                           
  4015                           ;psect for function _LCD_Set_Cursor
  4016  0E74                     _LCD_Set_Cursor:
  4017                           
  4018                           ;incstack = 0
  4019                           ; Regs used in _LCD_Set_Cursor: [wreg+status,2+status,0+pclath+cstack]
  4020                           ;LCD_Set_Cursor@r stored from wreg
  4021  0E74  00F7               	movwf	LCD_Set_Cursor@r
  4022  0E75                     l1529:
  4023                           
  4024                           ;lcd.c: 33: void LCD_Set_Cursor(unsigned char r, unsigned char c);lcd.c: 34: {;lcd.c: 35
      +                          :   unsigned char Temp,Low4,High4;;lcd.c: 36:   if(r == 1)
  4025  0E75  0377               	decf	LCD_Set_Cursor@r,w
  4026  0E76  1D03               	btfss	3,2
  4027  0E77  2E79               	goto	u1441
  4028  0E78  2E7A               	goto	u1440
  4029  0E79                     u1441:
  4030  0E79  2E9D               	goto	l1539
  4031  0E7A                     u1440:
  4032  0E7A                     l1531:
  4033                           
  4034                           ;lcd.c: 37:   {;lcd.c: 38:     Temp = 0x80 + c - 1;
  4035  0E7A  0874               	movf	LCD_Set_Cursor@c,w
  4036  0E7B  3E7F               	addlw	127
  4037  0E7C  00F5               	movwf	??_LCD_Set_Cursor
  4038  0E7D  0875               	movf	??_LCD_Set_Cursor,w
  4039  0E7E  00FA               	movwf	LCD_Set_Cursor@Temp
  4040                           
  4041                           ;lcd.c: 39:     High4 = Temp >> 4;
  4042  0E7F  087A               	movf	LCD_Set_Cursor@Temp,w
  4043  0E80  00F5               	movwf	??_LCD_Set_Cursor
  4044  0E81  3004               	movlw	4
  4045  0E82                     u1455:
  4046  0E82  1003               	clrc
  4047  0E83  0CF5               	rrf	??_LCD_Set_Cursor,f
  4048  0E84  3EFF               	addlw	-1
  4049  0E85  1D03               	skipz
  4050  0E86  2E82               	goto	u1455
  4051  0E87  0875               	movf	??_LCD_Set_Cursor,w
  4052  0E88  00F6               	movwf	??_LCD_Set_Cursor+1
  4053  0E89  0876               	movf	??_LCD_Set_Cursor+1,w
  4054  0E8A  00F9               	movwf	LCD_Set_Cursor@High4
  4055  0E8B                     l1533:
  4056                           
  4057                           ;lcd.c: 40:     Low4 = Temp & 0x0F;
  4058  0E8B  087A               	movf	LCD_Set_Cursor@Temp,w
  4059  0E8C  390F               	andlw	15
  4060  0E8D  00F5               	movwf	??_LCD_Set_Cursor
  4061  0E8E  0875               	movf	??_LCD_Set_Cursor,w
  4062  0E8F  00F8               	movwf	LCD_Set_Cursor@Low4
  4063  0E90                     l1535:
  4064                           
  4065                           ;lcd.c: 41:     LCD_CMD(High4);
  4066  0E90  0879               	movf	LCD_Set_Cursor@High4,w
  4067  0E91  120A  158A  2533  120A  158A  	fcall	_LCD_CMD
  4068  0E96                     l1537:
  4069                           
  4070                           ;lcd.c: 42:     LCD_CMD(Low4);
  4071  0E96  0878               	movf	LCD_Set_Cursor@Low4,w
  4072  0E97  120A  158A  2533  120A  158A  	fcall	_LCD_CMD
  4073                           
  4074                           ;lcd.c: 43:   }
  4075  0E9C  2EC5               	goto	l91
  4076  0E9D                     l1539:
  4077  0E9D  3002               	movlw	2
  4078  0E9E  0677               	xorwf	LCD_Set_Cursor@r,w
  4079  0E9F  1D03               	btfss	3,2
  4080  0EA0  2EA2               	goto	u1461
  4081  0EA1  2EA3               	goto	u1460
  4082  0EA2                     u1461:
  4083  0EA2  2EC5               	goto	l91
  4084  0EA3                     u1460:
  4085  0EA3                     l1541:
  4086                           
  4087                           ;lcd.c: 45:   {;lcd.c: 46:     Temp = 0xC0 + c - 1;
  4088  0EA3  0874               	movf	LCD_Set_Cursor@c,w
  4089  0EA4  3EBF               	addlw	191
  4090  0EA5  00F5               	movwf	??_LCD_Set_Cursor
  4091  0EA6  0875               	movf	??_LCD_Set_Cursor,w
  4092  0EA7  00FA               	movwf	LCD_Set_Cursor@Temp
  4093                           
  4094                           ;lcd.c: 47:     High4 = Temp >> 4;
  4095  0EA8  087A               	movf	LCD_Set_Cursor@Temp,w
  4096  0EA9  00F5               	movwf	??_LCD_Set_Cursor
  4097  0EAA  3004               	movlw	4
  4098  0EAB                     u1475:
  4099  0EAB  1003               	clrc
  4100  0EAC  0CF5               	rrf	??_LCD_Set_Cursor,f
  4101  0EAD  3EFF               	addlw	-1
  4102  0EAE  1D03               	skipz
  4103  0EAF  2EAB               	goto	u1475
  4104  0EB0  0875               	movf	??_LCD_Set_Cursor,w
  4105  0EB1  00F6               	movwf	??_LCD_Set_Cursor+1
  4106  0EB2  0876               	movf	??_LCD_Set_Cursor+1,w
  4107  0EB3  00F9               	movwf	LCD_Set_Cursor@High4
  4108  0EB4                     l1543:
  4109                           
  4110                           ;lcd.c: 48:     Low4 = Temp & 0x0F;
  4111  0EB4  087A               	movf	LCD_Set_Cursor@Temp,w
  4112  0EB5  390F               	andlw	15
  4113  0EB6  00F5               	movwf	??_LCD_Set_Cursor
  4114  0EB7  0875               	movf	??_LCD_Set_Cursor,w
  4115  0EB8  00F8               	movwf	LCD_Set_Cursor@Low4
  4116  0EB9                     l1545:
  4117                           
  4118                           ;lcd.c: 49:     LCD_CMD(High4);
  4119  0EB9  0879               	movf	LCD_Set_Cursor@High4,w
  4120  0EBA  120A  158A  2533  120A  158A  	fcall	_LCD_CMD
  4121  0EBF                     l1547:
  4122                           
  4123                           ;lcd.c: 50:     LCD_CMD(Low4);
  4124  0EBF  0878               	movf	LCD_Set_Cursor@Low4,w
  4125  0EC0  120A  158A  2533  120A  158A  	fcall	_LCD_CMD
  4126  0EC5                     l91:
  4127  0EC5  0008               	return
  4128  0EC6                     __end_of_LCD_Set_Cursor:
  4129                           
  4130                           	psect	text12
  4131  0F19                     __ptext12:	
  4132 ;; *************** function _LCD_Init *****************
  4133 ;; Defined at:
  4134 ;;		line 3 in file "lcd.c"
  4135 ;; Parameters:    Size  Location     Type
  4136 ;;		None
  4137 ;; Auto vars:     Size  Location     Type
  4138 ;;		None
  4139 ;; Return value:  Size  Location     Type
  4140 ;;                  1    wreg      void 
  4141 ;; Registers used:
  4142 ;;		wreg, status,2, status,0, pclath, cstack
  4143 ;; Tracked objects:
  4144 ;;		On entry : 0/0
  4145 ;;		On exit  : 0/0
  4146 ;;		Unchanged: 0/0
  4147 ;; Data sizes:     COMMON   BANK0   BANK1   BANK3   BANK2
  4148 ;;      Params:         0       0       0       0       0
  4149 ;;      Locals:         0       0       0       0       0
  4150 ;;      Temps:          2       0       0       0       0
  4151 ;;      Totals:         2       0       0       0       0
  4152 ;;Total ram usage:        2 bytes
  4153 ;; Hardware stack levels used:    1
  4154 ;; Hardware stack levels required when called:    2
  4155 ;; This function calls:
  4156 ;;		_LCD_CMD
  4157 ;;		_LCD_DATA
  4158 ;; This function is called by:
  4159 ;;		_main
  4160 ;; This function uses a non-reentrant model
  4161 ;;
  4162                           
  4163                           
  4164                           ;psect for function _LCD_Init
  4165  0F19                     _LCD_Init:
  4166  0F19                     l1493:	
  4167                           ;incstack = 0
  4168                           ; Regs used in _LCD_Init: [wreg+status,2+status,0+pclath+cstack]
  4169                           
  4170                           
  4171                           ;lcd.c: 6:   TRISD = 0x00;
  4172  0F19  1683               	bsf	3,5	;RP0=1, select bank1
  4173  0F1A  1303               	bcf	3,6	;RP1=0, select bank1
  4174  0F1B  0188               	clrf	8	;volatile
  4175  0F1C                     l1495:
  4176                           
  4177                           ;lcd.c: 7:   TRISD2 = 0;
  4178  0F1C  1108               	bcf	8,2	;volatile
  4179  0F1D                     l1497:
  4180                           
  4181                           ;lcd.c: 8:   TRISD3 = 0;
  4182  0F1D  1188               	bcf	8,3	;volatile
  4183  0F1E                     l1499:
  4184                           
  4185                           ;lcd.c: 10:   LCD_DATA(0x00);
  4186  0F1E  3000               	movlw	0
  4187  0F1F  120A  158A  254D  120A  158A  	fcall	_LCD_DATA
  4188  0F24                     l1501:
  4189                           
  4190                           ;lcd.c: 11:   _delay((unsigned long)((30)*(16000000/4000.0)));
  4191  0F24  309C               	movlw	156
  4192  0F25  00F5               	movwf	??_LCD_Init+1
  4193  0F26  30D7               	movlw	215
  4194  0F27  00F4               	movwf	??_LCD_Init
  4195  0F28                     u2477:
  4196  0F28  0BF4               	decfsz	??_LCD_Init,f
  4197  0F29  2F28               	goto	u2477
  4198  0F2A  0BF5               	decfsz	??_LCD_Init+1,f
  4199  0F2B  2F28               	goto	u2477
  4200  0F2C                     l1503:
  4201                           
  4202                           ;lcd.c: 12:   _delay((unsigned long)((500)*(16000000/4000000.0)));
  4203  0F2C  3003               	movlw	3
  4204  0F2D  00F5               	movwf	??_LCD_Init+1
  4205  0F2E  3097               	movlw	151
  4206  0F2F  00F4               	movwf	??_LCD_Init
  4207  0F30                     u2487:
  4208  0F30  0BF4               	decfsz	??_LCD_Init,f
  4209  0F31  2F30               	goto	u2487
  4210  0F32  0BF5               	decfsz	??_LCD_Init+1,f
  4211  0F33  2F30               	goto	u2487
  4212  0F34  2F35               	nop2
  4213  0F35                     l1505:
  4214                           
  4215                           ;lcd.c: 13:   LCD_CMD(0x03);
  4216  0F35  3003               	movlw	3
  4217  0F36  120A  158A  2533  120A  158A  	fcall	_LCD_CMD
  4218  0F3B                     l1507:
  4219                           
  4220                           ;lcd.c: 14:   _delay((unsigned long)((5)*(16000000/4000.0)));
  4221  0F3B  301A               	movlw	26
  4222  0F3C  00F5               	movwf	??_LCD_Init+1
  4223  0F3D  30F8               	movlw	248
  4224  0F3E  00F4               	movwf	??_LCD_Init
  4225  0F3F                     u2497:
  4226  0F3F  0BF4               	decfsz	??_LCD_Init,f
  4227  0F40  2F3F               	goto	u2497
  4228  0F41  0BF5               	decfsz	??_LCD_Init+1,f
  4229  0F42  2F3F               	goto	u2497
  4230  0F43  0000               	nop
  4231  0F44                     l1509:
  4232                           
  4233                           ;lcd.c: 15:   LCD_CMD(0x03);
  4234  0F44  3003               	movlw	3
  4235  0F45  120A  158A  2533  120A  158A  	fcall	_LCD_CMD
  4236  0F4A                     l1511:
  4237                           
  4238                           ;lcd.c: 16:   _delay((unsigned long)((150)*(16000000/4000000.0)));
  4239  0F4A  30C7               	movlw	199
  4240  0F4B  00F4               	movwf	??_LCD_Init
  4241  0F4C                     u2507:
  4242  0F4C  0BF4               	decfsz	??_LCD_Init,f
  4243  0F4D  2F4C               	goto	u2507
  4244  0F4E  2F4F               	nop2
  4245  0F4F                     l1513:
  4246                           
  4247                           ;lcd.c: 17:   LCD_CMD(0x03);
  4248  0F4F  3003               	movlw	3
  4249  0F50  120A  158A  2533  120A  158A  	fcall	_LCD_CMD
  4250  0F55                     l1515:
  4251                           
  4252                           ;lcd.c: 18:   LCD_CMD(0x02);
  4253  0F55  3002               	movlw	2
  4254  0F56  120A  158A  2533  120A  158A  	fcall	_LCD_CMD
  4255  0F5B                     l1517:
  4256                           
  4257                           ;lcd.c: 19:   LCD_CMD(0x02);
  4258  0F5B  3002               	movlw	2
  4259  0F5C  120A  158A  2533  120A  158A  	fcall	_LCD_CMD
  4260  0F61                     l1519:
  4261                           
  4262                           ;lcd.c: 20:   LCD_CMD(0x08);
  4263  0F61  3008               	movlw	8
  4264  0F62  120A  158A  2533  120A  158A  	fcall	_LCD_CMD
  4265  0F67                     l1521:
  4266                           
  4267                           ;lcd.c: 21:   LCD_CMD(0x00);
  4268  0F67  3000               	movlw	0
  4269  0F68  120A  158A  2533  120A  158A  	fcall	_LCD_CMD
  4270  0F6D                     l1523:
  4271                           
  4272                           ;lcd.c: 22:   LCD_CMD(0x0C);
  4273  0F6D  300C               	movlw	12
  4274  0F6E  120A  158A  2533  120A  158A  	fcall	_LCD_CMD
  4275  0F73                     l1525:
  4276                           
  4277                           ;lcd.c: 23:   LCD_CMD(0x00);
  4278  0F73  3000               	movlw	0
  4279  0F74  120A  158A  2533  120A  158A  	fcall	_LCD_CMD
  4280  0F79                     l1527:
  4281                           
  4282                           ;lcd.c: 24:   LCD_CMD(0x06);
  4283  0F79  3006               	movlw	6
  4284  0F7A  120A  158A  2533  120A  158A  	fcall	_LCD_CMD
  4285  0F7F                     l82:
  4286  0F7F  0008               	return
  4287  0F80                     __end_of_LCD_Init:
  4288                           
  4289                           	psect	text13
  4290  0D33                     __ptext13:	
  4291 ;; *************** function _LCD_CMD *****************
  4292 ;; Defined at:
  4293 ;;		line 140 in file "lcd.c"
  4294 ;; Parameters:    Size  Location     Type
  4295 ;;  CMD             1    wreg     unsigned char 
  4296 ;; Auto vars:     Size  Location     Type
  4297 ;;  CMD             1    3[COMMON] unsigned char 
  4298 ;; Return value:  Size  Location     Type
  4299 ;;                  1    wreg      void 
  4300 ;; Registers used:
  4301 ;;		wreg, status,2, status,0, pclath, cstack
  4302 ;; Tracked objects:
  4303 ;;		On entry : 0/0
  4304 ;;		On exit  : 0/0
  4305 ;;		Unchanged: 0/0
  4306 ;; Data sizes:     COMMON   BANK0   BANK1   BANK3   BANK2
  4307 ;;      Params:         0       0       0       0       0
  4308 ;;      Locals:         1       0       0       0       0
  4309 ;;      Temps:          2       0       0       0       0
  4310 ;;      Totals:         3       0       0       0       0
  4311 ;;Total ram usage:        3 bytes
  4312 ;; Hardware stack levels used:    1
  4313 ;; Hardware stack levels required when called:    1
  4314 ;; This function calls:
  4315 ;;		_LCD_DATA
  4316 ;; This function is called by:
  4317 ;;		_LCD_Init
  4318 ;;		_LCD_Set_Cursor
  4319 ;;		_LCD_Clear
  4320 ;;		_LCD_SL
  4321 ;;		_LCD_SR
  4322 ;; This function uses a non-reentrant model
  4323 ;;
  4324                           
  4325                           
  4326                           ;psect for function _LCD_CMD
  4327  0D33                     _LCD_CMD:
  4328                           
  4329                           ;incstack = 0
  4330                           ; Regs used in _LCD_CMD: [wreg+status,2+status,0+pclath+cstack]
  4331                           ;LCD_CMD@CMD stored from wreg
  4332  0D33  00F3               	movwf	LCD_CMD@CMD
  4333  0D34                     l1401:
  4334                           
  4335                           ;lcd.c: 140: void LCD_CMD(unsigned char CMD);lcd.c: 141: {;lcd.c: 143:   RD2 = 0;
  4336  0D34  1283               	bcf	3,5	;RP0=0, select bank0
  4337  0D35  1303               	bcf	3,6	;RP1=0, select bank0
  4338  0D36  1108               	bcf	8,2	;volatile
  4339  0D37                     l1403:
  4340                           
  4341                           ;lcd.c: 145:   LCD_DATA(CMD);
  4342  0D37  0873               	movf	LCD_CMD@CMD,w
  4343  0D38  120A  158A  254D  120A  158A  	fcall	_LCD_DATA
  4344  0D3D                     l1405:
  4345                           
  4346                           ;lcd.c: 147:   RD3 = 1;
  4347  0D3D  1283               	bcf	3,5	;RP0=0, select bank0
  4348  0D3E  1303               	bcf	3,6	;RP1=0, select bank0
  4349  0D3F  1588               	bsf	8,3	;volatile
  4350  0D40                     l1407:
  4351                           
  4352                           ;lcd.c: 148:   _delay((unsigned long)((500)*(16000000/4000000.0)));
  4353  0D40  3003               	movlw	3
  4354  0D41  00F2               	movwf	??_LCD_CMD+1
  4355  0D42  3097               	movlw	151
  4356  0D43  00F1               	movwf	??_LCD_CMD
  4357  0D44                     u2517:
  4358  0D44  0BF1               	decfsz	??_LCD_CMD,f
  4359  0D45  2D44               	goto	u2517
  4360  0D46  0BF2               	decfsz	??_LCD_CMD+1,f
  4361  0D47  2D44               	goto	u2517
  4362  0D48  2D49               	nop2
  4363  0D49                     l1409:
  4364                           
  4365                           ;lcd.c: 149:   RD3 = 0;
  4366  0D49  1283               	bcf	3,5	;RP0=0, select bank0
  4367  0D4A  1303               	bcf	3,6	;RP1=0, select bank0
  4368  0D4B  1188               	bcf	8,3	;volatile
  4369  0D4C                     l131:
  4370  0D4C  0008               	return
  4371  0D4D                     __end_of_LCD_CMD:
  4372                           
  4373                           	psect	text14
  4374  0D4D                     __ptext14:	
  4375 ;; *************** function _LCD_DATA *****************
  4376 ;; Defined at:
  4377 ;;		line 120 in file "lcd.c"
  4378 ;; Parameters:    Size  Location     Type
  4379 ;;  Data            1    wreg     unsigned char 
  4380 ;; Auto vars:     Size  Location     Type
  4381 ;;  Data            1    0[COMMON] unsigned char 
  4382 ;; Return value:  Size  Location     Type
  4383 ;;                  1    wreg      void 
  4384 ;; Registers used:
  4385 ;;		wreg
  4386 ;; Tracked objects:
  4387 ;;		On entry : 0/0
  4388 ;;		On exit  : 0/0
  4389 ;;		Unchanged: 0/0
  4390 ;; Data sizes:     COMMON   BANK0   BANK1   BANK3   BANK2
  4391 ;;      Params:         0       0       0       0       0
  4392 ;;      Locals:         1       0       0       0       0
  4393 ;;      Temps:          0       0       0       0       0
  4394 ;;      Totals:         1       0       0       0       0
  4395 ;;Total ram usage:        1 bytes
  4396 ;; Hardware stack levels used:    1
  4397 ;; This function calls:
  4398 ;;		Nothing
  4399 ;; This function is called by:
  4400 ;;		_LCD_Init
  4401 ;;		_LCD_Write_Char
  4402 ;;		_LCD_CMD
  4403 ;; This function uses a non-reentrant model
  4404 ;;
  4405                           
  4406                           
  4407                           ;psect for function _LCD_DATA
  4408  0D4D                     _LCD_DATA:
  4409                           
  4410                           ;incstack = 0
  4411                           ; Regs used in _LCD_DATA: [wreg]
  4412                           ;LCD_DATA@Data stored from wreg
  4413  0D4D  00F0               	movwf	LCD_DATA@Data
  4414  0D4E                     l1367:
  4415                           
  4416                           ;lcd.c: 120: void LCD_DATA(unsigned char Data);lcd.c: 121: {;lcd.c: 122:   if(Data & 1)
  4417  0D4E  1C70               	btfss	LCD_DATA@Data,0
  4418  0D4F  2D51               	goto	u1221
  4419  0D50  2D52               	goto	u1220
  4420  0D51                     u1221:
  4421  0D51  2D56               	goto	l120
  4422  0D52                     u1220:
  4423  0D52                     l1369:
  4424                           
  4425                           ;lcd.c: 123:     RD4 = 1;
  4426  0D52  1283               	bcf	3,5	;RP0=0, select bank0
  4427  0D53  1303               	bcf	3,6	;RP1=0, select bank0
  4428  0D54  1608               	bsf	8,4	;volatile
  4429  0D55  2D59               	goto	l121
  4430  0D56                     l120:	
  4431                           ;lcd.c: 124:   else
  4432                           
  4433                           
  4434                           ;lcd.c: 125:     RD4 = 0;
  4435  0D56  1283               	bcf	3,5	;RP0=0, select bank0
  4436  0D57  1303               	bcf	3,6	;RP1=0, select bank0
  4437  0D58  1208               	bcf	8,4	;volatile
  4438  0D59                     l121:
  4439                           
  4440                           ;lcd.c: 126:   if(Data & 2)
  4441  0D59  1CF0               	btfss	LCD_DATA@Data,1
  4442  0D5A  2D5C               	goto	u1231
  4443  0D5B  2D5D               	goto	u1230
  4444  0D5C                     u1231:
  4445  0D5C  2D5F               	goto	l122
  4446  0D5D                     u1230:
  4447  0D5D                     l1371:
  4448                           
  4449                           ;lcd.c: 127:     RD5 = 1;
  4450  0D5D  1688               	bsf	8,5	;volatile
  4451  0D5E  2D60               	goto	l123
  4452  0D5F                     l122:	
  4453                           ;lcd.c: 128:   else
  4454                           
  4455                           
  4456                           ;lcd.c: 129:     RD5 = 0;
  4457  0D5F  1288               	bcf	8,5	;volatile
  4458  0D60                     l123:
  4459                           
  4460                           ;lcd.c: 130:   if(Data & 4)
  4461  0D60  1D70               	btfss	LCD_DATA@Data,2
  4462  0D61  2D63               	goto	u1241
  4463  0D62  2D64               	goto	u1240
  4464  0D63                     u1241:
  4465  0D63  2D66               	goto	l124
  4466  0D64                     u1240:
  4467  0D64                     l1373:
  4468                           
  4469                           ;lcd.c: 131:     RD6 = 1;
  4470  0D64  1708               	bsf	8,6	;volatile
  4471  0D65  2D67               	goto	l125
  4472  0D66                     l124:	
  4473                           ;lcd.c: 132:   else
  4474                           
  4475                           
  4476                           ;lcd.c: 133:     RD6 = 0;
  4477  0D66  1308               	bcf	8,6	;volatile
  4478  0D67                     l125:
  4479                           
  4480                           ;lcd.c: 134:   if(Data & 8)
  4481  0D67  1DF0               	btfss	LCD_DATA@Data,3
  4482  0D68  2D6A               	goto	u1251
  4483  0D69  2D6B               	goto	u1250
  4484  0D6A                     u1251:
  4485  0D6A  2D6D               	goto	l126
  4486  0D6B                     u1250:
  4487  0D6B                     l1375:
  4488                           
  4489                           ;lcd.c: 135:     RD7 = 1;
  4490  0D6B  1788               	bsf	8,7	;volatile
  4491  0D6C  2D6E               	goto	l128
  4492  0D6D                     l126:	
  4493                           ;lcd.c: 136:   else
  4494                           
  4495                           
  4496                           ;lcd.c: 137:     RD7 = 0;
  4497  0D6D  1388               	bcf	8,7	;volatile
  4498  0D6E                     l128:
  4499  0D6E  0008               	return
  4500  0D6F                     __end_of_LCD_DATA:
  4501                           
  4502                           	psect	text15
  4503  0DF5                     __ptext15:	
  4504 ;; *************** function _ADC_Read *****************
  4505 ;; Defined at:
  4506 ;;		line 11 in file "./adc_thay_hai.h"
  4507 ;; Parameters:    Size  Location     Type
  4508 ;;  Channel         1    wreg     unsigned char 
  4509 ;; Auto vars:     Size  Location     Type
  4510 ;;  Channel         1    6[COMMON] unsigned char 
  4511 ;;  value           2    4[COMMON] unsigned int 
  4512 ;; Return value:  Size  Location     Type
  4513 ;;                  2    0[COMMON] unsigned int 
  4514 ;; Registers used:
  4515 ;;		wreg, fsr0l, fsr0h, status,2, status,0
  4516 ;; Tracked objects:
  4517 ;;		On entry : 0/0
  4518 ;;		On exit  : 0/0
  4519 ;;		Unchanged: 0/0
  4520 ;; Data sizes:     COMMON   BANK0   BANK1   BANK3   BANK2
  4521 ;;      Params:         2       0       0       0       0
  4522 ;;      Locals:         3       0       0       0       0
  4523 ;;      Temps:          2       0       0       0       0
  4524 ;;      Totals:         7       0       0       0       0
  4525 ;;Total ram usage:        7 bytes
  4526 ;; Hardware stack levels used:    1
  4527 ;; This function calls:
  4528 ;;		Nothing
  4529 ;; This function is called by:
  4530 ;;		_main
  4531 ;; This function uses a non-reentrant model
  4532 ;;
  4533                           
  4534                           
  4535                           ;psect for function _ADC_Read
  4536  0DF5                     _ADC_Read:
  4537                           
  4538                           ;incstack = 0
  4539                           ; Regs used in _ADC_Read: [wreg-fsr0h+status,2+status,0]
  4540                           ;ADC_Read@Channel stored from wreg
  4541  0DF5  00F6               	movwf	ADC_Read@Channel
  4542  0DF6                     l1475:
  4543                           
  4544                           ;./adc_thay_hai.h: 11: unsigned int ADC_Read(unsigned char Channel);./adc_thay_hai.h: 12
      +                          : {;./adc_thay_hai.h: 13:     unsigned int value;;./adc_thay_hai.h: 14:     switch(Chann
      +                          el)
  4545  0DF6  2E03               	goto	l1477
  4546  0DF7                     l37:	
  4547                           ;./adc_thay_hai.h: 15:  {;./adc_thay_hai.h: 16:  case 0: CHS0 = 0; CHS1 = 0; CHS2 = 0; b
      +                          reak;
  4548                           
  4549  0DF7  1283               	bcf	3,5	;RP0=0, select bank0
  4550  0DF8  1303               	bcf	3,6	;RP1=0, select bank0
  4551  0DF9  119F               	bcf	31,3	;volatile
  4552  0DFA  121F               	bcf	31,4	;volatile
  4553  0DFB  129F               	bcf	31,5	;volatile
  4554  0DFC  2E13               	goto	l38
  4555  0DFD                     l39:	
  4556                           ;./adc_thay_hai.h: 17:     case 1: CHS0 = 1; CHS1 = 0; CHS2 = 0;
  4557                           
  4558  0DFD  1283               	bcf	3,5	;RP0=0, select bank0
  4559  0DFE  1303               	bcf	3,6	;RP1=0, select bank0
  4560  0DFF  159F               	bsf	31,3	;volatile
  4561  0E00  121F               	bcf	31,4	;volatile
  4562  0E01  129F               	bcf	31,5	;volatile
  4563                           
  4564                           ;./adc_thay_hai.h: 18:     }
  4565  0E02  2E13               	goto	l38
  4566  0E03                     l1477:
  4567  0E03  0876               	movf	ADC_Read@Channel,w
  4568  0E04  00F2               	movwf	??_ADC_Read
  4569  0E05  01F3               	clrf	??_ADC_Read+1
  4570                           
  4571                           ; Switch on 2 bytes has been partitioned into a top level switch of size 1, and 1 sub-sw
      +                          itches
  4572                           ; Switch size 1, requested type "simple"
  4573                           ; Number of cases is 1, Range of values is 0 to 0
  4574                           ; switch strategies available:
  4575                           ; Name         Instructions Cycles
  4576                           ; simple_byte            4     3 (average)
  4577                           ; direct_byte           11     8 (fixed)
  4578                           ; jumptable            260     6 (fixed)
  4579                           ;	Chosen strategy is simple_byte
  4580  0E06  0873               	movf	??_ADC_Read+1,w
  4581  0E07  3A00               	xorlw	0	; case 0
  4582  0E08  1903               	skipnz
  4583  0E09  2E0B               	goto	l2011
  4584  0E0A  2E13               	goto	l38
  4585  0E0B                     l2011:
  4586                           
  4587                           ; Switch size 1, requested type "simple"
  4588                           ; Number of cases is 2, Range of values is 0 to 1
  4589                           ; switch strategies available:
  4590                           ; Name         Instructions Cycles
  4591                           ; simple_byte            7     4 (average)
  4592                           ; direct_byte           14     8 (fixed)
  4593                           ; jumptable            260     6 (fixed)
  4594                           ;	Chosen strategy is simple_byte
  4595  0E0B  0872               	movf	??_ADC_Read,w
  4596  0E0C  3A00               	xorlw	0	; case 0
  4597  0E0D  1903               	skipnz
  4598  0E0E  2DF7               	goto	l37
  4599  0E0F  3A01               	xorlw	1	; case 1
  4600  0E10  1903               	skipnz
  4601  0E11  2DFD               	goto	l39
  4602  0E12  2E13               	goto	l38
  4603  0E13                     l38:
  4604                           
  4605                           ;./adc_thay_hai.h: 19:     ADON=1;
  4606  0E13  1283               	bcf	3,5	;RP0=0, select bank0
  4607  0E14  1303               	bcf	3,6	;RP1=0, select bank0
  4608  0E15  141F               	bsf	31,0	;volatile
  4609  0E16                     l1479:
  4610                           
  4611                           ;./adc_thay_hai.h: 20:     _delay((unsigned long)((5)*(16000000/4000000.0)));
  4612  0E16  3006               	movlw	6
  4613  0E17  00F2               	movwf	??_ADC_Read
  4614  0E18                     u2527:
  4615  0E18  0BF2               	decfsz	??_ADC_Read,f
  4616  0E19  2E18               	goto	u2527
  4617  0E1A  0000               	nop
  4618  0E1B                     l1481:
  4619                           
  4620                           ;./adc_thay_hai.h: 21:     GO_DONE=1;
  4621  0E1B  1283               	bcf	3,5	;RP0=0, select bank0
  4622  0E1C  1303               	bcf	3,6	;RP1=0, select bank0
  4623  0E1D  151F               	bsf	31,2	;volatile
  4624  0E1E                     l40:	
  4625                           ;./adc_thay_hai.h: 22:     while(GO_DONE);
  4626                           
  4627  0E1E  191F               	btfsc	31,2	;volatile
  4628  0E1F  2E21               	goto	u1431
  4629  0E20  2E22               	goto	u1430
  4630  0E21                     u1431:
  4631  0E21  2E1E               	goto	l40
  4632  0E22                     u1430:
  4633  0E22                     l1483:
  4634                           
  4635                           ;./adc_thay_hai.h: 23:     value=(unsigned int)ADRESH*256+ADRESL;
  4636  0E22  081E               	movf	30,w	;volatile
  4637  0E23  00F5               	movwf	ADC_Read@value+1
  4638  0E24  1683               	bsf	3,5	;RP0=1, select bank1
  4639  0E25  1303               	bcf	3,6	;RP1=0, select bank1
  4640  0E26  081E               	movf	30,w	;volatile
  4641  0E27  00F4               	movwf	ADC_Read@value
  4642  0E28                     l1485:
  4643                           
  4644                           ;./adc_thay_hai.h: 24:     ADON=0;
  4645  0E28  1283               	bcf	3,5	;RP0=0, select bank0
  4646  0E29  1303               	bcf	3,6	;RP1=0, select bank0
  4647  0E2A  101F               	bcf	31,0	;volatile
  4648                           
  4649                           ;./adc_thay_hai.h: 28:     return value;
  4650  0E2B  0875               	movf	ADC_Read@value+1,w
  4651  0E2C  00F1               	movwf	?_ADC_Read+1
  4652  0E2D  0874               	movf	ADC_Read@value,w
  4653  0E2E  00F0               	movwf	?_ADC_Read
  4654  0E2F                     l43:
  4655  0E2F  0008               	return
  4656  0E30                     __end_of_ADC_Read:
  4657                           
  4658                           	psect	text16
  4659  0D2A                     __ptext16:	
  4660 ;; *************** function _ADC_Init *****************
  4661 ;; Defined at:
  4662 ;;		line 4 in file "./adc_thay_hai.h"
  4663 ;; Parameters:    Size  Location     Type
  4664 ;;		None
  4665 ;; Auto vars:     Size  Location     Type
  4666 ;;		None
  4667 ;; Return value:  Size  Location     Type
  4668 ;;                  1    wreg      void 
  4669 ;; Registers used:
  4670 ;;		wreg
  4671 ;; Tracked objects:
  4672 ;;		On entry : 0/0
  4673 ;;		On exit  : 0/0
  4674 ;;		Unchanged: 0/0
  4675 ;; Data sizes:     COMMON   BANK0   BANK1   BANK3   BANK2
  4676 ;;      Params:         0       0       0       0       0
  4677 ;;      Locals:         0       0       0       0       0
  4678 ;;      Temps:          0       0       0       0       0
  4679 ;;      Totals:         0       0       0       0       0
  4680 ;;Total ram usage:        0 bytes
  4681 ;; Hardware stack levels used:    1
  4682 ;; This function calls:
  4683 ;;		Nothing
  4684 ;; This function is called by:
  4685 ;;		_main
  4686 ;; This function uses a non-reentrant model
  4687 ;;
  4688                           
  4689                           
  4690                           ;psect for function _ADC_Init
  4691  0D2A                     _ADC_Init:
  4692  0D2A                     l1473:	
  4693                           ;incstack = 0
  4694                           ; Regs used in _ADC_Init: [wreg]
  4695                           
  4696                           
  4697                           ;./adc_thay_hai.h: 6:     ADCON1 = 0b11000100;
  4698  0D2A  30C4               	movlw	196
  4699  0D2B  1683               	bsf	3,5	;RP0=1, select bank1
  4700  0D2C  1303               	bcf	3,6	;RP1=0, select bank1
  4701  0D2D  009F               	movwf	31	;volatile
  4702                           
  4703                           ;./adc_thay_hai.h: 7:     ADCON0 =0x80;
  4704  0D2E  3080               	movlw	128
  4705  0D2F  1283               	bcf	3,5	;RP0=0, select bank0
  4706  0D30  1303               	bcf	3,6	;RP1=0, select bank0
  4707  0D31  009F               	movwf	31	;volatile
  4708  0D32                     l33:
  4709  0D32  0008               	return
  4710  0D33                     __end_of_ADC_Init:
  4711  007E                     btemp	set	126	;btemp
  4712  007E                     wtemp0	set	126
  4713                           
  4714                           	psect	config
  4715                           
  4716                           ;Config register CONFIG @ 0x2007
  4717                           ;	Oscillator Selection bits
  4718                           ;	FOSC = HS, HS oscillator
  4719                           ;	Watchdog Timer Enable bit
  4720                           ;	WDTE = OFF, WDT disabled
  4721                           ;	Power-up Timer Enable bit
  4722                           ;	PWRTE = ON, PWRT enabled
  4723                           ;	Brown-out Reset Enable bit
  4724                           ;	BOREN = ON, BOR enabled
  4725                           ;	Low-Voltage (Single-Supply) In-Circuit Serial Programming Enable bit
  4726                           ;	LVP = ON, RB3/PGM pin has PGM function; low-voltage programming enabled
  4727                           ;	Data EEPROM Memory Code Protection bit
  4728                           ;	CPD = OFF, Data EEPROM code protection off
  4729                           ;	Flash Program Memory Write Enable bits
  4730                           ;	WRT = OFF, Write protection off; all program memory may be written to by EECON control
  4731                           ;	In-Circuit Debugger Mode bit
  4732                           ;	DEBUG = 0x1, unprogrammed default
  4733                           ;	Flash Program Memory Code Protection bit
  4734                           ;	CP = OFF, Code protection off
  4735  2007                     	org	8199
  4736  2007  3FF2               	dw	16370

Data Sizes:
    Strings     21
    Constant    0
    Data        0
    BSS         4
    Persistent  0
    Stack       0

Auto Spaces:
    Space          Size  Autos    Used
    COMMON           14     14      14
    BANK0            80     67      71
    BANK1            80      0       0
    BANK3            96      0       0
    BANK2            96      0       0

Pointer List with Targets:

    LCD_Write_String@str	PTR unsigned char  size(1) Largest target is 5
		 -> STR_5(CODE[4]), STR_4(CODE[3]), STR_3(CODE[5]), STR_2(CODE[4]), 
		 -> STR_1(CODE[5]), 


Critical Paths under _main in COMMON

    _main->___lwdiv
    _main->___xxtofl
    ___fltol->___xxtofl
    ___flmul->___xxtofl
    ___fldiv->___xxtofl
    _LCD_Write_String->_LCD_Write_Char
    _LCD_Write_Number->___lwdiv
    ___lwdiv->___lwmod
    _LCD_Write_Char->_LCD_DATA
    _LCD_Set_Cursor->_LCD_CMD
    _LCD_Init->_LCD_CMD
    _LCD_CMD->_LCD_DATA

Critical Paths under _main in BANK0

    _main->___fltol
    ___fltol->___fldiv
    ___fldiv->___flmul

Critical Paths under _main in BANK1

    None.

Critical Paths under _main in BANK3

    None.

Critical Paths under _main in BANK2

    None.

Call Graph Tables:

 ---------------------------------------------------------------------------------
 (Depth) Function   	        Calls       Base Space   Used Autos Params    Refs
 ---------------------------------------------------------------------------------
 (0) _main                                                 4     4      0   10149
                                             63 BANK0      4     4      0
                           _ADC_Init
                           _ADC_Read
                           _LCD_Init
                     _LCD_Set_Cursor
                     _LCD_Write_Char
                   _LCD_Write_Number
                   _LCD_Write_String
                            ___fldiv
                            ___flmul
                            ___fltol
                            ___lwdiv
                            ___lwmod
                           ___xxtofl
 ---------------------------------------------------------------------------------
 (1) ___xxtofl                                            14    10      4     474
                                              0 COMMON    14    10      4
 ---------------------------------------------------------------------------------
 (1) ___fltol                                             11     7      4     381
                                             52 BANK0     11     7      4
                            ___fldiv (ARG)
                            ___flmul (ARG)
                           ___xxtofl (ARG)
 ---------------------------------------------------------------------------------
 (1) ___flmul                                             26    18      8    2569
                                              0 BANK0     26    18      8
                          __Umul8_16
                           ___xxtofl (ARG)
 ---------------------------------------------------------------------------------
 (2) __Umul8_16                                            9     7      2     799
                                              0 COMMON     9     7      2
 ---------------------------------------------------------------------------------
 (1) ___fldiv                                             26    18      8    1273
                                             26 BANK0     26    18      8
                            ___flmul (ARG)
                           ___xxtofl (ARG)
 ---------------------------------------------------------------------------------
 (1) _LCD_Write_String                                     3     3      0     433
                                              6 COMMON     3     3      0
                     _LCD_Write_Char
 ---------------------------------------------------------------------------------
 (1) _LCD_Write_Number                                    29    27      2    2437
                                              0 BANK0     29    27      2
                     _LCD_Write_Char
                            ___lwdiv
                            ___lwmod
 ---------------------------------------------------------------------------------
 (1) ___lwmod                                              6     2      4     767
                                              0 COMMON     6     2      4
 ---------------------------------------------------------------------------------
 (1) ___lwdiv                                              8     4      4     770
                                              6 COMMON     8     4      4
                            ___lwmod (ARG)
 ---------------------------------------------------------------------------------
 (2) _LCD_Write_Char                                       5     5      0     178
                                              1 COMMON     5     5      0
                           _LCD_DATA
 ---------------------------------------------------------------------------------
 (1) _LCD_Set_Cursor                                       7     6      1     532
                                              4 COMMON     7     6      1
                            _LCD_CMD
 ---------------------------------------------------------------------------------
 (1) _LCD_Init                                             2     2      0     198
                                              4 COMMON     2     2      0
                            _LCD_CMD
                           _LCD_DATA
 ---------------------------------------------------------------------------------
 (2) _LCD_CMD                                              3     3      0     110
                                              1 COMMON     3     3      0
                           _LCD_DATA
 ---------------------------------------------------------------------------------
 (3) _LCD_DATA                                             1     1      0      88
                                              0 COMMON     1     1      0
 ---------------------------------------------------------------------------------
 (1) _ADC_Read                                             7     5      2      45
                                              0 COMMON     7     5      2
 ---------------------------------------------------------------------------------
 (1) _ADC_Init                                             0     0      0       0
 ---------------------------------------------------------------------------------
 Estimated maximum stack depth 3
 ---------------------------------------------------------------------------------

 Call Graph Graphs:

 _main (ROOT)
   _ADC_Init
   _ADC_Read
   _LCD_Init
     _LCD_CMD
       _LCD_DATA
     _LCD_DATA
   _LCD_Set_Cursor
     _LCD_CMD
       _LCD_DATA
   _LCD_Write_Char
     _LCD_DATA
   _LCD_Write_Number
     _LCD_Write_Char
       _LCD_DATA
     ___lwdiv
       ___lwmod (ARG)
     ___lwmod
   _LCD_Write_String
     _LCD_Write_Char
       _LCD_DATA
   ___fldiv
     ___flmul (ARG)
       __Umul8_16
       ___xxtofl (ARG)
     ___xxtofl (ARG)
   ___flmul
     __Umul8_16
     ___xxtofl (ARG)
   ___fltol
     ___fldiv (ARG)
       ___flmul (ARG)
         __Umul8_16
         ___xxtofl (ARG)
       ___xxtofl (ARG)
     ___flmul (ARG)
       __Umul8_16
       ___xxtofl (ARG)
     ___xxtofl (ARG)
   ___lwdiv
     ___lwmod (ARG)
   ___lwmod
   ___xxtofl

 Address spaces:
Name               Size   Autos  Total    Cost      Usage
BITCOMMON            E      0       0       0        0.0%
EEDATA             100      0       0       0        0.0%
NULL                 0      0       0       0        0.0%
CODE                 0      0       0       0        0.0%
COMMON               E      E       E       1      100.0%
BITSFR0              0      0       0       1        0.0%
SFR0                 0      0       0       1        0.0%
BITSFR1              0      0       0       2        0.0%
SFR1                 0      0       0       2        0.0%
STACK                0      0       0       2        0.0%
ABS                  0      0      55       3        0.0%
BITBANK0            50      0       0       4        0.0%
BITSFR3              0      0       0       4        0.0%
SFR3                 0      0       0       4        0.0%
BANK0               50     43      47       5       88.8%
BITSFR2              0      0       0       5        0.0%
SFR2                 0      0       0       5        0.0%
BITBANK1            50      0       0       6        0.0%
BANK1               50      0       0       7        0.0%
BITBANK3            60      0       0       8        0.0%
BANK3               60      0       0       9        0.0%
BITBANK2            60      0       0      10        0.0%
BANK2               60      0       0      11        0.0%
DATA                 0      0      55      12        0.0%


Microchip Technology PIC Macro Assembler V2.30 build 20200825195618 
Symbol Table                                                                                   Wed Dec 22 19:05:32 2021

             ___fldiv@aexp 0053               ___fldiv@bexp 0052                          pc 0002  
             ___fldiv@sign 004B                         l40 0E1E                         l33 0D32  
                       l43 0E2F                         l37 0DF7                         l38 0E13  
                       l39 0DFD                         l82 0F7F                         l91 0EC5  
                       l94 0F18                         fsr 0004        __Umul8_16@word_mpld 0076  
                      l100 0D93                        l120 0D56                        l121 0D59  
                      l122 0D5F                        l123 0D60                        l131 0D4C  
                      l124 0D66                        l125 0D67                        l117 0FFF  
                      l126 0D6D                        l128 0D6E                        l410 006A  
                      l403 007F                        l413 007F                        l612 0761  
                      l606 07F5                        l625 0DA8                        l618 07E9  
                      l650 00A2                        l627 0DBA                        l652 0139  
                      l590 0488                        l582 0406                        l566 0314  
                      l663 0103                        l568 0494                        l664 010F  
                      l656 00E7                        l489 0E73                        l499 0DF4  
                      l588 0478                        _RD2 0042                        _RD3 0043  
                      _RD4 0044                        _RD5 0045                        _RD6 0046  
                      _RD7 0047                        fsr0 0004                        indf 0000  
             ___flmul@aexp 0032               ___flmul@bexp 0033               ___flmul@sign 002D  
             ___flmul@temp 0038               ___flmul@prod 0034            __end_of_LCD_CMD 0D4D  
           _LCD_Set_Cursor 0E74               ___fltol@exp1 005E                       l2011 0E0B  
                     l1401 0D34                       l1403 0D37                       l1411 0E30  
                     l1405 0D3D                       l1501 0F24                       l1421 0E46  
                     l1413 0E32                       l1407 0D40                       l1511 0F4A  
                     l1503 0F2C                       l1431 0E69                       l1423 0E4A  
                     l1415 0E38                       l1409 0D49                       l1521 0F67  
                     l1513 0F4F                       l1505 0F35                       l1425 0E5B  
                     l1417 0E3B                       l1433 0E6F                       l1441 0DC4  
                     l1601 0030                       l1371 0D5D                       l1523 0F6D  
                     l1515 0F55                       l1507 0F3B                       l1531 0E7A  
                     l1427 0E61                       l1419 0E42                       l1451 0DE3  
                     l1443 0DCB                       l1603 0038                       l1373 0D64  
                     l1525 0F73                       l1517 0F5B                       l1509 0F44  
                     l1541 0EA3                       l1533 0E8B                       l1381 0ED4  
                     l1429 0E62                       l1453 0DEA                       l1445 0DCF  
                     l1437 0DBB                       l1701 0394                       l1461 0D97  
                     l1621 005F                       l1613 0046                       l1605 003A  
                     l1375 0D6B                       l1367 0D4E                       l1527 0F79  
                     l1519 0F61                       l1543 0EB4                       l1535 0E90  
                     l1391 0EFA                       l1383 0EE2                       l1447 0DD3  
                     l1439 0DC1                       l1455 0DF0                       l1551 0D73  
                     l1711 03BF                       l1703 03A6                       l1631 02C5  
                     l1463 0D9E                       l1623 006F                       l1607 003E  
                     l1615 0058                       l1473 0D2A                       l1481 0E1B  
                     l1369 0D52                       l1545 0EB9                       l1537 0E96  
                     l1529 0E75                       l1393 0F00                       l1385 0EE5  
                     l1377 0EC7                       l1449 0DDD                       l1561 0F8A  
                     l1553 0D80                       l1721 03D7                       l1713 03C7  
                     l1705 03A7                       l1641 02DC                       l1633 02C9  
                     l1465 0DA2                       l1801 04E5                       l1625 0074  
                     l1483 0E22                       l1475 0DF6                       l1547 0EBF  
                     l1539 0E9D                       l1395 0F03                       l1387 0EEE  
                     l1379 0ED1                       l1571 0FB7                       l1563 0F8F  
                     l1555 0D86                       l1731 03EF                       l1723 03E0  
                     l1715 03C9                       l1707 03B5                       l1651 02F2  
                     l1643 02DD                       l1635 02CA                       l1627 02B8  
                     l1467 0DB1                       l1459 0D95                       l1803 04E7  
                     l1485 0E28                       l1477 0E03                       l1493 0F19  
                     l1397 0F0C                       l1389 0EF1                       l1573 0FCA  
                     l1565 0F96                       l1557 0F80                       l1549 0D70  
                     l1741 041E                       l1733 0403                       l1717 03D2  
                     l1725 03E6                       l1709 03B9                       l1661 0309  
                     l1653 02F6                       l1637 02CF                       l1645 02DF  
                     l1629 02BF                       l1469 0DB6                       l1901 07E1  
                     l1821 0558                       l1813 0502                       l1805 04EF  
                     l1479 0E16                       l1495 0F1C                       l1399 0F0F  
                     l1583 0FE5                       l1575 0FD0                       l1559 0F84  
                     l1751 045C                       l1743 0422                       l1727 03EA  
                     l1719 03D6                       l1671 032C                       l1663 030A  
                     l1655 02F7                       l1647 02E7                       l1639 02D4  
                     l1903 07E2                       l1831 05D5                       l1823 0584  
                     l1815 0512                       l1807 04F4                       l1591 0004  
                     l1911 0086                       l1497 0F1D                       l1585 0FF0  
                     l1577 0FD6                       l1569 0F9D                       l1761 0482  
                     l1753 046B                       l1745 043B                       l1737 040B  
                     l1729 03EB                       l1681 0343                       l1657 02FC  
                     l1665 030C                       l1649 02EC                       l1905 07ED  
                     l1841 0655                       l1833 05F2                       l1825 05A0  
                     l1817 051F                       l1809 04F9                       l1593 0011  
                     l1921 00B3                       l1913 008A                       l1499 0F1E  
                     l1587 0FF6                       l1579 0FE0                       l1763 0484  
                     l1755 046F                       l1739 0410                       l1747 0441  
                     l1691 036F                       l1683 0355                       l1667 031C  
                     l1675 0335                       l1659 0301                       l1851 070D  
                     l1843 0682                       l1835 0602                       l1827 05BC  
                     l1819 053C                       l1771 049C                       l1931 00DE  
                     l1923 00B8                       l1915 009A        LCD_Write_String@str 0078  
                     l1757 0477                       l1749 044E                       l1693 0374  
                     l1685 035D                       l1677 033A                       l1669 0328  
                     l1861 0732                       l1853 0716                       l1845 0692  
                     l1837 061F                       l1829 05C5                       l1781 04B1  
                     l1773 04A2                       l1597 001A                       l1941 0111  
                     l1933 00EE                       l1925 00C5                       l1917 00AA  
                     l1909 0081                       l1759 047E                       l1695 0386  
                     l1687 0365                       l1871 074A                       l1863 073B  
                     l1855 0724                       l1847 06BF                       l1839 0638  
                     l1791 04CE                       l1783 04B9                       l1775 04A6  
                     l1599 002F                       l1943 0127                       l1935 00F9  
                     l1927 00CC                       l1697 038A                       l1689 036D  
                     l1881 0779                       l1873 075E                       l1857 072D  
                     l1865 0741                       l1849 06E5                       l1793 04D2  
                     l1785 04BB                       l1777 04A7                       l1769 0495  
                     l1945 012C                       l1937 00FD                       l1929 00D0  
                     l1961 0194                       l1953 013A                       l1699 038B  
                     l1891 07B4                       l1883 077D                       l1867 0745  
                     l1859 0731                       l1795 04D3                       l1787 04C3  
                     l1779 04AC                       l1947 0130                       l1939 0107  
                     l1971 0262                       l1963 01EB                       l1955 0144  
                     l1893 07C3                       l1885 0796                       l1877 0766  
                     l1869 0746                       l1797 04D8                       l1789 04C8  
                     l1949 0131                       l1981 02A3                       l1973 026B  
                     l1965 01F1                       l1957 0150                       l1895 07CD  
                     l1879 076B                       l1887 079C                       l1799 04DD  
                     l1983 02AE                       l1975 028F                       l1967 020F  
                     l1959 0188                       l1897 07CF                       l1889 07A9  
                     l1977 0297                       l1969 0231                       l1899 07DD  
                     l1979 029D                       _ADON 00F8                       _CHS0 00FB  
                     _CHS1 00FC                       _CHS2 00FD                       STR_1 080B  
                     STR_2 0814                       STR_3 0806                       STR_4 0818  
                     STR_5 0810                       u2001 054A                       u2002 0551  
                     u2011 0566                       u2003 0558                       u1220 0D52  
                     u2012 056D                       u1221 0D51                       u2101 06A1  
                     u2021 0592                       u2013 0574                       u1230 0D5D  
                     u1310 0E5B                       u2110 06CB                       u2102 06A8  
                     u2022 0599                       u1231 0D5C                       u1311 0E5A  
                     u2103 06AF                       u2031 05AE                       u2023 05A0  
                     u1240 0D64                       u1400 0DA2                       u2200 074A  
                     u2032 05B5                       u1241 0D63                       u1305 0E4B  
                     u1401 0DA1                       u2201 0749                       u2121 06D7  
                     u2033 05BC                       u1250 0D6B                       u1330 0E6F  
                     u2210 075E                       u2130 06F3                       u2122 06DE  
                     u1251 0D6A                       u1331 0E6E                       u1315 0E57  
                     u2211 075D                       u2123 06E5                       u2115 06C6  
                     u2051 05E4                       u1340 0DC1                       u1500 0F9C  
                     u1420 0DB6                       u2220 0765                       u2052 05EB  
                     u2300 008A                       u1325 0E63                       u1341 0DC0  
                     u1501 0F9B                       u1421 0DB5                       u2221 0764  
                     u2141 06FF                       u2061 0611                       u2053 05F2  
                     u2045 05BE                       u2301 0089                       u1430 0E22  
                     u1270 0E38                       u1510 0FD6                       u2230 076B  
                     u2142 0706                       u2062 0618                       u2310 00AA  
                     u1431 0E21                       u1271 0E37                       u1511 0FD5  
                     u1415 0DA9                       u2231 076A                       u2143 070D  
                     u2135 06EE                       u2063 061F                       u2311 00A9  
                     u1440 0E7A                       u1360 0DD3                       u1520 0FE4  
                     u2240 077D                       u2400 011C                       u1441 0E79  
                     u1265 0ED7                       u1361 0DD2                       u1521 0FE3  
                     u2241 077C                       u2081 0647                       u1290 0E4A  
                     u1370 0DDD                       u2250 078C                       u2170 0731  
                     u2082 064E                       u1610 006F                       u1530 0011  
                     u2410 012C                       u2330 00CB                       u1291 0E49  
                     u1371 0DDC                       u1355 0DC5                       u2171 0730  
                     u2155 070F                       u2091 0674                       u2083 0655  
                     u2075 0621                       u1611 006E                       u1531 0010  
                     u2411 012B                       u2331 00CA                       u1460 0EA3  
                     u1700 033A                       u2260 07A9                       u2092 067B  
                     u1620 0074                       u1540 0028                       u2420 0130  
                     u1461 0EA2                       u1285 0E3C                       u1701 0339  
                     u2261 07A8                       u2165 0726                       u2093 0682  
                     u1621 0073                       u1605 0061                       u2421 012F  
                     u2405 0117                       u2325 00BD                       u1390 0DF0  
                     u1710 0374                       u1630 02C9                       u2270 07C3  
                     u2190 0745                       u1550 003E                       u2350 00ED  
                     u1455 0E82                       u1391 0DEF                       u1375 0DD9  
                     u1711 0373                       u1631 02C8                       u2271 07C2  
                     u2255 0787                       u2191 0744                       u1551 003D  
                     u2351 00EC                       u1480 0D93                       u1800 03D6  
                     u1640 02CF                       u2280 07E1                       u1560 0045  
                     u1385 0DE4                       u1481 0D92                       u1801 03D5  
                     u1641 02CE                       u2281 07E0                       u2265 07A5  
                     u2185 0734                       u1561 0044                       u1545 0023  
                     u2345 00DF                       u1490 0F8A                       u1650 02D4  
                     u2370 00FD                       u2290 0086                       u2507 0F4C  
                     u1475 0EAB                       u1491 0F89                       u1651 02D3  
                     u2275 07BF                       u2371 00FC                       u2291 0085  
                     u1900 046B                       u1820 03EA                       u1740 038A  
                     u1660 02F6                       u1580 0057                       u2380 0103  
                     u2517 0D44                       u2437 0EE9                       u1901 046A  
                     u1821 03E9                       u1741 0389                       u1725 0376  
                     u1661 02F5                       u1581 0056                       u2381 0102  
                     u2365 00F2                       u1910 0482                       u1830 03EF  
                     u1670 02FC                       u1590 005E                       u2390 0107  
                     u2527 0E18                       u2447 0EF5                       u1911 0481  
                     u1831 03EE                       u1815 03D9                       u1735 037F  
                     u1671 02FB                       u1591 005D                       u1575 0047  
                     u2391 0106                       u1840 0403                       u1760 03A6  
                     u1680 0301                       u1920 04A6                       u2457 0F07  
                     u1905 0467                       u1841 0402                       u1761 03A5  
                     u1681 0300                       u1921 04A5                       u1850 040A  
                     u1770 03BF                       u1690 031C                       u1930 04AC  
                     u2467 0F13                       u1851 0409                       u1771 03BE  
                     u1755 038D                       u1691 031B                       u1931 04AB  
                     u1860 0410                       u1780 03C7                       u1940 04B1  
                     u2477 0F28                       u1861 040F                       u1781 03C6  
                     u1765 03A2                       u1941 04B0                       u1870 0422  
                     u1950 04D2                       u2487 0F30                       u1871 0421  
                     u1951 04D1                       u1880 0431                       u1960 04D8  
                     u2497 0F3F                       u1961 04D7                       u1890 044E  
                     u1970 04DD                       u1891 044D                       u1795 03CB  
                     u1971 04DC                       u1980 04F4                       u1885 042C  
                     u1981 04F3                       u1990 04F9                       u1895 044A  
                     u1991 04F8          ?_LCD_Write_Number 0020          ?_LCD_Write_String 0070  
                     _ampe 0063                       _main 013A                       btemp 007E  
       ??_LCD_Write_Number 0022           __end_of_ADC_Init 0D33           __end_of_ADC_Read 0E30  
                     start 0000         ??_LCD_Write_String 0076            ___fldiv@new_exp 004C  
         __end_of_LCD_DATA 0D6F           __end_of_LCD_Init 0F80              ___fltol@sign1 005D  
                    ?_main 0070            __end_of___fldiv 0495            __end_of___flmul 07F6  
          __end_of___fltol 0080            __end_of___lwdiv 0E74            __end_of___lwmod 0DF5  
                    _TRISD 0088     __end_of_LCD_Set_Cursor 0EC6                      pclath 000A  
                    status 0003                      wtemp0 007E             _LCD_Write_Char 0EC6  
          __initialization 07F6               __end_of_main 02B8                     ??_main 007E  
                ??_LCD_CMD 0071            ?_LCD_Set_Cursor 0074                     _ADCON0 001F  
                   _ADCON1 009F                     _ADRESH 001E                     _ADRESL 009E  
          ADC_Read@Channel 0076                     _TRISD2 0442                     _TRISD3 0443  
         __end_of___xxtofl 013A     __end_of_LCD_Write_Char 0F19                  ??___fldiv 0042  
                ??___flmul 0028                  ??___fltol 0058                  ??___lwdiv 007A  
                ??___lwmod 0074         __size_of__Umul8_16 0027                  ?_ADC_Init 0070  
                ?_ADC_Read 0070            LCD_Set_Cursor@c 0074            LCD_Set_Cursor@r 0077  
                ?_LCD_DATA 0070               ___xxtofl@arg 007A               ___xxtofl@exp 0079  
             ___xxtofl@val 0070    __end_of__initialization 07FC                  ?_LCD_Init 0070  
               ___fltol@f1 0054            ?_LCD_Write_Char 0070             __pcstackCOMMON 0070  
               ??_ADC_Init 0070                 ??_ADC_Read 0072                 __pbssBANK0 0063  
               ??_LCD_DATA 0070                 ??_LCD_Init 0074          __end_of__Umul8_16 0DBB  
               __pmaintext 013A  __size_of_LCD_Write_Number 0080  __size_of_LCD_Write_String 0025  
                  _LCD_CMD 0D33                  ?___xxtofl 0070                    _GO_DONE 00FA  
               __stringtab 0800                    ___fldiv 02B8                    ___flmul 0495  
                  ___fltol 0004                    ___lwdiv 0E30                    ___lwmod 0DBB  
         ??_LCD_Set_Cursor 0075                    __ptext1 0080                    __ptext2 0004  
                  __ptext3 0495                    __ptext4 0D94                    __ptext5 02B8  
                  __ptext6 0D6F                    __ptext7 0F80                    __ptext8 0DBB  
                  __ptext9 0E30                 ??___xxtofl 0074                    _voltage 0065  
     end_of_initialization 07FC                 LCD_CMD@CMD 0073          LCD_Write_Number@c 003A  
        LCD_Write_Number@k 0038          LCD_Write_Number@p 003B              ___xxtofl@sign 0078  
              ___fldiv@grs 004E                ___fldiv@rem 0047          __size_of_ADC_Init 0009  
        __size_of_ADC_Read 003B          LCD_Write_String@i 0076           ??_LCD_Write_Char 0071  
              ___flmul@grs 002E          __size_of_LCD_DATA 0022          __size_of_LCD_Init 0067  
         _LCD_Write_Number 0F80           _LCD_Write_String 0D6F        start_initialization 07F6  
                __Umul8_16 0D94                   ?_LCD_CMD 0070                  ___fldiv@a 003A  
                ___fldiv@b 003E                  ___flmul@a 0024                  ___flmul@b 0020  
                ___latbits 0002              __pcstackBANK0 0020          __size_of___xxtofl 00BA  
         ___lwdiv@dividend 0078                   ?___fldiv 003A                   ?___flmul 0020  
                 ?___fltol 0054                 ?__Umul8_16 0070                   ?___lwdiv 0076  
                 ?___lwmod 0070                  __pstrings 0800                   _ADC_Init 0D2A  
                 _ADC_Read 0DF5           ___lwdiv@quotient 007B                   _LCD_DATA 0D4D  
                 _LCD_Init 0F19                __stringbase 0805           __size_of_LCD_CMD 001A  
 __end_of_LCD_Write_Number 1000   __end_of_LCD_Write_String 0D94        LCD_Write_Char@High4 0074  
            ADC_Read@value 0074                ??__Umul8_16 0072           __size_of___fldiv 01DD  
         __size_of___flmul 0361           __size_of___fltol 007C           __size_of___lwdiv 0044  
         __size_of___lwmod 003A         __end_of__stringtab 0806                   ___xxtofl 0080  
                 _main$741 0061                   _main$742 005F            ___lwdiv@divisor 0076  
          ___lwdiv@counter 007D                   __ptext10 0EC6                   __ptext11 0E74  
                 __ptext12 0F19                   __ptext13 0D33                   __ptext14 0D4D  
                 __ptext15 0DF5                   __ptext16 0D2A    __size_of_LCD_Set_Cursor 0052  
            __size_of_main 017E        LCD_Set_Cursor@High4 0079     LCD_Write_Number@number 0020  
       LCD_Write_Char@Data 0075         LCD_Write_Char@Low4 0073           ___lwmod@dividend 0072  
                stringcode 0800    __size_of_LCD_Write_Char 0053         LCD_Set_Cursor@Low4 0078  
       LCD_Set_Cursor@Temp 007A     __Umul8_16@multiplicand 0070               LCD_DATA@Data 0070  
          ___lwmod@divisor 0070            ___lwmod@counter 0075                   stringdir 0800  
                 stringtab 0800        LCD_Write_Number@num 0024       __Umul8_16@multiplier 0078  
        __Umul8_16@product 0074  
